ARM GAS  /tmp/ccz39ptK.s 			page 1


   1              		.cpu cortex-m7
   2              		.eabi_attribute 27, 1
   3              		.eabi_attribute 20, 1
   4              		.eabi_attribute 21, 1
   5              		.eabi_attribute 23, 3
   6              		.eabi_attribute 24, 1
   7              		.eabi_attribute 25, 1
   8              		.eabi_attribute 26, 1
   9              		.eabi_attribute 30, 4
  10              		.eabi_attribute 34, 1
  11              		.eabi_attribute 18, 4
  12              		.file	"main.c"
  13              		.text
  14              		.section	.text.SystemClock_Config,"ax",%progbits
  15              		.align	1
  16              		.global	SystemClock_Config
  17              		.arch armv7e-m
  18              		.syntax unified
  19              		.thumb
  20              		.thumb_func
  21              		.fpu fpv5-sp-d16
  23              	SystemClock_Config:
  24              		@ args = 0, pretend = 0, frame = 208
  25              		@ frame_needed = 0, uses_anonymous_args = 0
  26 0000 30B5     		push	{r4, r5, lr}
  27 0002 0024     		movs	r4, #0
  28 0004 B5B0     		sub	sp, sp, #212
  29 0006 1422     		movs	r2, #20
  30 0008 0225     		movs	r5, #2
  31 000a 2146     		mov	r1, r4
  32 000c 03A8     		add	r0, sp, #12
  33 000e 0C94     		str	r4, [sp, #48]
  34 0010 CDE90A44 		strd	r4, r4, [sp, #40]
  35 0014 FFF7FEFF 		bl	memset
  36 0018 2146     		mov	r1, r4
  37 001a 8022     		movs	r2, #128
  38 001c 14A8     		add	r0, sp, #80
  39 001e FFF7FEFF 		bl	memset
  40 0022 224B     		ldr	r3, .L2
  41 0024 4FF48001 		mov	r1, #4194304
  42 0028 08A8     		add	r0, sp, #32
  43 002a 1A6C     		ldr	r2, [r3, #64]
  44 002c 42F08052 		orr	r2, r2, #268435456
  45 0030 1A64     		str	r2, [r3, #64]
  46 0032 1B6C     		ldr	r3, [r3, #64]
  47 0034 03F08053 		and	r3, r3, #268435456
  48 0038 0193     		str	r3, [sp, #4]
  49 003a 019B     		ldr	r3, [sp, #4]
  50 003c 1C4B     		ldr	r3, .L2+4
  51 003e 1A68     		ldr	r2, [r3]
  52 0040 42F44042 		orr	r2, r2, #49152
  53 0044 1A60     		str	r2, [r3]
  54 0046 4FF48032 		mov	r2, #65536
  55 004a 1B68     		ldr	r3, [r3]
  56 004c 03F44043 		and	r3, r3, #49152
  57 0050 0293     		str	r3, [sp, #8]
  58 0052 029B     		ldr	r3, [sp, #8]
ARM GAS  /tmp/ccz39ptK.s 			page 2


  59 0054 0923     		movs	r3, #9
  60 0056 CDE90832 		strd	r3, r2, [sp, #32]
  61 005a 0122     		movs	r2, #1
  62 005c 1393     		str	r3, [sp, #76]
  63 005e CDE90D25 		strd	r2, r5, [sp, #52]
  64 0062 0422     		movs	r2, #4
  65 0064 CDE90F12 		strd	r1, r2, [sp, #60]
  66 0068 D822     		movs	r2, #216
  67 006a CDE91125 		strd	r2, r5, [sp, #68]
  68 006e FFF7FEFF 		bl	HAL_RCC_OscConfig
  69 0072 FFF7FEFF 		bl	HAL_PWREx_EnableOverDrive
  70 0076 0F23     		movs	r3, #15
  71 0078 4FF4A050 		mov	r0, #5120
  72 007c 0721     		movs	r1, #7
  73 007e 0594     		str	r4, [sp, #20]
  74 0080 CDE90335 		strd	r3, r5, [sp, #12]
  75 0084 4FF48053 		mov	r3, #4096
  76 0088 CDE90603 		strd	r0, r3, [sp, #24]
  77 008c 03A8     		add	r0, sp, #12
  78 008e FFF7FEFF 		bl	HAL_RCC_ClockConfig
  79 0092 084B     		ldr	r3, .L2+8
  80 0094 14A8     		add	r0, sp, #80
  81 0096 2494     		str	r4, [sp, #144]
  82 0098 1493     		str	r3, [sp, #80]
  83 009a 4FF40073 		mov	r3, #512
  84 009e 3194     		str	r4, [sp, #196]
  85 00a0 1E93     		str	r3, [sp, #120]
  86 00a2 FFF7FEFF 		bl	HAL_RCCEx_PeriphCLKConfig
  87 00a6 35B0     		add	sp, sp, #212
  88              		@ sp needed
  89 00a8 30BD     		pop	{r4, r5, pc}
  90              	.L3:
  91 00aa 00BF     		.align	2
  92              	.L2:
  93 00ac 00380240 		.word	1073887232
  94 00b0 00700040 		.word	1073770496
  95 00b4 A0002000 		.word	2097312
  97              		.section	.text.startup.main,"ax",%progbits
  98              		.align	1
  99              		.global	main
 100              		.syntax unified
 101              		.thumb
 102              		.thumb_func
 103              		.fpu fpv5-sp-d16
 105              	main:
 106              		@ args = 0, pretend = 0, frame = 168
 107              		@ frame_needed = 0, uses_anonymous_args = 0
 108 0000 2DE9F041 		push	{r4, r5, r6, r7, r8, lr}
 109 0004 C2B0     		sub	sp, sp, #264
 110              		.syntax unified
 111              	@ 879 "Drivers/CMSIS/Include/cmsis_gcc.h" 1
 112 0006 BFF34F8F 		dsb 0xF
 113              	@ 0 "" 2
 114              	@ 868 "Drivers/CMSIS/Include/cmsis_gcc.h" 1
 115 000a BFF36F8F 		isb 0xF
 116              	@ 0 "" 2
 117              		.thumb
ARM GAS  /tmp/ccz39ptK.s 			page 3


 118              		.syntax unified
 119 000e 7B4B     		ldr	r3, .L18
 120 0010 0021     		movs	r1, #0
 121 0012 C3F85012 		str	r1, [r3, #592]
 122              		.syntax unified
 123              	@ 879 "Drivers/CMSIS/Include/cmsis_gcc.h" 1
 124 0016 BFF34F8F 		dsb 0xF
 125              	@ 0 "" 2
 126              	@ 868 "Drivers/CMSIS/Include/cmsis_gcc.h" 1
 127 001a BFF36F8F 		isb 0xF
 128              	@ 0 "" 2
 129              		.thumb
 130              		.syntax unified
 131 001e 5A69     		ldr	r2, [r3, #20]
 132 0020 42F40032 		orr	r2, r2, #131072
 133 0024 5A61     		str	r2, [r3, #20]
 134              		.syntax unified
 135              	@ 879 "Drivers/CMSIS/Include/cmsis_gcc.h" 1
 136 0026 BFF34F8F 		dsb 0xF
 137              	@ 0 "" 2
 138              	@ 868 "Drivers/CMSIS/Include/cmsis_gcc.h" 1
 139 002a BFF36F8F 		isb 0xF
 140              	@ 0 "" 2
 141              		.thumb
 142              		.syntax unified
 143 002e C3F88410 		str	r1, [r3, #132]
 144              		.syntax unified
 145              	@ 879 "Drivers/CMSIS/Include/cmsis_gcc.h" 1
 146 0032 BFF34F8F 		dsb 0xF
 147              	@ 0 "" 2
 148              		.thumb
 149              		.syntax unified
 150 0036 D3F88020 		ldr	r2, [r3, #128]
 151 003a 43F6E074 		movw	r4, #16352
 152 003e C2F3C900 		ubfx	r0, r2, #3, #10
 153 0042 C2F34E32 		ubfx	r2, r2, #13, #15
 154 0046 5201     		lsls	r2, r2, #5
 155              	.L6:
 156 0048 02EA0406 		and	r6, r2, r4
 157 004c 0146     		mov	r1, r0
 158              	.L5:
 159 004e 46EA8175 		orr	r5, r6, r1, lsl #30
 160 0052 11F1FF31 		adds	r1, r1, #-1
 161 0056 C3F86052 		str	r5, [r3, #608]
 162 005a F8D2     		bcs	.L5
 163 005c 203A     		subs	r2, r2, #32
 164 005e 12F1200F 		cmn	r2, #32
 165 0062 F1D1     		bne	.L6
 166              		.syntax unified
 167              	@ 879 "Drivers/CMSIS/Include/cmsis_gcc.h" 1
 168 0064 BFF34F8F 		dsb 0xF
 169              	@ 0 "" 2
 170              		.thumb
 171              		.syntax unified
 172 0068 5A69     		ldr	r2, [r3, #20]
 173 006a 42F48032 		orr	r2, r2, #65536
 174 006e 5A61     		str	r2, [r3, #20]
ARM GAS  /tmp/ccz39ptK.s 			page 4


 175              		.syntax unified
 176              	@ 879 "Drivers/CMSIS/Include/cmsis_gcc.h" 1
 177 0070 BFF34F8F 		dsb 0xF
 178              	@ 0 "" 2
 179              	@ 868 "Drivers/CMSIS/Include/cmsis_gcc.h" 1
 180 0074 BFF36F8F 		isb 0xF
 181              	@ 0 "" 2
 182              		.thumb
 183              		.syntax unified
 184 0078 FFF7FEFF 		bl	HAL_Init
 185 007c FFF7FEFF 		bl	SystemClock_Config
 186 0080 FFF7FEFF 		bl	MX_GPIO_Init
 187 0084 FFF7FEFF 		bl	MX_DMA_Init
 188 0088 FFF7FEFF 		bl	MX_SPI2_Init
 189 008c FFF7FEFF 		bl	MX_USB_DEVICE_Init
 190 0090 FFF7FEFF 		bl	MX_DAC_Init
 191 0094 FFF7FEFF 		bl	MX_RTC_Init
 192 0098 FFF7FEFF 		bl	MX_CRC_Init
 193 009c FFF7FEFF 		bl	MX_USART2_UART_Init
 194 00a0 FFF7FEFF 		bl	MX_SPI3_Init
 195 00a4 564A     		ldr	r2, .L18+4
 196 00a6 1368     		ldr	r3, [r2]
 197 00a8 43F48033 		orr	r3, r3, #65536
 198 00ac 1360     		str	r3, [r2]
 199 00ae 4FF47023 		mov	r3, #983040
 200              		.syntax unified
 201              	@ 988 "Drivers/CMSIS/Include/cmsis_gcc.h" 1
 202 00b2 93FAA3F3 		rbit r3, r3
 203              	@ 0 "" 2
 204              		.thumb
 205              		.syntax unified
 206 00b6 4FF44032 		mov	r2, #196608
 207 00ba B3FA83F3 		clz	r3, r3
 208 00be 5149     		ldr	r1, .L18+8
 209 00c0 DA40     		lsrs	r2, r2, r3
 210 00c2 514C     		ldr	r4, .L18+12
 211 00c4 DFF85C81 		ldr	r8, .L18+40
 212 00c8 51F82230 		ldr	r3, [r1, r2, lsl #2]
 213 00cc 4F4E     		ldr	r6, .L18+16
 214 00ce 23F47F63 		bic	r3, r3, #4080
 215 00d2 4F4F     		ldr	r7, .L18+20
 216 00d4 23F00F03 		bic	r3, r3, #15
 217 00d8 43F06403 		orr	r3, r3, #100
 218 00dc 41F82230 		str	r3, [r1, r2, lsl #2]
 219 00e0 FFF7FEFF 		bl	adns3080_init
 220 00e4 FFF7FEFF 		bl	ser_imu_enable
 221 00e8 0023     		movs	r3, #0
 222 00ea 2370     		strb	r3, [r4]
 223              	.L9:
 224 00ec FFF7FEFF 		bl	cdc_rx_tick
 225 00f0 2378     		ldrb	r3, [r4]	@ zero_extendqisi2
 226 00f2 03F0FF02 		and	r2, r3, #255
 227 00f6 002B     		cmp	r3, #0
 228 00f8 6ED0     		beq	.L7
 229 00fa 012A     		cmp	r2, #1
 230 00fc 71D1     		bne	.L8
 231 00fe 3378     		ldrb	r3, [r6]	@ zero_extendqisi2
ARM GAS  /tmp/ccz39ptK.s 			page 5


 232 0100 002B     		cmp	r3, #0
 233 0102 69D0     		beq	.L7
 234 0104 0023     		movs	r3, #0
 235 0106 3370     		strb	r3, [r6]
 236 0108 FFF7FEFF 		bl	HAL_GetTick
 237 010c 3B68     		ldr	r3, [r7]
 238 010e C31A     		subs	r3, r0, r3
 239 0110 9DB2     		uxth	r5, r3
 240 0112 FFF7FEFF 		bl	HAL_GetTick
 241 0116 1CAA     		add	r2, sp, #112
 242 0118 3860     		str	r0, [r7]
 243 011a 1AA9     		add	r1, sp, #104
 244 011c 18A8     		add	r0, sp, #96
 245 011e FFF7FEFF 		bl	ser_imu_get
 246 0122 1EA9     		add	r1, sp, #120
 247 0124 3B48     		ldr	r0, .L18+24
 248 0126 FFF7FEFF 		bl	adns3080_motion
 249 012a 20A9     		add	r1, sp, #128
 250 012c 3A48     		ldr	r0, .L18+28
 251 012e FFF7FEFF 		bl	adns3080_motion
 252 0132 9DF98630 		ldrsb	r3, [sp, #134]
 253 0136 394A     		ldr	r2, .L18+32
 254 0138 8021     		movs	r1, #128
 255 013a 1693     		str	r3, [sp, #88]
 256 013c 22A8     		add	r0, sp, #136
 257 013e 9DF98530 		ldrsb	r3, [sp, #133]
 258 0142 1593     		str	r3, [sp, #84]
 259 0144 9DF98430 		ldrsb	r3, [sp, #132]
 260 0148 1493     		str	r3, [sp, #80]
 261 014a 9DF98330 		ldrsb	r3, [sp, #131]
 262 014e 1393     		str	r3, [sp, #76]
 263 0150 9DF98230 		ldrsb	r3, [sp, #130]
 264 0154 1293     		str	r3, [sp, #72]
 265 0156 9DF98130 		ldrsb	r3, [sp, #129]
 266 015a 1193     		str	r3, [sp, #68]
 267 015c 9DF88030 		ldrb	r3, [sp, #128]	@ zero_extendqisi2
 268 0160 1093     		str	r3, [sp, #64]
 269 0162 9DF97E30 		ldrsb	r3, [sp, #126]
 270 0166 0F93     		str	r3, [sp, #60]
 271 0168 9DF97D30 		ldrsb	r3, [sp, #125]
 272 016c 0E93     		str	r3, [sp, #56]
 273 016e 9DF97C30 		ldrsb	r3, [sp, #124]
 274 0172 0D93     		str	r3, [sp, #52]
 275 0174 9DF97B30 		ldrsb	r3, [sp, #123]
 276 0178 0C93     		str	r3, [sp, #48]
 277 017a 9DF97A30 		ldrsb	r3, [sp, #122]
 278 017e 0B93     		str	r3, [sp, #44]
 279 0180 9DF97930 		ldrsb	r3, [sp, #121]
 280 0184 0A93     		str	r3, [sp, #40]
 281 0186 9DF87830 		ldrb	r3, [sp, #120]	@ zero_extendqisi2
 282 018a 0993     		str	r3, [sp, #36]
 283 018c BDF97430 		ldrsh	r3, [sp, #116]
 284 0190 0893     		str	r3, [sp, #32]
 285 0192 BDF97230 		ldrsh	r3, [sp, #114]
 286 0196 0793     		str	r3, [sp, #28]
 287 0198 BDF97030 		ldrsh	r3, [sp, #112]
 288 019c 0693     		str	r3, [sp, #24]
ARM GAS  /tmp/ccz39ptK.s 			page 6


 289 019e BDF96C30 		ldrsh	r3, [sp, #108]
 290 01a2 0593     		str	r3, [sp, #20]
 291 01a4 BDF96A30 		ldrsh	r3, [sp, #106]
 292 01a8 0493     		str	r3, [sp, #16]
 293 01aa BDF96830 		ldrsh	r3, [sp, #104]
 294 01ae 0393     		str	r3, [sp, #12]
 295 01b0 BDF96430 		ldrsh	r3, [sp, #100]
 296 01b4 0293     		str	r3, [sp, #8]
 297 01b6 BDF96230 		ldrsh	r3, [sp, #98]
 298 01ba 0193     		str	r3, [sp, #4]
 299 01bc BDF96030 		ldrsh	r3, [sp, #96]
 300 01c0 0093     		str	r3, [sp]
 301 01c2 2B46     		mov	r3, r5
 302 01c4 FFF7FEFF 		bl	snprintf
 303 01c8 0146     		mov	r1, r0
 304 01ca 22A8     		add	r0, sp, #136
 305 01cc FFF7FEFF 		bl	CDC_Transmit_FS
 306 01d0 4021     		movs	r1, #64
 307 01d2 1348     		ldr	r0, .L18+36
 308 01d4 FFF7FEFF 		bl	HAL_GPIO_TogglePin
 309              	.L7:
 310 01d8 0121     		movs	r1, #1
 311 01da 0846     		mov	r0, r1
 312 01dc FFF7FEFF 		bl	HAL_PWR_EnterSLEEPMode
 313 01e0 84E7     		b	.L9
 314              	.L8:
 315 01e2 2378     		ldrb	r3, [r4]	@ zero_extendqisi2
 316 01e4 4246     		mov	r2, r8
 317 01e6 4021     		movs	r1, #64
 318 01e8 22A8     		add	r0, sp, #136
 319 01ea FFF7FEFF 		bl	snprintf
 320 01ee 0146     		mov	r1, r0
 321 01f0 22A8     		add	r0, sp, #136
 322 01f2 FFF7FEFF 		bl	CDC_Transmit_FS
 323 01f6 0023     		movs	r3, #0
 324 01f8 2370     		strb	r3, [r4]
 325 01fa EDE7     		b	.L7
 326              	.L19:
 327              		.align	2
 328              	.L18:
 329 01fc 00ED00E0 		.word	-536810240
 330 0200 00740040 		.word	1073771520
 331 0204 08740040 		.word	1073771528
 332 0208 00000000 		.word	odom
 333 020c 00000000 		.word	ser_imu_frame_flag
 334 0210 00000000 		.word	.LANCHOR0
 335 0214 00000000 		.word	hspi2
 336 0218 00000000 		.word	hspi3
 337 021c 00000000 		.word	.LC0
 338 0220 00000240 		.word	1073872896
 339 0224 51000000 		.word	.LC1
 341              		.section	.text.Error_Handler,"ax",%progbits
 342              		.align	1
 343              		.global	Error_Handler
 344              		.syntax unified
 345              		.thumb
 346              		.thumb_func
ARM GAS  /tmp/ccz39ptK.s 			page 7


 347              		.fpu fpv5-sp-d16
 349              	Error_Handler:
 350              		@ args = 0, pretend = 0, frame = 0
 351              		@ frame_needed = 0, uses_anonymous_args = 0
 352              		@ link register save eliminated.
 353 0000 7047     		bx	lr
 355              		.comm	odom,1,1
 356              		.section	.bss.last_tick.12633,"aw",%nobits
 357              		.align	2
 358              		.set	.LANCHOR0,. + 0
 361              	last_tick.12633:
 362 0000 00000000 		.space	4
 363              		.section	.rodata.main.str1.1,"aMS",%progbits,1
 364              	.LC0:
 365 0000 25642C25 		.ascii	"%d,%d,%d,%d,%d,%d,%d,%d,%d,%d,0x%02x,%d,%d,%d,%d,%d"
 365      642C2564 
 365      2C25642C 
 365      25642C25 
 365      642C2564 
 366 0033 2C25642C 		.ascii	",%d,0x%02x,%d,%d,%d,%d,%d,%d\012\000"
 366      30782530 
 366      32782C25 
 366      642C2564 
 366      2C25642C 
 367              	.LC1:
 368 0051 696E7661 		.ascii	"invalid odom mode: %d\012\000"
 368      6C696420 
 368      6F646F6D 
 368      206D6F64 
 368      653A2025 
 369              		.ident	"GCC: (GNU Tools for Arm Embedded Processors 8-2018-q4-major) 8.2.1 20181213 (release) [gcc
ARM GAS  /tmp/ccz39ptK.s 			page 8


DEFINED SYMBOLS
                            *ABS*:0000000000000000 main.c
     /tmp/ccz39ptK.s:15     .text.SystemClock_Config:0000000000000000 $t
     /tmp/ccz39ptK.s:23     .text.SystemClock_Config:0000000000000000 SystemClock_Config
     /tmp/ccz39ptK.s:93     .text.SystemClock_Config:00000000000000ac $d
     /tmp/ccz39ptK.s:98     .text.startup.main:0000000000000000 $t
     /tmp/ccz39ptK.s:105    .text.startup.main:0000000000000000 main
     /tmp/ccz39ptK.s:329    .text.startup.main:00000000000001fc $d
                            *COM*:0000000000000001 odom
     /tmp/ccz39ptK.s:342    .text.Error_Handler:0000000000000000 $t
     /tmp/ccz39ptK.s:349    .text.Error_Handler:0000000000000000 Error_Handler
     /tmp/ccz39ptK.s:357    .bss.last_tick.12633:0000000000000000 $d
     /tmp/ccz39ptK.s:361    .bss.last_tick.12633:0000000000000000 last_tick.12633

UNDEFINED SYMBOLS
memset
HAL_RCC_OscConfig
HAL_PWREx_EnableOverDrive
HAL_RCC_ClockConfig
HAL_RCCEx_PeriphCLKConfig
HAL_Init
MX_GPIO_Init
MX_DMA_Init
MX_SPI2_Init
MX_USB_DEVICE_Init
MX_DAC_Init
MX_RTC_Init
MX_CRC_Init
MX_USART2_UART_Init
MX_SPI3_Init
adns3080_init
ser_imu_enable
cdc_rx_tick
HAL_GetTick
ser_imu_get
adns3080_motion
snprintf
CDC_Transmit_FS
HAL_GPIO_TogglePin
HAL_PWR_EnterSLEEPMode
ser_imu_frame_flag
hspi2
hspi3
