ARM GAS  /tmp/ccJ4i0BL.s 			page 1


   1              		.cpu cortex-m7
   2              		.eabi_attribute 27, 1
   3              		.eabi_attribute 20, 1
   4              		.eabi_attribute 21, 1
   5              		.eabi_attribute 23, 3
   6              		.eabi_attribute 24, 1
   7              		.eabi_attribute 25, 1
   8              		.eabi_attribute 26, 1
   9              		.eabi_attribute 30, 4
  10              		.eabi_attribute 34, 1
  11              		.eabi_attribute 18, 4
  12              		.file	"rtc.c"
  13              		.text
  14              		.section	.text.MX_RTC_Init,"ax",%progbits
  15              		.align	1
  16              		.global	MX_RTC_Init
  17              		.arch armv7e-m
  18              		.syntax unified
  19              		.thumb
  20              		.thumb_func
  21              		.fpu fpv5-sp-d16
  23              	MX_RTC_Init:
  24              		@ args = 0, pretend = 0, frame = 0
  25              		@ frame_needed = 0, uses_anonymous_args = 0
  26 0000 08B5     		push	{r3, lr}
  27 0002 0A48     		ldr	r0, .L3
  28 0004 0023     		movs	r3, #0
  29 0006 0A4A     		ldr	r2, .L3+4
  30 0008 7F21     		movs	r1, #127
  31 000a 8361     		str	r3, [r0, #24]
  32 000c C0E90023 		strd	r2, r3, [r0]
  33 0010 FF22     		movs	r2, #255
  34 0012 C0E90433 		strd	r3, r3, [r0, #16]
  35 0016 C0E90212 		strd	r1, r2, [r0, #8]
  36 001a FFF7FEFF 		bl	HAL_RTC_Init
  37 001e 18B1     		cbz	r0, .L1
  38 0020 BDE80840 		pop	{r3, lr}
  39 0024 FFF7FEBF 		b	Error_Handler
  40              	.L1:
  41 0028 08BD     		pop	{r3, pc}
  42              	.L4:
  43 002a 00BF     		.align	2
  44              	.L3:
  45 002c 00000000 		.word	.LANCHOR0
  46 0030 00280040 		.word	1073752064
  48              		.section	.text.HAL_RTC_MspInit,"ax",%progbits
  49              		.align	1
  50              		.global	HAL_RTC_MspInit
  51              		.syntax unified
  52              		.thumb
  53              		.thumb_func
  54              		.fpu fpv5-sp-d16
  56              	HAL_RTC_MspInit:
  57              		@ args = 0, pretend = 0, frame = 128
  58              		@ frame_needed = 0, uses_anonymous_args = 0
  59 0000 10B5     		push	{r4, lr}
  60 0002 A0B0     		sub	sp, sp, #128
ARM GAS  /tmp/ccJ4i0BL.s 			page 2


  61 0004 0446     		mov	r4, r0
  62 0006 8022     		movs	r2, #128
  63 0008 0021     		movs	r1, #0
  64 000a 6846     		mov	r0, sp
  65 000c FFF7FEFF 		bl	memset
  66 0010 2268     		ldr	r2, [r4]
  67 0012 0A4B     		ldr	r3, .L11
  68 0014 9A42     		cmp	r2, r3
  69 0016 0FD1     		bne	.L5
  70 0018 2023     		movs	r3, #32
  71 001a 6846     		mov	r0, sp
  72 001c 0093     		str	r3, [sp]
  73 001e 4FF40073 		mov	r3, #512
  74 0022 0A93     		str	r3, [sp, #40]
  75 0024 FFF7FEFF 		bl	HAL_RCCEx_PeriphCLKConfig
  76 0028 08B1     		cbz	r0, .L7
  77 002a FFF7FEFF 		bl	Error_Handler
  78              	.L7:
  79 002e 044A     		ldr	r2, .L11+4
  80 0030 136F     		ldr	r3, [r2, #112]
  81 0032 43F40043 		orr	r3, r3, #32768
  82 0036 1367     		str	r3, [r2, #112]
  83              	.L5:
  84 0038 20B0     		add	sp, sp, #128
  85              		@ sp needed
  86 003a 10BD     		pop	{r4, pc}
  87              	.L12:
  88              		.align	2
  89              	.L11:
  90 003c 00280040 		.word	1073752064
  91 0040 00380240 		.word	1073887232
  93              		.section	.text.HAL_RTC_MspDeInit,"ax",%progbits
  94              		.align	1
  95              		.global	HAL_RTC_MspDeInit
  96              		.syntax unified
  97              		.thumb
  98              		.thumb_func
  99              		.fpu fpv5-sp-d16
 101              	HAL_RTC_MspDeInit:
 102              		@ args = 0, pretend = 0, frame = 0
 103              		@ frame_needed = 0, uses_anonymous_args = 0
 104              		@ link register save eliminated.
 105 0000 0268     		ldr	r2, [r0]
 106 0002 044B     		ldr	r3, .L15
 107 0004 9A42     		cmp	r2, r3
 108 0006 04D1     		bne	.L13
 109 0008 034A     		ldr	r2, .L15+4
 110 000a 136F     		ldr	r3, [r2, #112]
 111 000c 23F40043 		bic	r3, r3, #32768
 112 0010 1367     		str	r3, [r2, #112]
 113              	.L13:
 114 0012 7047     		bx	lr
 115              	.L16:
 116              		.align	2
 117              	.L15:
 118 0014 00280040 		.word	1073752064
 119 0018 00380240 		.word	1073887232
ARM GAS  /tmp/ccJ4i0BL.s 			page 3


 121              		.global	hrtc
 122              		.section	.bss.hrtc,"aw",%nobits
 123              		.align	2
 124              		.set	.LANCHOR0,. + 0
 127              	hrtc:
 128 0000 00000000 		.space	32
 128      00000000 
 128      00000000 
 128      00000000 
 128      00000000 
 129              		.ident	"GCC: (15:10.3-2021.07-4) 10.3.1 20210621 (release)"
ARM GAS  /tmp/ccJ4i0BL.s 			page 4

