ARM GAS  /tmp/ccBRADNZ.s 			page 1


   1              		.cpu cortex-m7
   2              		.eabi_attribute 27, 1
   3              		.eabi_attribute 20, 1
   4              		.eabi_attribute 21, 1
   5              		.eabi_attribute 23, 3
   6              		.eabi_attribute 24, 1
   7              		.eabi_attribute 25, 1
   8              		.eabi_attribute 26, 1
   9              		.eabi_attribute 30, 4
  10              		.eabi_attribute 34, 1
  11              		.eabi_attribute 18, 4
  12              		.file	"ser_imu.c"
  13              		.text
  14              		.section	.text.ser_imu_enable,"ax",%progbits
  15              		.align	1
  16              		.global	ser_imu_enable
  17              		.arch armv7e-m
  18              		.syntax unified
  19              		.thumb
  20              		.thumb_func
  21              		.fpu fpv5-sp-d16
  23              	ser_imu_enable:
  24              		@ args = 0, pretend = 0, frame = 0
  25              		@ frame_needed = 0, uses_anonymous_args = 0
  26              		@ link register save eliminated.
  27 0000 0448     		ldr	r0, .L2
  28 0002 0549     		ldr	r1, .L2+4
  29 0004 0268     		ldr	r2, [r0]
  30 0006 1368     		ldr	r3, [r2]
  31 0008 43F01003 		orr	r3, r3, #16
  32 000c 1360     		str	r3, [r2]
  33 000e 8022     		movs	r2, #128
  34 0010 FFF7FEBF 		b	HAL_UART_Receive_DMA
  35              	.L3:
  36              		.align	2
  37              	.L2:
  38 0014 00000000 		.word	huart2
  39 0018 00000000 		.word	.LANCHOR0
  41              		.section	.text.ser_imu_callback,"ax",%progbits
  42              		.align	1
  43              		.global	ser_imu_callback
  44              		.syntax unified
  45              		.thumb
  46              		.thumb_func
  47              		.fpu fpv5-sp-d16
  49              	ser_imu_callback:
  50              		@ args = 0, pretend = 0, frame = 0
  51              		@ frame_needed = 0, uses_anonymous_args = 0
  52              		@ link register save eliminated.
  53 0000 1B28     		cmp	r0, #27
  54 0002 0146     		mov	r1, r0
  55 0004 02D0     		beq	.L5
  56 0006 0948     		ldr	r0, .L8
  57 0008 FFF7FEBF 		b	CDC_Transmit_FS
  58              	.L5:
  59 000c 084B     		ldr	r3, .L8+4
  60 000e 0122     		movs	r2, #1
ARM GAS  /tmp/ccBRADNZ.s 			page 2


  61 0010 1A70     		strb	r2, [r3]
  62 0012 084B     		ldr	r3, .L8+8
  63 0014 084A     		ldr	r2, .L8+12
  64 0016 03F11401 		add	r1, r3, #20
  65              	.L6:
  66 001a 53F8040B 		ldr	r0, [r3], #4	@ unaligned
  67 001e 8B42     		cmp	r3, r1
  68 0020 42F8040B 		str	r0, [r2], #4	@ unaligned
  69 0024 F9D1     		bne	.L6
  70 0026 1B78     		ldrb	r3, [r3]	@ zero_extendqisi2
  71 0028 1370     		strb	r3, [r2]
  72 002a 7047     		bx	lr
  73              	.L9:
  74              		.align	2
  75              	.L8:
  76 002c 00000000 		.word	.LANCHOR0
  77 0030 00000000 		.word	.LANCHOR1
  78 0034 06000000 		.word	.LANCHOR0+6
  79 0038 00000000 		.word	ser_imu_last_data
  81              		.section	.text.ser_imu_get,"ax",%progbits
  82              		.align	1
  83              		.global	ser_imu_get
  84              		.syntax unified
  85              		.thumb
  86              		.thumb_func
  87              		.fpu fpv5-sp-d16
  89              	ser_imu_get:
  90              		@ args = 0, pretend = 0, frame = 0
  91              		@ frame_needed = 0, uses_anonymous_args = 0
  92 0000 084B     		ldr	r3, .L11
  93 0002 10B5     		push	{r4, lr}
  94 0004 1C68     		ldr	r4, [r3]	@ unaligned
  95 0006 0460     		str	r4, [r0]	@ unaligned
  96 0008 9C88     		ldrh	r4, [r3, #4]	@ unaligned
  97 000a 8480     		strh	r4, [r0, #4]	@ unaligned
  98 000c 1846     		mov	r0, r3
  99 000e 50F8074F 		ldr	r4, [r0, #7]!	@ unaligned
 100 0012 0C60     		str	r4, [r1]	@ unaligned
 101 0014 8088     		ldrh	r0, [r0, #4]	@ unaligned
 102 0016 8880     		strh	r0, [r1, #4]	@ unaligned
 103 0018 53F80E1F 		ldr	r1, [r3, #14]!	@ unaligned
 104 001c 1160     		str	r1, [r2]	@ unaligned
 105 001e 9B88     		ldrh	r3, [r3, #4]	@ unaligned
 106 0020 9380     		strh	r3, [r2, #4]	@ unaligned
 107 0022 10BD     		pop	{r4, pc}
 108              	.L12:
 109              		.align	2
 110              	.L11:
 111 0024 01000000 		.word	ser_imu_last_data+1
 113              		.global	ser_imu_frame_flag
 114              		.comm	ser_imu_last_data,32,1
 115              		.comm	odom,1,1
 116              		.section	.bss.ser_imu_frame_flag,"aw",%nobits
 117              		.set	.LANCHOR1,. + 0
 120              	ser_imu_frame_flag:
 121 0000 00       		.space	1
 122              		.section	.bss.ser_imu_rx_buff,"aw",%nobits
ARM GAS  /tmp/ccBRADNZ.s 			page 3


 123              		.set	.LANCHOR0,. + 0
 126              	ser_imu_rx_buff:
 127 0000 00000000 		.space	128
 127      00000000 
 127      00000000 
 127      00000000 
 127      00000000 
 128              		.ident	"GCC: (GNU Tools for Arm Embedded Processors 8-2018-q4-major) 8.2.1 20181213 (release) [gcc
ARM GAS  /tmp/ccBRADNZ.s 			page 4

