ARM GAS  /tmp/cc2IGIje.s 			page 1


   1              		.cpu cortex-m7
   2              		.eabi_attribute 27, 1
   3              		.eabi_attribute 20, 1
   4              		.eabi_attribute 21, 1
   5              		.eabi_attribute 23, 3
   6              		.eabi_attribute 24, 1
   7              		.eabi_attribute 25, 1
   8              		.eabi_attribute 26, 1
   9              		.eabi_attribute 30, 4
  10              		.eabi_attribute 34, 1
  11              		.eabi_attribute 18, 4
  12              		.file	"stm32f7xx_ll_dac.c"
  13              		.text
  14              		.section	.text.LL_DAC_DeInit,"ax",%progbits
  15              		.align	1
  16              		.global	LL_DAC_DeInit
  17              		.arch armv7e-m
  18              		.syntax unified
  19              		.thumb
  20              		.thumb_func
  21              		.fpu fpv5-sp-d16
  23              	LL_DAC_DeInit:
  24              		@ args = 0, pretend = 0, frame = 0
  25              		@ frame_needed = 0, uses_anonymous_args = 0
  26              		@ link register save eliminated.
  27 0000 054B     		ldr	r3, .L2
  28 0002 0020     		movs	r0, #0
  29 0004 1A6A     		ldr	r2, [r3, #32]
  30 0006 42F00052 		orr	r2, r2, #536870912
  31 000a 1A62     		str	r2, [r3, #32]
  32 000c 1A6A     		ldr	r2, [r3, #32]
  33 000e 22F00052 		bic	r2, r2, #536870912
  34 0012 1A62     		str	r2, [r3, #32]
  35 0014 7047     		bx	lr
  36              	.L3:
  37 0016 00BF     		.align	2
  38              	.L2:
  39 0018 00380240 		.word	1073887232
  41              		.section	.text.LL_DAC_Init,"ax",%progbits
  42              		.align	1
  43              		.global	LL_DAC_Init
  44              		.syntax unified
  45              		.thumb
  46              		.thumb_func
  47              		.fpu fpv5-sp-d16
  49              	LL_DAC_Init:
  50              		@ args = 0, pretend = 0, frame = 0
  51              		@ frame_needed = 0, uses_anonymous_args = 0
  52 0000 01F01001 		and	r1, r1, #16
  53 0004 0123     		movs	r3, #1
  54 0006 F0B5     		push	{r4, r5, r6, r7, lr}
  55 0008 0568     		ldr	r5, [r0]
  56 000a 03FA01F4 		lsl	r4, r3, r1
  57 000e AC43     		bics	r4, r4, r5
  58 0010 1AD0     		beq	.L7
  59 0012 D768     		ldr	r7, [r2, #12]
  60 0014 0568     		ldr	r5, [r0]
ARM GAS  /tmp/cc2IGIje.s 			page 2


  61 0016 D2E90034 		ldrd	r3, r4, [r2]
  62 001a 6CB1     		cbz	r4, .L6
  63 001c 2343     		orrs	r3, r3, r4
  64 001e 9268     		ldr	r2, [r2, #8]
  65 0020 3B43     		orrs	r3, r3, r7
  66 0022 1A43     		orrs	r2, r2, r3
  67 0024 40F6FA73 		movw	r3, #4090
  68 0028 8B40     		lsls	r3, r3, r1
  69 002a 8A40     		lsls	r2, r2, r1
  70 002c 25EA0303 		bic	r3, r5, r3
  71 0030 1343     		orrs	r3, r3, r2
  72              	.L8:
  73 0032 0360     		str	r3, [r0]
  74 0034 0020     		movs	r0, #0
  75              	.L5:
  76 0036 F0BD     		pop	{r4, r5, r6, r7, pc}
  77              	.L6:
  78 0038 FA26     		movs	r6, #250
  79 003a 3B43     		orrs	r3, r3, r7
  80 003c 8E40     		lsls	r6, r6, r1
  81 003e 8B40     		lsls	r3, r3, r1
  82 0040 25EA0605 		bic	r5, r5, r6
  83 0044 2B43     		orrs	r3, r3, r5
  84 0046 F4E7     		b	.L8
  85              	.L7:
  86 0048 1846     		mov	r0, r3
  87 004a F4E7     		b	.L5
  89              		.section	.text.LL_DAC_StructInit,"ax",%progbits
  90              		.align	1
  91              		.global	LL_DAC_StructInit
  92              		.syntax unified
  93              		.thumb
  94              		.thumb_func
  95              		.fpu fpv5-sp-d16
  97              	LL_DAC_StructInit:
  98              		@ args = 0, pretend = 0, frame = 0
  99              		@ frame_needed = 0, uses_anonymous_args = 0
 100              		@ link register save eliminated.
 101 0000 0023     		movs	r3, #0
 102 0002 3822     		movs	r2, #56
 103 0004 C0E90233 		strd	r3, r3, [r0, #8]
 104 0008 C0E90023 		strd	r2, r3, [r0]
 105 000c 7047     		bx	lr
 107              		.ident	"GCC: (15:10.3-2021.07-4) 10.3.1 20210621 (release)"
ARM GAS  /tmp/cc2IGIje.s 			page 3


DEFINED SYMBOLS
                            *ABS*:0000000000000000 stm32f7xx_ll_dac.c
     /tmp/cc2IGIje.s:15     .text.LL_DAC_DeInit:0000000000000000 $t
     /tmp/cc2IGIje.s:23     .text.LL_DAC_DeInit:0000000000000000 LL_DAC_DeInit
     /tmp/cc2IGIje.s:39     .text.LL_DAC_DeInit:0000000000000018 $d
     /tmp/cc2IGIje.s:42     .text.LL_DAC_Init:0000000000000000 $t
     /tmp/cc2IGIje.s:49     .text.LL_DAC_Init:0000000000000000 LL_DAC_Init
     /tmp/cc2IGIje.s:90     .text.LL_DAC_StructInit:0000000000000000 $t
     /tmp/cc2IGIje.s:97     .text.LL_DAC_StructInit:0000000000000000 LL_DAC_StructInit

NO UNDEFINED SYMBOLS
