ARM GAS  /tmp/ccWnOqz1.s 			page 1


   1              		.cpu cortex-m7
   2              		.eabi_attribute 27, 1
   3              		.eabi_attribute 20, 1
   4              		.eabi_attribute 21, 1
   5              		.eabi_attribute 23, 3
   6              		.eabi_attribute 24, 1
   7              		.eabi_attribute 25, 1
   8              		.eabi_attribute 26, 1
   9              		.eabi_attribute 30, 4
  10              		.eabi_attribute 34, 1
  11              		.eabi_attribute 18, 4
  12              		.file	"stm32f7xx_hal_cortex.c"
  13              		.text
  14              		.section	.text.HAL_NVIC_SetPriorityGrouping,"ax",%progbits
  15              		.align	1
  16              		.global	HAL_NVIC_SetPriorityGrouping
  17              		.arch armv7e-m
  18              		.syntax unified
  19              		.thumb
  20              		.thumb_func
  21              		.fpu fpv5-sp-d16
  23              	HAL_NVIC_SetPriorityGrouping:
  24              		@ args = 0, pretend = 0, frame = 0
  25              		@ frame_needed = 0, uses_anonymous_args = 0
  26              		@ link register save eliminated.
  27 0000 0749     		ldr	r1, .L2
  28 0002 0302     		lsls	r3, r0, #8
  29 0004 CA68     		ldr	r2, [r1, #12]
  30 0006 03F4E063 		and	r3, r3, #1792
  31 000a 22F4E062 		bic	r2, r2, #1792
  32 000e 1204     		lsls	r2, r2, #16
  33 0010 120C     		lsrs	r2, r2, #16
  34 0012 1343     		orrs	r3, r3, r2
  35 0014 43F0BF63 		orr	r3, r3, #100139008
  36 0018 43F40033 		orr	r3, r3, #131072
  37 001c CB60     		str	r3, [r1, #12]
  38 001e 7047     		bx	lr
  39              	.L3:
  40              		.align	2
  41              	.L2:
  42 0020 00ED00E0 		.word	-536810240
  44              		.section	.text.HAL_NVIC_SetPriority,"ax",%progbits
  45              		.align	1
  46              		.global	HAL_NVIC_SetPriority
  47              		.syntax unified
  48              		.thumb
  49              		.thumb_func
  50              		.fpu fpv5-sp-d16
  52              	HAL_NVIC_SetPriority:
  53              		@ args = 0, pretend = 0, frame = 0
  54              		@ frame_needed = 0, uses_anonymous_args = 0
  55 0000 164B     		ldr	r3, .L9
  56 0002 30B5     		push	{r4, r5, lr}
  57 0004 DC68     		ldr	r4, [r3, #12]
  58 0006 C4F30224 		ubfx	r4, r4, #8, #3
  59 000a C4F10705 		rsb	r5, r4, #7
  60 000e 231D     		adds	r3, r4, #4
ARM GAS  /tmp/ccWnOqz1.s 			page 2


  61 0010 042D     		cmp	r5, #4
  62 0012 28BF     		it	cs
  63 0014 0425     		movcs	r5, #4
  64 0016 062B     		cmp	r3, #6
  65 0018 4FF0FF33 		mov	r3, #-1
  66 001c 8CBF     		ite	hi
  67 001e 033C     		subhi	r4, r4, #3
  68 0020 0024     		movls	r4, #0
  69 0022 03FA05F5 		lsl	r5, r3, r5
  70 0026 0028     		cmp	r0, #0
  71 0028 03FA04F3 		lsl	r3, r3, r4
  72 002c 21EA0501 		bic	r1, r1, r5
  73 0030 22EA0302 		bic	r2, r2, r3
  74 0034 01FA04F1 		lsl	r1, r1, r4
  75 0038 41EA0203 		orr	r3, r1, r2
  76 003c 4FEA0313 		lsl	r3, r3, #4
  77 0040 DBB2     		uxtb	r3, r3
  78 0042 06DB     		blt	.L6
  79 0044 00F16040 		add	r0, r0, #-536870912
  80 0048 00F56140 		add	r0, r0, #57600
  81 004c 80F80033 		strb	r3, [r0, #768]
  82              	.L4:
  83 0050 30BD     		pop	{r4, r5, pc}
  84              	.L6:
  85 0052 00F00F00 		and	r0, r0, #15
  86 0056 024A     		ldr	r2, .L9+4
  87 0058 1354     		strb	r3, [r2, r0]
  88 005a F9E7     		b	.L4
  89              	.L10:
  90              		.align	2
  91              	.L9:
  92 005c 00ED00E0 		.word	-536810240
  93 0060 14ED00E0 		.word	-536810220
  95              		.section	.text.HAL_NVIC_EnableIRQ,"ax",%progbits
  96              		.align	1
  97              		.global	HAL_NVIC_EnableIRQ
  98              		.syntax unified
  99              		.thumb
 100              		.thumb_func
 101              		.fpu fpv5-sp-d16
 103              	HAL_NVIC_EnableIRQ:
 104              		@ args = 0, pretend = 0, frame = 0
 105              		@ frame_needed = 0, uses_anonymous_args = 0
 106              		@ link register save eliminated.
 107 0000 0028     		cmp	r0, #0
 108 0002 08DB     		blt	.L11
 109 0004 4209     		lsrs	r2, r0, #5
 110 0006 0123     		movs	r3, #1
 111 0008 00F01F00 		and	r0, r0, #31
 112 000c 03FA00F0 		lsl	r0, r3, r0
 113 0010 014B     		ldr	r3, .L13
 114 0012 43F82200 		str	r0, [r3, r2, lsl #2]
 115              	.L11:
 116 0016 7047     		bx	lr
 117              	.L14:
 118              		.align	2
 119              	.L13:
ARM GAS  /tmp/ccWnOqz1.s 			page 3


 120 0018 00E100E0 		.word	-536813312
 122              		.section	.text.HAL_NVIC_DisableIRQ,"ax",%progbits
 123              		.align	1
 124              		.global	HAL_NVIC_DisableIRQ
 125              		.syntax unified
 126              		.thumb
 127              		.thumb_func
 128              		.fpu fpv5-sp-d16
 130              	HAL_NVIC_DisableIRQ:
 131              		@ args = 0, pretend = 0, frame = 0
 132              		@ frame_needed = 0, uses_anonymous_args = 0
 133              		@ link register save eliminated.
 134 0000 0028     		cmp	r0, #0
 135 0002 0DDB     		blt	.L15
 136 0004 4309     		lsrs	r3, r0, #5
 137 0006 0122     		movs	r2, #1
 138 0008 00F01F00 		and	r0, r0, #31
 139 000c 2033     		adds	r3, r3, #32
 140 000e 02FA00F0 		lsl	r0, r2, r0
 141 0012 044A     		ldr	r2, .L17
 142 0014 42F82300 		str	r0, [r2, r3, lsl #2]
 143              		.syntax unified
 144              	@ 879 "Drivers/CMSIS/Include/cmsis_gcc.h" 1
 145 0018 BFF34F8F 		dsb 0xF
 146              	@ 0 "" 2
 147              	@ 868 "Drivers/CMSIS/Include/cmsis_gcc.h" 1
 148 001c BFF36F8F 		isb 0xF
 149              	@ 0 "" 2
 150              		.thumb
 151              		.syntax unified
 152              	.L15:
 153 0020 7047     		bx	lr
 154              	.L18:
 155 0022 00BF     		.align	2
 156              	.L17:
 157 0024 00E100E0 		.word	-536813312
 159              		.section	.text.HAL_NVIC_SystemReset,"ax",%progbits
 160              		.align	1
 161              		.global	HAL_NVIC_SystemReset
 162              		.syntax unified
 163              		.thumb
 164              		.thumb_func
 165              		.fpu fpv5-sp-d16
 167              	HAL_NVIC_SystemReset:
 168              		@ Volatile: function does not return.
 169              		@ args = 0, pretend = 0, frame = 0
 170              		@ frame_needed = 0, uses_anonymous_args = 0
 171              		@ link register save eliminated.
 172              		.syntax unified
 173              	@ 879 "Drivers/CMSIS/Include/cmsis_gcc.h" 1
 174 0000 BFF34F8F 		dsb 0xF
 175              	@ 0 "" 2
 176              		.thumb
 177              		.syntax unified
 178 0004 0549     		ldr	r1, .L21
 179 0006 064B     		ldr	r3, .L21+4
 180 0008 CA68     		ldr	r2, [r1, #12]
ARM GAS  /tmp/ccWnOqz1.s 			page 4


 181 000a 02F4E062 		and	r2, r2, #1792
 182 000e 1343     		orrs	r3, r3, r2
 183 0010 CB60     		str	r3, [r1, #12]
 184              		.syntax unified
 185              	@ 879 "Drivers/CMSIS/Include/cmsis_gcc.h" 1
 186 0012 BFF34F8F 		dsb 0xF
 187              	@ 0 "" 2
 188              		.thumb
 189              		.syntax unified
 190              	.L20:
 191              		.syntax unified
 192              	@ 2158 "Drivers/CMSIS/Include/core_cm7.h" 1
 193 0016 00BF     		nop
 194              	@ 0 "" 2
 195              		.thumb
 196              		.syntax unified
 197 0018 FDE7     		b	.L20
 198              	.L22:
 199 001a 00BF     		.align	2
 200              	.L21:
 201 001c 00ED00E0 		.word	-536810240
 202 0020 0400FA05 		.word	100270084
 204              		.section	.text.HAL_SYSTICK_Config,"ax",%progbits
 205              		.align	1
 206              		.global	HAL_SYSTICK_Config
 207              		.syntax unified
 208              		.thumb
 209              		.thumb_func
 210              		.fpu fpv5-sp-d16
 212              	HAL_SYSTICK_Config:
 213              		@ args = 0, pretend = 0, frame = 0
 214              		@ frame_needed = 0, uses_anonymous_args = 0
 215              		@ link register save eliminated.
 216 0000 0138     		subs	r0, r0, #1
 217 0002 B0F1807F 		cmp	r0, #16777216
 218 0006 0BD2     		bcs	.L25
 219 0008 4FF0E023 		mov	r3, #-536813568
 220 000c 054A     		ldr	r2, .L26
 221 000e F021     		movs	r1, #240
 222 0010 5861     		str	r0, [r3, #20]
 223 0012 0020     		movs	r0, #0
 224 0014 82F82310 		strb	r1, [r2, #35]
 225 0018 0722     		movs	r2, #7
 226 001a 9861     		str	r0, [r3, #24]
 227 001c 1A61     		str	r2, [r3, #16]
 228 001e 7047     		bx	lr
 229              	.L25:
 230 0020 0120     		movs	r0, #1
 231 0022 7047     		bx	lr
 232              	.L27:
 233              		.align	2
 234              	.L26:
 235 0024 00ED00E0 		.word	-536810240
 237              		.section	.text.HAL_MPU_Disable,"ax",%progbits
 238              		.align	1
 239              		.global	HAL_MPU_Disable
 240              		.syntax unified
ARM GAS  /tmp/ccWnOqz1.s 			page 5


 241              		.thumb
 242              		.thumb_func
 243              		.fpu fpv5-sp-d16
 245              	HAL_MPU_Disable:
 246              		@ args = 0, pretend = 0, frame = 0
 247              		@ frame_needed = 0, uses_anonymous_args = 0
 248              		@ link register save eliminated.
 249              		.syntax unified
 250              	@ 890 "Drivers/CMSIS/Include/cmsis_gcc.h" 1
 251 0000 BFF35F8F 		dmb 0xF
 252              	@ 0 "" 2
 253              		.thumb
 254              		.syntax unified
 255 0004 044B     		ldr	r3, .L29
 256 0006 5A6A     		ldr	r2, [r3, #36]
 257 0008 22F48032 		bic	r2, r2, #65536
 258 000c 5A62     		str	r2, [r3, #36]
 259 000e 0022     		movs	r2, #0
 260 0010 C3F89420 		str	r2, [r3, #148]
 261 0014 7047     		bx	lr
 262              	.L30:
 263 0016 00BF     		.align	2
 264              	.L29:
 265 0018 00ED00E0 		.word	-536810240
 267              		.section	.text.HAL_MPU_Enable,"ax",%progbits
 268              		.align	1
 269              		.global	HAL_MPU_Enable
 270              		.syntax unified
 271              		.thumb
 272              		.thumb_func
 273              		.fpu fpv5-sp-d16
 275              	HAL_MPU_Enable:
 276              		@ args = 0, pretend = 0, frame = 0
 277              		@ frame_needed = 0, uses_anonymous_args = 0
 278              		@ link register save eliminated.
 279 0000 064B     		ldr	r3, .L32
 280 0002 40F00100 		orr	r0, r0, #1
 281 0006 C3F89400 		str	r0, [r3, #148]
 282 000a 5A6A     		ldr	r2, [r3, #36]
 283 000c 42F48032 		orr	r2, r2, #65536
 284 0010 5A62     		str	r2, [r3, #36]
 285              		.syntax unified
 286              	@ 879 "Drivers/CMSIS/Include/cmsis_gcc.h" 1
 287 0012 BFF34F8F 		dsb 0xF
 288              	@ 0 "" 2
 289              	@ 868 "Drivers/CMSIS/Include/cmsis_gcc.h" 1
 290 0016 BFF36F8F 		isb 0xF
 291              	@ 0 "" 2
 292              		.thumb
 293              		.syntax unified
 294 001a 7047     		bx	lr
 295              	.L33:
 296              		.align	2
 297              	.L32:
 298 001c 00ED00E0 		.word	-536810240
 300              		.section	.text.HAL_MPU_ConfigRegion,"ax",%progbits
 301              		.align	1
ARM GAS  /tmp/ccWnOqz1.s 			page 6


 302              		.global	HAL_MPU_ConfigRegion
 303              		.syntax unified
 304              		.thumb
 305              		.thumb_func
 306              		.fpu fpv5-sp-d16
 308              	HAL_MPU_ConfigRegion:
 309              		@ args = 0, pretend = 0, frame = 0
 310              		@ frame_needed = 0, uses_anonymous_args = 0
 311 0000 4378     		ldrb	r3, [r0, #1]	@ zero_extendqisi2
 312 0002 144A     		ldr	r2, .L37
 313 0004 10B5     		push	{r4, lr}
 314 0006 C2F89830 		str	r3, [r2, #152]
 315 000a 0178     		ldrb	r1, [r0]	@ zero_extendqisi2
 316 000c E9B1     		cbz	r1, .L35
 317 000e 4368     		ldr	r3, [r0, #4]
 318 0010 C2F89C30 		str	r3, [r2, #156]
 319 0014 C37A     		ldrb	r3, [r0, #11]	@ zero_extendqisi2
 320 0016 047B     		ldrb	r4, [r0, #12]	@ zero_extendqisi2
 321 0018 1B06     		lsls	r3, r3, #24
 322 001a 43EA0473 		orr	r3, r3, r4, lsl #28
 323 001e 0B43     		orrs	r3, r3, r1
 324 0020 817A     		ldrb	r1, [r0, #10]	@ zero_extendqisi2
 325 0022 43EAC143 		orr	r3, r3, r1, lsl #19
 326 0026 417B     		ldrb	r1, [r0, #13]	@ zero_extendqisi2
 327 0028 43EA8143 		orr	r3, r3, r1, lsl #18
 328 002c 817B     		ldrb	r1, [r0, #14]	@ zero_extendqisi2
 329 002e 43EA4143 		orr	r3, r3, r1, lsl #17
 330 0032 C17B     		ldrb	r1, [r0, #15]	@ zero_extendqisi2
 331 0034 43EA0143 		orr	r3, r3, r1, lsl #16
 332 0038 417A     		ldrb	r1, [r0, #9]	@ zero_extendqisi2
 333 003a 43EA0123 		orr	r3, r3, r1, lsl #8
 334 003e 017A     		ldrb	r1, [r0, #8]	@ zero_extendqisi2
 335 0040 43EA4103 		orr	r3, r3, r1, lsl #1
 336 0044 C2F8A030 		str	r3, [r2, #160]
 337              	.L34:
 338 0048 10BD     		pop	{r4, pc}
 339              	.L35:
 340 004a C2F89C10 		str	r1, [r2, #156]
 341 004e C2F8A010 		str	r1, [r2, #160]
 342 0052 F9E7     		b	.L34
 343              	.L38:
 344              		.align	2
 345              	.L37:
 346 0054 00ED00E0 		.word	-536810240
 348              		.section	.text.HAL_NVIC_GetPriorityGrouping,"ax",%progbits
 349              		.align	1
 350              		.global	HAL_NVIC_GetPriorityGrouping
 351              		.syntax unified
 352              		.thumb
 353              		.thumb_func
 354              		.fpu fpv5-sp-d16
 356              	HAL_NVIC_GetPriorityGrouping:
 357              		@ args = 0, pretend = 0, frame = 0
 358              		@ frame_needed = 0, uses_anonymous_args = 0
 359              		@ link register save eliminated.
 360 0000 024B     		ldr	r3, .L40
 361 0002 D868     		ldr	r0, [r3, #12]
ARM GAS  /tmp/ccWnOqz1.s 			page 7


 362 0004 C0F30220 		ubfx	r0, r0, #8, #3
 363 0008 7047     		bx	lr
 364              	.L41:
 365 000a 00BF     		.align	2
 366              	.L40:
 367 000c 00ED00E0 		.word	-536810240
 369              		.section	.text.HAL_NVIC_GetPriority,"ax",%progbits
 370              		.align	1
 371              		.global	HAL_NVIC_GetPriority
 372              		.syntax unified
 373              		.thumb
 374              		.thumb_func
 375              		.fpu fpv5-sp-d16
 377              	HAL_NVIC_GetPriority:
 378              		@ args = 0, pretend = 0, frame = 0
 379              		@ frame_needed = 0, uses_anonymous_args = 0
 380 0000 0028     		cmp	r0, #0
 381 0002 70B5     		push	{r4, r5, r6, lr}
 382 0004 21DB     		blt	.L43
 383 0006 00F16040 		add	r0, r0, #-536870912
 384 000a 00F56140 		add	r0, r0, #57600
 385 000e 90F80003 		ldrb	r0, [r0, #768]	@ zero_extendqisi2
 386              	.L47:
 387 0012 01F00701 		and	r1, r1, #7
 388 0016 0009     		lsrs	r0, r0, #4
 389 0018 C1F10704 		rsb	r4, r1, #7
 390 001c 0D1D     		adds	r5, r1, #4
 391 001e 042C     		cmp	r4, #4
 392 0020 28BF     		it	cs
 393 0022 0424     		movcs	r4, #4
 394 0024 062D     		cmp	r5, #6
 395 0026 4FF0FF35 		mov	r5, #-1
 396 002a 8CBF     		ite	hi
 397 002c 0339     		subhi	r1, r1, #3
 398 002e 0021     		movls	r1, #0
 399 0030 05FA04F4 		lsl	r4, r5, r4
 400 0034 20FA01F6 		lsr	r6, r0, r1
 401 0038 05FA01F1 		lsl	r1, r5, r1
 402 003c 26EA0404 		bic	r4, r6, r4
 403 0040 20EA0100 		bic	r0, r0, r1
 404 0044 1460     		str	r4, [r2]
 405 0046 1860     		str	r0, [r3]
 406 0048 70BD     		pop	{r4, r5, r6, pc}
 407              	.L43:
 408 004a 00F00F00 		and	r0, r0, #15
 409 004e 014C     		ldr	r4, .L48
 410 0050 205C     		ldrb	r0, [r4, r0]	@ zero_extendqisi2
 411 0052 DEE7     		b	.L47
 412              	.L49:
 413              		.align	2
 414              	.L48:
 415 0054 14ED00E0 		.word	-536810220
 417              		.section	.text.HAL_NVIC_SetPendingIRQ,"ax",%progbits
 418              		.align	1
 419              		.global	HAL_NVIC_SetPendingIRQ
 420              		.syntax unified
 421              		.thumb
ARM GAS  /tmp/ccWnOqz1.s 			page 8


 422              		.thumb_func
 423              		.fpu fpv5-sp-d16
 425              	HAL_NVIC_SetPendingIRQ:
 426              		@ args = 0, pretend = 0, frame = 0
 427              		@ frame_needed = 0, uses_anonymous_args = 0
 428              		@ link register save eliminated.
 429 0000 0028     		cmp	r0, #0
 430 0002 09DB     		blt	.L50
 431 0004 4309     		lsrs	r3, r0, #5
 432 0006 0122     		movs	r2, #1
 433 0008 00F01F00 		and	r0, r0, #31
 434 000c 4033     		adds	r3, r3, #64
 435 000e 02FA00F0 		lsl	r0, r2, r0
 436 0012 024A     		ldr	r2, .L52
 437 0014 42F82300 		str	r0, [r2, r3, lsl #2]
 438              	.L50:
 439 0018 7047     		bx	lr
 440              	.L53:
 441 001a 00BF     		.align	2
 442              	.L52:
 443 001c 00E100E0 		.word	-536813312
 445              		.section	.text.HAL_NVIC_GetPendingIRQ,"ax",%progbits
 446              		.align	1
 447              		.global	HAL_NVIC_GetPendingIRQ
 448              		.syntax unified
 449              		.thumb
 450              		.thumb_func
 451              		.fpu fpv5-sp-d16
 453              	HAL_NVIC_GetPendingIRQ:
 454              		@ args = 0, pretend = 0, frame = 0
 455              		@ frame_needed = 0, uses_anonymous_args = 0
 456              		@ link register save eliminated.
 457 0000 0028     		cmp	r0, #0
 458 0002 0BDB     		blt	.L56
 459 0004 4309     		lsrs	r3, r0, #5
 460 0006 064A     		ldr	r2, .L57
 461 0008 00F01F00 		and	r0, r0, #31
 462 000c 4033     		adds	r3, r3, #64
 463 000e 52F82330 		ldr	r3, [r2, r3, lsl #2]
 464 0012 23FA00F0 		lsr	r0, r3, r0
 465 0016 00F00100 		and	r0, r0, #1
 466 001a 7047     		bx	lr
 467              	.L56:
 468 001c 0020     		movs	r0, #0
 469 001e 7047     		bx	lr
 470              	.L58:
 471              		.align	2
 472              	.L57:
 473 0020 00E100E0 		.word	-536813312
 475              		.section	.text.HAL_NVIC_ClearPendingIRQ,"ax",%progbits
 476              		.align	1
 477              		.global	HAL_NVIC_ClearPendingIRQ
 478              		.syntax unified
 479              		.thumb
 480              		.thumb_func
 481              		.fpu fpv5-sp-d16
 483              	HAL_NVIC_ClearPendingIRQ:
ARM GAS  /tmp/ccWnOqz1.s 			page 9


 484              		@ args = 0, pretend = 0, frame = 0
 485              		@ frame_needed = 0, uses_anonymous_args = 0
 486              		@ link register save eliminated.
 487 0000 0028     		cmp	r0, #0
 488 0002 09DB     		blt	.L59
 489 0004 4309     		lsrs	r3, r0, #5
 490 0006 0122     		movs	r2, #1
 491 0008 00F01F00 		and	r0, r0, #31
 492 000c 6033     		adds	r3, r3, #96
 493 000e 02FA00F0 		lsl	r0, r2, r0
 494 0012 024A     		ldr	r2, .L61
 495 0014 42F82300 		str	r0, [r2, r3, lsl #2]
 496              	.L59:
 497 0018 7047     		bx	lr
 498              	.L62:
 499 001a 00BF     		.align	2
 500              	.L61:
 501 001c 00E100E0 		.word	-536813312
 503              		.section	.text.HAL_NVIC_GetActive,"ax",%progbits
 504              		.align	1
 505              		.global	HAL_NVIC_GetActive
 506              		.syntax unified
 507              		.thumb
 508              		.thumb_func
 509              		.fpu fpv5-sp-d16
 511              	HAL_NVIC_GetActive:
 512              		@ args = 0, pretend = 0, frame = 0
 513              		@ frame_needed = 0, uses_anonymous_args = 0
 514              		@ link register save eliminated.
 515 0000 0028     		cmp	r0, #0
 516 0002 0BDB     		blt	.L65
 517 0004 4309     		lsrs	r3, r0, #5
 518 0006 064A     		ldr	r2, .L66
 519 0008 00F01F00 		and	r0, r0, #31
 520 000c 8033     		adds	r3, r3, #128
 521 000e 52F82330 		ldr	r3, [r2, r3, lsl #2]
 522 0012 23FA00F0 		lsr	r0, r3, r0
 523 0016 00F00100 		and	r0, r0, #1
 524 001a 7047     		bx	lr
 525              	.L65:
 526 001c 0020     		movs	r0, #0
 527 001e 7047     		bx	lr
 528              	.L67:
 529              		.align	2
 530              	.L66:
 531 0020 00E100E0 		.word	-536813312
 533              		.section	.text.HAL_SYSTICK_CLKSourceConfig,"ax",%progbits
 534              		.align	1
 535              		.global	HAL_SYSTICK_CLKSourceConfig
 536              		.syntax unified
 537              		.thumb
 538              		.thumb_func
 539              		.fpu fpv5-sp-d16
 541              	HAL_SYSTICK_CLKSourceConfig:
 542              		@ args = 0, pretend = 0, frame = 0
 543              		@ frame_needed = 0, uses_anonymous_args = 0
 544              		@ link register save eliminated.
ARM GAS  /tmp/ccWnOqz1.s 			page 10


 545 0000 4FF0E023 		mov	r3, #-536813568
 546 0004 0428     		cmp	r0, #4
 547 0006 1A69     		ldr	r2, [r3, #16]
 548 0008 0CBF     		ite	eq
 549 000a 42F00402 		orreq	r2, r2, #4
 550 000e 22F00402 		bicne	r2, r2, #4
 551 0012 1A61     		str	r2, [r3, #16]
 552 0014 7047     		bx	lr
 554              		.section	.text.HAL_SYSTICK_Callback,"ax",%progbits
 555              		.align	1
 556              		.weak	HAL_SYSTICK_Callback
 557              		.syntax unified
 558              		.thumb
 559              		.thumb_func
 560              		.fpu fpv5-sp-d16
 562              	HAL_SYSTICK_Callback:
 563              		@ args = 0, pretend = 0, frame = 0
 564              		@ frame_needed = 0, uses_anonymous_args = 0
 565              		@ link register save eliminated.
 566 0000 7047     		bx	lr
 568              		.section	.text.HAL_SYSTICK_IRQHandler,"ax",%progbits
 569              		.align	1
 570              		.global	HAL_SYSTICK_IRQHandler
 571              		.syntax unified
 572              		.thumb
 573              		.thumb_func
 574              		.fpu fpv5-sp-d16
 576              	HAL_SYSTICK_IRQHandler:
 577              		@ args = 0, pretend = 0, frame = 0
 578              		@ frame_needed = 0, uses_anonymous_args = 0
 579 0000 08B5     		push	{r3, lr}
 580 0002 FFF7FEFF 		bl	HAL_SYSTICK_Callback
 581 0006 08BD     		pop	{r3, pc}
 583              		.ident	"GCC: (15:10.3-2021.07-4) 10.3.1 20210621 (release)"
ARM GAS  /tmp/ccWnOqz1.s 			page 11

