ARM GAS  /tmp/ccZnbtkY.s 			page 1


   1              		.cpu cortex-m7
   2              		.eabi_attribute 27, 1
   3              		.eabi_attribute 20, 1
   4              		.eabi_attribute 21, 1
   5              		.eabi_attribute 23, 3
   6              		.eabi_attribute 24, 1
   7              		.eabi_attribute 25, 1
   8              		.eabi_attribute 26, 1
   9              		.eabi_attribute 30, 4
  10              		.eabi_attribute 34, 1
  11              		.eabi_attribute 18, 4
  12              		.file	"stm32f7xx_hal_pwr_ex.c"
  13              		.text
  14              		.section	.text.HAL_PWREx_EnableBkUpReg,"ax",%progbits
  15              		.align	1
  16              		.global	HAL_PWREx_EnableBkUpReg
  17              		.arch armv7e-m
  18              		.syntax unified
  19              		.thumb
  20              		.thumb_func
  21              		.fpu fpv5-sp-d16
  23              	HAL_PWREx_EnableBkUpReg:
  24              		@ args = 0, pretend = 0, frame = 0
  25              		@ frame_needed = 0, uses_anonymous_args = 0
  26 0000 38B5     		push	{r3, r4, r5, lr}
  27 0002 0C4C     		ldr	r4, .L6
  28 0004 6368     		ldr	r3, [r4, #4]
  29 0006 43F40073 		orr	r3, r3, #512
  30 000a 6360     		str	r3, [r4, #4]
  31 000c 6368     		ldr	r3, [r4, #4]
  32 000e 43F48073 		orr	r3, r3, #256
  33 0012 6360     		str	r3, [r4, #4]
  34 0014 FFF7FEFF 		bl	HAL_GetTick
  35 0018 0546     		mov	r5, r0
  36              	.L2:
  37 001a 6368     		ldr	r3, [r4, #4]
  38 001c 1B07     		lsls	r3, r3, #28
  39 001e 01D5     		bpl	.L4
  40 0020 0020     		movs	r0, #0
  41              	.L3:
  42 0022 38BD     		pop	{r3, r4, r5, pc}
  43              	.L4:
  44 0024 FFF7FEFF 		bl	HAL_GetTick
  45 0028 401B     		subs	r0, r0, r5
  46 002a B0F57A7F 		cmp	r0, #1000
  47 002e F4D9     		bls	.L2
  48 0030 0320     		movs	r0, #3
  49 0032 F6E7     		b	.L3
  50              	.L7:
  51              		.align	2
  52              	.L6:
  53 0034 00700040 		.word	1073770496
  55              		.section	.text.HAL_PWREx_DisableBkUpReg,"ax",%progbits
  56              		.align	1
  57              		.global	HAL_PWREx_DisableBkUpReg
  58              		.syntax unified
  59              		.thumb
ARM GAS  /tmp/ccZnbtkY.s 			page 2


  60              		.thumb_func
  61              		.fpu fpv5-sp-d16
  63              	HAL_PWREx_DisableBkUpReg:
  64              		@ args = 0, pretend = 0, frame = 0
  65              		@ frame_needed = 0, uses_anonymous_args = 0
  66 0000 38B5     		push	{r3, r4, r5, lr}
  67 0002 0D4C     		ldr	r4, .L13
  68 0004 6368     		ldr	r3, [r4, #4]
  69 0006 23F40073 		bic	r3, r3, #512
  70 000a 6360     		str	r3, [r4, #4]
  71 000c 6368     		ldr	r3, [r4, #4]
  72 000e 43F48073 		orr	r3, r3, #256
  73 0012 6360     		str	r3, [r4, #4]
  74 0014 FFF7FEFF 		bl	HAL_GetTick
  75 0018 0546     		mov	r5, r0
  76              	.L9:
  77 001a 6368     		ldr	r3, [r4, #4]
  78 001c 13F00803 		ands	r3, r3, #8
  79 0020 01D1     		bne	.L11
  80 0022 1846     		mov	r0, r3
  81              	.L10:
  82 0024 38BD     		pop	{r3, r4, r5, pc}
  83              	.L11:
  84 0026 FFF7FEFF 		bl	HAL_GetTick
  85 002a 401B     		subs	r0, r0, r5
  86 002c B0F57A7F 		cmp	r0, #1000
  87 0030 F3D9     		bls	.L9
  88 0032 0320     		movs	r0, #3
  89 0034 F6E7     		b	.L10
  90              	.L14:
  91 0036 00BF     		.align	2
  92              	.L13:
  93 0038 00700040 		.word	1073770496
  95              		.section	.text.HAL_PWREx_EnableFlashPowerDown,"ax",%progbits
  96              		.align	1
  97              		.global	HAL_PWREx_EnableFlashPowerDown
  98              		.syntax unified
  99              		.thumb
 100              		.thumb_func
 101              		.fpu fpv5-sp-d16
 103              	HAL_PWREx_EnableFlashPowerDown:
 104              		@ args = 0, pretend = 0, frame = 0
 105              		@ frame_needed = 0, uses_anonymous_args = 0
 106              		@ link register save eliminated.
 107 0000 024A     		ldr	r2, .L16
 108 0002 1368     		ldr	r3, [r2]
 109 0004 43F40073 		orr	r3, r3, #512
 110 0008 1360     		str	r3, [r2]
 111 000a 7047     		bx	lr
 112              	.L17:
 113              		.align	2
 114              	.L16:
 115 000c 00700040 		.word	1073770496
 117              		.section	.text.HAL_PWREx_DisableFlashPowerDown,"ax",%progbits
 118              		.align	1
 119              		.global	HAL_PWREx_DisableFlashPowerDown
 120              		.syntax unified
ARM GAS  /tmp/ccZnbtkY.s 			page 3


 121              		.thumb
 122              		.thumb_func
 123              		.fpu fpv5-sp-d16
 125              	HAL_PWREx_DisableFlashPowerDown:
 126              		@ args = 0, pretend = 0, frame = 0
 127              		@ frame_needed = 0, uses_anonymous_args = 0
 128              		@ link register save eliminated.
 129 0000 024A     		ldr	r2, .L19
 130 0002 1368     		ldr	r3, [r2]
 131 0004 23F40073 		bic	r3, r3, #512
 132 0008 1360     		str	r3, [r2]
 133 000a 7047     		bx	lr
 134              	.L20:
 135              		.align	2
 136              	.L19:
 137 000c 00700040 		.word	1073770496
 139              		.section	.text.HAL_PWREx_EnableMainRegulatorLowVoltage,"ax",%progbits
 140              		.align	1
 141              		.global	HAL_PWREx_EnableMainRegulatorLowVoltage
 142              		.syntax unified
 143              		.thumb
 144              		.thumb_func
 145              		.fpu fpv5-sp-d16
 147              	HAL_PWREx_EnableMainRegulatorLowVoltage:
 148              		@ args = 0, pretend = 0, frame = 0
 149              		@ frame_needed = 0, uses_anonymous_args = 0
 150              		@ link register save eliminated.
 151 0000 024A     		ldr	r2, .L22
 152 0002 1368     		ldr	r3, [r2]
 153 0004 43F40063 		orr	r3, r3, #2048
 154 0008 1360     		str	r3, [r2]
 155 000a 7047     		bx	lr
 156              	.L23:
 157              		.align	2
 158              	.L22:
 159 000c 00700040 		.word	1073770496
 161              		.section	.text.HAL_PWREx_DisableMainRegulatorLowVoltage,"ax",%progbits
 162              		.align	1
 163              		.global	HAL_PWREx_DisableMainRegulatorLowVoltage
 164              		.syntax unified
 165              		.thumb
 166              		.thumb_func
 167              		.fpu fpv5-sp-d16
 169              	HAL_PWREx_DisableMainRegulatorLowVoltage:
 170              		@ args = 0, pretend = 0, frame = 0
 171              		@ frame_needed = 0, uses_anonymous_args = 0
 172              		@ link register save eliminated.
 173 0000 024A     		ldr	r2, .L25
 174 0002 1368     		ldr	r3, [r2]
 175 0004 23F40063 		bic	r3, r3, #2048
 176 0008 1360     		str	r3, [r2]
 177 000a 7047     		bx	lr
 178              	.L26:
 179              		.align	2
 180              	.L25:
 181 000c 00700040 		.word	1073770496
 183              		.section	.text.HAL_PWREx_EnableLowRegulatorLowVoltage,"ax",%progbits
ARM GAS  /tmp/ccZnbtkY.s 			page 4


 184              		.align	1
 185              		.global	HAL_PWREx_EnableLowRegulatorLowVoltage
 186              		.syntax unified
 187              		.thumb
 188              		.thumb_func
 189              		.fpu fpv5-sp-d16
 191              	HAL_PWREx_EnableLowRegulatorLowVoltage:
 192              		@ args = 0, pretend = 0, frame = 0
 193              		@ frame_needed = 0, uses_anonymous_args = 0
 194              		@ link register save eliminated.
 195 0000 024A     		ldr	r2, .L28
 196 0002 1368     		ldr	r3, [r2]
 197 0004 43F48063 		orr	r3, r3, #1024
 198 0008 1360     		str	r3, [r2]
 199 000a 7047     		bx	lr
 200              	.L29:
 201              		.align	2
 202              	.L28:
 203 000c 00700040 		.word	1073770496
 205              		.section	.text.HAL_PWREx_DisableLowRegulatorLowVoltage,"ax",%progbits
 206              		.align	1
 207              		.global	HAL_PWREx_DisableLowRegulatorLowVoltage
 208              		.syntax unified
 209              		.thumb
 210              		.thumb_func
 211              		.fpu fpv5-sp-d16
 213              	HAL_PWREx_DisableLowRegulatorLowVoltage:
 214              		@ args = 0, pretend = 0, frame = 0
 215              		@ frame_needed = 0, uses_anonymous_args = 0
 216              		@ link register save eliminated.
 217 0000 024A     		ldr	r2, .L31
 218 0002 1368     		ldr	r3, [r2]
 219 0004 23F48063 		bic	r3, r3, #1024
 220 0008 1360     		str	r3, [r2]
 221 000a 7047     		bx	lr
 222              	.L32:
 223              		.align	2
 224              	.L31:
 225 000c 00700040 		.word	1073770496
 227              		.section	.text.HAL_PWREx_EnableOverDrive,"ax",%progbits
 228              		.align	1
 229              		.global	HAL_PWREx_EnableOverDrive
 230              		.syntax unified
 231              		.thumb
 232              		.thumb_func
 233              		.fpu fpv5-sp-d16
 235              	HAL_PWREx_EnableOverDrive:
 236              		@ args = 0, pretend = 0, frame = 8
 237              		@ frame_needed = 0, uses_anonymous_args = 0
 238 0000 194B     		ldr	r3, .L41
 239 0002 37B5     		push	{r0, r1, r2, r4, r5, lr}
 240 0004 1A6C     		ldr	r2, [r3, #64]
 241 0006 194C     		ldr	r4, .L41+4
 242 0008 42F08052 		orr	r2, r2, #268435456
 243 000c 1A64     		str	r2, [r3, #64]
 244 000e 1B6C     		ldr	r3, [r3, #64]
 245 0010 03F08053 		and	r3, r3, #268435456
ARM GAS  /tmp/ccZnbtkY.s 			page 5


 246 0014 0193     		str	r3, [sp, #4]
 247 0016 019B     		ldr	r3, [sp, #4]
 248 0018 2368     		ldr	r3, [r4]
 249 001a 43F48033 		orr	r3, r3, #65536
 250 001e 2360     		str	r3, [r4]
 251 0020 FFF7FEFF 		bl	HAL_GetTick
 252 0024 0546     		mov	r5, r0
 253              	.L34:
 254 0026 6368     		ldr	r3, [r4, #4]
 255 0028 DA03     		lsls	r2, r3, #15
 256 002a 0CD5     		bpl	.L36
 257 002c 2368     		ldr	r3, [r4]
 258 002e 0F4D     		ldr	r5, .L41+4
 259 0030 43F40033 		orr	r3, r3, #131072
 260 0034 2360     		str	r3, [r4]
 261 0036 FFF7FEFF 		bl	HAL_GetTick
 262 003a 0446     		mov	r4, r0
 263              	.L37:
 264 003c 6B68     		ldr	r3, [r5, #4]
 265 003e 9B03     		lsls	r3, r3, #14
 266 0040 0AD5     		bpl	.L39
 267 0042 0020     		movs	r0, #0
 268 0044 06E0     		b	.L35
 269              	.L36:
 270 0046 FFF7FEFF 		bl	HAL_GetTick
 271 004a 401B     		subs	r0, r0, r5
 272 004c B0F57A7F 		cmp	r0, #1000
 273 0050 E9D9     		bls	.L34
 274              	.L38:
 275 0052 0320     		movs	r0, #3
 276              	.L35:
 277 0054 03B0     		add	sp, sp, #12
 278              		@ sp needed
 279 0056 30BD     		pop	{r4, r5, pc}
 280              	.L39:
 281 0058 FFF7FEFF 		bl	HAL_GetTick
 282 005c 001B     		subs	r0, r0, r4
 283 005e B0F57A7F 		cmp	r0, #1000
 284 0062 EBD9     		bls	.L37
 285 0064 F5E7     		b	.L38
 286              	.L42:
 287 0066 00BF     		.align	2
 288              	.L41:
 289 0068 00380240 		.word	1073887232
 290 006c 00700040 		.word	1073770496
 292              		.section	.text.HAL_PWREx_DisableOverDrive,"ax",%progbits
 293              		.align	1
 294              		.global	HAL_PWREx_DisableOverDrive
 295              		.syntax unified
 296              		.thumb
 297              		.thumb_func
 298              		.fpu fpv5-sp-d16
 300              	HAL_PWREx_DisableOverDrive:
 301              		@ args = 0, pretend = 0, frame = 8
 302              		@ frame_needed = 0, uses_anonymous_args = 0
 303 0000 194B     		ldr	r3, .L51
 304 0002 37B5     		push	{r0, r1, r2, r4, r5, lr}
ARM GAS  /tmp/ccZnbtkY.s 			page 6


 305 0004 1A6C     		ldr	r2, [r3, #64]
 306 0006 194C     		ldr	r4, .L51+4
 307 0008 42F08052 		orr	r2, r2, #268435456
 308 000c 1A64     		str	r2, [r3, #64]
 309 000e 1B6C     		ldr	r3, [r3, #64]
 310 0010 03F08053 		and	r3, r3, #268435456
 311 0014 0193     		str	r3, [sp, #4]
 312 0016 019B     		ldr	r3, [sp, #4]
 313 0018 2368     		ldr	r3, [r4]
 314 001a 23F40033 		bic	r3, r3, #131072
 315 001e 2360     		str	r3, [r4]
 316 0020 FFF7FEFF 		bl	HAL_GetTick
 317 0024 0546     		mov	r5, r0
 318              	.L44:
 319 0026 6368     		ldr	r3, [r4, #4]
 320 0028 9B03     		lsls	r3, r3, #14
 321 002a 0DD4     		bmi	.L46
 322 002c 2368     		ldr	r3, [r4]
 323 002e 0F4D     		ldr	r5, .L51+4
 324 0030 23F48033 		bic	r3, r3, #65536
 325 0034 2360     		str	r3, [r4]
 326 0036 FFF7FEFF 		bl	HAL_GetTick
 327 003a 0446     		mov	r4, r0
 328              	.L47:
 329 003c 6B68     		ldr	r3, [r5, #4]
 330 003e 13F48033 		ands	r3, r3, #65536
 331 0042 0AD1     		bne	.L49
 332 0044 1846     		mov	r0, r3
 333 0046 06E0     		b	.L45
 334              	.L46:
 335 0048 FFF7FEFF 		bl	HAL_GetTick
 336 004c 401B     		subs	r0, r0, r5
 337 004e B0F57A7F 		cmp	r0, #1000
 338 0052 E8D9     		bls	.L44
 339              	.L48:
 340 0054 0320     		movs	r0, #3
 341              	.L45:
 342 0056 03B0     		add	sp, sp, #12
 343              		@ sp needed
 344 0058 30BD     		pop	{r4, r5, pc}
 345              	.L49:
 346 005a FFF7FEFF 		bl	HAL_GetTick
 347 005e 001B     		subs	r0, r0, r4
 348 0060 B0F57A7F 		cmp	r0, #1000
 349 0064 EAD9     		bls	.L47
 350 0066 F5E7     		b	.L48
 351              	.L52:
 352              		.align	2
 353              	.L51:
 354 0068 00380240 		.word	1073887232
 355 006c 00700040 		.word	1073770496
 357              		.section	.text.HAL_PWREx_EnterUnderDriveSTOPMode,"ax",%progbits
 358              		.align	1
 359              		.global	HAL_PWREx_EnterUnderDriveSTOPMode
 360              		.syntax unified
 361              		.thumb
 362              		.thumb_func
ARM GAS  /tmp/ccZnbtkY.s 			page 7


 363              		.fpu fpv5-sp-d16
 365              	HAL_PWREx_EnterUnderDriveSTOPMode:
 366              		@ args = 0, pretend = 0, frame = 8
 367              		@ frame_needed = 0, uses_anonymous_args = 0
 368 0000 204B     		ldr	r3, .L60
 369 0002 F7B5     		push	{r0, r1, r2, r4, r5, r6, r7, lr}
 370 0004 1A6C     		ldr	r2, [r3, #64]
 371 0006 0646     		mov	r6, r0
 372 0008 1F4C     		ldr	r4, .L60+4
 373 000a 0D46     		mov	r5, r1
 374 000c 42F08052 		orr	r2, r2, #268435456
 375 0010 1A64     		str	r2, [r3, #64]
 376 0012 1B6C     		ldr	r3, [r3, #64]
 377 0014 03F08053 		and	r3, r3, #268435456
 378 0018 0193     		str	r3, [sp, #4]
 379 001a 019B     		ldr	r3, [sp, #4]
 380 001c 6268     		ldr	r2, [r4, #4]
 381 001e 42F44022 		orr	r2, r2, #786432
 382 0022 42F48072 		orr	r2, r2, #256
 383 0026 6260     		str	r2, [r4, #4]
 384 0028 2368     		ldr	r3, [r4]
 385 002a 43F44023 		orr	r3, r3, #786432
 386 002e 2360     		str	r3, [r4]
 387 0030 FFF7FEFF 		bl	HAL_GetTick
 388 0034 0746     		mov	r7, r0
 389              	.L54:
 390 0036 6368     		ldr	r3, [r4, #4]
 391 0038 03F44023 		and	r3, r3, #786432
 392 003c B3F5402F 		cmp	r3, #786432
 393 0040 16D0     		beq	.L56
 394 0042 2368     		ldr	r3, [r4]
 395 0044 012D     		cmp	r5, #1
 396 0046 23F44063 		bic	r3, r3, #3072
 397 004a 23F00303 		bic	r3, r3, #3
 398 004e 43EA0603 		orr	r3, r3, r6
 399 0052 2360     		str	r3, [r4]
 400 0054 0D4B     		ldr	r3, .L60+8
 401 0056 1A69     		ldr	r2, [r3, #16]
 402 0058 42F00402 		orr	r2, r2, #4
 403 005c 1A61     		str	r2, [r3, #16]
 404 005e 0FD1     		bne	.L57
 405              		.syntax unified
 406              	@ 426 "Drivers/STM32F7xx_HAL_Driver/Src/stm32f7xx_hal_pwr_ex.c" 1
 407 0060 30BF     		wfi
 408              	@ 0 "" 2
 409              		.thumb
 410              		.syntax unified
 411              	.L58:
 412 0062 1A69     		ldr	r2, [r3, #16]
 413 0064 0020     		movs	r0, #0
 414 0066 22F00402 		bic	r2, r2, #4
 415 006a 1A61     		str	r2, [r3, #16]
 416              	.L55:
 417 006c 03B0     		add	sp, sp, #12
 418              		@ sp needed
 419 006e F0BD     		pop	{r4, r5, r6, r7, pc}
 420              	.L56:
ARM GAS  /tmp/ccZnbtkY.s 			page 8


 421 0070 FFF7FEFF 		bl	HAL_GetTick
 422 0074 C01B     		subs	r0, r0, r7
 423 0076 B0F57A7F 		cmp	r0, #1000
 424 007a DCD9     		bls	.L54
 425 007c 0320     		movs	r0, #3
 426 007e F5E7     		b	.L55
 427              	.L57:
 428              		.syntax unified
 429              	@ 431 "Drivers/STM32F7xx_HAL_Driver/Src/stm32f7xx_hal_pwr_ex.c" 1
 430 0080 20BF     		wfe
 431              	@ 0 "" 2
 432              		.thumb
 433              		.syntax unified
 434 0082 EEE7     		b	.L58
 435              	.L61:
 436              		.align	2
 437              	.L60:
 438 0084 00380240 		.word	1073887232
 439 0088 00700040 		.word	1073770496
 440 008c 00ED00E0 		.word	-536810240
 442              		.section	.text.HAL_PWREx_GetVoltageRange,"ax",%progbits
 443              		.align	1
 444              		.global	HAL_PWREx_GetVoltageRange
 445              		.syntax unified
 446              		.thumb
 447              		.thumb_func
 448              		.fpu fpv5-sp-d16
 450              	HAL_PWREx_GetVoltageRange:
 451              		@ args = 0, pretend = 0, frame = 0
 452              		@ frame_needed = 0, uses_anonymous_args = 0
 453              		@ link register save eliminated.
 454 0000 024B     		ldr	r3, .L63
 455 0002 1868     		ldr	r0, [r3]
 456 0004 00F44040 		and	r0, r0, #49152
 457 0008 7047     		bx	lr
 458              	.L64:
 459 000a 00BF     		.align	2
 460              	.L63:
 461 000c 00700040 		.word	1073770496
 463              		.section	.text.HAL_PWREx_ControlVoltageScaling,"ax",%progbits
 464              		.align	1
 465              		.global	HAL_PWREx_ControlVoltageScaling
 466              		.syntax unified
 467              		.thumb
 468              		.thumb_func
 469              		.fpu fpv5-sp-d16
 471              	HAL_PWREx_ControlVoltageScaling:
 472              		@ args = 0, pretend = 0, frame = 8
 473              		@ frame_needed = 0, uses_anonymous_args = 0
 474 0000 73B5     		push	{r0, r1, r4, r5, r6, lr}
 475 0002 284C     		ldr	r4, .L76
 476 0004 0546     		mov	r5, r0
 477 0006 236C     		ldr	r3, [r4, #64]
 478 0008 43F08053 		orr	r3, r3, #268435456
 479 000c 2364     		str	r3, [r4, #64]
 480 000e 236C     		ldr	r3, [r4, #64]
 481 0010 03F08053 		and	r3, r3, #268435456
ARM GAS  /tmp/ccZnbtkY.s 			page 9


 482 0014 0093     		str	r3, [sp]
 483 0016 009B     		ldr	r3, [sp]
 484 0018 A368     		ldr	r3, [r4, #8]
 485 001a 03F00C03 		and	r3, r3, #12
 486 001e 082B     		cmp	r3, #8
 487 0020 3DD0     		beq	.L74
 488 0022 2368     		ldr	r3, [r4]
 489 0024 23F08073 		bic	r3, r3, #16777216
 490 0028 2360     		str	r3, [r4]
 491 002a FFF7FEFF 		bl	HAL_GetTick
 492 002e 0646     		mov	r6, r0
 493              	.L67:
 494 0030 2368     		ldr	r3, [r4]
 495 0032 9901     		lsls	r1, r3, #6
 496 0034 1ED4     		bmi	.L68
 497 0036 1C4A     		ldr	r2, .L76+4
 498 0038 1368     		ldr	r3, [r2]
 499 003a 23F44043 		bic	r3, r3, #49152
 500 003e 2B43     		orrs	r3, r3, r5
 501 0040 184D     		ldr	r5, .L76
 502 0042 1360     		str	r3, [r2]
 503 0044 1368     		ldr	r3, [r2]
 504 0046 03F44043 		and	r3, r3, #49152
 505 004a 0193     		str	r3, [sp, #4]
 506 004c 019B     		ldr	r3, [sp, #4]
 507 004e 2368     		ldr	r3, [r4]
 508 0050 43F08073 		orr	r3, r3, #16777216
 509 0054 2360     		str	r3, [r4]
 510 0056 FFF7FEFF 		bl	HAL_GetTick
 511 005a 0446     		mov	r4, r0
 512              	.L69:
 513 005c 2B68     		ldr	r3, [r5]
 514 005e 9A01     		lsls	r2, r3, #6
 515 0060 10D5     		bpl	.L71
 516 0062 FFF7FEFF 		bl	HAL_GetTick
 517 0066 104D     		ldr	r5, .L76+4
 518 0068 0446     		mov	r4, r0
 519              	.L72:
 520 006a 6B68     		ldr	r3, [r5, #4]
 521 006c 5B04     		lsls	r3, r3, #17
 522 006e 0FD5     		bpl	.L73
 523 0070 0020     		movs	r0, #0
 524 0072 05E0     		b	.L66
 525              	.L68:
 526 0074 FFF7FEFF 		bl	HAL_GetTick
 527 0078 801B     		subs	r0, r0, r6
 528 007a 0228     		cmp	r0, #2
 529 007c D8D9     		bls	.L67
 530              	.L70:
 531 007e 0320     		movs	r0, #3
 532              	.L66:
 533 0080 02B0     		add	sp, sp, #8
 534              		@ sp needed
 535 0082 70BD     		pop	{r4, r5, r6, pc}
 536              	.L71:
 537 0084 FFF7FEFF 		bl	HAL_GetTick
 538 0088 001B     		subs	r0, r0, r4
ARM GAS  /tmp/ccZnbtkY.s 			page 10


 539 008a 0228     		cmp	r0, #2
 540 008c E6D9     		bls	.L69
 541 008e F6E7     		b	.L70
 542              	.L73:
 543 0090 FFF7FEFF 		bl	HAL_GetTick
 544 0094 001B     		subs	r0, r0, r4
 545 0096 B0F57A7F 		cmp	r0, #1000
 546 009a E6D9     		bls	.L72
 547 009c EFE7     		b	.L70
 548              	.L74:
 549 009e 0120     		movs	r0, #1
 550 00a0 EEE7     		b	.L66
 551              	.L77:
 552 00a2 00BF     		.align	2
 553              	.L76:
 554 00a4 00380240 		.word	1073887232
 555 00a8 00700040 		.word	1073770496
 557              		.ident	"GCC: (15:10.3-2021.07-4) 10.3.1 20210621 (release)"
ARM GAS  /tmp/ccZnbtkY.s 			page 11

