ARM GAS  /tmp/ccGaOVi8.s 			page 1


   1              		.cpu cortex-m7
   2              		.eabi_attribute 27, 1
   3              		.eabi_attribute 20, 1
   4              		.eabi_attribute 21, 1
   5              		.eabi_attribute 23, 3
   6              		.eabi_attribute 24, 1
   7              		.eabi_attribute 25, 1
   8              		.eabi_attribute 26, 1
   9              		.eabi_attribute 30, 4
  10              		.eabi_attribute 34, 1
  11              		.eabi_attribute 18, 4
  12              		.file	"stm32f7xx_hal_rtc.c"
  13              		.text
  14              		.section	.text.HAL_RTC_MspInit,"ax",%progbits
  15              		.align	1
  16              		.weak	HAL_RTC_MspInit
  17              		.arch armv7e-m
  18              		.syntax unified
  19              		.thumb
  20              		.thumb_func
  21              		.fpu fpv5-sp-d16
  23              	HAL_RTC_MspInit:
  24              		@ args = 0, pretend = 0, frame = 0
  25              		@ frame_needed = 0, uses_anonymous_args = 0
  26              		@ link register save eliminated.
  27 0000 7047     		bx	lr
  29              		.section	.text.HAL_RTC_MspDeInit,"ax",%progbits
  30              		.align	1
  31              		.weak	HAL_RTC_MspDeInit
  32              		.syntax unified
  33              		.thumb
  34              		.thumb_func
  35              		.fpu fpv5-sp-d16
  37              	HAL_RTC_MspDeInit:
  38              		@ args = 0, pretend = 0, frame = 0
  39              		@ frame_needed = 0, uses_anonymous_args = 0
  40              		@ link register save eliminated.
  41 0000 7047     		bx	lr
  43              		.section	.text.HAL_RTC_DeactivateAlarm,"ax",%progbits
  44              		.align	1
  45              		.global	HAL_RTC_DeactivateAlarm
  46              		.syntax unified
  47              		.thumb
  48              		.thumb_func
  49              		.fpu fpv5-sp-d16
  51              	HAL_RTC_DeactivateAlarm:
  52              		@ args = 0, pretend = 0, frame = 0
  53              		@ frame_needed = 0, uses_anonymous_args = 0
  54 0000 70B5     		push	{r4, r5, r6, lr}
  55 0002 037F     		ldrb	r3, [r0, #28]	@ zero_extendqisi2
  56 0004 0446     		mov	r4, r0
  57 0006 0220     		movs	r0, #2
  58 0008 012B     		cmp	r3, #1
  59 000a 22D0     		beq	.L4
  60 000c 0123     		movs	r3, #1
  61 000e CA22     		movs	r2, #202
  62 0010 6077     		strb	r0, [r4, #29]
ARM GAS  /tmp/ccGaOVi8.s 			page 2


  63 0012 B1F5807F 		cmp	r1, #256
  64 0016 2377     		strb	r3, [r4, #28]
  65 0018 2368     		ldr	r3, [r4]
  66 001a 5A62     		str	r2, [r3, #36]
  67 001c 4FF05302 		mov	r2, #83
  68 0020 5A62     		str	r2, [r3, #36]
  69 0022 9A68     		ldr	r2, [r3, #8]
  70 0024 23D1     		bne	.L5
  71 0026 22F48072 		bic	r2, r2, #256
  72 002a 9A60     		str	r2, [r3, #8]
  73 002c 9A68     		ldr	r2, [r3, #8]
  74 002e 22F48052 		bic	r2, r2, #4096
  75 0032 9A60     		str	r2, [r3, #8]
  76 0034 FFF7FEFF 		bl	HAL_GetTick
  77 0038 0646     		mov	r6, r0
  78              	.L6:
  79 003a 2368     		ldr	r3, [r4]
  80 003c DD68     		ldr	r5, [r3, #12]
  81 003e 15F00105 		ands	r5, r5, #1
  82 0042 07D0     		beq	.L7
  83              	.L10:
  84 0044 2368     		ldr	r3, [r4]
  85 0046 FF22     		movs	r2, #255
  86 0048 0020     		movs	r0, #0
  87 004a 5A62     		str	r2, [r3, #36]
  88 004c 0123     		movs	r3, #1
  89 004e 2077     		strb	r0, [r4, #28]
  90 0050 6377     		strb	r3, [r4, #29]
  91              	.L4:
  92 0052 70BD     		pop	{r4, r5, r6, pc}
  93              	.L7:
  94 0054 FFF7FEFF 		bl	HAL_GetTick
  95 0058 801B     		subs	r0, r0, r6
  96 005a B0F57A7F 		cmp	r0, #1000
  97 005e ECD9     		bls	.L6
  98              	.L14:
  99 0060 2368     		ldr	r3, [r4]
 100 0062 FF22     		movs	r2, #255
 101 0064 0320     		movs	r0, #3
 102 0066 5A62     		str	r2, [r3, #36]
 103 0068 6077     		strb	r0, [r4, #29]
 104 006a 2577     		strb	r5, [r4, #28]
 105 006c F1E7     		b	.L4
 106              	.L5:
 107 006e 22F40072 		bic	r2, r2, #512
 108 0072 9A60     		str	r2, [r3, #8]
 109 0074 9A68     		ldr	r2, [r3, #8]
 110 0076 22F40052 		bic	r2, r2, #8192
 111 007a 9A60     		str	r2, [r3, #8]
 112 007c FFF7FEFF 		bl	HAL_GetTick
 113 0080 0646     		mov	r6, r0
 114              	.L8:
 115 0082 2368     		ldr	r3, [r4]
 116 0084 DD68     		ldr	r5, [r3, #12]
 117 0086 15F00205 		ands	r5, r5, #2
 118 008a DBD1     		bne	.L10
 119 008c FFF7FEFF 		bl	HAL_GetTick
ARM GAS  /tmp/ccGaOVi8.s 			page 3


 120 0090 801B     		subs	r0, r0, r6
 121 0092 B0F57A7F 		cmp	r0, #1000
 122 0096 F4D9     		bls	.L8
 123 0098 E2E7     		b	.L14
 125              		.section	.text.HAL_RTC_AlarmAEventCallback,"ax",%progbits
 126              		.align	1
 127              		.weak	HAL_RTC_AlarmAEventCallback
 128              		.syntax unified
 129              		.thumb
 130              		.thumb_func
 131              		.fpu fpv5-sp-d16
 133              	HAL_RTC_AlarmAEventCallback:
 134              		@ args = 0, pretend = 0, frame = 0
 135              		@ frame_needed = 0, uses_anonymous_args = 0
 136              		@ link register save eliminated.
 137 0000 7047     		bx	lr
 139              		.section	.text.HAL_RTC_AlarmIRQHandler,"ax",%progbits
 140              		.align	1
 141              		.global	HAL_RTC_AlarmIRQHandler
 142              		.syntax unified
 143              		.thumb
 144              		.thumb_func
 145              		.fpu fpv5-sp-d16
 147              	HAL_RTC_AlarmIRQHandler:
 148              		@ args = 0, pretend = 0, frame = 0
 149              		@ frame_needed = 0, uses_anonymous_args = 0
 150 0000 124B     		ldr	r3, .L31
 151 0002 4FF40032 		mov	r2, #131072
 152 0006 10B5     		push	{r4, lr}
 153 0008 5A61     		str	r2, [r3, #20]
 154 000a 0446     		mov	r4, r0
 155 000c 0268     		ldr	r2, [r0]
 156 000e 9368     		ldr	r3, [r2, #8]
 157 0010 D904     		lsls	r1, r3, #19
 158 0012 09D5     		bpl	.L17
 159 0014 D368     		ldr	r3, [r2, #12]
 160 0016 DB05     		lsls	r3, r3, #23
 161 0018 06D5     		bpl	.L17
 162 001a D368     		ldr	r3, [r2, #12]
 163 001c DBB2     		uxtb	r3, r3
 164 001e 63F4C073 		orn	r3, r3, #384
 165 0022 D360     		str	r3, [r2, #12]
 166 0024 FFF7FEFF 		bl	HAL_RTC_AlarmAEventCallback
 167              	.L17:
 168 0028 2268     		ldr	r2, [r4]
 169 002a 9368     		ldr	r3, [r2, #8]
 170 002c 9904     		lsls	r1, r3, #18
 171 002e 0AD5     		bpl	.L18
 172 0030 D368     		ldr	r3, [r2, #12]
 173 0032 9B05     		lsls	r3, r3, #22
 174 0034 07D5     		bpl	.L18
 175 0036 D368     		ldr	r3, [r2, #12]
 176 0038 2046     		mov	r0, r4
 177 003a DBB2     		uxtb	r3, r3
 178 003c 63F42073 		orn	r3, r3, #640
 179 0040 D360     		str	r3, [r2, #12]
 180 0042 FFF7FEFF 		bl	HAL_RTCEx_AlarmBEventCallback
ARM GAS  /tmp/ccGaOVi8.s 			page 4


 181              	.L18:
 182 0046 0123     		movs	r3, #1
 183 0048 6377     		strb	r3, [r4, #29]
 184 004a 10BD     		pop	{r4, pc}
 185              	.L32:
 186              		.align	2
 187              	.L31:
 188 004c 003C0140 		.word	1073822720
 190              		.section	.text.HAL_RTC_PollForAlarmAEvent,"ax",%progbits
 191              		.align	1
 192              		.global	HAL_RTC_PollForAlarmAEvent
 193              		.syntax unified
 194              		.thumb
 195              		.thumb_func
 196              		.fpu fpv5-sp-d16
 198              	HAL_RTC_PollForAlarmAEvent:
 199              		@ args = 0, pretend = 0, frame = 0
 200              		@ frame_needed = 0, uses_anonymous_args = 0
 201 0000 70B5     		push	{r4, r5, r6, lr}
 202 0002 0446     		mov	r4, r0
 203 0004 0D46     		mov	r5, r1
 204 0006 FFF7FEFF 		bl	HAL_GetTick
 205 000a 0646     		mov	r6, r0
 206              	.L34:
 207 000c 2268     		ldr	r2, [r4]
 208              	.L35:
 209 000e D368     		ldr	r3, [r2, #12]
 210 0010 DB05     		lsls	r3, r3, #23
 211 0012 08D5     		bpl	.L39
 212 0014 D368     		ldr	r3, [r2, #12]
 213 0016 0020     		movs	r0, #0
 214 0018 DBB2     		uxtb	r3, r3
 215 001a 63F4C073 		orn	r3, r3, #384
 216 001e D360     		str	r3, [r2, #12]
 217 0020 0123     		movs	r3, #1
 218 0022 6377     		strb	r3, [r4, #29]
 219 0024 05E0     		b	.L37
 220              	.L39:
 221 0026 691C     		adds	r1, r5, #1
 222 0028 F1D0     		beq	.L35
 223 002a 1DB9     		cbnz	r5, .L36
 224              	.L38:
 225 002c 0323     		movs	r3, #3
 226 002e 1846     		mov	r0, r3
 227 0030 6377     		strb	r3, [r4, #29]
 228              	.L37:
 229 0032 70BD     		pop	{r4, r5, r6, pc}
 230              	.L36:
 231 0034 FFF7FEFF 		bl	HAL_GetTick
 232 0038 801B     		subs	r0, r0, r6
 233 003a A842     		cmp	r0, r5
 234 003c E6D9     		bls	.L34
 235 003e F5E7     		b	.L38
 237              		.section	.text.HAL_RTC_WaitForSynchro,"ax",%progbits
 238              		.align	1
 239              		.global	HAL_RTC_WaitForSynchro
 240              		.syntax unified
ARM GAS  /tmp/ccGaOVi8.s 			page 5


 241              		.thumb
 242              		.thumb_func
 243              		.fpu fpv5-sp-d16
 245              	HAL_RTC_WaitForSynchro:
 246              		@ args = 0, pretend = 0, frame = 0
 247              		@ frame_needed = 0, uses_anonymous_args = 0
 248 0000 0268     		ldr	r2, [r0]
 249 0002 38B5     		push	{r3, r4, r5, lr}
 250 0004 D368     		ldr	r3, [r2, #12]
 251 0006 0446     		mov	r4, r0
 252 0008 23F0A003 		bic	r3, r3, #160
 253 000c D360     		str	r3, [r2, #12]
 254 000e FFF7FEFF 		bl	HAL_GetTick
 255 0012 0546     		mov	r5, r0
 256              	.L43:
 257 0014 2368     		ldr	r3, [r4]
 258 0016 DB68     		ldr	r3, [r3, #12]
 259 0018 9B06     		lsls	r3, r3, #26
 260 001a 01D5     		bpl	.L45
 261 001c 0020     		movs	r0, #0
 262              	.L44:
 263 001e 38BD     		pop	{r3, r4, r5, pc}
 264              	.L45:
 265 0020 FFF7FEFF 		bl	HAL_GetTick
 266 0024 401B     		subs	r0, r0, r5
 267 0026 B0F57A7F 		cmp	r0, #1000
 268 002a F3D9     		bls	.L43
 269 002c 0320     		movs	r0, #3
 270 002e F6E7     		b	.L44
 272              		.section	.text.HAL_RTC_DST_Add1Hour,"ax",%progbits
 273              		.align	1
 274              		.global	HAL_RTC_DST_Add1Hour
 275              		.syntax unified
 276              		.thumb
 277              		.thumb_func
 278              		.fpu fpv5-sp-d16
 280              	HAL_RTC_DST_Add1Hour:
 281              		@ args = 0, pretend = 0, frame = 0
 282              		@ frame_needed = 0, uses_anonymous_args = 0
 283              		@ link register save eliminated.
 284 0000 0368     		ldr	r3, [r0]
 285 0002 CA22     		movs	r2, #202
 286 0004 5A62     		str	r2, [r3, #36]
 287 0006 5322     		movs	r2, #83
 288 0008 5A62     		str	r2, [r3, #36]
 289 000a 9A68     		ldr	r2, [r3, #8]
 290 000c 42F48032 		orr	r2, r2, #65536
 291 0010 9A60     		str	r2, [r3, #8]
 292 0012 FF22     		movs	r2, #255
 293 0014 5A62     		str	r2, [r3, #36]
 294 0016 7047     		bx	lr
 296              		.section	.text.HAL_RTC_DST_Sub1Hour,"ax",%progbits
 297              		.align	1
 298              		.global	HAL_RTC_DST_Sub1Hour
 299              		.syntax unified
 300              		.thumb
 301              		.thumb_func
ARM GAS  /tmp/ccGaOVi8.s 			page 6


 302              		.fpu fpv5-sp-d16
 304              	HAL_RTC_DST_Sub1Hour:
 305              		@ args = 0, pretend = 0, frame = 0
 306              		@ frame_needed = 0, uses_anonymous_args = 0
 307              		@ link register save eliminated.
 308 0000 0368     		ldr	r3, [r0]
 309 0002 CA22     		movs	r2, #202
 310 0004 5A62     		str	r2, [r3, #36]
 311 0006 5322     		movs	r2, #83
 312 0008 5A62     		str	r2, [r3, #36]
 313 000a 9A68     		ldr	r2, [r3, #8]
 314 000c 42F40032 		orr	r2, r2, #131072
 315 0010 9A60     		str	r2, [r3, #8]
 316 0012 FF22     		movs	r2, #255
 317 0014 5A62     		str	r2, [r3, #36]
 318 0016 7047     		bx	lr
 320              		.section	.text.HAL_RTC_DST_SetStoreOperation,"ax",%progbits
 321              		.align	1
 322              		.global	HAL_RTC_DST_SetStoreOperation
 323              		.syntax unified
 324              		.thumb
 325              		.thumb_func
 326              		.fpu fpv5-sp-d16
 328              	HAL_RTC_DST_SetStoreOperation:
 329              		@ args = 0, pretend = 0, frame = 0
 330              		@ frame_needed = 0, uses_anonymous_args = 0
 331              		@ link register save eliminated.
 332 0000 0368     		ldr	r3, [r0]
 333 0002 CA22     		movs	r2, #202
 334 0004 5A62     		str	r2, [r3, #36]
 335 0006 5322     		movs	r2, #83
 336 0008 5A62     		str	r2, [r3, #36]
 337 000a 9A68     		ldr	r2, [r3, #8]
 338 000c 42F48022 		orr	r2, r2, #262144
 339 0010 9A60     		str	r2, [r3, #8]
 340 0012 FF22     		movs	r2, #255
 341 0014 5A62     		str	r2, [r3, #36]
 342 0016 7047     		bx	lr
 344              		.section	.text.HAL_RTC_DST_ClearStoreOperation,"ax",%progbits
 345              		.align	1
 346              		.global	HAL_RTC_DST_ClearStoreOperation
 347              		.syntax unified
 348              		.thumb
 349              		.thumb_func
 350              		.fpu fpv5-sp-d16
 352              	HAL_RTC_DST_ClearStoreOperation:
 353              		@ args = 0, pretend = 0, frame = 0
 354              		@ frame_needed = 0, uses_anonymous_args = 0
 355              		@ link register save eliminated.
 356 0000 0368     		ldr	r3, [r0]
 357 0002 CA22     		movs	r2, #202
 358 0004 5A62     		str	r2, [r3, #36]
 359 0006 5322     		movs	r2, #83
 360 0008 5A62     		str	r2, [r3, #36]
 361 000a 9A68     		ldr	r2, [r3, #8]
 362 000c 22F48022 		bic	r2, r2, #262144
 363 0010 9A60     		str	r2, [r3, #8]
ARM GAS  /tmp/ccGaOVi8.s 			page 7


 364 0012 FF22     		movs	r2, #255
 365 0014 5A62     		str	r2, [r3, #36]
 366 0016 7047     		bx	lr
 368              		.section	.text.HAL_RTC_DST_ReadStoreOperation,"ax",%progbits
 369              		.align	1
 370              		.global	HAL_RTC_DST_ReadStoreOperation
 371              		.syntax unified
 372              		.thumb
 373              		.thumb_func
 374              		.fpu fpv5-sp-d16
 376              	HAL_RTC_DST_ReadStoreOperation:
 377              		@ args = 0, pretend = 0, frame = 0
 378              		@ frame_needed = 0, uses_anonymous_args = 0
 379              		@ link register save eliminated.
 380 0000 0368     		ldr	r3, [r0]
 381 0002 9868     		ldr	r0, [r3, #8]
 382 0004 00F48020 		and	r0, r0, #262144
 383 0008 7047     		bx	lr
 385              		.section	.text.HAL_RTC_GetState,"ax",%progbits
 386              		.align	1
 387              		.global	HAL_RTC_GetState
 388              		.syntax unified
 389              		.thumb
 390              		.thumb_func
 391              		.fpu fpv5-sp-d16
 393              	HAL_RTC_GetState:
 394              		@ args = 0, pretend = 0, frame = 0
 395              		@ frame_needed = 0, uses_anonymous_args = 0
 396              		@ link register save eliminated.
 397 0000 407F     		ldrb	r0, [r0, #29]	@ zero_extendqisi2
 398 0002 7047     		bx	lr
 400              		.section	.text.RTC_EnterInitMode,"ax",%progbits
 401              		.align	1
 402              		.global	RTC_EnterInitMode
 403              		.syntax unified
 404              		.thumb
 405              		.thumb_func
 406              		.fpu fpv5-sp-d16
 408              	RTC_EnterInitMode:
 409              		@ args = 0, pretend = 0, frame = 0
 410              		@ frame_needed = 0, uses_anonymous_args = 0
 411 0000 F8B5     		push	{r3, r4, r5, r6, r7, lr}
 412 0002 0368     		ldr	r3, [r0]
 413 0004 0546     		mov	r5, r0
 414 0006 DC68     		ldr	r4, [r3, #12]
 415 0008 14F04004 		ands	r4, r4, #64
 416 000c 17D1     		bne	.L58
 417 000e DA68     		ldr	r2, [r3, #12]
 418 0010 0427     		movs	r7, #4
 419 0012 42F08002 		orr	r2, r2, #128
 420 0016 DA60     		str	r2, [r3, #12]
 421 0018 FFF7FEFF 		bl	HAL_GetTick
 422 001c 0646     		mov	r6, r0
 423              	.L56:
 424 001e 2B68     		ldr	r3, [r5]
 425 0020 DB68     		ldr	r3, [r3, #12]
 426 0022 5B06     		lsls	r3, r3, #25
ARM GAS  /tmp/ccGaOVi8.s 			page 8


 427 0024 00D4     		bmi	.L54
 428 0026 0CB1     		cbz	r4, .L57
 429              	.L54:
 430 0028 2046     		mov	r0, r4
 431 002a F8BD     		pop	{r3, r4, r5, r6, r7, pc}
 432              	.L57:
 433 002c FFF7FEFF 		bl	HAL_GetTick
 434 0030 801B     		subs	r0, r0, r6
 435 0032 B0F57A7F 		cmp	r0, #1000
 436 0036 F2D9     		bls	.L56
 437 0038 0124     		movs	r4, #1
 438 003a 6F77     		strb	r7, [r5, #29]
 439 003c EFE7     		b	.L56
 440              	.L58:
 441 003e 0024     		movs	r4, #0
 442 0040 F2E7     		b	.L54
 444              		.section	.text.RTC_ExitInitMode,"ax",%progbits
 445              		.align	1
 446              		.global	RTC_ExitInitMode
 447              		.syntax unified
 448              		.thumb
 449              		.thumb_func
 450              		.fpu fpv5-sp-d16
 452              	RTC_ExitInitMode:
 453              		@ args = 0, pretend = 0, frame = 0
 454              		@ frame_needed = 0, uses_anonymous_args = 0
 455 0000 0368     		ldr	r3, [r0]
 456 0002 DA68     		ldr	r2, [r3, #12]
 457 0004 22F08002 		bic	r2, r2, #128
 458 0008 10B5     		push	{r4, lr}
 459 000a DA60     		str	r2, [r3, #12]
 460 000c 0446     		mov	r4, r0
 461 000e 9B68     		ldr	r3, [r3, #8]
 462 0010 9B06     		lsls	r3, r3, #26
 463 0012 01D5     		bpl	.L61
 464              	.L63:
 465 0014 0020     		movs	r0, #0
 466              	.L62:
 467 0016 10BD     		pop	{r4, pc}
 468              	.L61:
 469 0018 FFF7FEFF 		bl	HAL_RTC_WaitForSynchro
 470 001c 0028     		cmp	r0, #0
 471 001e F9D0     		beq	.L63
 472 0020 0423     		movs	r3, #4
 473 0022 0120     		movs	r0, #1
 474 0024 6377     		strb	r3, [r4, #29]
 475 0026 F6E7     		b	.L62
 477              		.section	.text.HAL_RTC_Init,"ax",%progbits
 478              		.align	1
 479              		.global	HAL_RTC_Init
 480              		.syntax unified
 481              		.thumb
 482              		.thumb_func
 483              		.fpu fpv5-sp-d16
 485              	HAL_RTC_Init:
 486              		@ args = 0, pretend = 0, frame = 0
 487              		@ frame_needed = 0, uses_anonymous_args = 0
ARM GAS  /tmp/ccGaOVi8.s 			page 9


 488 0000 10B5     		push	{r4, lr}
 489 0002 0446     		mov	r4, r0
 490 0004 0028     		cmp	r0, #0
 491 0006 41D0     		beq	.L73
 492 0008 437F     		ldrb	r3, [r0, #29]	@ zero_extendqisi2
 493 000a 03F0FF02 		and	r2, r3, #255
 494 000e 13B9     		cbnz	r3, .L69
 495 0010 0277     		strb	r2, [r0, #28]
 496 0012 FFF7FEFF 		bl	HAL_RTC_MspInit
 497              	.L69:
 498 0016 0223     		movs	r3, #2
 499 0018 6377     		strb	r3, [r4, #29]
 500 001a 2368     		ldr	r3, [r4]
 501 001c DA68     		ldr	r2, [r3, #12]
 502 001e D206     		lsls	r2, r2, #27
 503 0020 03D5     		bpl	.L70
 504              	.L72:
 505 0022 0123     		movs	r3, #1
 506 0024 0020     		movs	r0, #0
 507 0026 6377     		strb	r3, [r4, #29]
 508              	.L68:
 509 0028 10BD     		pop	{r4, pc}
 510              	.L70:
 511 002a CA22     		movs	r2, #202
 512 002c 2046     		mov	r0, r4
 513 002e 5A62     		str	r2, [r3, #36]
 514 0030 5322     		movs	r2, #83
 515 0032 5A62     		str	r2, [r3, #36]
 516 0034 FFF7FEFF 		bl	RTC_EnterInitMode
 517 0038 10BB     		cbnz	r0, .L71
 518 003a 2368     		ldr	r3, [r4]
 519 003c 2069     		ldr	r0, [r4, #16]
 520 003e 9A68     		ldr	r2, [r3, #8]
 521 0040 22F4E002 		bic	r2, r2, #7340032
 522 0044 22F04002 		bic	r2, r2, #64
 523 0048 9A60     		str	r2, [r3, #8]
 524 004a 6268     		ldr	r2, [r4, #4]
 525 004c 9968     		ldr	r1, [r3, #8]
 526 004e 0243     		orrs	r2, r2, r0
 527 0050 6069     		ldr	r0, [r4, #20]
 528 0052 0243     		orrs	r2, r2, r0
 529 0054 2046     		mov	r0, r4
 530 0056 0A43     		orrs	r2, r2, r1
 531 0058 A168     		ldr	r1, [r4, #8]
 532 005a 9A60     		str	r2, [r3, #8]
 533 005c E268     		ldr	r2, [r4, #12]
 534 005e 1A61     		str	r2, [r3, #16]
 535 0060 1A69     		ldr	r2, [r3, #16]
 536 0062 42EA0142 		orr	r2, r2, r1, lsl #16
 537 0066 1A61     		str	r2, [r3, #16]
 538 0068 FFF7FEFF 		bl	RTC_ExitInitMode
 539 006c 40B9     		cbnz	r0, .L71
 540 006e 2368     		ldr	r3, [r4]
 541 0070 A169     		ldr	r1, [r4, #24]
 542 0072 DA6C     		ldr	r2, [r3, #76]
 543 0074 22F00802 		bic	r2, r2, #8
 544 0078 DA64     		str	r2, [r3, #76]
ARM GAS  /tmp/ccGaOVi8.s 			page 10


 545 007a DA6C     		ldr	r2, [r3, #76]
 546 007c 0A43     		orrs	r2, r2, r1
 547 007e DA64     		str	r2, [r3, #76]
 548              	.L71:
 549 0080 2368     		ldr	r3, [r4]
 550 0082 FF22     		movs	r2, #255
 551 0084 5A62     		str	r2, [r3, #36]
 552 0086 0028     		cmp	r0, #0
 553 0088 CBD0     		beq	.L72
 554 008a CDE7     		b	.L68
 555              	.L73:
 556 008c 0120     		movs	r0, #1
 557 008e CBE7     		b	.L68
 559              		.section	.text.HAL_RTC_DeInit,"ax",%progbits
 560              		.align	1
 561              		.global	HAL_RTC_DeInit
 562              		.syntax unified
 563              		.thumb
 564              		.thumb_func
 565              		.fpu fpv5-sp-d16
 567              	HAL_RTC_DeInit:
 568              		@ args = 0, pretend = 0, frame = 0
 569              		@ frame_needed = 0, uses_anonymous_args = 0
 570 0000 38B5     		push	{r3, r4, r5, lr}
 571 0002 0223     		movs	r3, #2
 572 0004 CA22     		movs	r2, #202
 573 0006 0546     		mov	r5, r0
 574 0008 4377     		strb	r3, [r0, #29]
 575 000a 0368     		ldr	r3, [r0]
 576 000c 5A62     		str	r2, [r3, #36]
 577 000e 5322     		movs	r2, #83
 578 0010 5A62     		str	r2, [r3, #36]
 579 0012 FFF7FEFF 		bl	RTC_EnterInitMode
 580 0016 0446     		mov	r4, r0
 581 0018 A8B9     		cbnz	r0, .L78
 582 001a 2B68     		ldr	r3, [r5]
 583 001c 42F20112 		movw	r2, #8449
 584 0020 1860     		str	r0, [r3]
 585 0022 5A60     		str	r2, [r3, #4]
 586 0024 9A68     		ldr	r2, [r3, #8]
 587 0026 4FF6FF72 		movw	r2, #65535
 588 002a 9860     		str	r0, [r3, #8]
 589 002c 5A61     		str	r2, [r3, #20]
 590 002e 0D4A     		ldr	r2, .L80
 591 0030 1A61     		str	r2, [r3, #16]
 592 0032 D861     		str	r0, [r3, #28]
 593 0034 1862     		str	r0, [r3, #32]
 594 0036 D863     		str	r0, [r3, #60]
 595 0038 D862     		str	r0, [r3, #44]
 596 003a 5864     		str	r0, [r3, #68]
 597 003c 9864     		str	r0, [r3, #72]
 598 003e 2846     		mov	r0, r5
 599 0040 FFF7FEFF 		bl	RTC_ExitInitMode
 600 0044 0446     		mov	r4, r0
 601              	.L78:
 602 0046 2B68     		ldr	r3, [r5]
 603 0048 FF22     		movs	r2, #255
ARM GAS  /tmp/ccGaOVi8.s 			page 11


 604 004a 5A62     		str	r2, [r3, #36]
 605 004c 2CB9     		cbnz	r4, .L79
 606 004e 1C64     		str	r4, [r3, #64]
 607 0050 2846     		mov	r0, r5
 608 0052 DC64     		str	r4, [r3, #76]
 609 0054 FFF7FEFF 		bl	HAL_RTC_MspDeInit
 610 0058 6C77     		strb	r4, [r5, #29]
 611              	.L79:
 612 005a 0023     		movs	r3, #0
 613 005c 2046     		mov	r0, r4
 614 005e 2B77     		strb	r3, [r5, #28]
 615 0060 38BD     		pop	{r3, r4, r5, pc}
 616              	.L81:
 617 0062 00BF     		.align	2
 618              	.L80:
 619 0064 FF007F00 		.word	8323327
 621              		.section	.text.RTC_ByteToBcd2,"ax",%progbits
 622              		.align	1
 623              		.global	RTC_ByteToBcd2
 624              		.syntax unified
 625              		.thumb
 626              		.thumb_func
 627              		.fpu fpv5-sp-d16
 629              	RTC_ByteToBcd2:
 630              		@ args = 0, pretend = 0, frame = 0
 631              		@ frame_needed = 0, uses_anonymous_args = 0
 632              		@ link register save eliminated.
 633 0000 0023     		movs	r3, #0
 634              	.L83:
 635 0002 0928     		cmp	r0, #9
 636 0004 03D8     		bhi	.L84
 637 0006 40EA0310 		orr	r0, r0, r3, lsl #4
 638 000a C0B2     		uxtb	r0, r0
 639 000c 7047     		bx	lr
 640              	.L84:
 641 000e 0A38     		subs	r0, r0, #10
 642 0010 0133     		adds	r3, r3, #1
 643 0012 C0B2     		uxtb	r0, r0
 644 0014 F5E7     		b	.L83
 646              		.section	.text.HAL_RTC_SetTime,"ax",%progbits
 647              		.align	1
 648              		.global	HAL_RTC_SetTime
 649              		.syntax unified
 650              		.thumb
 651              		.thumb_func
 652              		.fpu fpv5-sp-d16
 654              	HAL_RTC_SetTime:
 655              		@ args = 0, pretend = 0, frame = 0
 656              		@ frame_needed = 0, uses_anonymous_args = 0
 657 0000 2DE9F041 		push	{r4, r5, r6, r7, r8, lr}
 658 0004 037F     		ldrb	r3, [r0, #28]	@ zero_extendqisi2
 659 0006 0646     		mov	r6, r0
 660 0008 0F46     		mov	r7, r1
 661 000a 0220     		movs	r0, #2
 662 000c 012B     		cmp	r3, #1
 663 000e 42D0     		beq	.L86
 664 0010 0123     		movs	r3, #1
ARM GAS  /tmp/ccGaOVi8.s 			page 12


 665 0012 7077     		strb	r0, [r6, #29]
 666 0014 3168     		ldr	r1, [r6]
 667 0016 3377     		strb	r3, [r6, #28]
 668 0018 3878     		ldrb	r0, [r7]	@ zero_extendqisi2
 669 001a 7D78     		ldrb	r5, [r7, #1]	@ zero_extendqisi2
 670 001c 97F80280 		ldrb	r8, [r7, #2]	@ zero_extendqisi2
 671 0020 002A     		cmp	r2, #0
 672 0022 3AD1     		bne	.L87
 673 0024 8A68     		ldr	r2, [r1, #8]
 674 0026 12F04002 		ands	r2, r2, #64
 675 002a 08BF     		it	eq
 676 002c FA70     		strbeq	r2, [r7, #3]
 677 002e FFF7FEFF 		bl	RTC_ByteToBcd2
 678 0032 0246     		mov	r2, r0
 679 0034 2846     		mov	r0, r5
 680 0036 FFF7FEFF 		bl	RTC_ByteToBcd2
 681 003a 0446     		mov	r4, r0
 682 003c 4046     		mov	r0, r8
 683 003e FFF7FEFF 		bl	RTC_ByteToBcd2
 684 0042 FD78     		ldrb	r5, [r7, #3]	@ zero_extendqisi2
 685 0044 40EA8555 		orr	r5, r0, r5, lsl #22
 686 0048 45EA0242 		orr	r2, r5, r2, lsl #16
 687 004c 42EA0424 		orr	r4, r2, r4, lsl #8
 688              	.L89:
 689 0050 CA23     		movs	r3, #202
 690 0052 3046     		mov	r0, r6
 691 0054 4B62     		str	r3, [r1, #36]
 692 0056 5323     		movs	r3, #83
 693 0058 4B62     		str	r3, [r1, #36]
 694 005a FFF7FEFF 		bl	RTC_EnterInitMode
 695 005e A8B9     		cbnz	r0, .L91
 696 0060 04F07F34 		and	r4, r4, #2139062143
 697 0064 3268     		ldr	r2, [r6]
 698 0066 24F0FE44 		bic	r4, r4, #2130706432
 699 006a 1460     		str	r4, [r2]
 700 006c 9368     		ldr	r3, [r2, #8]
 701 006e 23F48023 		bic	r3, r3, #262144
 702 0072 9360     		str	r3, [r2, #8]
 703 0074 9168     		ldr	r1, [r2, #8]
 704 0076 D7E90330 		ldrd	r3, r0, [r7, #12]
 705 007a 0343     		orrs	r3, r3, r0
 706 007c 3046     		mov	r0, r6
 707 007e 0B43     		orrs	r3, r3, r1
 708 0080 9360     		str	r3, [r2, #8]
 709 0082 FFF7FEFF 		bl	RTC_ExitInitMode
 710 0086 08B9     		cbnz	r0, .L91
 711 0088 0123     		movs	r3, #1
 712 008a 7377     		strb	r3, [r6, #29]
 713              	.L91:
 714 008c 3368     		ldr	r3, [r6]
 715 008e FF22     		movs	r2, #255
 716 0090 5A62     		str	r2, [r3, #36]
 717 0092 0023     		movs	r3, #0
 718 0094 3377     		strb	r3, [r6, #28]
 719              	.L86:
 720 0096 BDE8F081 		pop	{r4, r5, r6, r7, r8, pc}
 721              	.L87:
ARM GAS  /tmp/ccGaOVi8.s 			page 13


 722 009a 8A68     		ldr	r2, [r1, #8]
 723 009c 2D02     		lsls	r5, r5, #8
 724 009e 12F04002 		ands	r2, r2, #64
 725 00a2 45EA0045 		orr	r5, r5, r0, lsl #16
 726 00a6 08BF     		it	eq
 727 00a8 FA70     		strbeq	r2, [r7, #3]
 728 00aa 45EA0803 		orr	r3, r5, r8
 729 00ae FC78     		ldrb	r4, [r7, #3]	@ zero_extendqisi2
 730 00b0 43EA8454 		orr	r4, r3, r4, lsl #22
 731 00b4 CCE7     		b	.L89
 733              		.section	.text.HAL_RTC_SetDate,"ax",%progbits
 734              		.align	1
 735              		.global	HAL_RTC_SetDate
 736              		.syntax unified
 737              		.thumb
 738              		.thumb_func
 739              		.fpu fpv5-sp-d16
 741              	HAL_RTC_SetDate:
 742              		@ args = 0, pretend = 0, frame = 0
 743              		@ frame_needed = 0, uses_anonymous_args = 0
 744 0000 2DE9F041 		push	{r4, r5, r6, r7, r8, lr}
 745 0004 037F     		ldrb	r3, [r0, #28]	@ zero_extendqisi2
 746 0006 0646     		mov	r6, r0
 747 0008 012B     		cmp	r3, #1
 748 000a 4FF00203 		mov	r3, #2
 749 000e 3BD0     		beq	.L99
 750 0010 0120     		movs	r0, #1
 751 0012 7377     		strb	r3, [r6, #29]
 752 0014 3077     		strb	r0, [r6, #28]
 753 0016 0D78     		ldrb	r5, [r1]	@ zero_extendqisi2
 754 0018 C878     		ldrb	r0, [r1, #3]	@ zero_extendqisi2
 755 001a 4C78     		ldrb	r4, [r1, #1]	@ zero_extendqisi2
 756 001c 6D03     		lsls	r5, r5, #13
 757 001e 91F80280 		ldrb	r8, [r1, #2]	@ zero_extendqisi2
 758 0022 9ABB     		cbnz	r2, .L95
 759 0024 E306     		lsls	r3, r4, #27
 760 0026 03D5     		bpl	.L96
 761 0028 24F01004 		bic	r4, r4, #16
 762 002c 0A34     		adds	r4, r4, #10
 763 002e 4C70     		strb	r4, [r1, #1]
 764              	.L96:
 765 0030 FFF7FEFF 		bl	RTC_ByteToBcd2
 766 0034 0746     		mov	r7, r0
 767 0036 4878     		ldrb	r0, [r1, #1]	@ zero_extendqisi2
 768 0038 FFF7FEFF 		bl	RTC_ByteToBcd2
 769 003c 0446     		mov	r4, r0
 770 003e 4046     		mov	r0, r8
 771 0040 FFF7FEFF 		bl	RTC_ByteToBcd2
 772 0044 40EA0502 		orr	r2, r0, r5
 773 0048 42EA0745 		orr	r5, r2, r7, lsl #16
 774 004c 45EA0424 		orr	r4, r5, r4, lsl #8
 775              	.L98:
 776 0050 3368     		ldr	r3, [r6]
 777 0052 CA22     		movs	r2, #202
 778 0054 3046     		mov	r0, r6
 779 0056 5A62     		str	r2, [r3, #36]
 780 0058 5322     		movs	r2, #83
ARM GAS  /tmp/ccGaOVi8.s 			page 14


 781 005a 5A62     		str	r2, [r3, #36]
 782 005c FFF7FEFF 		bl	RTC_EnterInitMode
 783 0060 58B9     		cbnz	r0, .L97
 784 0062 24F07F44 		bic	r4, r4, #-16777216
 785 0066 3268     		ldr	r2, [r6]
 786 0068 3046     		mov	r0, r6
 787 006a 24F0C004 		bic	r4, r4, #192
 788 006e 5460     		str	r4, [r2, #4]
 789 0070 FFF7FEFF 		bl	RTC_ExitInitMode
 790 0074 08B9     		cbnz	r0, .L97
 791 0076 0123     		movs	r3, #1
 792 0078 7377     		strb	r3, [r6, #29]
 793              	.L97:
 794 007a 3368     		ldr	r3, [r6]
 795 007c FF22     		movs	r2, #255
 796 007e 5A62     		str	r2, [r3, #36]
 797 0080 0023     		movs	r3, #0
 798 0082 3377     		strb	r3, [r6, #28]
 799              	.L103:
 800 0084 BDE8F081 		pop	{r4, r5, r6, r7, r8, pc}
 801              	.L99:
 802 0088 1846     		mov	r0, r3
 803 008a FBE7     		b	.L103
 804              	.L95:
 805 008c 45EA0045 		orr	r5, r5, r0, lsl #16
 806 0090 45EA0803 		orr	r3, r5, r8
 807 0094 43EA0424 		orr	r4, r3, r4, lsl #8
 808 0098 DAE7     		b	.L98
 810              		.section	.text.HAL_RTC_SetAlarm,"ax",%progbits
 811              		.align	1
 812              		.global	HAL_RTC_SetAlarm
 813              		.syntax unified
 814              		.thumb
 815              		.thumb_func
 816              		.fpu fpv5-sp-d16
 818              	HAL_RTC_SetAlarm:
 819              		@ args = 0, pretend = 0, frame = 0
 820              		@ frame_needed = 0, uses_anonymous_args = 0
 821 0000 2DE9F84F 		push	{r3, r4, r5, r6, r7, r8, r9, r10, fp, lr}
 822 0004 037F     		ldrb	r3, [r0, #28]	@ zero_extendqisi2
 823 0006 0446     		mov	r4, r0
 824 0008 0220     		movs	r0, #2
 825 000a 012B     		cmp	r3, #1
 826 000c 7BD0     		beq	.L105
 827 000e 0123     		movs	r3, #1
 828 0010 2768     		ldr	r7, [r4]
 829 0012 6077     		strb	r0, [r4, #29]
 830 0014 2377     		strb	r3, [r4, #28]
 831 0016 BB68     		ldr	r3, [r7, #8]
 832 0018 0878     		ldrb	r0, [r1]	@ zero_extendqisi2
 833 001a 91F80190 		ldrb	r9, [r1, #1]	@ zero_extendqisi2
 834 001e 91F802B0 		ldrb	fp, [r1, #2]	@ zero_extendqisi2
 835 0022 91F82080 		ldrb	r8, [r1, #32]	@ zero_extendqisi2
 836 0026 CE69     		ldr	r6, [r1, #28]
 837 0028 002A     		cmp	r2, #0
 838 002a 4DD1     		bne	.L106
 839 002c 13F04003 		ands	r3, r3, #64
ARM GAS  /tmp/ccGaOVi8.s 			page 15


 840 0030 08BF     		it	eq
 841 0032 CB70     		strbeq	r3, [r1, #3]
 842 0034 FFF7FEFF 		bl	RTC_ByteToBcd2
 843 0038 8246     		mov	r10, r0
 844 003a 4846     		mov	r0, r9
 845 003c FFF7FEFF 		bl	RTC_ByteToBcd2
 846 0040 8146     		mov	r9, r0
 847 0042 5846     		mov	r0, fp
 848 0044 FFF7FEFF 		bl	RTC_ByteToBcd2
 849 0048 0246     		mov	r2, r0
 850 004a 4046     		mov	r0, r8
 851 004c FFF7FEFF 		bl	RTC_ByteToBcd2
 852 0050 4B69     		ldr	r3, [r1, #20]
 853 0052 46EA030C 		orr	ip, r6, r3
 854 0056 CE78     		ldrb	r6, [r1, #3]	@ zero_extendqisi2
 855 0058 4CEA865C 		orr	ip, ip, r6, lsl #22
 856 005c 4CEA0202 		orr	r2, ip, r2
 857 0060 42EA0A46 		orr	r6, r2, r10, lsl #16
 858 0064 46EA0923 		orr	r3, r6, r9, lsl #8
 859 0068 43EA0065 		orr	r5, r3, r0, lsl #24
 860              	.L108:
 861 006c 8B69     		ldr	r3, [r1, #24]
 862 006e 4E68     		ldr	r6, [r1, #4]
 863 0070 1E43     		orrs	r6, r6, r3
 864 0072 CA23     		movs	r3, #202
 865 0074 7B62     		str	r3, [r7, #36]
 866 0076 5323     		movs	r3, #83
 867 0078 7B62     		str	r3, [r7, #36]
 868 007a 4B6A     		ldr	r3, [r1, #36]
 869 007c B3F5807F 		cmp	r3, #256
 870 0080 BB68     		ldr	r3, [r7, #8]
 871 0082 42D1     		bne	.L110
 872 0084 23F48073 		bic	r3, r3, #256
 873 0088 BB60     		str	r3, [r7, #8]
 874 008a BB68     		ldr	r3, [r7, #8]
 875 008c 23F48053 		bic	r3, r3, #4096
 876 0090 BB60     		str	r3, [r7, #8]
 877 0092 FB68     		ldr	r3, [r7, #12]
 878 0094 DBB2     		uxtb	r3, r3
 879 0096 63F4C073 		orn	r3, r3, #384
 880 009a FB60     		str	r3, [r7, #12]
 881 009c FFF7FEFF 		bl	HAL_GetTick
 882 00a0 8046     		mov	r8, r0
 883              	.L111:
 884 00a2 2368     		ldr	r3, [r4]
 885 00a4 DF68     		ldr	r7, [r3, #12]
 886 00a6 17F00107 		ands	r7, r7, #1
 887 00aa 1FD0     		beq	.L112
 888 00ac DD61     		str	r5, [r3, #28]
 889 00ae 5E64     		str	r6, [r3, #68]
 890 00b0 9A68     		ldr	r2, [r3, #8]
 891 00b2 42F48072 		orr	r2, r2, #256
 892              	.L119:
 893 00b6 9A60     		str	r2, [r3, #8]
 894 00b8 FF22     		movs	r2, #255
 895 00ba 2368     		ldr	r3, [r4]
 896 00bc 0020     		movs	r0, #0
ARM GAS  /tmp/ccGaOVi8.s 			page 16


 897 00be 5A62     		str	r2, [r3, #36]
 898 00c0 0123     		movs	r3, #1
 899 00c2 2077     		strb	r0, [r4, #28]
 900 00c4 6377     		strb	r3, [r4, #29]
 901 00c6 1EE0     		b	.L105
 902              	.L106:
 903 00c8 13F04003 		ands	r3, r3, #64
 904 00cc 08BF     		it	eq
 905 00ce CB70     		strbeq	r3, [r1, #3]
 906 00d0 4B69     		ldr	r3, [r1, #20]
 907 00d2 1E43     		orrs	r6, r6, r3
 908 00d4 46EA0B06 		orr	r6, r6, fp
 909 00d8 46EA0045 		orr	r5, r6, r0, lsl #16
 910 00dc C878     		ldrb	r0, [r1, #3]	@ zero_extendqisi2
 911 00de 45EA0925 		orr	r5, r5, r9, lsl #8
 912 00e2 45EA8055 		orr	r5, r5, r0, lsl #22
 913 00e6 45EA0865 		orr	r5, r5, r8, lsl #24
 914 00ea BFE7     		b	.L108
 915              	.L112:
 916 00ec FFF7FEFF 		bl	HAL_GetTick
 917 00f0 A0EB0800 		sub	r0, r0, r8
 918 00f4 B0F57A7F 		cmp	r0, #1000
 919 00f8 D3D9     		bls	.L111
 920              	.L120:
 921 00fa 2368     		ldr	r3, [r4]
 922 00fc FF22     		movs	r2, #255
 923 00fe 0320     		movs	r0, #3
 924 0100 5A62     		str	r2, [r3, #36]
 925 0102 6077     		strb	r0, [r4, #29]
 926 0104 2777     		strb	r7, [r4, #28]
 927              	.L105:
 928 0106 BDE8F88F 		pop	{r3, r4, r5, r6, r7, r8, r9, r10, fp, pc}
 929              	.L110:
 930 010a 23F40073 		bic	r3, r3, #512
 931 010e BB60     		str	r3, [r7, #8]
 932 0110 BB68     		ldr	r3, [r7, #8]
 933 0112 23F40053 		bic	r3, r3, #8192
 934 0116 BB60     		str	r3, [r7, #8]
 935 0118 FB68     		ldr	r3, [r7, #12]
 936 011a DBB2     		uxtb	r3, r3
 937 011c 63F42073 		orn	r3, r3, #640
 938 0120 FB60     		str	r3, [r7, #12]
 939 0122 FFF7FEFF 		bl	HAL_GetTick
 940 0126 8046     		mov	r8, r0
 941              	.L114:
 942 0128 2368     		ldr	r3, [r4]
 943 012a DF68     		ldr	r7, [r3, #12]
 944 012c 17F00207 		ands	r7, r7, #2
 945 0130 05D0     		beq	.L115
 946 0132 1D62     		str	r5, [r3, #32]
 947 0134 9E64     		str	r6, [r3, #72]
 948 0136 9A68     		ldr	r2, [r3, #8]
 949 0138 42F40072 		orr	r2, r2, #512
 950 013c BBE7     		b	.L119
 951              	.L115:
 952 013e FFF7FEFF 		bl	HAL_GetTick
 953 0142 A0EB0800 		sub	r0, r0, r8
ARM GAS  /tmp/ccGaOVi8.s 			page 17


 954 0146 B0F57A7F 		cmp	r0, #1000
 955 014a EDD9     		bls	.L114
 956 014c D5E7     		b	.L120
 958              		.section	.text.HAL_RTC_SetAlarm_IT,"ax",%progbits
 959              		.align	1
 960              		.global	HAL_RTC_SetAlarm_IT
 961              		.syntax unified
 962              		.thumb
 963              		.thumb_func
 964              		.fpu fpv5-sp-d16
 966              	HAL_RTC_SetAlarm_IT:
 967              		@ args = 0, pretend = 0, frame = 8
 968              		@ frame_needed = 0, uses_anonymous_args = 0
 969 0000 564B     		ldr	r3, .L140
 970 0002 2DE9F74F 		push	{r0, r1, r2, r4, r5, r6, r7, r8, r9, r10, fp, lr}
 971 0006 1E68     		ldr	r6, [r3]
 972 0008 4FF4FA43 		mov	r3, #32000
 973 000c 0546     		mov	r5, r0
 974 000e B6FBF3F6 		udiv	r6, r6, r3
 975 0012 4FF47A73 		mov	r3, #1000
 976 0016 5E43     		muls	r6, r3, r6
 977 0018 037F     		ldrb	r3, [r0, #28]	@ zero_extendqisi2
 978 001a 012B     		cmp	r3, #1
 979 001c 0196     		str	r6, [sp, #4]
 980 001e 4FF00203 		mov	r3, #2
 981 0022 4BD0     		beq	.L122
 982 0024 0120     		movs	r0, #1
 983 0026 6B77     		strb	r3, [r5, #29]
 984 0028 2C68     		ldr	r4, [r5]
 985 002a 2877     		strb	r0, [r5, #28]
 986 002c 0878     		ldrb	r0, [r1]	@ zero_extendqisi2
 987 002e 91F80190 		ldrb	r9, [r1, #1]	@ zero_extendqisi2
 988 0032 91F802A0 		ldrb	r10, [r1, #2]	@ zero_extendqisi2
 989 0036 91F82080 		ldrb	r8, [r1, #32]	@ zero_extendqisi2
 990 003a 002A     		cmp	r2, #0
 991 003c 42D1     		bne	.L123
 992 003e A368     		ldr	r3, [r4, #8]
 993 0040 13F04003 		ands	r3, r3, #64
 994 0044 08BF     		it	eq
 995 0046 CB70     		strbeq	r3, [r1, #3]
 996 0048 FFF7FEFF 		bl	RTC_ByteToBcd2
 997 004c 8346     		mov	fp, r0
 998 004e 4846     		mov	r0, r9
 999 0050 FFF7FEFF 		bl	RTC_ByteToBcd2
 1000 0054 8146     		mov	r9, r0
 1001 0056 5046     		mov	r0, r10
 1002 0058 FFF7FEFF 		bl	RTC_ByteToBcd2
 1003 005c 0746     		mov	r7, r0
 1004 005e 4046     		mov	r0, r8
 1005 0060 FFF7FEFF 		bl	RTC_ByteToBcd2
 1006 0064 4B69     		ldr	r3, [r1, #20]
 1007 0066 CA69     		ldr	r2, [r1, #28]
 1008 0068 91F803C0 		ldrb	ip, [r1, #3]	@ zero_extendqisi2
 1009 006c 1A43     		orrs	r2, r2, r3
 1010 006e 42EA8C52 		orr	r2, r2, ip, lsl #22
 1011 0072 42EA070C 		orr	ip, r2, r7
 1012 0076 4CEA0B47 		orr	r7, ip, fp, lsl #16
ARM GAS  /tmp/ccGaOVi8.s 			page 18


 1013 007a 47EA0922 		orr	r2, r7, r9, lsl #8
 1014 007e 42EA0063 		orr	r3, r2, r0, lsl #24
 1015              	.L125:
 1016 0082 8A69     		ldr	r2, [r1, #24]
 1017 0084 4868     		ldr	r0, [r1, #4]
 1018 0086 1043     		orrs	r0, r0, r2
 1019 0088 CA22     		movs	r2, #202
 1020 008a 6262     		str	r2, [r4, #36]
 1021 008c 5322     		movs	r2, #83
 1022 008e 6262     		str	r2, [r4, #36]
 1023 0090 4A6A     		ldr	r2, [r1, #36]
 1024 0092 B2F5807F 		cmp	r2, #256
 1025 0096 A268     		ldr	r2, [r4, #8]
 1026 0098 45D1     		bne	.L127
 1027 009a 22F48072 		bic	r2, r2, #256
 1028 009e A260     		str	r2, [r4, #8]
 1029 00a0 E268     		ldr	r2, [r4, #12]
 1030 00a2 D2B2     		uxtb	r2, r2
 1031 00a4 62F4C072 		orn	r2, r2, #384
 1032 00a8 E260     		str	r2, [r4, #12]
 1033              	.L129:
 1034 00aa 019A     		ldr	r2, [sp, #4]
 1035 00ac 511E     		subs	r1, r2, #1
 1036 00ae 0191     		str	r1, [sp, #4]
 1037 00b0 E2B9     		cbnz	r2, .L128
 1038              	.L139:
 1039 00b2 FF23     		movs	r3, #255
 1040 00b4 6362     		str	r3, [r4, #36]
 1041 00b6 0323     		movs	r3, #3
 1042 00b8 2A77     		strb	r2, [r5, #28]
 1043 00ba 6B77     		strb	r3, [r5, #29]
 1044              	.L122:
 1045 00bc 1846     		mov	r0, r3
 1046 00be 03B0     		add	sp, sp, #12
 1047              		@ sp needed
 1048 00c0 BDE8F08F 		pop	{r4, r5, r6, r7, r8, r9, r10, fp, pc}
 1049              	.L123:
 1050 00c4 A768     		ldr	r7, [r4, #8]
 1051 00c6 CA69     		ldr	r2, [r1, #28]
 1052 00c8 17F04007 		ands	r7, r7, #64
 1053 00cc 08BF     		it	eq
 1054 00ce CF70     		strbeq	r7, [r1, #3]
 1055 00d0 4F69     		ldr	r7, [r1, #20]
 1056 00d2 3A43     		orrs	r2, r2, r7
 1057 00d4 42EA0A02 		orr	r2, r2, r10
 1058 00d8 42EA0043 		orr	r3, r2, r0, lsl #16
 1059 00dc C878     		ldrb	r0, [r1, #3]	@ zero_extendqisi2
 1060 00de 43EA0923 		orr	r3, r3, r9, lsl #8
 1061 00e2 43EA8053 		orr	r3, r3, r0, lsl #22
 1062 00e6 43EA0863 		orr	r3, r3, r8, lsl #24
 1063 00ea CAE7     		b	.L125
 1064              	.L128:
 1065 00ec E268     		ldr	r2, [r4, #12]
 1066 00ee D107     		lsls	r1, r2, #31
 1067 00f0 DBD5     		bpl	.L129
 1068 00f2 E361     		str	r3, [r4, #28]
 1069 00f4 6064     		str	r0, [r4, #68]
ARM GAS  /tmp/ccGaOVi8.s 			page 19


 1070 00f6 A368     		ldr	r3, [r4, #8]
 1071 00f8 43F48073 		orr	r3, r3, #256
 1072 00fc A360     		str	r3, [r4, #8]
 1073 00fe A368     		ldr	r3, [r4, #8]
 1074 0100 43F48053 		orr	r3, r3, #4096
 1075              	.L138:
 1076 0104 A360     		str	r3, [r4, #8]
 1077 0106 164B     		ldr	r3, .L140+4
 1078 0108 1A68     		ldr	r2, [r3]
 1079 010a 42F40032 		orr	r2, r2, #131072
 1080 010e 1A60     		str	r2, [r3]
 1081 0110 9A68     		ldr	r2, [r3, #8]
 1082 0112 42F40032 		orr	r2, r2, #131072
 1083 0116 9A60     		str	r2, [r3, #8]
 1084 0118 FF23     		movs	r3, #255
 1085 011a 6362     		str	r3, [r4, #36]
 1086 011c 0123     		movs	r3, #1
 1087 011e 6B77     		strb	r3, [r5, #29]
 1088 0120 0023     		movs	r3, #0
 1089 0122 2B77     		strb	r3, [r5, #28]
 1090 0124 CAE7     		b	.L122
 1091              	.L127:
 1092 0126 22F40072 		bic	r2, r2, #512
 1093 012a A260     		str	r2, [r4, #8]
 1094 012c E268     		ldr	r2, [r4, #12]
 1095 012e D2B2     		uxtb	r2, r2
 1096 0130 62F42072 		orn	r2, r2, #640
 1097 0134 E260     		str	r2, [r4, #12]
 1098 0136 0196     		str	r6, [sp, #4]
 1099              	.L132:
 1100 0138 019A     		ldr	r2, [sp, #4]
 1101 013a 511E     		subs	r1, r2, #1
 1102 013c 0191     		str	r1, [sp, #4]
 1103 013e 002A     		cmp	r2, #0
 1104 0140 B7D0     		beq	.L139
 1105 0142 E268     		ldr	r2, [r4, #12]
 1106 0144 9207     		lsls	r2, r2, #30
 1107 0146 F7D5     		bpl	.L132
 1108 0148 2362     		str	r3, [r4, #32]
 1109 014a A064     		str	r0, [r4, #72]
 1110 014c A368     		ldr	r3, [r4, #8]
 1111 014e 43F40073 		orr	r3, r3, #512
 1112 0152 A360     		str	r3, [r4, #8]
 1113 0154 A368     		ldr	r3, [r4, #8]
 1114 0156 43F40053 		orr	r3, r3, #8192
 1115 015a D3E7     		b	.L138
 1116              	.L141:
 1117              		.align	2
 1118              	.L140:
 1119 015c 00000000 		.word	SystemCoreClock
 1120 0160 003C0140 		.word	1073822720
 1122              		.section	.text.RTC_Bcd2ToByte,"ax",%progbits
 1123              		.align	1
 1124              		.global	RTC_Bcd2ToByte
 1125              		.syntax unified
 1126              		.thumb
 1127              		.thumb_func
ARM GAS  /tmp/ccGaOVi8.s 			page 20


 1128              		.fpu fpv5-sp-d16
 1130              	RTC_Bcd2ToByte:
 1131              		@ args = 0, pretend = 0, frame = 0
 1132              		@ frame_needed = 0, uses_anonymous_args = 0
 1133              		@ link register save eliminated.
 1134 0000 0309     		lsrs	r3, r0, #4
 1135 0002 00F00F00 		and	r0, r0, #15
 1136 0006 03EB8303 		add	r3, r3, r3, lsl #2
 1137 000a 00EB4300 		add	r0, r0, r3, lsl #1
 1138 000e C0B2     		uxtb	r0, r0
 1139 0010 7047     		bx	lr
 1141              		.section	.text.HAL_RTC_GetTime,"ax",%progbits
 1142              		.align	1
 1143              		.global	HAL_RTC_GetTime
 1144              		.syntax unified
 1145              		.thumb
 1146              		.thumb_func
 1147              		.fpu fpv5-sp-d16
 1149              	HAL_RTC_GetTime:
 1150              		@ args = 0, pretend = 0, frame = 0
 1151              		@ frame_needed = 0, uses_anonymous_args = 0
 1152 0000 38B5     		push	{r3, r4, r5, lr}
 1153 0002 0368     		ldr	r3, [r0]
 1154 0004 986A     		ldr	r0, [r3, #40]
 1155 0006 4860     		str	r0, [r1, #4]
 1156 0008 1869     		ldr	r0, [r3, #16]
 1157 000a 1B68     		ldr	r3, [r3]
 1158 000c C0F30E00 		ubfx	r0, r0, #0, #15
 1159 0010 C3F30625 		ubfx	r5, r3, #8, #7
 1160 0014 03F07F04 		and	r4, r3, #127
 1161 0018 8860     		str	r0, [r1, #8]
 1162 001a C3F30540 		ubfx	r0, r3, #16, #6
 1163 001e C3F38053 		ubfx	r3, r3, #22, #1
 1164 0022 4D70     		strb	r5, [r1, #1]
 1165 0024 0870     		strb	r0, [r1]
 1166 0026 8C70     		strb	r4, [r1, #2]
 1167 0028 CB70     		strb	r3, [r1, #3]
 1168 002a 52B9     		cbnz	r2, .L144
 1169 002c FFF7FEFF 		bl	RTC_Bcd2ToByte
 1170 0030 0870     		strb	r0, [r1]
 1171 0032 2846     		mov	r0, r5
 1172 0034 FFF7FEFF 		bl	RTC_Bcd2ToByte
 1173 0038 4870     		strb	r0, [r1, #1]
 1174 003a 2046     		mov	r0, r4
 1175 003c FFF7FEFF 		bl	RTC_Bcd2ToByte
 1176 0040 8870     		strb	r0, [r1, #2]
 1177              	.L144:
 1178 0042 0020     		movs	r0, #0
 1179 0044 38BD     		pop	{r3, r4, r5, pc}
 1181              		.section	.text.HAL_RTC_GetDate,"ax",%progbits
 1182              		.align	1
 1183              		.global	HAL_RTC_GetDate
 1184              		.syntax unified
 1185              		.thumb
 1186              		.thumb_func
 1187              		.fpu fpv5-sp-d16
 1189              	HAL_RTC_GetDate:
ARM GAS  /tmp/ccGaOVi8.s 			page 21


 1190              		@ args = 0, pretend = 0, frame = 0
 1191              		@ frame_needed = 0, uses_anonymous_args = 0
 1192 0000 38B5     		push	{r3, r4, r5, lr}
 1193 0002 0368     		ldr	r3, [r0]
 1194 0004 5B68     		ldr	r3, [r3, #4]
 1195 0006 C3F30740 		ubfx	r0, r3, #16, #8
 1196 000a C3F30425 		ubfx	r5, r3, #8, #5
 1197 000e 03F03F04 		and	r4, r3, #63
 1198 0012 C3F34233 		ubfx	r3, r3, #13, #3
 1199 0016 C870     		strb	r0, [r1, #3]
 1200 0018 4D70     		strb	r5, [r1, #1]
 1201 001a 8C70     		strb	r4, [r1, #2]
 1202 001c 0B70     		strb	r3, [r1]
 1203 001e 52B9     		cbnz	r2, .L146
 1204 0020 FFF7FEFF 		bl	RTC_Bcd2ToByte
 1205 0024 C870     		strb	r0, [r1, #3]
 1206 0026 2846     		mov	r0, r5
 1207 0028 FFF7FEFF 		bl	RTC_Bcd2ToByte
 1208 002c 4870     		strb	r0, [r1, #1]
 1209 002e 2046     		mov	r0, r4
 1210 0030 FFF7FEFF 		bl	RTC_Bcd2ToByte
 1211 0034 8870     		strb	r0, [r1, #2]
 1212              	.L146:
 1213 0036 0020     		movs	r0, #0
 1214 0038 38BD     		pop	{r3, r4, r5, pc}
 1216              		.section	.text.HAL_RTC_GetAlarm,"ax",%progbits
 1217              		.align	1
 1218              		.global	HAL_RTC_GetAlarm
 1219              		.syntax unified
 1220              		.thumb
 1221              		.thumb_func
 1222              		.fpu fpv5-sp-d16
 1224              	HAL_RTC_GetAlarm:
 1225              		@ args = 0, pretend = 0, frame = 0
 1226              		@ frame_needed = 0, uses_anonymous_args = 0
 1227 0000 B2F5807F 		cmp	r2, #256
 1228 0004 0068     		ldr	r0, [r0]
 1229 0006 F8B5     		push	{r3, r4, r5, r6, r7, lr}
 1230 0008 2ED1     		bne	.L148
 1231 000a 4A62     		str	r2, [r1, #36]
 1232 000c C269     		ldr	r2, [r0, #28]
 1233 000e 446C     		ldr	r4, [r0, #68]
 1234              	.L151:
 1235 0010 C2F38057 		ubfx	r7, r2, #22, #1
 1236 0014 C4F30E04 		ubfx	r4, r4, #0, #15
 1237 0018 C2F30540 		ubfx	r0, r2, #16, #6
 1238 001c C2F30626 		ubfx	r6, r2, #8, #7
 1239 0020 02F07F05 		and	r5, r2, #127
 1240 0024 CF70     		strb	r7, [r1, #3]
 1241 0026 4C60     		str	r4, [r1, #4]
 1242 0028 02F08047 		and	r7, r2, #1073741824
 1243 002c C2F30564 		ubfx	r4, r2, #24, #6
 1244 0030 02F08032 		and	r2, r2, #-2139062144
 1245 0034 0870     		strb	r0, [r1]
 1246 0036 4E70     		strb	r6, [r1, #1]
 1247 0038 8D70     		strb	r5, [r1, #2]
 1248 003a 81F82040 		strb	r4, [r1, #32]
ARM GAS  /tmp/ccGaOVi8.s 			page 22


 1249 003e CF61     		str	r7, [r1, #28]
 1250 0040 4A61     		str	r2, [r1, #20]
 1251 0042 7BB9     		cbnz	r3, .L150
 1252 0044 FFF7FEFF 		bl	RTC_Bcd2ToByte
 1253 0048 0870     		strb	r0, [r1]
 1254 004a 3046     		mov	r0, r6
 1255 004c FFF7FEFF 		bl	RTC_Bcd2ToByte
 1256 0050 4870     		strb	r0, [r1, #1]
 1257 0052 2846     		mov	r0, r5
 1258 0054 FFF7FEFF 		bl	RTC_Bcd2ToByte
 1259 0058 8870     		strb	r0, [r1, #2]
 1260 005a 2046     		mov	r0, r4
 1261 005c FFF7FEFF 		bl	RTC_Bcd2ToByte
 1262 0060 81F82000 		strb	r0, [r1, #32]
 1263              	.L150:
 1264 0064 0020     		movs	r0, #0
 1265 0066 F8BD     		pop	{r3, r4, r5, r6, r7, pc}
 1266              	.L148:
 1267 0068 4FF40072 		mov	r2, #512
 1268 006c 4A62     		str	r2, [r1, #36]
 1269 006e 026A     		ldr	r2, [r0, #32]
 1270 0070 846C     		ldr	r4, [r0, #72]
 1271 0072 CDE7     		b	.L151
 1273              		.ident	"GCC: (15:10.3-2021.07-4) 10.3.1 20210621 (release)"
ARM GAS  /tmp/ccGaOVi8.s 			page 23

