ARM GAS  /tmp/ccquACyq.s 			page 1


   1              		.cpu cortex-m7
   2              		.eabi_attribute 27, 1
   3              		.eabi_attribute 20, 1
   4              		.eabi_attribute 21, 1
   5              		.eabi_attribute 23, 3
   6              		.eabi_attribute 24, 1
   7              		.eabi_attribute 25, 1
   8              		.eabi_attribute 26, 1
   9              		.eabi_attribute 30, 4
  10              		.eabi_attribute 34, 1
  11              		.eabi_attribute 18, 4
  12              		.file	"stm32f7xx_hal_dma.c"
  13              		.text
  14              		.section	.text.DMA_CalcBaseAndBitshift,"ax",%progbits
  15              		.align	1
  16              		.arch armv7e-m
  17              		.syntax unified
  18              		.thumb
  19              		.thumb_func
  20              		.fpu fpv5-sp-d16
  22              	DMA_CalcBaseAndBitshift:
  23              		@ args = 0, pretend = 0, frame = 0
  24              		@ frame_needed = 0, uses_anonymous_args = 0
  25 0000 0368     		ldr	r3, [r0]
  26 0002 0246     		mov	r2, r0
  27 0004 1820     		movs	r0, #24
  28 0006 D9B2     		uxtb	r1, r3
  29 0008 1039     		subs	r1, r1, #16
  30 000a B1FBF0F0 		udiv	r0, r1, r0
  31 000e 10B5     		push	{r4, lr}
  32 0010 054C     		ldr	r4, .L3
  33 0012 5F29     		cmp	r1, #95
  34 0014 205C     		ldrb	r0, [r4, r0]	@ zero_extendqisi2
  35 0016 D065     		str	r0, [r2, #92]
  36 0018 23F47F70 		bic	r0, r3, #1020
  37 001c 20F00300 		bic	r0, r0, #3
  38 0020 88BF     		it	hi
  39 0022 0430     		addhi	r0, r0, #4
  40 0024 9065     		str	r0, [r2, #88]
  41 0026 10BD     		pop	{r4, pc}
  42              	.L4:
  43              		.align	2
  44              	.L3:
  45 0028 00000000 		.word	.LANCHOR0
  47              		.section	.text.HAL_DMA_Init,"ax",%progbits
  48              		.align	1
  49              		.global	HAL_DMA_Init
  50              		.syntax unified
  51              		.thumb
  52              		.thumb_func
  53              		.fpu fpv5-sp-d16
  55              	HAL_DMA_Init:
  56              		@ args = 0, pretend = 0, frame = 0
  57              		@ frame_needed = 0, uses_anonymous_args = 0
  58 0000 70B5     		push	{r4, r5, r6, lr}
  59 0002 0446     		mov	r4, r0
  60 0004 FFF7FEFF 		bl	HAL_GetTick
ARM GAS  /tmp/ccquACyq.s 			page 2


  61 0008 0546     		mov	r5, r0
  62 000a 002C     		cmp	r4, #0
  63 000c 73D0     		beq	.L18
  64 000e 0223     		movs	r3, #2
  65 0010 2268     		ldr	r2, [r4]
  66 0012 84F83530 		strb	r3, [r4, #53]
  67 0016 0023     		movs	r3, #0
  68 0018 84F83430 		strb	r3, [r4, #52]
  69 001c 1368     		ldr	r3, [r2]
  70 001e 23F00103 		bic	r3, r3, #1
  71 0022 1360     		str	r3, [r2]
  72              	.L7:
  73 0024 2168     		ldr	r1, [r4]
  74 0026 0B68     		ldr	r3, [r1]
  75 0028 D807     		lsls	r0, r3, #31
  76 002a 2FD4     		bmi	.L8
  77 002c 0B68     		ldr	r3, [r1]
  78 002e 334D     		ldr	r5, .L35
  79 0030 A069     		ldr	r0, [r4, #24]
  80 0032 1D40     		ands	r5, r5, r3
  81 0034 D4E90123 		ldrd	r2, r3, [r4, #4]
  82 0038 1343     		orrs	r3, r3, r2
  83 003a E268     		ldr	r2, [r4, #12]
  84 003c 1343     		orrs	r3, r3, r2
  85 003e 2269     		ldr	r2, [r4, #16]
  86 0040 1343     		orrs	r3, r3, r2
  87 0042 6269     		ldr	r2, [r4, #20]
  88 0044 1343     		orrs	r3, r3, r2
  89 0046 E269     		ldr	r2, [r4, #28]
  90 0048 0343     		orrs	r3, r3, r0
  91 004a 1343     		orrs	r3, r3, r2
  92 004c 226A     		ldr	r2, [r4, #32]
  93 004e 1343     		orrs	r3, r3, r2
  94 0050 626A     		ldr	r2, [r4, #36]
  95 0052 042A     		cmp	r2, #4
  96 0054 43EA0503 		orr	r3, r3, r5
  97 0058 02BF     		ittt	eq
  98 005a D4E90B56 		ldrdeq	r5, r6, [r4, #44]
  99 005e 3543     		orreq	r5, r5, r6
 100 0060 2B43     		orreq	r3, r3, r5
 101 0062 042A     		cmp	r2, #4
 102 0064 0B60     		str	r3, [r1]
 103 0066 4B69     		ldr	r3, [r1, #20]
 104 0068 23F00703 		bic	r3, r3, #7
 105 006c 43EA0203 		orr	r3, r3, r2
 106 0070 33D1     		bne	.L10
 107 0072 A26A     		ldr	r2, [r4, #40]
 108 0074 E56A     		ldr	r5, [r4, #44]
 109 0076 1343     		orrs	r3, r3, r2
 110 0078 7DB3     		cbz	r5, .L10
 111 007a 90B9     		cbnz	r0, .L11
 112 007c 012A     		cmp	r2, #1
 113 007e 21D0     		beq	.L15
 114 0080 32F00202 		bics	r2, r2, #2
 115 0084 29D1     		bne	.L10
 116              	.L33:
 117 0086 EA01     		lsls	r2, r5, #7
ARM GAS  /tmp/ccquACyq.s 			page 3


 118 0088 27D5     		bpl	.L10
 119 008a 1EE0     		b	.L13
 120              	.L8:
 121 008c FFF7FEFF 		bl	HAL_GetTick
 122 0090 401B     		subs	r0, r0, r5
 123 0092 0528     		cmp	r0, #5
 124 0094 C6D9     		bls	.L7
 125 0096 2023     		movs	r3, #32
 126 0098 0320     		movs	r0, #3
 127 009a 6365     		str	r3, [r4, #84]
 128              	.L34:
 129 009c 84F83500 		strb	r0, [r4, #53]
 130              	.L6:
 131 00a0 70BD     		pop	{r4, r5, r6, pc}
 132              	.L11:
 133 00a2 B0F5005F 		cmp	r0, #8192
 134 00a6 14D1     		bne	.L14
 135 00a8 032A     		cmp	r2, #3
 136 00aa 16D8     		bhi	.L10
 137 00ac 01A0     		adr	r0, .L16
 138 00ae 50F822F0 		ldr	pc, [r0, r2, lsl #2]
 139 00b2 00BF     		.p2align 2
 140              	.L16:
 141 00b4 CB000000 		.word	.L13+1
 142 00b8 87000000 		.word	.L33+1
 143 00bc CB000000 		.word	.L13+1
 144 00c0 C5000000 		.word	.L15+1
 145              		.p2align 1
 146              	.L15:
 147 00c4 B5F1C07F 		cmp	r5, #25165824
 148 00c8 07D1     		bne	.L10
 149              	.L13:
 150 00ca 4023     		movs	r3, #64
 151 00cc 0120     		movs	r0, #1
 152 00ce 6365     		str	r3, [r4, #84]
 153 00d0 E4E7     		b	.L34
 154              	.L14:
 155 00d2 022A     		cmp	r2, #2
 156 00d4 F9D9     		bls	.L13
 157 00d6 032A     		cmp	r2, #3
 158 00d8 D5D0     		beq	.L33
 159              	.L10:
 160 00da 4B61     		str	r3, [r1, #20]
 161 00dc 2046     		mov	r0, r4
 162 00de FFF7FEFF 		bl	DMA_CalcBaseAndBitshift
 163 00e2 E26D     		ldr	r2, [r4, #92]
 164 00e4 3F23     		movs	r3, #63
 165 00e6 9340     		lsls	r3, r3, r2
 166 00e8 8360     		str	r3, [r0, #8]
 167 00ea 0020     		movs	r0, #0
 168 00ec 0123     		movs	r3, #1
 169 00ee 6065     		str	r0, [r4, #84]
 170 00f0 84F83530 		strb	r3, [r4, #53]
 171 00f4 D4E7     		b	.L6
 172              	.L18:
 173 00f6 0120     		movs	r0, #1
 174 00f8 D2E7     		b	.L6
ARM GAS  /tmp/ccquACyq.s 			page 4


 175              	.L36:
 176 00fa 00BF     		.align	2
 177              	.L35:
 178 00fc 3F8010E0 		.word	-535789505
 180              		.section	.text.HAL_DMA_DeInit,"ax",%progbits
 181              		.align	1
 182              		.global	HAL_DMA_DeInit
 183              		.syntax unified
 184              		.thumb
 185              		.thumb_func
 186              		.fpu fpv5-sp-d16
 188              	HAL_DMA_DeInit:
 189              		@ args = 0, pretend = 0, frame = 0
 190              		@ frame_needed = 0, uses_anonymous_args = 0
 191 0000 38B5     		push	{r3, r4, r5, lr}
 192 0002 0546     		mov	r5, r0
 193 0004 20B3     		cbz	r0, .L39
 194 0006 90F83530 		ldrb	r3, [r0, #53]	@ zero_extendqisi2
 195 000a 022B     		cmp	r3, #2
 196 000c DCB2     		uxtb	r4, r3
 197 000e 1DD0     		beq	.L38
 198 0010 0368     		ldr	r3, [r0]
 199 0012 0024     		movs	r4, #0
 200 0014 1A68     		ldr	r2, [r3]
 201 0016 22F00102 		bic	r2, r2, #1
 202 001a 1A60     		str	r2, [r3]
 203 001c 2122     		movs	r2, #33
 204 001e 1C60     		str	r4, [r3]
 205 0020 5C60     		str	r4, [r3, #4]
 206 0022 9C60     		str	r4, [r3, #8]
 207 0024 DC60     		str	r4, [r3, #12]
 208 0026 1C61     		str	r4, [r3, #16]
 209 0028 5A61     		str	r2, [r3, #20]
 210 002a FFF7FEFF 		bl	DMA_CalcBaseAndBitshift
 211 002e EA6D     		ldr	r2, [r5, #92]
 212 0030 3F23     		movs	r3, #63
 213 0032 9340     		lsls	r3, r3, r2
 214 0034 8360     		str	r3, [r0, #8]
 215 0036 6C65     		str	r4, [r5, #84]
 216 0038 85F83440 		strb	r4, [r5, #52]
 217 003c 85F83540 		strb	r4, [r5, #53]
 218 0040 C5E90F44 		strd	r4, r4, [r5, #60]
 219 0044 C5E91144 		strd	r4, r4, [r5, #68]
 220 0048 C5E91344 		strd	r4, r4, [r5, #76]
 221              	.L38:
 222 004c 2046     		mov	r0, r4
 223 004e 38BD     		pop	{r3, r4, r5, pc}
 224              	.L39:
 225 0050 0124     		movs	r4, #1
 226 0052 FBE7     		b	.L38
 228              		.section	.text.HAL_DMA_Start,"ax",%progbits
 229              		.align	1
 230              		.global	HAL_DMA_Start
 231              		.syntax unified
 232              		.thumb
 233              		.thumb_func
 234              		.fpu fpv5-sp-d16
ARM GAS  /tmp/ccquACyq.s 			page 5


 236              	HAL_DMA_Start:
 237              		@ args = 0, pretend = 0, frame = 0
 238              		@ frame_needed = 0, uses_anonymous_args = 0
 239 0000 30B5     		push	{r4, r5, lr}
 240 0002 90F83440 		ldrb	r4, [r0, #52]	@ zero_extendqisi2
 241 0006 012C     		cmp	r4, #1
 242 0008 22D0     		beq	.L48
 243 000a 0124     		movs	r4, #1
 244 000c 0025     		movs	r5, #0
 245 000e 80F83440 		strb	r4, [r0, #52]
 246 0012 90F83540 		ldrb	r4, [r0, #53]	@ zero_extendqisi2
 247 0016 012C     		cmp	r4, #1
 248 0018 4FF00204 		mov	r4, #2
 249 001c 16D1     		bne	.L45
 250 001e 80F83540 		strb	r4, [r0, #53]
 251 0022 0468     		ldr	r4, [r0]
 252 0024 4565     		str	r5, [r0, #84]
 253 0026 2568     		ldr	r5, [r4]
 254 0028 25F48025 		bic	r5, r5, #262144
 255 002c 2560     		str	r5, [r4]
 256 002e 6360     		str	r3, [r4, #4]
 257 0030 8368     		ldr	r3, [r0, #8]
 258 0032 402B     		cmp	r3, #64
 259 0034 07D1     		bne	.L46
 260 0036 A260     		str	r2, [r4, #8]
 261 0038 E160     		str	r1, [r4, #12]
 262              	.L47:
 263 003a 2368     		ldr	r3, [r4]
 264 003c 0020     		movs	r0, #0
 265 003e 43F00103 		orr	r3, r3, #1
 266 0042 2360     		str	r3, [r4]
 267              	.L44:
 268 0044 30BD     		pop	{r4, r5, pc}
 269              	.L46:
 270 0046 A160     		str	r1, [r4, #8]
 271 0048 E260     		str	r2, [r4, #12]
 272 004a F6E7     		b	.L47
 273              	.L45:
 274 004c 80F83450 		strb	r5, [r0, #52]
 275              	.L48:
 276 0050 0220     		movs	r0, #2
 277 0052 F7E7     		b	.L44
 279              		.section	.text.HAL_DMA_Start_IT,"ax",%progbits
 280              		.align	1
 281              		.global	HAL_DMA_Start_IT
 282              		.syntax unified
 283              		.thumb
 284              		.thumb_func
 285              		.fpu fpv5-sp-d16
 287              	HAL_DMA_Start_IT:
 288              		@ args = 0, pretend = 0, frame = 0
 289              		@ frame_needed = 0, uses_anonymous_args = 0
 290 0000 70B5     		push	{r4, r5, r6, lr}
 291 0002 90F83440 		ldrb	r4, [r0, #52]	@ zero_extendqisi2
 292 0006 866D     		ldr	r6, [r0, #88]
 293 0008 012C     		cmp	r4, #1
 294 000a 34D0     		beq	.L55
ARM GAS  /tmp/ccquACyq.s 			page 6


 295 000c 0124     		movs	r4, #1
 296 000e 0025     		movs	r5, #0
 297 0010 80F83440 		strb	r4, [r0, #52]
 298 0014 90F83540 		ldrb	r4, [r0, #53]	@ zero_extendqisi2
 299 0018 012C     		cmp	r4, #1
 300 001a 4FF00204 		mov	r4, #2
 301 001e 28D1     		bne	.L51
 302 0020 80F83540 		strb	r4, [r0, #53]
 303 0024 0468     		ldr	r4, [r0]
 304 0026 4565     		str	r5, [r0, #84]
 305 0028 2568     		ldr	r5, [r4]
 306 002a 25F48025 		bic	r5, r5, #262144
 307 002e 2560     		str	r5, [r4]
 308 0030 6360     		str	r3, [r4, #4]
 309 0032 8368     		ldr	r3, [r0, #8]
 310 0034 402B     		cmp	r3, #64
 311 0036 19D1     		bne	.L52
 312 0038 A260     		str	r2, [r4, #8]
 313 003a E160     		str	r1, [r4, #12]
 314              	.L53:
 315 003c C26D     		ldr	r2, [r0, #92]
 316 003e 3F23     		movs	r3, #63
 317 0040 9340     		lsls	r3, r3, r2
 318 0042 B360     		str	r3, [r6, #8]
 319 0044 2368     		ldr	r3, [r4]
 320 0046 43F01603 		orr	r3, r3, #22
 321 004a 2360     		str	r3, [r4]
 322 004c 6369     		ldr	r3, [r4, #20]
 323 004e 43F08003 		orr	r3, r3, #128
 324 0052 6361     		str	r3, [r4, #20]
 325 0054 036C     		ldr	r3, [r0, #64]
 326 0056 1BB1     		cbz	r3, .L54
 327 0058 2368     		ldr	r3, [r4]
 328 005a 43F00803 		orr	r3, r3, #8
 329 005e 2360     		str	r3, [r4]
 330              	.L54:
 331 0060 2368     		ldr	r3, [r4]
 332 0062 0020     		movs	r0, #0
 333 0064 43F00103 		orr	r3, r3, #1
 334 0068 2360     		str	r3, [r4]
 335              	.L50:
 336 006a 70BD     		pop	{r4, r5, r6, pc}
 337              	.L52:
 338 006c A160     		str	r1, [r4, #8]
 339 006e E260     		str	r2, [r4, #12]
 340 0070 E4E7     		b	.L53
 341              	.L51:
 342 0072 80F83450 		strb	r5, [r0, #52]
 343              	.L55:
 344 0076 0220     		movs	r0, #2
 345 0078 F7E7     		b	.L50
 347              		.section	.text.HAL_DMA_Abort,"ax",%progbits
 348              		.align	1
 349              		.global	HAL_DMA_Abort
 350              		.syntax unified
 351              		.thumb
 352              		.thumb_func
ARM GAS  /tmp/ccquACyq.s 			page 7


 353              		.fpu fpv5-sp-d16
 355              	HAL_DMA_Abort:
 356              		@ args = 0, pretend = 0, frame = 0
 357              		@ frame_needed = 0, uses_anonymous_args = 0
 358 0000 70B5     		push	{r4, r5, r6, lr}
 359 0002 0446     		mov	r4, r0
 360 0004 866D     		ldr	r6, [r0, #88]
 361 0006 FFF7FEFF 		bl	HAL_GetTick
 362 000a 0546     		mov	r5, r0
 363 000c 94F83530 		ldrb	r3, [r4, #53]	@ zero_extendqisi2
 364 0010 022B     		cmp	r3, #2
 365 0012 06D0     		beq	.L60
 366 0014 8023     		movs	r3, #128
 367 0016 0120     		movs	r0, #1
 368 0018 6365     		str	r3, [r4, #84]
 369 001a 0023     		movs	r3, #0
 370 001c 84F83430 		strb	r3, [r4, #52]
 371              	.L61:
 372 0020 70BD     		pop	{r4, r5, r6, pc}
 373              	.L60:
 374 0022 2368     		ldr	r3, [r4]
 375 0024 1A68     		ldr	r2, [r3]
 376 0026 22F01602 		bic	r2, r2, #22
 377 002a 1A60     		str	r2, [r3]
 378 002c 5A69     		ldr	r2, [r3, #20]
 379 002e 22F08002 		bic	r2, r2, #128
 380 0032 5A61     		str	r2, [r3, #20]
 381 0034 226C     		ldr	r2, [r4, #64]
 382 0036 0AB9     		cbnz	r2, .L62
 383 0038 A26C     		ldr	r2, [r4, #72]
 384 003a 1AB1     		cbz	r2, .L63
 385              	.L62:
 386 003c 1A68     		ldr	r2, [r3]
 387 003e 22F00802 		bic	r2, r2, #8
 388 0042 1A60     		str	r2, [r3]
 389              	.L63:
 390 0044 1A68     		ldr	r2, [r3]
 391 0046 22F00102 		bic	r2, r2, #1
 392 004a 1A60     		str	r2, [r3]
 393              	.L64:
 394 004c 2368     		ldr	r3, [r4]
 395 004e 1B68     		ldr	r3, [r3]
 396 0050 13F00103 		ands	r3, r3, #1
 397 0054 0AD1     		bne	.L65
 398 0056 E16D     		ldr	r1, [r4, #92]
 399 0058 3F22     		movs	r2, #63
 400 005a 1846     		mov	r0, r3
 401 005c 8A40     		lsls	r2, r2, r1
 402 005e B260     		str	r2, [r6, #8]
 403 0060 0122     		movs	r2, #1
 404 0062 84F83430 		strb	r3, [r4, #52]
 405 0066 84F83520 		strb	r2, [r4, #53]
 406 006a D9E7     		b	.L61
 407              	.L65:
 408 006c FFF7FEFF 		bl	HAL_GetTick
 409 0070 401B     		subs	r0, r0, r5
 410 0072 0528     		cmp	r0, #5
ARM GAS  /tmp/ccquACyq.s 			page 8


 411 0074 EAD9     		bls	.L64
 412 0076 2023     		movs	r3, #32
 413 0078 0320     		movs	r0, #3
 414 007a 6365     		str	r3, [r4, #84]
 415 007c 0023     		movs	r3, #0
 416 007e 84F83500 		strb	r0, [r4, #53]
 417 0082 84F83430 		strb	r3, [r4, #52]
 418 0086 CBE7     		b	.L61
 420              		.section	.text.HAL_DMA_Abort_IT,"ax",%progbits
 421              		.align	1
 422              		.global	HAL_DMA_Abort_IT
 423              		.syntax unified
 424              		.thumb
 425              		.thumb_func
 426              		.fpu fpv5-sp-d16
 428              	HAL_DMA_Abort_IT:
 429              		@ args = 0, pretend = 0, frame = 0
 430              		@ frame_needed = 0, uses_anonymous_args = 0
 431              		@ link register save eliminated.
 432 0000 90F83530 		ldrb	r3, [r0, #53]	@ zero_extendqisi2
 433 0004 022B     		cmp	r3, #2
 434 0006 03D0     		beq	.L71
 435 0008 8023     		movs	r3, #128
 436 000a 4365     		str	r3, [r0, #84]
 437 000c 0120     		movs	r0, #1
 438 000e 7047     		bx	lr
 439              	.L71:
 440 0010 0268     		ldr	r2, [r0]
 441 0012 0523     		movs	r3, #5
 442 0014 80F83530 		strb	r3, [r0, #53]
 443 0018 0020     		movs	r0, #0
 444 001a 1368     		ldr	r3, [r2]
 445 001c 23F00103 		bic	r3, r3, #1
 446 0020 1360     		str	r3, [r2]
 447 0022 7047     		bx	lr
 449              		.section	.text.HAL_DMA_PollForTransfer,"ax",%progbits
 450              		.align	1
 451              		.global	HAL_DMA_PollForTransfer
 452              		.syntax unified
 453              		.thumb
 454              		.thumb_func
 455              		.fpu fpv5-sp-d16
 457              	HAL_DMA_PollForTransfer:
 458              		@ args = 0, pretend = 0, frame = 0
 459              		@ frame_needed = 0, uses_anonymous_args = 0
 460 0000 2DE9F84F 		push	{r3, r4, r5, r6, r7, r8, r9, r10, fp, lr}
 461 0004 0446     		mov	r4, r0
 462 0006 0D46     		mov	r5, r1
 463 0008 9046     		mov	r8, r2
 464 000a FFF7FEFF 		bl	HAL_GetTick
 465 000e 94F83530 		ldrb	r3, [r4, #53]	@ zero_extendqisi2
 466 0012 8146     		mov	r9, r0
 467 0014 022B     		cmp	r3, #2
 468 0016 08D0     		beq	.L74
 469 0018 8023     		movs	r3, #128
 470 001a 6365     		str	r3, [r4, #84]
 471 001c 0023     		movs	r3, #0
ARM GAS  /tmp/ccquACyq.s 			page 9


 472 001e 84F83430 		strb	r3, [r4, #52]
 473              	.L109:
 474 0022 0125     		movs	r5, #1
 475              	.L75:
 476 0024 2846     		mov	r0, r5
 477 0026 BDE8F88F 		pop	{r3, r4, r5, r6, r7, r8, r9, r10, fp, pc}
 478              	.L74:
 479 002a 2368     		ldr	r3, [r4]
 480 002c 1B68     		ldr	r3, [r3]
 481 002e D905     		lsls	r1, r3, #23
 482 0030 03D5     		bpl	.L76
 483 0032 4FF48073 		mov	r3, #256
 484 0036 6365     		str	r3, [r4, #84]
 485 0038 F3E7     		b	.L109
 486              	.L76:
 487 003a E76D     		ldr	r7, [r4, #92]
 488 003c 0DBB     		cbnz	r5, .L77
 489 003e 2023     		movs	r3, #32
 490              	.L108:
 491 0040 A66D     		ldr	r6, [r4, #88]
 492 0042 03FA07F7 		lsl	r7, r3, r7
 493 0046 4FF0080A 		mov	r10, #8
 494 004a 4FF0010B 		mov	fp, #1
 495 004e 3168     		ldr	r1, [r6]
 496              	.L79:
 497 0050 0F42     		tst	r7, r1
 498 0052 02D1     		bne	.L86
 499 0054 636D     		ldr	r3, [r4, #84]
 500 0056 DA07     		lsls	r2, r3, #31
 501 0058 15D5     		bpl	.L87
 502              	.L86:
 503 005a 636D     		ldr	r3, [r4, #84]
 504 005c 002B     		cmp	r3, #0
 505 005e 46D0     		beq	.L88
 506 0060 636D     		ldr	r3, [r4, #84]
 507 0062 DB07     		lsls	r3, r3, #31
 508 0064 43D5     		bpl	.L88
 509 0066 2046     		mov	r0, r4
 510 0068 0125     		movs	r5, #1
 511 006a FFF7FEFF 		bl	HAL_DMA_Abort
 512 006e E26D     		ldr	r2, [r4, #92]
 513 0070 3023     		movs	r3, #48
 514 0072 9340     		lsls	r3, r3, r2
 515 0074 B360     		str	r3, [r6, #8]
 516 0076 0023     		movs	r3, #0
 517 0078 84F83550 		strb	r5, [r4, #53]
 518 007c 84F83430 		strb	r3, [r4, #52]
 519 0080 D0E7     		b	.L75
 520              	.L77:
 521 0082 1023     		movs	r3, #16
 522 0084 DCE7     		b	.L108
 523              	.L87:
 524 0086 B8F1FF3F 		cmp	r8, #-1
 525 008a 12D0     		beq	.L80
 526 008c B8F1000F 		cmp	r8, #0
 527 0090 09D1     		bne	.L81
 528              	.L82:
ARM GAS  /tmp/ccquACyq.s 			page 10


 529 0092 2023     		movs	r3, #32
 530 0094 0325     		movs	r5, #3
 531 0096 6365     		str	r3, [r4, #84]
 532 0098 0123     		movs	r3, #1
 533 009a 84F83530 		strb	r3, [r4, #53]
 534 009e 0023     		movs	r3, #0
 535 00a0 84F83430 		strb	r3, [r4, #52]
 536 00a4 BEE7     		b	.L75
 537              	.L81:
 538 00a6 FFF7FEFF 		bl	HAL_GetTick
 539 00aa A0EB0900 		sub	r0, r0, r9
 540 00ae 4045     		cmp	r0, r8
 541 00b0 EFD8     		bhi	.L82
 542              	.L80:
 543 00b2 E36D     		ldr	r3, [r4, #92]
 544 00b4 3168     		ldr	r1, [r6]
 545 00b6 0AFA03F2 		lsl	r2, r10, r3
 546 00ba 0A42     		tst	r2, r1
 547 00bc 04D0     		beq	.L83
 548 00be 606D     		ldr	r0, [r4, #84]
 549 00c0 40F00100 		orr	r0, r0, #1
 550 00c4 6065     		str	r0, [r4, #84]
 551 00c6 B260     		str	r2, [r6, #8]
 552              	.L83:
 553 00c8 0BFA03F2 		lsl	r2, fp, r3
 554 00cc 0A42     		tst	r2, r1
 555 00ce 04D0     		beq	.L84
 556 00d0 606D     		ldr	r0, [r4, #84]
 557 00d2 40F00200 		orr	r0, r0, #2
 558 00d6 6065     		str	r0, [r4, #84]
 559 00d8 B260     		str	r2, [r6, #8]
 560              	.L84:
 561 00da 0422     		movs	r2, #4
 562 00dc 02FA03F3 		lsl	r3, r2, r3
 563 00e0 0B42     		tst	r3, r1
 564 00e2 B5D0     		beq	.L79
 565 00e4 606D     		ldr	r0, [r4, #84]
 566 00e6 1043     		orrs	r0, r0, r2
 567 00e8 6065     		str	r0, [r4, #84]
 568 00ea B360     		str	r3, [r6, #8]
 569 00ec B0E7     		b	.L79
 570              	.L88:
 571 00ee E26D     		ldr	r2, [r4, #92]
 572 00f0 45B9     		cbnz	r5, .L89
 573 00f2 3023     		movs	r3, #48
 574 00f4 9340     		lsls	r3, r3, r2
 575 00f6 B360     		str	r3, [r6, #8]
 576 00f8 0123     		movs	r3, #1
 577 00fa 84F83450 		strb	r5, [r4, #52]
 578 00fe 84F83530 		strb	r3, [r4, #53]
 579 0102 8FE7     		b	.L75
 580              	.L89:
 581 0104 1023     		movs	r3, #16
 582 0106 0025     		movs	r5, #0
 583 0108 9340     		lsls	r3, r3, r2
 584 010a B360     		str	r3, [r6, #8]
 585 010c 8AE7     		b	.L75
ARM GAS  /tmp/ccquACyq.s 			page 11


 587              		.section	.text.HAL_DMA_IRQHandler,"ax",%progbits
 588              		.align	1
 589              		.global	HAL_DMA_IRQHandler
 590              		.syntax unified
 591              		.thumb
 592              		.thumb_func
 593              		.fpu fpv5-sp-d16
 595              	HAL_DMA_IRQHandler:
 596              		@ args = 0, pretend = 0, frame = 8
 597              		@ frame_needed = 0, uses_anonymous_args = 0
 598 0000 0023     		movs	r3, #0
 599 0002 F7B5     		push	{r0, r1, r2, r4, r5, r6, r7, lr}
 600 0004 0193     		str	r3, [sp, #4]
 601 0006 0822     		movs	r2, #8
 602 0008 5B4B     		ldr	r3, .L201
 603 000a 0446     		mov	r4, r0
 604 000c 856D     		ldr	r5, [r0, #88]
 605 000e 1F68     		ldr	r7, [r3]
 606 0010 C36D     		ldr	r3, [r0, #92]
 607 0012 2E68     		ldr	r6, [r5]
 608 0014 9A40     		lsls	r2, r2, r3
 609 0016 3242     		tst	r2, r6
 610 0018 0CD0     		beq	.L111
 611 001a 0168     		ldr	r1, [r0]
 612 001c 0868     		ldr	r0, [r1]
 613 001e 4007     		lsls	r0, r0, #29
 614 0020 08D5     		bpl	.L111
 615 0022 0868     		ldr	r0, [r1]
 616 0024 20F00400 		bic	r0, r0, #4
 617 0028 0860     		str	r0, [r1]
 618 002a AA60     		str	r2, [r5, #8]
 619 002c 626D     		ldr	r2, [r4, #84]
 620 002e 42F00102 		orr	r2, r2, #1
 621 0032 6265     		str	r2, [r4, #84]
 622              	.L111:
 623 0034 0122     		movs	r2, #1
 624 0036 9A40     		lsls	r2, r2, r3
 625 0038 3242     		tst	r2, r6
 626 003a 08D0     		beq	.L112
 627 003c 2168     		ldr	r1, [r4]
 628 003e 4969     		ldr	r1, [r1, #20]
 629 0040 0906     		lsls	r1, r1, #24
 630 0042 04D5     		bpl	.L112
 631 0044 AA60     		str	r2, [r5, #8]
 632 0046 626D     		ldr	r2, [r4, #84]
 633 0048 42F00202 		orr	r2, r2, #2
 634 004c 6265     		str	r2, [r4, #84]
 635              	.L112:
 636 004e 0422     		movs	r2, #4
 637 0050 9A40     		lsls	r2, r2, r3
 638 0052 3242     		tst	r2, r6
 639 0054 08D0     		beq	.L113
 640 0056 2168     		ldr	r1, [r4]
 641 0058 0968     		ldr	r1, [r1]
 642 005a 8807     		lsls	r0, r1, #30
 643 005c 04D5     		bpl	.L113
 644 005e AA60     		str	r2, [r5, #8]
ARM GAS  /tmp/ccquACyq.s 			page 12


 645 0060 626D     		ldr	r2, [r4, #84]
 646 0062 42F00402 		orr	r2, r2, #4
 647 0066 6265     		str	r2, [r4, #84]
 648              	.L113:
 649 0068 1022     		movs	r2, #16
 650 006a 9A40     		lsls	r2, r2, r3
 651 006c 3242     		tst	r2, r6
 652 006e 10D0     		beq	.L115
 653 0070 2368     		ldr	r3, [r4]
 654 0072 1968     		ldr	r1, [r3]
 655 0074 0907     		lsls	r1, r1, #28
 656 0076 0CD5     		bpl	.L115
 657 0078 AA60     		str	r2, [r5, #8]
 658 007a 1A68     		ldr	r2, [r3]
 659 007c 5003     		lsls	r0, r2, #13
 660 007e 37D5     		bpl	.L117
 661 0080 1B68     		ldr	r3, [r3]
 662 0082 1903     		lsls	r1, r3, #12
 663 0084 01D4     		bmi	.L118
 664              	.L119:
 665 0086 236C     		ldr	r3, [r4, #64]
 666 0088 00E0     		b	.L195
 667              	.L118:
 668 008a A36C     		ldr	r3, [r4, #72]
 669              	.L195:
 670 008c 0BB1     		cbz	r3, .L115
 671 008e 2046     		mov	r0, r4
 672 0090 9847     		blx	r3
 673              	.L115:
 674 0092 E16D     		ldr	r1, [r4, #92]
 675 0094 2022     		movs	r2, #32
 676 0096 8A40     		lsls	r2, r2, r1
 677 0098 3242     		tst	r2, r6
 678 009a 3AD0     		beq	.L121
 679 009c 2368     		ldr	r3, [r4]
 680 009e 1868     		ldr	r0, [r3]
 681 00a0 C606     		lsls	r6, r0, #27
 682 00a2 36D5     		bpl	.L121
 683 00a4 AA60     		str	r2, [r5, #8]
 684 00a6 94F83520 		ldrb	r2, [r4, #53]	@ zero_extendqisi2
 685 00aa 052A     		cmp	r2, #5
 686 00ac 1A68     		ldr	r2, [r3]
 687 00ae 27D1     		bne	.L123
 688 00b0 22F01602 		bic	r2, r2, #22
 689 00b4 1A60     		str	r2, [r3]
 690 00b6 5A69     		ldr	r2, [r3, #20]
 691 00b8 22F08002 		bic	r2, r2, #128
 692 00bc 5A61     		str	r2, [r3, #20]
 693 00be 226C     		ldr	r2, [r4, #64]
 694 00c0 0AB9     		cbnz	r2, .L124
 695 00c2 A26C     		ldr	r2, [r4, #72]
 696 00c4 1AB1     		cbz	r2, .L125
 697              	.L124:
 698 00c6 1A68     		ldr	r2, [r3]
 699 00c8 22F00802 		bic	r2, r2, #8
 700 00cc 1A60     		str	r2, [r3]
 701              	.L125:
ARM GAS  /tmp/ccquACyq.s 			page 13


 702 00ce 3F23     		movs	r3, #63
 703 00d0 8B40     		lsls	r3, r3, r1
 704 00d2 AB60     		str	r3, [r5, #8]
 705 00d4 0123     		movs	r3, #1
 706 00d6 84F83530 		strb	r3, [r4, #53]
 707 00da 0023     		movs	r3, #0
 708 00dc 84F83430 		strb	r3, [r4, #52]
 709 00e0 236D     		ldr	r3, [r4, #80]
 710              	.L200:
 711 00e2 002B     		cmp	r3, #0
 712 00e4 45D0     		beq	.L110
 713 00e6 2046     		mov	r0, r4
 714 00e8 03B0     		add	sp, sp, #12
 715              		@ sp needed
 716 00ea BDE8F040 		pop	{r4, r5, r6, r7, lr}
 717 00ee 1847     		bx	r3	@ indirect register sibling call
 718              	.L117:
 719 00f0 1A68     		ldr	r2, [r3]
 720 00f2 D205     		lsls	r2, r2, #23
 721 00f4 C7D4     		bmi	.L119
 722 00f6 1A68     		ldr	r2, [r3]
 723 00f8 22F00802 		bic	r2, r2, #8
 724 00fc 1A60     		str	r2, [r3]
 725 00fe C2E7     		b	.L119
 726              	.L123:
 727 0100 5003     		lsls	r0, r2, #13
 728 0102 27D5     		bpl	.L128
 729 0104 1B68     		ldr	r3, [r3]
 730 0106 1903     		lsls	r1, r3, #12
 731 0108 31D4     		bmi	.L130
 732 010a 636C     		ldr	r3, [r4, #68]
 733              	.L197:
 734 010c 0BB1     		cbz	r3, .L121
 735 010e 2046     		mov	r0, r4
 736 0110 9847     		blx	r3
 737              	.L121:
 738 0112 636D     		ldr	r3, [r4, #84]
 739 0114 6BB3     		cbz	r3, .L110
 740 0116 636D     		ldr	r3, [r4, #84]
 741 0118 DA07     		lsls	r2, r3, #31
 742 011a 19D5     		bpl	.L132
 743 011c 4FF41653 		mov	r3, #9600
 744 0120 2268     		ldr	r2, [r4]
 745 0122 B7FBF3F7 		udiv	r7, r7, r3
 746 0126 0523     		movs	r3, #5
 747 0128 84F83530 		strb	r3, [r4, #53]
 748 012c 1368     		ldr	r3, [r2]
 749 012e 23F00103 		bic	r3, r3, #1
 750 0132 1360     		str	r3, [r2]
 751              	.L134:
 752 0134 019B     		ldr	r3, [sp, #4]
 753 0136 0133     		adds	r3, r3, #1
 754 0138 BB42     		cmp	r3, r7
 755 013a 0193     		str	r3, [sp, #4]
 756 013c 02D8     		bhi	.L133
 757 013e 1368     		ldr	r3, [r2]
 758 0140 DB07     		lsls	r3, r3, #31
ARM GAS  /tmp/ccquACyq.s 			page 14


 759 0142 F7D4     		bmi	.L134
 760              	.L133:
 761 0144 0123     		movs	r3, #1
 762 0146 84F83530 		strb	r3, [r4, #53]
 763 014a 0023     		movs	r3, #0
 764 014c 84F83430 		strb	r3, [r4, #52]
 765              	.L132:
 766 0150 E36C     		ldr	r3, [r4, #76]
 767 0152 C6E7     		b	.L200
 768              	.L128:
 769 0154 1A68     		ldr	r2, [r3]
 770 0156 12F48072 		ands	r2, r2, #256
 771 015a 08D1     		bne	.L130
 772 015c 1968     		ldr	r1, [r3]
 773 015e 21F01001 		bic	r1, r1, #16
 774 0162 1960     		str	r1, [r3]
 775 0164 0123     		movs	r3, #1
 776 0166 84F83420 		strb	r2, [r4, #52]
 777 016a 84F83530 		strb	r3, [r4, #53]
 778              	.L130:
 779 016e E36B     		ldr	r3, [r4, #60]
 780 0170 CCE7     		b	.L197
 781              	.L110:
 782 0172 03B0     		add	sp, sp, #12
 783              		@ sp needed
 784 0174 F0BD     		pop	{r4, r5, r6, r7, pc}
 785              	.L202:
 786 0176 00BF     		.align	2
 787              	.L201:
 788 0178 00000000 		.word	SystemCoreClock
 790              		.section	.text.HAL_DMA_RegisterCallback,"ax",%progbits
 791              		.align	1
 792              		.global	HAL_DMA_RegisterCallback
 793              		.syntax unified
 794              		.thumb
 795              		.thumb_func
 796              		.fpu fpv5-sp-d16
 798              	HAL_DMA_RegisterCallback:
 799              		@ args = 0, pretend = 0, frame = 0
 800              		@ frame_needed = 0, uses_anonymous_args = 0
 801 0000 10B5     		push	{r4, lr}
 802 0002 90F83430 		ldrb	r3, [r0, #52]	@ zero_extendqisi2
 803 0006 012B     		cmp	r3, #1
 804 0008 1FD0     		beq	.L213
 805 000a 90F83540 		ldrb	r4, [r0, #53]	@ zero_extendqisi2
 806 000e 012C     		cmp	r4, #1
 807 0010 E3B2     		uxtb	r3, r4
 808 0012 18D1     		bne	.L214
 809 0014 0529     		cmp	r1, #5
 810 0016 06D8     		bhi	.L205
 811 0018 DFE801F0 		tbb	[pc, r1]
 812              	.L207:
 813 001c 03       		.byte	(.L212-.L207)/2
 814 001d 0A       		.byte	(.L211-.L207)/2
 815 001e 0D       		.byte	(.L210-.L207)/2
 816 001f 0F       		.byte	(.L209-.L207)/2
 817 0020 11       		.byte	(.L208-.L207)/2
ARM GAS  /tmp/ccquACyq.s 			page 15


 818 0021 13       		.byte	(.L206-.L207)/2
 819              		.p2align 1
 820              	.L212:
 821 0022 0B46     		mov	r3, r1
 822 0024 C263     		str	r2, [r0, #60]
 823              	.L205:
 824 0026 0022     		movs	r2, #0
 825 0028 80F83420 		strb	r2, [r0, #52]
 826              	.L204:
 827 002c 1846     		mov	r0, r3
 828 002e 10BD     		pop	{r4, pc}
 829              	.L211:
 830 0030 0264     		str	r2, [r0, #64]
 831              	.L215:
 832 0032 0023     		movs	r3, #0
 833 0034 F7E7     		b	.L205
 834              	.L210:
 835 0036 4264     		str	r2, [r0, #68]
 836 0038 FBE7     		b	.L215
 837              	.L209:
 838 003a 8264     		str	r2, [r0, #72]
 839 003c F9E7     		b	.L215
 840              	.L208:
 841 003e C264     		str	r2, [r0, #76]
 842 0040 F7E7     		b	.L215
 843              	.L206:
 844 0042 0265     		str	r2, [r0, #80]
 845 0044 F5E7     		b	.L215
 846              	.L214:
 847 0046 0123     		movs	r3, #1
 848 0048 EDE7     		b	.L205
 849              	.L213:
 850 004a 0223     		movs	r3, #2
 851 004c EEE7     		b	.L204
 853              		.section	.text.HAL_DMA_UnRegisterCallback,"ax",%progbits
 854              		.align	1
 855              		.global	HAL_DMA_UnRegisterCallback
 856              		.syntax unified
 857              		.thumb
 858              		.thumb_func
 859              		.fpu fpv5-sp-d16
 861              	HAL_DMA_UnRegisterCallback:
 862              		@ args = 0, pretend = 0, frame = 0
 863              		@ frame_needed = 0, uses_anonymous_args = 0
 864 0000 10B5     		push	{r4, lr}
 865 0002 90F83430 		ldrb	r3, [r0, #52]	@ zero_extendqisi2
 866 0006 012B     		cmp	r3, #1
 867 0008 29D0     		beq	.L227
 868 000a 0123     		movs	r3, #1
 869 000c 90F83540 		ldrb	r4, [r0, #53]	@ zero_extendqisi2
 870 0010 9C42     		cmp	r4, r3
 871 0012 E2B2     		uxtb	r2, r4
 872 0014 80F83430 		strb	r3, [r0, #52]
 873 0018 1FD1     		bne	.L228
 874 001a 0023     		movs	r3, #0
 875 001c 0629     		cmp	r1, #6
 876 001e 07D8     		bhi	.L218
ARM GAS  /tmp/ccquACyq.s 			page 16


 877 0020 DFE801F0 		tbb	[pc, r1]
 878              	.L220:
 879 0024 04       		.byte	(.L226-.L220)/2
 880 0025 0B       		.byte	(.L225-.L220)/2
 881 0026 0E       		.byte	(.L224-.L220)/2
 882 0027 10       		.byte	(.L223-.L220)/2
 883 0028 12       		.byte	(.L222-.L220)/2
 884 0029 19       		.byte	(.L221-.L220)/2
 885 002a 14       		.byte	(.L219-.L220)/2
 886 002b 00       		.p2align 1
 887              	.L226:
 888 002c 0A46     		mov	r2, r1
 889 002e C363     		str	r3, [r0, #60]
 890              	.L218:
 891 0030 0023     		movs	r3, #0
 892 0032 80F83430 		strb	r3, [r0, #52]
 893              	.L217:
 894 0036 1046     		mov	r0, r2
 895 0038 10BD     		pop	{r4, pc}
 896              	.L225:
 897 003a 0364     		str	r3, [r0, #64]
 898              	.L229:
 899 003c 0022     		movs	r2, #0
 900 003e F7E7     		b	.L218
 901              	.L224:
 902 0040 4364     		str	r3, [r0, #68]
 903 0042 FBE7     		b	.L229
 904              	.L223:
 905 0044 8364     		str	r3, [r0, #72]
 906 0046 F9E7     		b	.L229
 907              	.L222:
 908 0048 C364     		str	r3, [r0, #76]
 909 004a F7E7     		b	.L229
 910              	.L219:
 911 004c C0E90F33 		strd	r3, r3, [r0, #60]
 912 0050 C0E91133 		strd	r3, r3, [r0, #68]
 913 0054 C364     		str	r3, [r0, #76]
 914              	.L221:
 915 0056 0365     		str	r3, [r0, #80]
 916 0058 F0E7     		b	.L229
 917              	.L228:
 918 005a 1A46     		mov	r2, r3
 919 005c E8E7     		b	.L218
 920              	.L227:
 921 005e 0222     		movs	r2, #2
 922 0060 E9E7     		b	.L217
 924              		.section	.text.HAL_DMA_GetState,"ax",%progbits
 925              		.align	1
 926              		.global	HAL_DMA_GetState
 927              		.syntax unified
 928              		.thumb
 929              		.thumb_func
 930              		.fpu fpv5-sp-d16
 932              	HAL_DMA_GetState:
 933              		@ args = 0, pretend = 0, frame = 0
 934              		@ frame_needed = 0, uses_anonymous_args = 0
 935              		@ link register save eliminated.
ARM GAS  /tmp/ccquACyq.s 			page 17


 936 0000 90F83500 		ldrb	r0, [r0, #53]	@ zero_extendqisi2
 937 0004 7047     		bx	lr
 939              		.section	.text.HAL_DMA_GetError,"ax",%progbits
 940              		.align	1
 941              		.global	HAL_DMA_GetError
 942              		.syntax unified
 943              		.thumb
 944              		.thumb_func
 945              		.fpu fpv5-sp-d16
 947              	HAL_DMA_GetError:
 948              		@ args = 0, pretend = 0, frame = 0
 949              		@ frame_needed = 0, uses_anonymous_args = 0
 950              		@ link register save eliminated.
 951 0000 406D     		ldr	r0, [r0, #84]
 952 0002 7047     		bx	lr
 954              		.section	.rodata.flagBitshiftOffset.0,"a"
 955              		.set	.LANCHOR0,. + 0
 958              	flagBitshiftOffset.0:
 959 0000 00061016 		.ascii	"\000\006\020\026\000\006\020\026"
 959      00061016 
 960              		.ident	"GCC: (15:10.3-2021.07-4) 10.3.1 20210621 (release)"
ARM GAS  /tmp/ccquACyq.s 			page 18

