ARM GAS  /tmp/ccsvEzqS.s 			page 1


   1              		.cpu cortex-m7
   2              		.eabi_attribute 27, 1
   3              		.eabi_attribute 20, 1
   4              		.eabi_attribute 21, 1
   5              		.eabi_attribute 23, 3
   6              		.eabi_attribute 24, 1
   7              		.eabi_attribute 25, 1
   8              		.eabi_attribute 26, 1
   9              		.eabi_attribute 30, 4
  10              		.eabi_attribute 34, 1
  11              		.eabi_attribute 18, 4
  12              		.file	"stm32f7xx_hal_exti.c"
  13              		.text
  14              		.section	.text.HAL_EXTI_SetConfigLine,"ax",%progbits
  15              		.align	1
  16              		.global	HAL_EXTI_SetConfigLine
  17              		.arch armv7e-m
  18              		.syntax unified
  19              		.thumb
  20              		.thumb_func
  21              		.fpu fpv5-sp-d16
  23              	HAL_EXTI_SetConfigLine:
  24              		@ args = 0, pretend = 0, frame = 0
  25              		@ frame_needed = 0, uses_anonymous_args = 0
  26 0000 70B5     		push	{r4, r5, r6, lr}
  27 0002 0028     		cmp	r0, #0
  28 0004 49D0     		beq	.L14
  29 0006 0029     		cmp	r1, #0
  30 0008 47D0     		beq	.L14
  31 000a 0A68     		ldr	r2, [r1]
  32 000c 0123     		movs	r3, #1
  33 000e 0260     		str	r2, [r0]
  34 0010 9401     		lsls	r4, r2, #6
  35 0012 02F01F00 		and	r0, r2, #31
  36 0016 03FA00F3 		lsl	r3, r3, r0
  37 001a 28D5     		bpl	.L4
  38 001c 8E68     		ldr	r6, [r1, #8]
  39 001e 204C     		ldr	r4, .L18
  40 0020 16F0010F 		tst	r6, #1
  41 0024 A568     		ldr	r5, [r4, #8]
  42 0026 14BF     		ite	ne
  43 0028 1D43     		orrne	r5, r5, r3
  44 002a 9D43     		biceq	r5, r5, r3
  45 002c 16F0020F 		tst	r6, #2
  46 0030 A560     		str	r5, [r4, #8]
  47 0032 1B4C     		ldr	r4, .L18
  48 0034 E568     		ldr	r5, [r4, #12]
  49 0036 14BF     		ite	ne
  50 0038 1D43     		orrne	r5, r5, r3
  51 003a 9D43     		biceq	r5, r5, r3
  52 003c E560     		str	r5, [r4, #12]
  53 003e 02F0C064 		and	r4, r2, #100663296
  54 0042 B4F1C06F 		cmp	r4, #100663296
  55 0046 12D1     		bne	.L4
  56 0048 00F01C00 		and	r0, r0, #28
  57 004c 02F00302 		and	r2, r2, #3
  58 0050 0F24     		movs	r4, #15
ARM GAS  /tmp/ccsvEzqS.s 			page 2


  59 0052 00F18040 		add	r0, r0, #1073741824
  60 0056 9200     		lsls	r2, r2, #2
  61 0058 00F59C30 		add	r0, r0, #79872
  62 005c 9440     		lsls	r4, r4, r2
  63 005e 8568     		ldr	r5, [r0, #8]
  64 0060 25EA0405 		bic	r5, r5, r4
  65 0064 CC68     		ldr	r4, [r1, #12]
  66 0066 04FA02F2 		lsl	r2, r4, r2
  67 006a 2A43     		orrs	r2, r2, r5
  68 006c 8260     		str	r2, [r0, #8]
  69              	.L4:
  70 006e 4868     		ldr	r0, [r1, #4]
  71 0070 0B4A     		ldr	r2, .L18
  72 0072 10F0010F 		tst	r0, #1
  73 0076 1168     		ldr	r1, [r2]
  74 0078 14BF     		ite	ne
  75 007a 1943     		orrne	r1, r1, r3
  76 007c 9943     		biceq	r1, r1, r3
  77 007e 10F00200 		ands	r0, r0, #2
  78 0082 1160     		str	r1, [r2]
  79 0084 064A     		ldr	r2, .L18
  80 0086 5168     		ldr	r1, [r2, #4]
  81 0088 03D0     		beq	.L12
  82 008a 0B43     		orrs	r3, r3, r1
  83 008c 0020     		movs	r0, #0
  84 008e 5360     		str	r3, [r2, #4]
  85              	.L2:
  86 0090 70BD     		pop	{r4, r5, r6, pc}
  87              	.L12:
  88 0092 21EA0303 		bic	r3, r1, r3
  89 0096 5360     		str	r3, [r2, #4]
  90 0098 FAE7     		b	.L2
  91              	.L14:
  92 009a 0120     		movs	r0, #1
  93 009c F8E7     		b	.L2
  94              	.L19:
  95 009e 00BF     		.align	2
  96              	.L18:
  97 00a0 003C0140 		.word	1073822720
  99              		.section	.text.HAL_EXTI_GetConfigLine,"ax",%progbits
 100              		.align	1
 101              		.global	HAL_EXTI_GetConfigLine
 102              		.syntax unified
 103              		.thumb
 104              		.thumb_func
 105              		.fpu fpv5-sp-d16
 107              	HAL_EXTI_GetConfigLine:
 108              		@ args = 0, pretend = 0, frame = 0
 109              		@ frame_needed = 0, uses_anonymous_args = 0
 110 0000 70B5     		push	{r4, r5, r6, lr}
 111 0002 0028     		cmp	r0, #0
 112 0004 3DD0     		beq	.L27
 113 0006 0029     		cmp	r1, #0
 114 0008 3BD0     		beq	.L27
 115 000a 0268     		ldr	r2, [r0]
 116 000c 0124     		movs	r4, #1
 117 000e 1E48     		ldr	r0, .L35
ARM GAS  /tmp/ccsvEzqS.s 			page 3


 118 0010 02F01F03 		and	r3, r2, #31
 119 0014 0A60     		str	r2, [r1]
 120 0016 0568     		ldr	r5, [r0]
 121 0018 9C40     		lsls	r4, r4, r3
 122 001a 2542     		tst	r5, r4
 123 001c 14BF     		ite	ne
 124 001e 0126     		movne	r6, #1
 125 0020 0026     		moveq	r6, #0
 126 0022 4E60     		str	r6, [r1, #4]
 127 0024 4568     		ldr	r5, [r0, #4]
 128 0026 2542     		tst	r5, r4
 129 0028 0546     		mov	r5, r0
 130 002a 1CBF     		itt	ne
 131 002c 46F00206 		orrne	r6, r6, #2
 132 0030 4E60     		strne	r6, [r1, #4]
 133 0032 12F00070 		ands	r0, r2, #33554432
 134 0036 22D0     		beq	.L23
 135 0038 A868     		ldr	r0, [r5, #8]
 136 003a 02F0C062 		and	r2, r2, #100663296
 137 003e 2042     		tst	r0, r4
 138 0040 14BF     		ite	ne
 139 0042 0120     		movne	r0, #1
 140 0044 0020     		moveq	r0, #0
 141 0046 8860     		str	r0, [r1, #8]
 142 0048 ED68     		ldr	r5, [r5, #12]
 143 004a 2542     		tst	r5, r4
 144 004c 1CBF     		itt	ne
 145 004e 40F00200 		orrne	r0, r0, #2
 146 0052 8860     		strne	r0, [r1, #8]
 147 0054 B2F1C06F 		cmp	r2, #100663296
 148 0058 0ED1     		bne	.L25
 149 005a 9A08     		lsrs	r2, r3, #2
 150 005c DB43     		mvns	r3, r3
 151 005e 0B48     		ldr	r0, .L35+4
 152 0060 0232     		adds	r2, r2, #2
 153 0062 03F00303 		and	r3, r3, #3
 154 0066 50F82220 		ldr	r2, [r0, r2, lsl #2]
 155 006a 9B00     		lsls	r3, r3, #2
 156 006c 0020     		movs	r0, #0
 157 006e 02FA03F3 		lsl	r3, r2, r3
 158 0072 1B0E     		lsrs	r3, r3, #24
 159 0074 CB60     		str	r3, [r1, #12]
 160              	.L21:
 161 0076 70BD     		pop	{r4, r5, r6, pc}
 162              	.L25:
 163 0078 0020     		movs	r0, #0
 164              	.L34:
 165 007a C860     		str	r0, [r1, #12]
 166 007c FBE7     		b	.L21
 167              	.L23:
 168 007e 8860     		str	r0, [r1, #8]
 169 0080 FBE7     		b	.L34
 170              	.L27:
 171 0082 0120     		movs	r0, #1
 172 0084 F7E7     		b	.L21
 173              	.L36:
 174 0086 00BF     		.align	2
ARM GAS  /tmp/ccsvEzqS.s 			page 4


 175              	.L35:
 176 0088 003C0140 		.word	1073822720
 177 008c 00380140 		.word	1073821696
 179              		.section	.text.HAL_EXTI_ClearConfigLine,"ax",%progbits
 180              		.align	1
 181              		.global	HAL_EXTI_ClearConfigLine
 182              		.syntax unified
 183              		.thumb
 184              		.thumb_func
 185              		.fpu fpv5-sp-d16
 187              	HAL_EXTI_ClearConfigLine:
 188              		@ args = 0, pretend = 0, frame = 0
 189              		@ frame_needed = 0, uses_anonymous_args = 0
 190 0000 10B5     		push	{r4, lr}
 191 0002 60B3     		cbz	r0, .L41
 192 0004 0168     		ldr	r1, [r0]
 193 0006 0123     		movs	r3, #1
 194 0008 1648     		ldr	r0, .L43
 195 000a 01F01F02 		and	r2, r1, #31
 196 000e 0468     		ldr	r4, [r0]
 197 0010 9340     		lsls	r3, r3, r2
 198 0012 DB43     		mvns	r3, r3
 199 0014 1C40     		ands	r4, r4, r3
 200 0016 0460     		str	r4, [r0]
 201 0018 4468     		ldr	r4, [r0, #4]
 202 001a 1C40     		ands	r4, r4, r3
 203 001c 4460     		str	r4, [r0, #4]
 204 001e 8C01     		lsls	r4, r1, #6
 205 0020 01D4     		bmi	.L39
 206              	.L42:
 207 0022 0020     		movs	r0, #0
 208              	.L38:
 209 0024 10BD     		pop	{r4, pc}
 210              	.L39:
 211 0026 8468     		ldr	r4, [r0, #8]
 212 0028 1C40     		ands	r4, r4, r3
 213 002a 8460     		str	r4, [r0, #8]
 214 002c C468     		ldr	r4, [r0, #12]
 215 002e 2340     		ands	r3, r3, r4
 216 0030 C360     		str	r3, [r0, #12]
 217 0032 01F0C063 		and	r3, r1, #100663296
 218 0036 B3F1C06F 		cmp	r3, #100663296
 219 003a F2D1     		bne	.L42
 220 003c 02F01C03 		and	r3, r2, #28
 221 0040 01F00301 		and	r1, r1, #3
 222 0044 0F20     		movs	r0, #15
 223 0046 03F18043 		add	r3, r3, #1073741824
 224 004a 8900     		lsls	r1, r1, #2
 225 004c 03F59C33 		add	r3, r3, #79872
 226 0050 00FA01F1 		lsl	r1, r0, r1
 227 0054 9A68     		ldr	r2, [r3, #8]
 228 0056 22EA0101 		bic	r1, r2, r1
 229 005a 9960     		str	r1, [r3, #8]
 230 005c E1E7     		b	.L42
 231              	.L41:
 232 005e 0120     		movs	r0, #1
 233 0060 E0E7     		b	.L38
ARM GAS  /tmp/ccsvEzqS.s 			page 5


 234              	.L44:
 235 0062 00BF     		.align	2
 236              	.L43:
 237 0064 003C0140 		.word	1073822720
 239              		.section	.text.HAL_EXTI_RegisterCallback,"ax",%progbits
 240              		.align	1
 241              		.global	HAL_EXTI_RegisterCallback
 242              		.syntax unified
 243              		.thumb
 244              		.thumb_func
 245              		.fpu fpv5-sp-d16
 247              	HAL_EXTI_RegisterCallback:
 248              		@ args = 0, pretend = 0, frame = 0
 249              		@ frame_needed = 0, uses_anonymous_args = 0
 250              		@ link register save eliminated.
 251 0000 11B9     		cbnz	r1, .L47
 252 0002 4260     		str	r2, [r0, #4]
 253 0004 0846     		mov	r0, r1
 254 0006 7047     		bx	lr
 255              	.L47:
 256 0008 0120     		movs	r0, #1
 257 000a 7047     		bx	lr
 259              		.section	.text.HAL_EXTI_GetHandle,"ax",%progbits
 260              		.align	1
 261              		.global	HAL_EXTI_GetHandle
 262              		.syntax unified
 263              		.thumb
 264              		.thumb_func
 265              		.fpu fpv5-sp-d16
 267              	HAL_EXTI_GetHandle:
 268              		@ args = 0, pretend = 0, frame = 0
 269              		@ frame_needed = 0, uses_anonymous_args = 0
 270              		@ link register save eliminated.
 271 0000 10B1     		cbz	r0, .L50
 272 0002 0160     		str	r1, [r0]
 273 0004 0020     		movs	r0, #0
 274 0006 7047     		bx	lr
 275              	.L50:
 276 0008 0120     		movs	r0, #1
 277 000a 7047     		bx	lr
 279              		.section	.text.HAL_EXTI_IRQHandler,"ax",%progbits
 280              		.align	1
 281              		.global	HAL_EXTI_IRQHandler
 282              		.syntax unified
 283              		.thumb
 284              		.thumb_func
 285              		.fpu fpv5-sp-d16
 287              	HAL_EXTI_IRQHandler:
 288              		@ args = 0, pretend = 0, frame = 0
 289              		@ frame_needed = 0, uses_anonymous_args = 0
 290              		@ link register save eliminated.
 291 0000 0368     		ldr	r3, [r0]
 292 0002 03F01F02 		and	r2, r3, #31
 293 0006 0123     		movs	r3, #1
 294 0008 9340     		lsls	r3, r3, r2
 295 000a 044A     		ldr	r2, .L58
 296 000c 5169     		ldr	r1, [r2, #20]
ARM GAS  /tmp/ccsvEzqS.s 			page 6


 297 000e 1942     		tst	r1, r3
 298 0010 03D0     		beq	.L51
 299 0012 5361     		str	r3, [r2, #20]
 300 0014 4368     		ldr	r3, [r0, #4]
 301 0016 03B1     		cbz	r3, .L51
 302 0018 1847     		bx	r3	@ indirect register sibling call
 303              	.L51:
 304 001a 7047     		bx	lr
 305              	.L59:
 306              		.align	2
 307              	.L58:
 308 001c 003C0140 		.word	1073822720
 310              		.section	.text.HAL_EXTI_GetPending,"ax",%progbits
 311              		.align	1
 312              		.global	HAL_EXTI_GetPending
 313              		.syntax unified
 314              		.thumb
 315              		.thumb_func
 316              		.fpu fpv5-sp-d16
 318              	HAL_EXTI_GetPending:
 319              		@ args = 0, pretend = 0, frame = 0
 320              		@ frame_needed = 0, uses_anonymous_args = 0
 321              		@ link register save eliminated.
 322 0000 0068     		ldr	r0, [r0]
 323 0002 054B     		ldr	r3, .L61
 324 0004 00F01F00 		and	r0, r0, #31
 325 0008 5A69     		ldr	r2, [r3, #20]
 326 000a 0123     		movs	r3, #1
 327 000c 8340     		lsls	r3, r3, r0
 328 000e 1340     		ands	r3, r3, r2
 329 0010 23FA00F0 		lsr	r0, r3, r0
 330 0014 7047     		bx	lr
 331              	.L62:
 332 0016 00BF     		.align	2
 333              	.L61:
 334 0018 003C0140 		.word	1073822720
 336              		.section	.text.HAL_EXTI_ClearPending,"ax",%progbits
 337              		.align	1
 338              		.global	HAL_EXTI_ClearPending
 339              		.syntax unified
 340              		.thumb
 341              		.thumb_func
 342              		.fpu fpv5-sp-d16
 344              	HAL_EXTI_ClearPending:
 345              		@ args = 0, pretend = 0, frame = 0
 346              		@ frame_needed = 0, uses_anonymous_args = 0
 347              		@ link register save eliminated.
 348 0000 0268     		ldr	r2, [r0]
 349 0002 0123     		movs	r3, #1
 350 0004 02F01F02 		and	r2, r2, #31
 351 0008 9340     		lsls	r3, r3, r2
 352 000a 014A     		ldr	r2, .L64
 353 000c 5361     		str	r3, [r2, #20]
 354 000e 7047     		bx	lr
 355              	.L65:
 356              		.align	2
 357              	.L64:
ARM GAS  /tmp/ccsvEzqS.s 			page 7


 358 0010 003C0140 		.word	1073822720
 360              		.section	.text.HAL_EXTI_GenerateSWI,"ax",%progbits
 361              		.align	1
 362              		.global	HAL_EXTI_GenerateSWI
 363              		.syntax unified
 364              		.thumb
 365              		.thumb_func
 366              		.fpu fpv5-sp-d16
 368              	HAL_EXTI_GenerateSWI:
 369              		@ args = 0, pretend = 0, frame = 0
 370              		@ frame_needed = 0, uses_anonymous_args = 0
 371              		@ link register save eliminated.
 372 0000 0268     		ldr	r2, [r0]
 373 0002 0123     		movs	r3, #1
 374 0004 02F01F02 		and	r2, r2, #31
 375 0008 9340     		lsls	r3, r3, r2
 376 000a 014A     		ldr	r2, .L67
 377 000c 1361     		str	r3, [r2, #16]
 378 000e 7047     		bx	lr
 379              	.L68:
 380              		.align	2
 381              	.L67:
 382 0010 003C0140 		.word	1073822720
 384              		.ident	"GCC: (GNU Tools for Arm Embedded Processors 8-2018-q4-major) 8.2.1 20181213 (release) [gcc
ARM GAS  /tmp/ccsvEzqS.s 			page 8

