ARM GAS  /tmp/cc4Mprqz.s 			page 1


   1              		.cpu cortex-m7
   2              		.eabi_attribute 27, 1
   3              		.eabi_attribute 20, 1
   4              		.eabi_attribute 21, 1
   5              		.eabi_attribute 23, 3
   6              		.eabi_attribute 24, 1
   7              		.eabi_attribute 25, 1
   8              		.eabi_attribute 26, 1
   9              		.eabi_attribute 30, 4
  10              		.eabi_attribute 34, 1
  11              		.eabi_attribute 18, 4
  12              		.file	"stm32f7xx_hal_rcc_ex.c"
  13              		.text
  14              		.section	.text.HAL_RCCEx_PeriphCLKConfig,"ax",%progbits
  15              		.align	1
  16              		.global	HAL_RCCEx_PeriphCLKConfig
  17              		.arch armv7e-m
  18              		.syntax unified
  19              		.thumb
  20              		.thumb_func
  21              		.fpu fpv5-sp-d16
  23              	HAL_RCCEx_PeriphCLKConfig:
  24              		@ args = 0, pretend = 0, frame = 8
  25              		@ frame_needed = 0, uses_anonymous_args = 0
  26 0000 0368     		ldr	r3, [r0]
  27 0002 2DE9F743 		push	{r0, r1, r2, r4, r5, r6, r7, r8, r9, lr}
  28 0006 13F00106 		ands	r6, r3, #1
  29 000a 0446     		mov	r4, r0
  30 000c 0BD0     		beq	.L2
  31 000e A04A     		ldr	r2, .L152
  32 0010 9168     		ldr	r1, [r2, #8]
  33 0012 21F40001 		bic	r1, r1, #8388608
  34 0016 9160     		str	r1, [r2, #8]
  35 0018 C66A     		ldr	r6, [r0, #44]
  36 001a 9168     		ldr	r1, [r2, #8]
  37 001c 3143     		orrs	r1, r1, r6
  38 001e B6FA86F6 		clz	r6, r6
  39 0022 7609     		lsrs	r6, r6, #5
  40 0024 9160     		str	r1, [r2, #8]
  41              	.L2:
  42 0026 13F40025 		ands	r5, r3, #524288
  43 002a 12D0     		beq	.L3
  44 002c 9849     		ldr	r1, .L152
  45 002e 656B     		ldr	r5, [r4, #52]
  46 0030 D1F88C20 		ldr	r2, [r1, #140]
  47 0034 B5F5801F 		cmp	r5, #1048576
  48 0038 22F44012 		bic	r2, r2, #3145728
  49 003c 08BF     		it	eq
  50 003e 0126     		moveq	r6, #1
  51 0040 42EA0502 		orr	r2, r2, r5
  52 0044 16BF     		itet	ne
  53 0046 B5FA85F5 		clzne	r5, r5
  54 004a 0025     		moveq	r5, #0
  55 004c 6D09     		lsrne	r5, r5, #5
  56 004e C1F88C20 		str	r2, [r1, #140]
  57              	.L3:
  58 0052 D902     		lsls	r1, r3, #11
ARM GAS  /tmp/cc4Mprqz.s 			page 2


  59 0054 10D5     		bpl	.L4
  60 0056 8E48     		ldr	r0, .L152
  61 0058 A16B     		ldr	r1, [r4, #56]
  62 005a D0F88C20 		ldr	r2, [r0, #140]
  63 005e B1F5800F 		cmp	r1, #4194304
  64 0062 22F44002 		bic	r2, r2, #12582912
  65 0066 42EA0102 		orr	r2, r2, r1
  66 006a C0F88C20 		str	r2, [r0, #140]
  67 006e 00F04A81 		beq	.L55
  68 0072 0029     		cmp	r1, #0
  69 0074 08BF     		it	eq
  70 0076 0125     		moveq	r5, #1
  71              	.L4:
  72 0078 9A06     		lsls	r2, r3, #26
  73 007a 31D5     		bpl	.L5
  74 007c 844B     		ldr	r3, .L152
  75 007e 854F     		ldr	r7, .L152+4
  76 0080 1A6C     		ldr	r2, [r3, #64]
  77 0082 42F08052 		orr	r2, r2, #268435456
  78 0086 1A64     		str	r2, [r3, #64]
  79 0088 1B6C     		ldr	r3, [r3, #64]
  80 008a 03F08053 		and	r3, r3, #268435456
  81 008e 0193     		str	r3, [sp, #4]
  82 0090 019B     		ldr	r3, [sp, #4]
  83 0092 3B68     		ldr	r3, [r7]
  84 0094 43F48073 		orr	r3, r3, #256
  85 0098 3B60     		str	r3, [r7]
  86 009a FFF7FEFF 		bl	HAL_GetTick
  87 009e 8046     		mov	r8, r0
  88              	.L6:
  89 00a0 3B68     		ldr	r3, [r7]
  90 00a2 DB05     		lsls	r3, r3, #23
  91 00a4 40F13181 		bpl	.L8
  92 00a8 794F     		ldr	r7, .L152
  93 00aa 3B6F     		ldr	r3, [r7, #112]
  94 00ac 13F44073 		ands	r3, r3, #768
  95 00b0 40F03681 		bne	.L9
  96              	.L12:
  97 00b4 A36A     		ldr	r3, [r4, #40]
  98 00b6 03F44072 		and	r2, r3, #768
  99 00ba B2F5407F 		cmp	r2, #768
 100 00be 744A     		ldr	r2, .L152
 101 00c0 40F05481 		bne	.L150
 102 00c4 9168     		ldr	r1, [r2, #8]
 103 00c6 23F07040 		bic	r0, r3, #-268435456
 104 00ca 21F4F811 		bic	r1, r1, #2031616
 105 00ce 20F44070 		bic	r0, r0, #768
 106 00d2 0143     		orrs	r1, r1, r0
 107              	.L151:
 108 00d4 9160     		str	r1, [r2, #8]
 109 00d6 C3F30B03 		ubfx	r3, r3, #0, #12
 110 00da 116F     		ldr	r1, [r2, #112]
 111 00dc 0B43     		orrs	r3, r3, r1
 112 00de 1367     		str	r3, [r2, #112]
 113              	.L5:
 114 00e0 2368     		ldr	r3, [r4]
 115 00e2 DA06     		lsls	r2, r3, #27
ARM GAS  /tmp/cc4Mprqz.s 			page 3


 116 00e4 0CD5     		bpl	.L17
 117 00e6 6A4A     		ldr	r2, .L152
 118 00e8 D2F88C10 		ldr	r1, [r2, #140]
 119 00ec 21F08071 		bic	r1, r1, #16777216
 120 00f0 C2F88C10 		str	r1, [r2, #140]
 121 00f4 D2F88C10 		ldr	r1, [r2, #140]
 122 00f8 206B     		ldr	r0, [r4, #48]
 123 00fa 0143     		orrs	r1, r1, r0
 124 00fc C2F88C10 		str	r1, [r2, #140]
 125              	.L17:
 126 0100 5F04     		lsls	r7, r3, #17
 127 0102 08D5     		bpl	.L18
 128 0104 6249     		ldr	r1, .L152
 129 0106 E06D     		ldr	r0, [r4, #92]
 130 0108 D1F89020 		ldr	r2, [r1, #144]
 131 010c 22F44032 		bic	r2, r2, #196608
 132 0110 0243     		orrs	r2, r2, r0
 133 0112 C1F89020 		str	r2, [r1, #144]
 134              	.L18:
 135 0116 1804     		lsls	r0, r3, #16
 136 0118 08D5     		bpl	.L19
 137 011a 5D49     		ldr	r1, .L152
 138 011c 206E     		ldr	r0, [r4, #96]
 139 011e D1F89020 		ldr	r2, [r1, #144]
 140 0122 22F44022 		bic	r2, r2, #786432
 141 0126 0243     		orrs	r2, r2, r0
 142 0128 C1F89020 		str	r2, [r1, #144]
 143              	.L19:
 144 012c D903     		lsls	r1, r3, #15
 145 012e 08D5     		bpl	.L20
 146 0130 5749     		ldr	r1, .L152
 147 0132 606E     		ldr	r0, [r4, #100]
 148 0134 D1F89020 		ldr	r2, [r1, #144]
 149 0138 22F44012 		bic	r2, r2, #3145728
 150 013c 0243     		orrs	r2, r2, r0
 151 013e C1F89020 		str	r2, [r1, #144]
 152              	.L20:
 153 0142 5A06     		lsls	r2, r3, #25
 154 0144 08D5     		bpl	.L21
 155 0146 5249     		ldr	r1, .L152
 156 0148 E06B     		ldr	r0, [r4, #60]
 157 014a D1F89020 		ldr	r2, [r1, #144]
 158 014e 22F00302 		bic	r2, r2, #3
 159 0152 0243     		orrs	r2, r2, r0
 160 0154 C1F89020 		str	r2, [r1, #144]
 161              	.L21:
 162 0158 1F06     		lsls	r7, r3, #24
 163 015a 08D5     		bpl	.L22
 164 015c 4C49     		ldr	r1, .L152
 165 015e 206C     		ldr	r0, [r4, #64]
 166 0160 D1F89020 		ldr	r2, [r1, #144]
 167 0164 22F00C02 		bic	r2, r2, #12
 168 0168 0243     		orrs	r2, r2, r0
 169 016a C1F89020 		str	r2, [r1, #144]
 170              	.L22:
 171 016e D805     		lsls	r0, r3, #23
 172 0170 08D5     		bpl	.L23
ARM GAS  /tmp/cc4Mprqz.s 			page 4


 173 0172 4749     		ldr	r1, .L152
 174 0174 606C     		ldr	r0, [r4, #68]
 175 0176 D1F89020 		ldr	r2, [r1, #144]
 176 017a 22F03002 		bic	r2, r2, #48
 177 017e 0243     		orrs	r2, r2, r0
 178 0180 C1F89020 		str	r2, [r1, #144]
 179              	.L23:
 180 0184 9905     		lsls	r1, r3, #22
 181 0186 08D5     		bpl	.L24
 182 0188 4149     		ldr	r1, .L152
 183 018a A06C     		ldr	r0, [r4, #72]
 184 018c D1F89020 		ldr	r2, [r1, #144]
 185 0190 22F0C002 		bic	r2, r2, #192
 186 0194 0243     		orrs	r2, r2, r0
 187 0196 C1F89020 		str	r2, [r1, #144]
 188              	.L24:
 189 019a 5A05     		lsls	r2, r3, #21
 190 019c 08D5     		bpl	.L25
 191 019e 3C49     		ldr	r1, .L152
 192 01a0 E06C     		ldr	r0, [r4, #76]
 193 01a2 D1F89020 		ldr	r2, [r1, #144]
 194 01a6 22F44072 		bic	r2, r2, #768
 195 01aa 0243     		orrs	r2, r2, r0
 196 01ac C1F89020 		str	r2, [r1, #144]
 197              	.L25:
 198 01b0 1F05     		lsls	r7, r3, #20
 199 01b2 08D5     		bpl	.L26
 200 01b4 3649     		ldr	r1, .L152
 201 01b6 206D     		ldr	r0, [r4, #80]
 202 01b8 D1F89020 		ldr	r2, [r1, #144]
 203 01bc 22F44062 		bic	r2, r2, #3072
 204 01c0 0243     		orrs	r2, r2, r0
 205 01c2 C1F89020 		str	r2, [r1, #144]
 206              	.L26:
 207 01c6 D804     		lsls	r0, r3, #19
 208 01c8 08D5     		bpl	.L27
 209 01ca 3149     		ldr	r1, .L152
 210 01cc 606D     		ldr	r0, [r4, #84]
 211 01ce D1F89020 		ldr	r2, [r1, #144]
 212 01d2 22F44052 		bic	r2, r2, #12288
 213 01d6 0243     		orrs	r2, r2, r0
 214 01d8 C1F89020 		str	r2, [r1, #144]
 215              	.L27:
 216 01dc 9904     		lsls	r1, r3, #18
 217 01de 08D5     		bpl	.L28
 218 01e0 2B49     		ldr	r1, .L152
 219 01e2 A06D     		ldr	r0, [r4, #88]
 220 01e4 D1F89020 		ldr	r2, [r1, #144]
 221 01e8 22F44042 		bic	r2, r2, #49152
 222 01ec 0243     		orrs	r2, r2, r0
 223 01ee C1F89020 		str	r2, [r1, #144]
 224              	.L28:
 225 01f2 9A02     		lsls	r2, r3, #10
 226 01f4 0CD5     		bpl	.L29
 227 01f6 2648     		ldr	r0, .L152
 228 01f8 616F     		ldr	r1, [r4, #116]
 229 01fa D0F89020 		ldr	r2, [r0, #144]
ARM GAS  /tmp/cc4Mprqz.s 			page 5


 230 01fe B1F1006F 		cmp	r1, #134217728
 231 0202 22F00062 		bic	r2, r2, #134217728
 232 0206 08BF     		it	eq
 233 0208 0125     		moveq	r5, #1
 234 020a 0A43     		orrs	r2, r2, r1
 235 020c C0F89020 		str	r2, [r0, #144]
 236              	.L29:
 237 0210 5F03     		lsls	r7, r3, #13
 238 0212 08D5     		bpl	.L30
 239 0214 1E49     		ldr	r1, .L152
 240 0216 E06E     		ldr	r0, [r4, #108]
 241 0218 D1F89020 		ldr	r2, [r1, #144]
 242 021c 22F04072 		bic	r2, r2, #50331648
 243 0220 0243     		orrs	r2, r2, r0
 244 0222 C1F89020 		str	r2, [r1, #144]
 245              	.L30:
 246 0226 1802     		lsls	r0, r3, #8
 247 0228 08D5     		bpl	.L31
 248 022a 1949     		ldr	r1, .L152
 249 022c A06F     		ldr	r0, [r4, #120]
 250 022e D1F89020 		ldr	r2, [r1, #144]
 251 0232 22F08052 		bic	r2, r2, #268435456
 252 0236 0243     		orrs	r2, r2, r0
 253 0238 C1F89020 		str	r2, [r1, #144]
 254              	.L31:
 255 023c 5901     		lsls	r1, r3, #5
 256 023e 08D5     		bpl	.L32
 257 0240 1349     		ldr	r1, .L152
 258 0242 E06F     		ldr	r0, [r4, #124]
 259 0244 D1F89020 		ldr	r2, [r1, #144]
 260 0248 22F00052 		bic	r2, r2, #536870912
 261 024c 0243     		orrs	r2, r2, r0
 262 024e C1F89020 		str	r2, [r1, #144]
 263              	.L32:
 264 0252 002E     		cmp	r6, #0
 265 0254 40F08E80 		bne	.L33
 266 0258 9A01     		lsls	r2, r3, #6
 267 025a 00F18B80 		bmi	.L33
 268              	.L45:
 269 025e 012D     		cmp	r5, #1
 270 0260 4FD1     		bne	.L35
 271 0262 0B4D     		ldr	r5, .L152
 272 0264 2B68     		ldr	r3, [r5]
 273 0266 23F08053 		bic	r3, r3, #268435456
 274 026a 2B60     		str	r3, [r5]
 275 026c FFF7FEFF 		bl	HAL_GetTick
 276 0270 0646     		mov	r6, r0
 277              	.L46:
 278 0272 2B68     		ldr	r3, [r5]
 279 0274 9F00     		lsls	r7, r3, #2
 280 0276 00F1E080 		bmi	.L47
 281 027a 2268     		ldr	r2, [r4]
 282 027c 1003     		lsls	r0, r2, #12
 283 027e 01D5     		bpl	.L48
 284 0280 636B     		ldr	r3, [r4, #52]
 285 0282 4BB1     		cbz	r3, .L49
 286              	.L48:
ARM GAS  /tmp/cc4Mprqz.s 			page 6


 287 0284 D102     		lsls	r1, r2, #11
 288 0286 1DD5     		bpl	.L50
 289 0288 A36B     		ldr	r3, [r4, #56]
 290 028a DBB9     		cbnz	r3, .L50
 291 028c 04E0     		b	.L153
 292              	.L154:
 293 028e 00BF     		.align	2
 294              	.L152:
 295 0290 00380240 		.word	1073887232
 296 0294 00700040 		.word	1073770496
 297              	.L153:
 298              	.L49:
 299 0298 D5F88810 		ldr	r1, [r5, #136]
 300 029c D4E90403 		ldrd	r0, r3, [r4, #16]
 301 02a0 01F44031 		and	r1, r1, #196608
 302 02a4 1B06     		lsls	r3, r3, #24
 303 02a6 43EA8013 		orr	r3, r3, r0, lsl #6
 304 02aa 0B43     		orrs	r3, r3, r1
 305 02ac C5F88830 		str	r3, [r5, #136]
 306 02b0 D5F88C30 		ldr	r3, [r5, #140]
 307 02b4 216A     		ldr	r1, [r4, #32]
 308 02b6 23F4F853 		bic	r3, r3, #7936
 309 02ba 0139     		subs	r1, r1, #1
 310 02bc 43EA0123 		orr	r3, r3, r1, lsl #8
 311 02c0 C5F88C30 		str	r3, [r5, #140]
 312              	.L50:
 313 02c4 9202     		lsls	r2, r2, #10
 314 02c6 10D5     		bpl	.L51
 315 02c8 636F     		ldr	r3, [r4, #116]
 316 02ca B3F1006F 		cmp	r3, #134217728
 317 02ce 0CD1     		bne	.L51
 318 02d0 6149     		ldr	r1, .L155
 319 02d2 A369     		ldr	r3, [r4, #24]
 320 02d4 D1F88820 		ldr	r2, [r1, #136]
 321 02d8 2069     		ldr	r0, [r4, #16]
 322 02da 1B04     		lsls	r3, r3, #16
 323 02dc 02F07062 		and	r2, r2, #251658240
 324 02e0 43EA8013 		orr	r3, r3, r0, lsl #6
 325 02e4 1343     		orrs	r3, r3, r2
 326 02e6 C1F88830 		str	r3, [r1, #136]
 327              	.L51:
 328 02ea 5B4C     		ldr	r4, .L155
 329 02ec 2368     		ldr	r3, [r4]
 330 02ee 43F08053 		orr	r3, r3, #268435456
 331 02f2 2360     		str	r3, [r4]
 332 02f4 FFF7FEFF 		bl	HAL_GetTick
 333 02f8 0546     		mov	r5, r0
 334              	.L52:
 335 02fa 2368     		ldr	r3, [r4]
 336 02fc 9B00     		lsls	r3, r3, #2
 337 02fe 40F1A380 		bpl	.L53
 338              	.L35:
 339 0302 0020     		movs	r0, #0
 340 0304 09E0     		b	.L7
 341              	.L55:
 342 0306 0126     		movs	r6, #1
 343 0308 B6E6     		b	.L4
ARM GAS  /tmp/cc4Mprqz.s 			page 7


 344              	.L8:
 345 030a FFF7FEFF 		bl	HAL_GetTick
 346 030e A0EB0800 		sub	r0, r0, r8
 347 0312 6428     		cmp	r0, #100
 348 0314 7FF6C4AE 		bls	.L6
 349              	.L14:
 350 0318 0320     		movs	r0, #3
 351              	.L7:
 352 031a 03B0     		add	sp, sp, #12
 353              		@ sp needed
 354 031c BDE8F083 		pop	{r4, r5, r6, r7, r8, r9, pc}
 355              	.L9:
 356 0320 A26A     		ldr	r2, [r4, #40]
 357 0322 02F44072 		and	r2, r2, #768
 358 0326 9342     		cmp	r3, r2
 359 0328 3FF4C4AE 		beq	.L12
 360 032c 3B6F     		ldr	r3, [r7, #112]
 361 032e 3A6F     		ldr	r2, [r7, #112]
 362 0330 23F44073 		bic	r3, r3, #768
 363 0334 42F48032 		orr	r2, r2, #65536
 364 0338 3A67     		str	r2, [r7, #112]
 365 033a 3A6F     		ldr	r2, [r7, #112]
 366 033c 22F48032 		bic	r2, r2, #65536
 367 0340 3A67     		str	r2, [r7, #112]
 368 0342 3B67     		str	r3, [r7, #112]
 369 0344 3B6F     		ldr	r3, [r7, #112]
 370 0346 D807     		lsls	r0, r3, #31
 371 0348 7FF5B4AE 		bpl	.L12
 372 034c FFF7FEFF 		bl	HAL_GetTick
 373 0350 41F28839 		movw	r9, #5000
 374 0354 8046     		mov	r8, r0
 375              	.L13:
 376 0356 3B6F     		ldr	r3, [r7, #112]
 377 0358 9907     		lsls	r1, r3, #30
 378 035a 3FF5ABAE 		bmi	.L12
 379 035e FFF7FEFF 		bl	HAL_GetTick
 380 0362 A0EB0800 		sub	r0, r0, r8
 381 0366 4845     		cmp	r0, r9
 382 0368 F5D9     		bls	.L13
 383 036a D5E7     		b	.L14
 384              	.L150:
 385 036c 9168     		ldr	r1, [r2, #8]
 386 036e 21F4F811 		bic	r1, r1, #2031616
 387 0372 AFE6     		b	.L151
 388              	.L33:
 389 0374 384E     		ldr	r6, .L155
 390 0376 3368     		ldr	r3, [r6]
 391 0378 23F08063 		bic	r3, r3, #67108864
 392 037c 3360     		str	r3, [r6]
 393 037e FFF7FEFF 		bl	HAL_GetTick
 394 0382 0746     		mov	r7, r0
 395              	.L36:
 396 0384 3368     		ldr	r3, [r6]
 397 0386 1B01     		lsls	r3, r3, #4
 398 0388 51D4     		bmi	.L37
 399 038a 2268     		ldr	r2, [r4]
 400 038c D707     		lsls	r7, r2, #31
ARM GAS  /tmp/cc4Mprqz.s 			page 8


 401 038e 0DD5     		bpl	.L38
 402 0390 E36A     		ldr	r3, [r4, #44]
 403 0392 5BB9     		cbnz	r3, .L38
 404 0394 D6F88410 		ldr	r1, [r6, #132]
 405 0398 D4E90103 		ldrd	r0, r3, [r4, #4]
 406 039c 01F07061 		and	r1, r1, #251658240
 407 03a0 1B07     		lsls	r3, r3, #28
 408 03a2 43EA8013 		orr	r3, r3, r0, lsl #6
 409 03a6 0B43     		orrs	r3, r3, r1
 410 03a8 C6F88430 		str	r3, [r6, #132]
 411              	.L38:
 412 03ac 1003     		lsls	r0, r2, #12
 413 03ae 03D5     		bpl	.L39
 414 03b0 636B     		ldr	r3, [r4, #52]
 415 03b2 B3F5801F 		cmp	r3, #1048576
 416 03b6 05D0     		beq	.L40
 417              	.L39:
 418 03b8 D102     		lsls	r1, r2, #11
 419 03ba 19D5     		bpl	.L41
 420 03bc A36B     		ldr	r3, [r4, #56]
 421 03be B3F5800F 		cmp	r3, #4194304
 422 03c2 15D1     		bne	.L41
 423              	.L40:
 424 03c4 2449     		ldr	r1, .L155
 425 03c6 E368     		ldr	r3, [r4, #12]
 426 03c8 D1F88400 		ldr	r0, [r1, #132]
 427 03cc 6668     		ldr	r6, [r4, #4]
 428 03ce 1B06     		lsls	r3, r3, #24
 429 03d0 00F0E040 		and	r0, r0, #1879048192
 430 03d4 43EA8613 		orr	r3, r3, r6, lsl #6
 431 03d8 0343     		orrs	r3, r3, r0
 432 03da C1F88430 		str	r3, [r1, #132]
 433 03de D1F88C00 		ldr	r0, [r1, #140]
 434 03e2 E369     		ldr	r3, [r4, #28]
 435 03e4 20F01F00 		bic	r0, r0, #31
 436 03e8 013B     		subs	r3, r3, #1
 437 03ea 0343     		orrs	r3, r3, r0
 438 03ec C1F88C30 		str	r3, [r1, #140]
 439              	.L41:
 440 03f0 9201     		lsls	r2, r2, #6
 441 03f2 0AD5     		bpl	.L42
 442 03f4 E368     		ldr	r3, [r4, #12]
 443 03f6 6268     		ldr	r2, [r4, #4]
 444 03f8 1B06     		lsls	r3, r3, #24
 445 03fa 43EA8213 		orr	r3, r3, r2, lsl #6
 446 03fe A268     		ldr	r2, [r4, #8]
 447 0400 43EA0273 		orr	r3, r3, r2, lsl #28
 448 0404 144A     		ldr	r2, .L155
 449 0406 C2F88430 		str	r3, [r2, #132]
 450              	.L42:
 451 040a 134E     		ldr	r6, .L155
 452 040c 3368     		ldr	r3, [r6]
 453 040e 43F08063 		orr	r3, r3, #67108864
 454 0412 3360     		str	r3, [r6]
 455 0414 FFF7FEFF 		bl	HAL_GetTick
 456 0418 0746     		mov	r7, r0
 457              	.L43:
ARM GAS  /tmp/cc4Mprqz.s 			page 9


 458 041a 3368     		ldr	r3, [r6]
 459 041c 1B01     		lsls	r3, r3, #4
 460 041e 3FF51EAF 		bmi	.L45
 461 0422 FFF7FEFF 		bl	HAL_GetTick
 462 0426 C01B     		subs	r0, r0, r7
 463 0428 6428     		cmp	r0, #100
 464 042a F6D9     		bls	.L43
 465 042c 74E7     		b	.L14
 466              	.L37:
 467 042e FFF7FEFF 		bl	HAL_GetTick
 468 0432 C01B     		subs	r0, r0, r7
 469 0434 6428     		cmp	r0, #100
 470 0436 A5D9     		bls	.L36
 471 0438 6EE7     		b	.L14
 472              	.L47:
 473 043a FFF7FEFF 		bl	HAL_GetTick
 474 043e 801B     		subs	r0, r0, r6
 475 0440 6428     		cmp	r0, #100
 476 0442 7FF616AF 		bls	.L46
 477 0446 67E7     		b	.L14
 478              	.L53:
 479 0448 FFF7FEFF 		bl	HAL_GetTick
 480 044c 401B     		subs	r0, r0, r5
 481 044e 6428     		cmp	r0, #100
 482 0450 7FF653AF 		bls	.L52
 483 0454 60E7     		b	.L14
 484              	.L156:
 485 0456 00BF     		.align	2
 486              	.L155:
 487 0458 00380240 		.word	1073887232
 489              		.section	.text.HAL_RCCEx_GetPeriphCLKConfig,"ax",%progbits
 490              		.align	1
 491              		.global	HAL_RCCEx_GetPeriphCLKConfig
 492              		.syntax unified
 493              		.thumb
 494              		.thumb_func
 495              		.fpu fpv5-sp-d16
 497              	HAL_RCCEx_GetPeriphCLKConfig:
 498              		@ args = 0, pretend = 0, frame = 0
 499              		@ frame_needed = 0, uses_anonymous_args = 0
 500              		@ link register save eliminated.
 501 0000 484B     		ldr	r3, .L161
 502 0002 0360     		str	r3, [r0]
 503 0004 484B     		ldr	r3, .L161+4
 504 0006 D3F88420 		ldr	r2, [r3, #132]
 505 000a C2F38812 		ubfx	r2, r2, #6, #9
 506 000e 4260     		str	r2, [r0, #4]
 507 0010 D3F88420 		ldr	r2, [r3, #132]
 508 0014 C2F30362 		ubfx	r2, r2, #24, #4
 509 0018 C260     		str	r2, [r0, #12]
 510 001a D3F88420 		ldr	r2, [r3, #132]
 511 001e C2F30272 		ubfx	r2, r2, #28, #3
 512 0022 8260     		str	r2, [r0, #8]
 513 0024 D3F88820 		ldr	r2, [r3, #136]
 514 0028 C2F38812 		ubfx	r2, r2, #6, #9
 515 002c 0261     		str	r2, [r0, #16]
 516 002e D3F88820 		ldr	r2, [r3, #136]
ARM GAS  /tmp/cc4Mprqz.s 			page 10


 517 0032 C2F30142 		ubfx	r2, r2, #16, #2
 518 0036 8261     		str	r2, [r0, #24]
 519 0038 D3F88820 		ldr	r2, [r3, #136]
 520 003c C2F30362 		ubfx	r2, r2, #24, #4
 521 0040 4261     		str	r2, [r0, #20]
 522 0042 D3F88C20 		ldr	r2, [r3, #140]
 523 0046 02F01F02 		and	r2, r2, #31
 524 004a C261     		str	r2, [r0, #28]
 525 004c D3F88C20 		ldr	r2, [r3, #140]
 526 0050 C2F30422 		ubfx	r2, r2, #8, #5
 527 0054 0262     		str	r2, [r0, #32]
 528 0056 D3F88C20 		ldr	r2, [r3, #140]
 529 005a 02F44012 		and	r2, r2, #3145728
 530 005e 4263     		str	r2, [r0, #52]
 531 0060 D3F88C20 		ldr	r2, [r3, #140]
 532 0064 02F44002 		and	r2, r2, #12582912
 533 0068 8263     		str	r2, [r0, #56]
 534 006a 9A68     		ldr	r2, [r3, #8]
 535 006c 02F40002 		and	r2, r2, #8388608
 536 0070 C262     		str	r2, [r0, #44]
 537 0072 D3F89020 		ldr	r2, [r3, #144]
 538 0076 02F44032 		and	r2, r2, #196608
 539 007a C265     		str	r2, [r0, #92]
 540 007c D3F89020 		ldr	r2, [r3, #144]
 541 0080 02F44022 		and	r2, r2, #786432
 542 0084 0266     		str	r2, [r0, #96]
 543 0086 D3F89020 		ldr	r2, [r3, #144]
 544 008a 02F44012 		and	r2, r2, #3145728
 545 008e 4266     		str	r2, [r0, #100]
 546 0090 D3F89020 		ldr	r2, [r3, #144]
 547 0094 02F00302 		and	r2, r2, #3
 548 0098 C263     		str	r2, [r0, #60]
 549 009a D3F89020 		ldr	r2, [r3, #144]
 550 009e 02F00C02 		and	r2, r2, #12
 551 00a2 0264     		str	r2, [r0, #64]
 552 00a4 D3F89020 		ldr	r2, [r3, #144]
 553 00a8 02F03002 		and	r2, r2, #48
 554 00ac 4264     		str	r2, [r0, #68]
 555 00ae D3F89020 		ldr	r2, [r3, #144]
 556 00b2 02F0C002 		and	r2, r2, #192
 557 00b6 8264     		str	r2, [r0, #72]
 558 00b8 D3F89020 		ldr	r2, [r3, #144]
 559 00bc 02F44072 		and	r2, r2, #768
 560 00c0 C264     		str	r2, [r0, #76]
 561 00c2 D3F89020 		ldr	r2, [r3, #144]
 562 00c6 02F44062 		and	r2, r2, #3072
 563 00ca 0265     		str	r2, [r0, #80]
 564 00cc D3F89020 		ldr	r2, [r3, #144]
 565 00d0 02F44052 		and	r2, r2, #12288
 566 00d4 4265     		str	r2, [r0, #84]
 567 00d6 D3F89020 		ldr	r2, [r3, #144]
 568 00da 02F44042 		and	r2, r2, #49152
 569 00de 8265     		str	r2, [r0, #88]
 570 00e0 D3F89020 		ldr	r2, [r3, #144]
 571 00e4 02F04072 		and	r2, r2, #50331648
 572 00e8 C266     		str	r2, [r0, #108]
 573 00ea D3F89020 		ldr	r2, [r3, #144]
ARM GAS  /tmp/cc4Mprqz.s 			page 11


 574 00ee 02F00062 		and	r2, r2, #134217728
 575 00f2 4267     		str	r2, [r0, #116]
 576 00f4 D3F89020 		ldr	r2, [r3, #144]
 577 00f8 02F08052 		and	r2, r2, #268435456
 578 00fc 8267     		str	r2, [r0, #120]
 579 00fe D3F89020 		ldr	r2, [r3, #144]
 580 0102 02F00052 		and	r2, r2, #536870912
 581 0106 C267     		str	r2, [r0, #124]
 582 0108 9968     		ldr	r1, [r3, #8]
 583 010a 1A6F     		ldr	r2, [r3, #112]
 584 010c 01F4F811 		and	r1, r1, #2031616
 585 0110 02F44072 		and	r2, r2, #768
 586 0114 0A43     		orrs	r2, r2, r1
 587 0116 8262     		str	r2, [r0, #40]
 588 0118 D3F88C30 		ldr	r3, [r3, #140]
 589 011c 03F08073 		and	r3, r3, #16777216
 590 0120 0363     		str	r3, [r0, #48]
 591 0122 7047     		bx	lr
 592              	.L162:
 593              		.align	2
 594              	.L161:
 595 0124 F1FFBD04 		.word	79560689
 596 0128 00380240 		.word	1073887232
 598              		.section	.text.HAL_RCCEx_GetPeriphCLKFreq,"ax",%progbits
 599              		.align	1
 600              		.global	HAL_RCCEx_GetPeriphCLKFreq
 601              		.syntax unified
 602              		.thumb
 603              		.thumb_func
 604              		.fpu fpv5-sp-d16
 606              	HAL_RCCEx_GetPeriphCLKFreq:
 607              		@ args = 0, pretend = 0, frame = 0
 608              		@ frame_needed = 0, uses_anonymous_args = 0
 609              		@ link register save eliminated.
 610 0000 B0F5002F 		cmp	r0, #524288
 611 0004 3ED1     		bne	.L164
 612 0006 2C4B     		ldr	r3, .L196
 613 0008 D3F88C20 		ldr	r2, [r3, #140]
 614 000c 02F44012 		and	r2, r2, #3145728
 615 0010 B2F5801F 		cmp	r2, #1048576
 616 0014 44D0     		beq	.L171
 617 0016 B2F5001F 		cmp	r2, #2097152
 618              	.L195:
 619 001a 49D0     		beq	.L179
 620 001c 002A     		cmp	r2, #0
 621 001e 49D1     		bne	.L180
 622 0020 5A68     		ldr	r2, [r3, #4]
 623 0022 5B68     		ldr	r3, [r3, #4]
 624 0024 5102     		lsls	r1, r2, #9
 625 0026 244A     		ldr	r2, .L196
 626 0028 03F03F03 		and	r3, r3, #63
 627 002c 54BF     		ite	pl
 628 002e 2348     		ldrpl	r0, .L196+4
 629 0030 2348     		ldrmi	r0, .L196+8
 630 0032 D2F88810 		ldr	r1, [r2, #136]
 631 0036 B0FBF3F3 		udiv	r3, r0, r3
 632 003a D2F88800 		ldr	r0, [r2, #136]
ARM GAS  /tmp/cc4Mprqz.s 			page 12


 633 003e C0F38810 		ubfx	r0, r0, #6, #9
 634 0042 5843     		muls	r0, r3, r0
 635 0044 C1F30363 		ubfx	r3, r1, #24, #4
 636 0048 B0FBF3F0 		udiv	r0, r0, r3
 637 004c D2F88C30 		ldr	r3, [r2, #140]
 638 0050 C3F30423 		ubfx	r3, r3, #8, #5
 639 0054 12E0     		b	.L185
 640              	.L169:
 641 0056 1A48     		ldr	r0, .L196+8
 642              	.L182:
 643 0058 174A     		ldr	r2, .L196
 644 005a B0FBF3F3 		udiv	r3, r0, r3
 645 005e D2F88410 		ldr	r1, [r2, #132]
 646 0062 D2F88400 		ldr	r0, [r2, #132]
 647 0066 C0F38810 		ubfx	r0, r0, #6, #9
 648 006a 5843     		muls	r0, r3, r0
 649 006c C1F30363 		ubfx	r3, r1, #24, #4
 650 0070 B0FBF3F0 		udiv	r0, r0, r3
 651 0074 D2F88C30 		ldr	r3, [r2, #140]
 652 0078 03F01F03 		and	r3, r3, #31
 653              	.L185:
 654 007c 0133     		adds	r3, r3, #1
 655 007e B0FBF3F0 		udiv	r0, r0, r3
 656 0082 7047     		bx	lr
 657              	.L164:
 658 0084 B0F5801F 		cmp	r0, #1048576
 659 0088 14D1     		bne	.L180
 660 008a 0B4B     		ldr	r3, .L196
 661 008c D3F88C20 		ldr	r2, [r3, #140]
 662 0090 02F44002 		and	r2, r2, #12582912
 663 0094 B2F5800F 		cmp	r2, #4194304
 664 0098 02D0     		beq	.L171
 665 009a B2F5000F 		cmp	r2, #8388608
 666 009e BCE7     		b	.L195
 667              	.L171:
 668 00a0 5A68     		ldr	r2, [r3, #4]
 669 00a2 5B68     		ldr	r3, [r3, #4]
 670 00a4 5202     		lsls	r2, r2, #9
 671 00a6 03F03F03 		and	r3, r3, #63
 672 00aa D4D4     		bmi	.L169
 673 00ac 0348     		ldr	r0, .L196+4
 674 00ae D3E7     		b	.L182
 675              	.L179:
 676 00b0 0448     		ldr	r0, .L196+12
 677 00b2 7047     		bx	lr
 678              	.L180:
 679 00b4 0020     		movs	r0, #0
 680 00b6 7047     		bx	lr
 681              	.L197:
 682              		.align	2
 683              	.L196:
 684 00b8 00380240 		.word	1073887232
 685 00bc 0024F400 		.word	16000000
 686 00c0 00127A00 		.word	8000000
 687 00c4 0080BB00 		.word	12288000
 689              		.section	.text.HAL_RCCEx_EnablePLLI2S,"ax",%progbits
 690              		.align	1
ARM GAS  /tmp/cc4Mprqz.s 			page 13


 691              		.global	HAL_RCCEx_EnablePLLI2S
 692              		.syntax unified
 693              		.thumb
 694              		.thumb_func
 695              		.fpu fpv5-sp-d16
 697              	HAL_RCCEx_EnablePLLI2S:
 698              		@ args = 0, pretend = 0, frame = 0
 699              		@ frame_needed = 0, uses_anonymous_args = 0
 700 0000 70B5     		push	{r4, r5, r6, lr}
 701 0002 184C     		ldr	r4, .L206
 702 0004 0546     		mov	r5, r0
 703 0006 2368     		ldr	r3, [r4]
 704 0008 23F08063 		bic	r3, r3, #67108864
 705 000c 2360     		str	r3, [r4]
 706 000e FFF7FEFF 		bl	HAL_GetTick
 707 0012 0646     		mov	r6, r0
 708              	.L199:
 709 0014 2368     		ldr	r3, [r4]
 710 0016 1A01     		lsls	r2, r3, #4
 711 0018 16D4     		bmi	.L201
 712 001a AB68     		ldr	r3, [r5, #8]
 713 001c 2A68     		ldr	r2, [r5]
 714 001e 1B06     		lsls	r3, r3, #24
 715 0020 43EA8213 		orr	r3, r3, r2, lsl #6
 716 0024 6A68     		ldr	r2, [r5, #4]
 717 0026 0F4D     		ldr	r5, .L206
 718 0028 43EA0273 		orr	r3, r3, r2, lsl #28
 719 002c C4F88430 		str	r3, [r4, #132]
 720 0030 2368     		ldr	r3, [r4]
 721 0032 43F08063 		orr	r3, r3, #67108864
 722 0036 2360     		str	r3, [r4]
 723 0038 FFF7FEFF 		bl	HAL_GetTick
 724 003c 0446     		mov	r4, r0
 725              	.L202:
 726 003e 2B68     		ldr	r3, [r5]
 727 0040 1B01     		lsls	r3, r3, #4
 728 0042 08D5     		bpl	.L204
 729 0044 0020     		movs	r0, #0
 730 0046 05E0     		b	.L200
 731              	.L201:
 732 0048 FFF7FEFF 		bl	HAL_GetTick
 733 004c 801B     		subs	r0, r0, r6
 734 004e 6428     		cmp	r0, #100
 735 0050 E0D9     		bls	.L199
 736              	.L203:
 737 0052 0320     		movs	r0, #3
 738              	.L200:
 739 0054 70BD     		pop	{r4, r5, r6, pc}
 740              	.L204:
 741 0056 FFF7FEFF 		bl	HAL_GetTick
 742 005a 001B     		subs	r0, r0, r4
 743 005c 6428     		cmp	r0, #100
 744 005e EED9     		bls	.L202
 745 0060 F7E7     		b	.L203
 746              	.L207:
 747 0062 00BF     		.align	2
 748              	.L206:
ARM GAS  /tmp/cc4Mprqz.s 			page 14


 749 0064 00380240 		.word	1073887232
 751              		.section	.text.HAL_RCCEx_DisablePLLI2S,"ax",%progbits
 752              		.align	1
 753              		.global	HAL_RCCEx_DisablePLLI2S
 754              		.syntax unified
 755              		.thumb
 756              		.thumb_func
 757              		.fpu fpv5-sp-d16
 759              	HAL_RCCEx_DisablePLLI2S:
 760              		@ args = 0, pretend = 0, frame = 0
 761              		@ frame_needed = 0, uses_anonymous_args = 0
 762 0000 38B5     		push	{r3, r4, r5, lr}
 763 0002 0A4C     		ldr	r4, .L213
 764 0004 2368     		ldr	r3, [r4]
 765 0006 23F08063 		bic	r3, r3, #67108864
 766 000a 2360     		str	r3, [r4]
 767 000c FFF7FEFF 		bl	HAL_GetTick
 768 0010 0546     		mov	r5, r0
 769              	.L209:
 770 0012 2368     		ldr	r3, [r4]
 771 0014 13F00063 		ands	r3, r3, #134217728
 772 0018 01D1     		bne	.L211
 773 001a 1846     		mov	r0, r3
 774              	.L210:
 775 001c 38BD     		pop	{r3, r4, r5, pc}
 776              	.L211:
 777 001e FFF7FEFF 		bl	HAL_GetTick
 778 0022 401B     		subs	r0, r0, r5
 779 0024 6428     		cmp	r0, #100
 780 0026 F4D9     		bls	.L209
 781 0028 0320     		movs	r0, #3
 782 002a F7E7     		b	.L210
 783              	.L214:
 784              		.align	2
 785              	.L213:
 786 002c 00380240 		.word	1073887232
 788              		.section	.text.HAL_RCCEx_EnablePLLSAI,"ax",%progbits
 789              		.align	1
 790              		.global	HAL_RCCEx_EnablePLLSAI
 791              		.syntax unified
 792              		.thumb
 793              		.thumb_func
 794              		.fpu fpv5-sp-d16
 796              	HAL_RCCEx_EnablePLLSAI:
 797              		@ args = 0, pretend = 0, frame = 0
 798              		@ frame_needed = 0, uses_anonymous_args = 0
 799 0000 70B5     		push	{r4, r5, r6, lr}
 800 0002 184C     		ldr	r4, .L223
 801 0004 0546     		mov	r5, r0
 802 0006 2368     		ldr	r3, [r4]
 803 0008 23F08053 		bic	r3, r3, #268435456
 804 000c 2360     		str	r3, [r4]
 805 000e FFF7FEFF 		bl	HAL_GetTick
 806 0012 0646     		mov	r6, r0
 807              	.L216:
 808 0014 2368     		ldr	r3, [r4]
 809 0016 9A00     		lsls	r2, r3, #2
ARM GAS  /tmp/cc4Mprqz.s 			page 15


 810 0018 16D4     		bmi	.L218
 811 001a AB68     		ldr	r3, [r5, #8]
 812 001c 2A68     		ldr	r2, [r5]
 813 001e 1B04     		lsls	r3, r3, #16
 814 0020 43EA8213 		orr	r3, r3, r2, lsl #6
 815 0024 6A68     		ldr	r2, [r5, #4]
 816 0026 0F4D     		ldr	r5, .L223
 817 0028 43EA0263 		orr	r3, r3, r2, lsl #24
 818 002c C4F88830 		str	r3, [r4, #136]
 819 0030 2368     		ldr	r3, [r4]
 820 0032 43F08053 		orr	r3, r3, #268435456
 821 0036 2360     		str	r3, [r4]
 822 0038 FFF7FEFF 		bl	HAL_GetTick
 823 003c 0446     		mov	r4, r0
 824              	.L219:
 825 003e 2B68     		ldr	r3, [r5]
 826 0040 9B00     		lsls	r3, r3, #2
 827 0042 08D5     		bpl	.L221
 828 0044 0020     		movs	r0, #0
 829 0046 05E0     		b	.L217
 830              	.L218:
 831 0048 FFF7FEFF 		bl	HAL_GetTick
 832 004c 801B     		subs	r0, r0, r6
 833 004e 6428     		cmp	r0, #100
 834 0050 E0D9     		bls	.L216
 835              	.L220:
 836 0052 0320     		movs	r0, #3
 837              	.L217:
 838 0054 70BD     		pop	{r4, r5, r6, pc}
 839              	.L221:
 840 0056 FFF7FEFF 		bl	HAL_GetTick
 841 005a 001B     		subs	r0, r0, r4
 842 005c 6428     		cmp	r0, #100
 843 005e EED9     		bls	.L219
 844 0060 F7E7     		b	.L220
 845              	.L224:
 846 0062 00BF     		.align	2
 847              	.L223:
 848 0064 00380240 		.word	1073887232
 850              		.section	.text.HAL_RCCEx_DisablePLLSAI,"ax",%progbits
 851              		.align	1
 852              		.global	HAL_RCCEx_DisablePLLSAI
 853              		.syntax unified
 854              		.thumb
 855              		.thumb_func
 856              		.fpu fpv5-sp-d16
 858              	HAL_RCCEx_DisablePLLSAI:
 859              		@ args = 0, pretend = 0, frame = 0
 860              		@ frame_needed = 0, uses_anonymous_args = 0
 861 0000 38B5     		push	{r3, r4, r5, lr}
 862 0002 0A4C     		ldr	r4, .L230
 863 0004 2368     		ldr	r3, [r4]
 864 0006 23F08053 		bic	r3, r3, #268435456
 865 000a 2360     		str	r3, [r4]
 866 000c FFF7FEFF 		bl	HAL_GetTick
 867 0010 0546     		mov	r5, r0
 868              	.L226:
ARM GAS  /tmp/cc4Mprqz.s 			page 16


 869 0012 2368     		ldr	r3, [r4]
 870 0014 13F00053 		ands	r3, r3, #536870912
 871 0018 01D1     		bne	.L228
 872 001a 1846     		mov	r0, r3
 873              	.L227:
 874 001c 38BD     		pop	{r3, r4, r5, pc}
 875              	.L228:
 876 001e FFF7FEFF 		bl	HAL_GetTick
 877 0022 401B     		subs	r0, r0, r5
 878 0024 6428     		cmp	r0, #100
 879 0026 F4D9     		bls	.L226
 880 0028 0320     		movs	r0, #3
 881 002a F7E7     		b	.L227
 882              	.L231:
 883              		.align	2
 884              	.L230:
 885 002c 00380240 		.word	1073887232
 887              		.ident	"GCC: (15:10.3-2021.07-4) 10.3.1 20210621 (release)"
ARM GAS  /tmp/cc4Mprqz.s 			page 17

