ARM GAS  /tmp/ccSFskAX.s 			page 1


   1              		.cpu cortex-m7
   2              		.eabi_attribute 27, 1
   3              		.eabi_attribute 20, 1
   4              		.eabi_attribute 21, 1
   5              		.eabi_attribute 23, 3
   6              		.eabi_attribute 24, 1
   7              		.eabi_attribute 25, 1
   8              		.eabi_attribute 26, 1
   9              		.eabi_attribute 30, 4
  10              		.eabi_attribute 34, 1
  11              		.eabi_attribute 18, 4
  12              		.file	"stm32f7xx_it.c"
  13              		.text
  14              		.section	.text.NMI_Handler,"ax",%progbits
  15              		.align	1
  16              		.global	NMI_Handler
  17              		.arch armv7e-m
  18              		.syntax unified
  19              		.thumb
  20              		.thumb_func
  21              		.fpu fpv5-sp-d16
  23              	NMI_Handler:
  24              		@ args = 0, pretend = 0, frame = 0
  25              		@ frame_needed = 0, uses_anonymous_args = 0
  26              		@ link register save eliminated.
  27 0000 7047     		bx	lr
  29              		.section	.text.HardFault_Handler,"ax",%progbits
  30              		.align	1
  31              		.global	HardFault_Handler
  32              		.syntax unified
  33              		.thumb
  34              		.thumb_func
  35              		.fpu fpv5-sp-d16
  37              	HardFault_Handler:
  38              		@ args = 0, pretend = 0, frame = 0
  39              		@ frame_needed = 0, uses_anonymous_args = 0
  40 0000 094A     		ldr	r2, .L5
  41 0002 38B5     		push	{r3, r4, r5, lr}
  42 0004 D368     		ldr	r3, [r2, #12]
  43 0006 1024     		movs	r4, #16
  44 0008 084D     		ldr	r5, .L5+4
  45 000a 23F47F63 		bic	r3, r3, #4080
  46 000e 23F00F03 		bic	r3, r3, #15
  47 0012 D360     		str	r3, [r2, #12]
  48              	.L3:
  49 0014 013C     		subs	r4, r4, #1
  50 0016 4021     		movs	r1, #64
  51 0018 2846     		mov	r0, r5
  52 001a FFF7FEFF 		bl	HAL_GPIO_TogglePin
  53 001e 14F0FF04 		ands	r4, r4, #255
  54 0022 F7D1     		bne	.L3
  55 0024 38BD     		pop	{r3, r4, r5, pc}
  56              	.L6:
  57 0026 00BF     		.align	2
  58              	.L5:
  59 0028 08740040 		.word	1073771528
  60 002c 00000240 		.word	1073872896
ARM GAS  /tmp/ccSFskAX.s 			page 2


  62              		.section	.text.MemManage_Handler,"ax",%progbits
  63              		.align	1
  64              		.global	MemManage_Handler
  65              		.syntax unified
  66              		.thumb
  67              		.thumb_func
  68              		.fpu fpv5-sp-d16
  70              	MemManage_Handler:
  71              		@ Volatile: function does not return.
  72              		@ args = 0, pretend = 0, frame = 0
  73              		@ frame_needed = 0, uses_anonymous_args = 0
  74              		@ link register save eliminated.
  75              	.L8:
  76 0000 FEE7     		b	.L8
  78              		.section	.text.BusFault_Handler,"ax",%progbits
  79              		.align	1
  80              		.global	BusFault_Handler
  81              		.syntax unified
  82              		.thumb
  83              		.thumb_func
  84              		.fpu fpv5-sp-d16
  86              	BusFault_Handler:
  87              		@ Volatile: function does not return.
  88              		@ args = 0, pretend = 0, frame = 0
  89              		@ frame_needed = 0, uses_anonymous_args = 0
  90              		@ link register save eliminated.
  91              	.L10:
  92 0000 FEE7     		b	.L10
  94              		.section	.text.UsageFault_Handler,"ax",%progbits
  95              		.align	1
  96              		.global	UsageFault_Handler
  97              		.syntax unified
  98              		.thumb
  99              		.thumb_func
 100              		.fpu fpv5-sp-d16
 102              	UsageFault_Handler:
 103              		@ Volatile: function does not return.
 104              		@ args = 0, pretend = 0, frame = 0
 105              		@ frame_needed = 0, uses_anonymous_args = 0
 106              		@ link register save eliminated.
 107              	.L12:
 108 0000 FEE7     		b	.L12
 110              		.section	.text.SVC_Handler,"ax",%progbits
 111              		.align	1
 112              		.global	SVC_Handler
 113              		.syntax unified
 114              		.thumb
 115              		.thumb_func
 116              		.fpu fpv5-sp-d16
 118              	SVC_Handler:
 119              		@ args = 0, pretend = 0, frame = 0
 120              		@ frame_needed = 0, uses_anonymous_args = 0
 121              		@ link register save eliminated.
 122 0000 7047     		bx	lr
 124              		.section	.text.DebugMon_Handler,"ax",%progbits
 125              		.align	1
 126              		.global	DebugMon_Handler
ARM GAS  /tmp/ccSFskAX.s 			page 3


 127              		.syntax unified
 128              		.thumb
 129              		.thumb_func
 130              		.fpu fpv5-sp-d16
 132              	DebugMon_Handler:
 133              		@ args = 0, pretend = 0, frame = 0
 134              		@ frame_needed = 0, uses_anonymous_args = 0
 135              		@ link register save eliminated.
 136 0000 7047     		bx	lr
 138              		.section	.text.PendSV_Handler,"ax",%progbits
 139              		.align	1
 140              		.global	PendSV_Handler
 141              		.syntax unified
 142              		.thumb
 143              		.thumb_func
 144              		.fpu fpv5-sp-d16
 146              	PendSV_Handler:
 147              		@ args = 0, pretend = 0, frame = 0
 148              		@ frame_needed = 0, uses_anonymous_args = 0
 149              		@ link register save eliminated.
 150 0000 7047     		bx	lr
 152              		.section	.text.SysTick_Handler,"ax",%progbits
 153              		.align	1
 154              		.global	SysTick_Handler
 155              		.syntax unified
 156              		.thumb
 157              		.thumb_func
 158              		.fpu fpv5-sp-d16
 160              	SysTick_Handler:
 161              		@ args = 0, pretend = 0, frame = 0
 162              		@ frame_needed = 0, uses_anonymous_args = 0
 163              		@ link register save eliminated.
 164 0000 0F49     		ldr	r1, .L22
 165 0002 104A     		ldr	r2, .L22+4
 166 0004 0868     		ldr	r0, [r1]
 167 0006 1368     		ldr	r3, [r2]
 168 0008 90B9     		cbnz	r0, .L17
 169 000a 0133     		adds	r3, r3, #1
 170 000c 40F6D760 		movw	r0, #3799
 171 0010 8342     		cmp	r3, r0
 172 0012 1360     		str	r3, [r2]
 173 0014 01DD     		ble	.L19
 174 0016 0123     		movs	r3, #1
 175              	.L21:
 176 0018 0B60     		str	r3, [r1]
 177              	.L19:
 178 001a 0B49     		ldr	r1, .L22+8
 179 001c 1268     		ldr	r2, [r2]
 180 001e CB68     		ldr	r3, [r1, #12]
 181 0020 23F47F63 		bic	r3, r3, #4080
 182 0024 23F00F03 		bic	r3, r3, #15
 183 0028 1343     		orrs	r3, r3, r2
 184 002a CB60     		str	r3, [r1, #12]
 185 002c FFF7FEBF 		b	HAL_IncTick
 186              	.L17:
 187 0030 013B     		subs	r3, r3, #1
 188 0032 B3F52F6F 		cmp	r3, #2800
ARM GAS  /tmp/ccSFskAX.s 			page 4


 189 0036 1360     		str	r3, [r2]
 190 0038 EFDC     		bgt	.L19
 191 003a 0023     		movs	r3, #0
 192 003c ECE7     		b	.L21
 193              	.L23:
 194 003e 00BF     		.align	2
 195              	.L22:
 196 0040 00000000 		.word	.LANCHOR1
 197 0044 00000000 		.word	.LANCHOR0
 198 0048 08740040 		.word	1073771528
 200              		.section	.text.DMA1_Stream0_IRQHandler,"ax",%progbits
 201              		.align	1
 202              		.global	DMA1_Stream0_IRQHandler
 203              		.syntax unified
 204              		.thumb
 205              		.thumb_func
 206              		.fpu fpv5-sp-d16
 208              	DMA1_Stream0_IRQHandler:
 209              		@ args = 0, pretend = 0, frame = 0
 210              		@ frame_needed = 0, uses_anonymous_args = 0
 211              		@ link register save eliminated.
 212 0000 0148     		ldr	r0, .L25
 213 0002 FFF7FEBF 		b	HAL_DMA_IRQHandler
 214              	.L26:
 215 0006 00BF     		.align	2
 216              	.L25:
 217 0008 00000000 		.word	hdma_spi3_rx
 219              		.section	.text.DMA1_Stream3_IRQHandler,"ax",%progbits
 220              		.align	1
 221              		.global	DMA1_Stream3_IRQHandler
 222              		.syntax unified
 223              		.thumb
 224              		.thumb_func
 225              		.fpu fpv5-sp-d16
 227              	DMA1_Stream3_IRQHandler:
 228              		@ args = 0, pretend = 0, frame = 0
 229              		@ frame_needed = 0, uses_anonymous_args = 0
 230              		@ link register save eliminated.
 231 0000 0148     		ldr	r0, .L28
 232 0002 FFF7FEBF 		b	HAL_DMA_IRQHandler
 233              	.L29:
 234 0006 00BF     		.align	2
 235              	.L28:
 236 0008 00000000 		.word	hdma_spi2_rx
 238              		.section	.text.DMA1_Stream5_IRQHandler,"ax",%progbits
 239              		.align	1
 240              		.global	DMA1_Stream5_IRQHandler
 241              		.syntax unified
 242              		.thumb
 243              		.thumb_func
 244              		.fpu fpv5-sp-d16
 246              	DMA1_Stream5_IRQHandler:
 247              		@ args = 0, pretend = 0, frame = 0
 248              		@ frame_needed = 0, uses_anonymous_args = 0
 249              		@ link register save eliminated.
 250 0000 0148     		ldr	r0, .L31
 251 0002 FFF7FEBF 		b	HAL_DMA_IRQHandler
ARM GAS  /tmp/ccSFskAX.s 			page 5


 252              	.L32:
 253 0006 00BF     		.align	2
 254              	.L31:
 255 0008 00000000 		.word	hdma_usart2_rx
 257              		.section	.text.DMA1_Stream6_IRQHandler,"ax",%progbits
 258              		.align	1
 259              		.global	DMA1_Stream6_IRQHandler
 260              		.syntax unified
 261              		.thumb
 262              		.thumb_func
 263              		.fpu fpv5-sp-d16
 265              	DMA1_Stream6_IRQHandler:
 266              		@ args = 0, pretend = 0, frame = 0
 267              		@ frame_needed = 0, uses_anonymous_args = 0
 268              		@ link register save eliminated.
 269 0000 0148     		ldr	r0, .L34
 270 0002 FFF7FEBF 		b	HAL_DMA_IRQHandler
 271              	.L35:
 272 0006 00BF     		.align	2
 273              	.L34:
 274 0008 00000000 		.word	hdma_usart2_tx
 276              		.section	.text.USART2_IRQHandler,"ax",%progbits
 277              		.align	1
 278              		.global	USART2_IRQHandler
 279              		.syntax unified
 280              		.thumb
 281              		.thumb_func
 282              		.fpu fpv5-sp-d16
 284              	USART2_IRQHandler:
 285              		@ args = 0, pretend = 0, frame = 0
 286              		@ frame_needed = 0, uses_anonymous_args = 0
 287 0000 0C48     		ldr	r0, .L38
 288 0002 08B5     		push	{r3, lr}
 289 0004 FFF7FEFF 		bl	HAL_UART_IRQHandler
 290 0008 0A48     		ldr	r0, .L38
 291 000a 0368     		ldr	r3, [r0]
 292 000c DA69     		ldr	r2, [r3, #28]
 293 000e D206     		lsls	r2, r2, #27
 294 0010 0FD5     		bpl	.L36
 295 0012 1022     		movs	r2, #16
 296 0014 1A62     		str	r2, [r3, #32]
 297 0016 FFF7FEFF 		bl	HAL_UART_DMAStop
 298 001a 074B     		ldr	r3, .L38+4
 299 001c 1B68     		ldr	r3, [r3]
 300 001e 5868     		ldr	r0, [r3, #4]
 301 0020 C0F18000 		rsb	r0, r0, #128
 302 0024 C0B2     		uxtb	r0, r0
 303 0026 FFF7FEFF 		bl	ser_imu_callback
 304 002a BDE80840 		pop	{r3, lr}
 305 002e FFF7FEBF 		b	ser_imu_enable
 306              	.L36:
 307 0032 08BD     		pop	{r3, pc}
 308              	.L39:
 309              		.align	2
 310              	.L38:
 311 0034 00000000 		.word	huart2
 312 0038 00000000 		.word	hdma_usart2_rx
ARM GAS  /tmp/ccSFskAX.s 			page 6


 314              		.section	.text.OTG_FS_IRQHandler,"ax",%progbits
 315              		.align	1
 316              		.global	OTG_FS_IRQHandler
 317              		.syntax unified
 318              		.thumb
 319              		.thumb_func
 320              		.fpu fpv5-sp-d16
 322              	OTG_FS_IRQHandler:
 323              		@ args = 0, pretend = 0, frame = 0
 324              		@ frame_needed = 0, uses_anonymous_args = 0
 325              		@ link register save eliminated.
 326 0000 0148     		ldr	r0, .L41
 327 0002 FFF7FEBF 		b	HAL_PCD_IRQHandler
 328              	.L42:
 329 0006 00BF     		.align	2
 330              	.L41:
 331 0008 00000000 		.word	hpcd_USB_OTG_FS
 333              		.section	.bss.led_dir.1,"aw",%nobits
 334              		.align	2
 335              		.set	.LANCHOR1,. + 0
 338              	led_dir.1:
 339 0000 00000000 		.space	4
 340              		.section	.data.led_val.0,"aw"
 341              		.align	2
 342              		.set	.LANCHOR0,. + 0
 345              	led_val.0:
 346 0000 F00A0000 		.word	2800
 347              		.ident	"GCC: (15:10.3-2021.07-4) 10.3.1 20210621 (release)"
ARM GAS  /tmp/ccSFskAX.s 			page 7

