ARM GAS  /tmp/ccl7IjUI.s 			page 1


   1              		.cpu cortex-m7
   2              		.eabi_attribute 27, 1
   3              		.eabi_attribute 20, 1
   4              		.eabi_attribute 21, 1
   5              		.eabi_attribute 23, 3
   6              		.eabi_attribute 24, 1
   7              		.eabi_attribute 25, 1
   8              		.eabi_attribute 26, 1
   9              		.eabi_attribute 30, 4
  10              		.eabi_attribute 34, 1
  11              		.eabi_attribute 18, 4
  12              		.file	"stm32f7xx_hal_dma_ex.c"
  13              		.text
  14              		.section	.text.HAL_DMAEx_MultiBufferStart,"ax",%progbits
  15              		.align	1
  16              		.global	HAL_DMAEx_MultiBufferStart
  17              		.arch armv7e-m
  18              		.syntax unified
  19              		.thumb
  20              		.thumb_func
  21              		.fpu fpv5-sp-d16
  23              	HAL_DMAEx_MultiBufferStart:
  24              		@ args = 4, pretend = 0, frame = 0
  25              		@ frame_needed = 0, uses_anonymous_args = 0
  26 0000 30B5     		push	{r4, r5, lr}
  27 0002 8568     		ldr	r5, [r0, #8]
  28 0004 802D     		cmp	r5, #128
  29 0006 04D1     		bne	.L2
  30 0008 4FF48073 		mov	r3, #256
  31 000c 4365     		str	r3, [r0, #84]
  32 000e 0120     		movs	r0, #1
  33              	.L3:
  34 0010 30BD     		pop	{r4, r5, pc}
  35              	.L2:
  36 0012 90F83440 		ldrb	r4, [r0, #52]	@ zero_extendqisi2
  37 0016 012C     		cmp	r4, #1
  38 0018 01D1     		bne	.L4
  39              	.L5:
  40 001a 0220     		movs	r0, #2
  41 001c F8E7     		b	.L3
  42              	.L4:
  43 001e 0124     		movs	r4, #1
  44 0020 80F83440 		strb	r4, [r0, #52]
  45 0024 90F83540 		ldrb	r4, [r0, #53]	@ zero_extendqisi2
  46 0028 012C     		cmp	r4, #1
  47 002a F6D1     		bne	.L5
  48 002c 0224     		movs	r4, #2
  49 002e 402D     		cmp	r5, #64
  50 0030 80F83540 		strb	r4, [r0, #53]
  51 0034 0068     		ldr	r0, [r0]
  52 0036 0468     		ldr	r4, [r0]
  53 0038 44F48024 		orr	r4, r4, #262144
  54 003c 0460     		str	r4, [r0]
  55 003e 0361     		str	r3, [r0, #16]
  56 0040 039B     		ldr	r3, [sp, #12]
  57 0042 4360     		str	r3, [r0, #4]
  58 0044 07D1     		bne	.L6
ARM GAS  /tmp/ccl7IjUI.s 			page 2


  59 0046 8260     		str	r2, [r0, #8]
  60 0048 C160     		str	r1, [r0, #12]
  61              	.L7:
  62 004a 0368     		ldr	r3, [r0]
  63 004c 43F00103 		orr	r3, r3, #1
  64 0050 0360     		str	r3, [r0]
  65 0052 0020     		movs	r0, #0
  66 0054 DCE7     		b	.L3
  67              	.L6:
  68 0056 8160     		str	r1, [r0, #8]
  69 0058 C260     		str	r2, [r0, #12]
  70 005a F6E7     		b	.L7
  72              		.section	.text.HAL_DMAEx_MultiBufferStart_IT,"ax",%progbits
  73              		.align	1
  74              		.global	HAL_DMAEx_MultiBufferStart_IT
  75              		.syntax unified
  76              		.thumb
  77              		.thumb_func
  78              		.fpu fpv5-sp-d16
  80              	HAL_DMAEx_MultiBufferStart_IT:
  81              		@ args = 4, pretend = 0, frame = 0
  82              		@ frame_needed = 0, uses_anonymous_args = 0
  83 0000 70B5     		push	{r4, r5, r6, lr}
  84 0002 8668     		ldr	r6, [r0, #8]
  85 0004 802E     		cmp	r6, #128
  86 0006 04D1     		bne	.L9
  87 0008 4FF48073 		mov	r3, #256
  88 000c 4365     		str	r3, [r0, #84]
  89 000e 0120     		movs	r0, #1
  90              	.L10:
  91 0010 70BD     		pop	{r4, r5, r6, pc}
  92              	.L9:
  93 0012 90F83440 		ldrb	r4, [r0, #52]	@ zero_extendqisi2
  94 0016 012C     		cmp	r4, #1
  95 0018 00F05585 		beq	.L56
  96 001c 0124     		movs	r4, #1
  97 001e 0025     		movs	r5, #0
  98 0020 80F83440 		strb	r4, [r0, #52]
  99 0024 90F83540 		ldrb	r4, [r0, #53]	@ zero_extendqisi2
 100 0028 012C     		cmp	r4, #1
 101 002a 4FF00204 		mov	r4, #2
 102 002e 40F04885 		bne	.L11
 103 0032 80F83540 		strb	r4, [r0, #53]
 104 0036 402E     		cmp	r6, #64
 105 0038 0468     		ldr	r4, [r0]
 106 003a 4565     		str	r5, [r0, #84]
 107 003c 2568     		ldr	r5, [r4]
 108 003e 45F48025 		orr	r5, r5, #262144
 109 0042 2560     		str	r5, [r4]
 110 0044 2361     		str	r3, [r4, #16]
 111 0046 049B     		ldr	r3, [sp, #16]
 112 0048 6360     		str	r3, [r4, #4]
 113 004a 3DD1     		bne	.L12
 114 004c A260     		str	r2, [r4, #8]
 115 004e E160     		str	r1, [r4, #12]
 116              	.L13:
 117 0050 8749     		ldr	r1, .L304
ARM GAS  /tmp/ccl7IjUI.s 			page 3


 118 0052 884B     		ldr	r3, .L304+4
 119 0054 8C42     		cmp	r4, r1
 120 0056 42D9     		bls	.L14
 121 0058 9C42     		cmp	r4, r3
 122 005a 38D0     		beq	.L60
 123 005c 864A     		ldr	r2, .L304+8
 124 005e 9442     		cmp	r4, r2
 125 0060 35D0     		beq	.L60
 126 0062 A2F56872 		sub	r2, r2, #928
 127 0066 9442     		cmp	r4, r2
 128 0068 31D0     		beq	.L60
 129 006a 02F58062 		add	r2, r2, #1024
 130 006e 9442     		cmp	r4, r2
 131 0070 2DD0     		beq	.L60
 132 0072 A2F58962 		sub	r2, r2, #1096
 133 0076 9442     		cmp	r4, r2
 134 0078 2BD0     		beq	.L64
 135 007a 02F58062 		add	r2, r2, #1024
 136 007e 9442     		cmp	r4, r2
 137 0080 27D0     		beq	.L64
 138 0082 A2F56872 		sub	r2, r2, #928
 139 0086 9442     		cmp	r4, r2
 140 0088 23D0     		beq	.L64
 141 008a 02F58062 		add	r2, r2, #1024
 142 008e 9442     		cmp	r4, r2
 143 0090 1FD0     		beq	.L64
 144 0092 A2F58962 		sub	r2, r2, #1096
 145 0096 9442     		cmp	r4, r2
 146 0098 1ED0     		beq	.L67
 147 009a 02F58062 		add	r2, r2, #1024
 148 009e 9442     		cmp	r4, r2
 149 00a0 1AD0     		beq	.L67
 150 00a2 A2F56872 		sub	r2, r2, #928
 151 00a6 9442     		cmp	r4, r2
 152 00a8 16D0     		beq	.L67
 153 00aa 02F58062 		add	r2, r2, #1024
 154 00ae 9442     		cmp	r4, r2
 155 00b0 0CBF     		ite	eq
 156 00b2 4FF40012 		moveq	r2, #2097152
 157 00b6 4FF00062 		movne	r2, #134217728
 158              	.L15:
 159 00ba 704D     		ldr	r5, .L304+12
 160 00bc 9C42     		cmp	r4, r3
 161 00be EA60     		str	r2, [r5, #12]
 162 00c0 40F0E480 		bne	.L16
 163              	.L107:
 164 00c4 1022     		movs	r2, #16
 165 00c6 1AE1     		b	.L17
 166              	.L12:
 167 00c8 A160     		str	r1, [r4, #8]
 168 00ca E260     		str	r2, [r4, #12]
 169 00cc C0E7     		b	.L13
 170              	.L60:
 171 00ce 2022     		movs	r2, #32
 172 00d0 F3E7     		b	.L15
 173              	.L64:
 174 00d2 4FF40062 		mov	r2, #2048
ARM GAS  /tmp/ccl7IjUI.s 			page 4


 175 00d6 F0E7     		b	.L15
 176              	.L67:
 177 00d8 4FF40012 		mov	r2, #2097152
 178 00dc EDE7     		b	.L15
 179              	.L14:
 180 00de 684A     		ldr	r2, .L304+16
 181 00e0 9442     		cmp	r4, r2
 182 00e2 40D9     		bls	.L18
 183 00e4 9C42     		cmp	r4, r3
 184 00e6 36D0     		beq	.L72
 185 00e8 02F55672 		add	r2, r2, #856
 186 00ec 9442     		cmp	r4, r2
 187 00ee 32D0     		beq	.L72
 188 00f0 A2F56872 		sub	r2, r2, #928
 189 00f4 9442     		cmp	r4, r2
 190 00f6 2ED0     		beq	.L72
 191 00f8 02F58062 		add	r2, r2, #1024
 192 00fc 9442     		cmp	r4, r2
 193 00fe 2AD0     		beq	.L72
 194 0100 A2F58962 		sub	r2, r2, #1096
 195 0104 9442     		cmp	r4, r2
 196 0106 28D0     		beq	.L76
 197 0108 02F58062 		add	r2, r2, #1024
 198 010c 9442     		cmp	r4, r2
 199 010e 24D0     		beq	.L76
 200 0110 A2F56872 		sub	r2, r2, #928
 201 0114 9442     		cmp	r4, r2
 202 0116 20D0     		beq	.L76
 203 0118 02F58062 		add	r2, r2, #1024
 204 011c 9442     		cmp	r4, r2
 205 011e 1CD0     		beq	.L76
 206 0120 A2F58962 		sub	r2, r2, #1096
 207 0124 9442     		cmp	r4, r2
 208 0126 1BD0     		beq	.L79
 209 0128 02F58062 		add	r2, r2, #1024
 210 012c 9442     		cmp	r4, r2
 211 012e 17D0     		beq	.L79
 212 0130 A2F56872 		sub	r2, r2, #928
 213 0134 9442     		cmp	r4, r2
 214 0136 13D0     		beq	.L79
 215 0138 02F58062 		add	r2, r2, #1024
 216 013c 9442     		cmp	r4, r2
 217 013e 0CBF     		ite	eq
 218 0140 4FF40012 		moveq	r2, #2097152
 219 0144 4FF00062 		movne	r2, #134217728
 220              	.L19:
 221 0148 4C4D     		ldr	r5, .L304+12
 222 014a 9C42     		cmp	r4, r3
 223 014c AA60     		str	r2, [r5, #8]
 224 014e 40F0B781 		bne	.L20
 225              	.L118:
 226 0152 1022     		movs	r2, #16
 227 0154 E6E1     		b	.L21
 228              	.L72:
 229 0156 2022     		movs	r2, #32
 230 0158 F6E7     		b	.L19
 231              	.L76:
ARM GAS  /tmp/ccl7IjUI.s 			page 5


 232 015a 4FF40062 		mov	r2, #2048
 233 015e F3E7     		b	.L19
 234              	.L79:
 235 0160 4FF40012 		mov	r2, #2097152
 236 0164 F0E7     		b	.L19
 237              	.L18:
 238 0166 474A     		ldr	r2, .L304+20
 239 0168 9442     		cmp	r4, r2
 240 016a 40D9     		bls	.L22
 241 016c 9C42     		cmp	r4, r3
 242 016e 36D0     		beq	.L84
 243 0170 02F56E72 		add	r2, r2, #952
 244 0174 9442     		cmp	r4, r2
 245 0176 32D0     		beq	.L84
 246 0178 A2F56872 		sub	r2, r2, #928
 247 017c 9442     		cmp	r4, r2
 248 017e 2ED0     		beq	.L84
 249 0180 02F58062 		add	r2, r2, #1024
 250 0184 9442     		cmp	r4, r2
 251 0186 2AD0     		beq	.L84
 252 0188 A2F58962 		sub	r2, r2, #1096
 253 018c 9442     		cmp	r4, r2
 254 018e 28D0     		beq	.L88
 255 0190 02F58062 		add	r2, r2, #1024
 256 0194 9442     		cmp	r4, r2
 257 0196 24D0     		beq	.L88
 258 0198 A2F56872 		sub	r2, r2, #928
 259 019c 9442     		cmp	r4, r2
 260 019e 20D0     		beq	.L88
 261 01a0 02F58062 		add	r2, r2, #1024
 262 01a4 9442     		cmp	r4, r2
 263 01a6 1CD0     		beq	.L88
 264 01a8 A2F58962 		sub	r2, r2, #1096
 265 01ac 9442     		cmp	r4, r2
 266 01ae 1BD0     		beq	.L91
 267 01b0 02F58062 		add	r2, r2, #1024
 268 01b4 9442     		cmp	r4, r2
 269 01b6 17D0     		beq	.L91
 270 01b8 A2F56872 		sub	r2, r2, #928
 271 01bc 9442     		cmp	r4, r2
 272 01be 13D0     		beq	.L91
 273 01c0 02F58062 		add	r2, r2, #1024
 274 01c4 9442     		cmp	r4, r2
 275 01c6 0CBF     		ite	eq
 276 01c8 4FF40012 		moveq	r2, #2097152
 277 01cc 4FF00062 		movne	r2, #134217728
 278              	.L23:
 279 01d0 2D4D     		ldr	r5, .L304+24
 280 01d2 9C42     		cmp	r4, r3
 281 01d4 EA60     		str	r2, [r5, #12]
 282 01d6 40F0AE81 		bne	.L24
 283              	.L129:
 284 01da 1022     		movs	r2, #16
 285 01dc DDE1     		b	.L25
 286              	.L84:
 287 01de 2022     		movs	r2, #32
 288 01e0 F6E7     		b	.L23
ARM GAS  /tmp/ccl7IjUI.s 			page 6


 289              	.L88:
 290 01e2 4FF40062 		mov	r2, #2048
 291 01e6 F3E7     		b	.L23
 292              	.L91:
 293 01e8 4FF40012 		mov	r2, #2097152
 294 01ec F0E7     		b	.L23
 295              	.L22:
 296 01ee 9C42     		cmp	r4, r3
 297 01f0 35D0     		beq	.L96
 298 01f2 214A     		ldr	r2, .L304+8
 299 01f4 9442     		cmp	r4, r2
 300 01f6 32D0     		beq	.L96
 301 01f8 A2F56872 		sub	r2, r2, #928
 302 01fc 9442     		cmp	r4, r2
 303 01fe 2ED0     		beq	.L96
 304 0200 02F58062 		add	r2, r2, #1024
 305 0204 9442     		cmp	r4, r2
 306 0206 2AD0     		beq	.L96
 307 0208 A2F58962 		sub	r2, r2, #1096
 308 020c 9442     		cmp	r4, r2
 309 020e 28D0     		beq	.L100
 310 0210 02F58062 		add	r2, r2, #1024
 311 0214 9442     		cmp	r4, r2
 312 0216 24D0     		beq	.L100
 313 0218 A2F56872 		sub	r2, r2, #928
 314 021c 9442     		cmp	r4, r2
 315 021e 20D0     		beq	.L100
 316 0220 02F58062 		add	r2, r2, #1024
 317 0224 9442     		cmp	r4, r2
 318 0226 1CD0     		beq	.L100
 319 0228 A2F58962 		sub	r2, r2, #1096
 320 022c 9442     		cmp	r4, r2
 321 022e 1BD0     		beq	.L103
 322 0230 02F58062 		add	r2, r2, #1024
 323 0234 9442     		cmp	r4, r2
 324 0236 17D0     		beq	.L103
 325 0238 A2F56872 		sub	r2, r2, #928
 326 023c 9442     		cmp	r4, r2
 327 023e 13D0     		beq	.L103
 328 0240 02F58062 		add	r2, r2, #1024
 329 0244 9442     		cmp	r4, r2
 330 0246 0CBF     		ite	eq
 331 0248 4FF40012 		moveq	r2, #2097152
 332 024c 4FF00062 		movne	r2, #134217728
 333              	.L26:
 334 0250 0D4D     		ldr	r5, .L304+24
 335 0252 9C42     		cmp	r4, r3
 336 0254 AA60     		str	r2, [r5, #8]
 337 0256 40F0AF81 		bne	.L27
 338              	.L140:
 339 025a 1022     		movs	r2, #16
 340 025c DEE1     		b	.L28
 341              	.L96:
 342 025e 2022     		movs	r2, #32
 343 0260 F6E7     		b	.L26
 344              	.L100:
 345 0262 4FF40062 		mov	r2, #2048
ARM GAS  /tmp/ccl7IjUI.s 			page 7


 346 0266 F3E7     		b	.L26
 347              	.L103:
 348 0268 4FF40012 		mov	r2, #2097152
 349 026c F0E7     		b	.L26
 350              	.L305:
 351 026e 00BF     		.align	2
 352              	.L304:
 353 0270 58640240 		.word	1073898584
 354 0274 10600240 		.word	1073897488
 355 0278 10640240 		.word	1073898512
 356 027c 00640240 		.word	1073898496
 357 0280 B8600240 		.word	1073897656
 358 0284 58600240 		.word	1073897560
 359 0288 00600240 		.word	1073897472
 360              	.L16:
 361 028c C74A     		ldr	r2, .L306
 362 028e 9442     		cmp	r4, r2
 363 0290 3FF418AF 		beq	.L107
 364 0294 A2F56872 		sub	r2, r2, #928
 365 0298 9442     		cmp	r4, r2
 366 029a 3FF413AF 		beq	.L107
 367 029e 02F58062 		add	r2, r2, #1024
 368 02a2 9442     		cmp	r4, r2
 369 02a4 3FF40EAF 		beq	.L107
 370 02a8 A2F58962 		sub	r2, r2, #1096
 371 02ac 9442     		cmp	r4, r2
 372 02ae 00F00181 		beq	.L111
 373 02b2 02F58062 		add	r2, r2, #1024
 374 02b6 9442     		cmp	r4, r2
 375 02b8 00F0FC80 		beq	.L111
 376 02bc A2F56872 		sub	r2, r2, #928
 377 02c0 9442     		cmp	r4, r2
 378 02c2 00F0F780 		beq	.L111
 379 02c6 02F58062 		add	r2, r2, #1024
 380 02ca 9442     		cmp	r4, r2
 381 02cc 00F0F280 		beq	.L111
 382 02d0 A2F58962 		sub	r2, r2, #1096
 383 02d4 9442     		cmp	r4, r2
 384 02d6 00F0F080 		beq	.L114
 385 02da 02F58062 		add	r2, r2, #1024
 386 02de 9442     		cmp	r4, r2
 387 02e0 00F0EB80 		beq	.L114
 388 02e4 A2F56872 		sub	r2, r2, #928
 389 02e8 9442     		cmp	r4, r2
 390 02ea 00F0E680 		beq	.L114
 391 02ee 02F58062 		add	r2, r2, #1024
 392 02f2 9442     		cmp	r4, r2
 393 02f4 14BF     		ite	ne
 394 02f6 4FF08062 		movne	r2, #67108864
 395 02fa 4FF48012 		moveq	r2, #1048576
 396              	.L17:
 397 02fe AC4D     		ldr	r5, .L306+4
 398              	.L297:
 399 0300 EA60     		str	r2, [r5, #12]
 400              	.L29:
 401 0302 8C42     		cmp	r4, r1
 402 0304 40F29A81 		bls	.L30
ARM GAS  /tmp/ccl7IjUI.s 			page 8


 403 0308 9C42     		cmp	r4, r3
 404 030a 00F08F81 		beq	.L152
 405 030e A74A     		ldr	r2, .L306
 406 0310 9442     		cmp	r4, r2
 407 0312 00F08B81 		beq	.L152
 408 0316 A2F56872 		sub	r2, r2, #928
 409 031a 9442     		cmp	r4, r2
 410 031c 00F08681 		beq	.L152
 411 0320 02F58062 		add	r2, r2, #1024
 412 0324 9442     		cmp	r4, r2
 413 0326 00F08181 		beq	.L152
 414 032a A2F58962 		sub	r2, r2, #1096
 415 032e 9442     		cmp	r4, r2
 416 0330 00F07E81 		beq	.L156
 417 0334 02F58062 		add	r2, r2, #1024
 418 0338 9442     		cmp	r4, r2
 419 033a 00F07981 		beq	.L156
 420 033e A2F56872 		sub	r2, r2, #928
 421 0342 9442     		cmp	r4, r2
 422 0344 00F07481 		beq	.L156
 423 0348 02F58062 		add	r2, r2, #1024
 424 034c 9442     		cmp	r4, r2
 425 034e 00F06F81 		beq	.L156
 426 0352 A2F58962 		sub	r2, r2, #1096
 427 0356 9442     		cmp	r4, r2
 428 0358 00F06D81 		beq	.L159
 429 035c 02F58062 		add	r2, r2, #1024
 430 0360 9442     		cmp	r4, r2
 431 0362 00F06881 		beq	.L159
 432 0366 A2F56872 		sub	r2, r2, #928
 433 036a 9442     		cmp	r4, r2
 434 036c 00F06381 		beq	.L159
 435 0370 02F58062 		add	r2, r2, #1024
 436 0374 9442     		cmp	r4, r2
 437 0376 14BF     		ite	ne
 438 0378 4FF00072 		movne	r2, #33554432
 439 037c 4FF40022 		moveq	r2, #524288
 440              	.L31:
 441 0380 8B4D     		ldr	r5, .L306+4
 442              	.L299:
 443 0382 EA60     		str	r2, [r5, #12]
 444              	.L32:
 445 0384 8C42     		cmp	r4, r1
 446 0386 40F21B82 		bls	.L38
 447 038a 9C42     		cmp	r4, r3
 448 038c 00F01082 		beq	.L200
 449 0390 864A     		ldr	r2, .L306
 450 0392 9442     		cmp	r4, r2
 451 0394 00F00C82 		beq	.L200
 452 0398 A2F56872 		sub	r2, r2, #928
 453 039c 9442     		cmp	r4, r2
 454 039e 00F00782 		beq	.L200
 455 03a2 02F58062 		add	r2, r2, #1024
 456 03a6 9442     		cmp	r4, r2
 457 03a8 00F00282 		beq	.L200
 458 03ac A2F58962 		sub	r2, r2, #1096
 459 03b0 9442     		cmp	r4, r2
ARM GAS  /tmp/ccl7IjUI.s 			page 9


 460 03b2 00F0FF81 		beq	.L204
 461 03b6 02F58062 		add	r2, r2, #1024
 462 03ba 9442     		cmp	r4, r2
 463 03bc 00F0FA81 		beq	.L204
 464 03c0 A2F56872 		sub	r2, r2, #928
 465 03c4 9442     		cmp	r4, r2
 466 03c6 00F0F581 		beq	.L204
 467 03ca 02F58062 		add	r2, r2, #1024
 468 03ce 9442     		cmp	r4, r2
 469 03d0 00F0F081 		beq	.L204
 470 03d4 A2F58962 		sub	r2, r2, #1096
 471 03d8 9442     		cmp	r4, r2
 472 03da 00F0EE81 		beq	.L207
 473 03de 02F58062 		add	r2, r2, #1024
 474 03e2 9442     		cmp	r4, r2
 475 03e4 00F0E981 		beq	.L207
 476 03e8 A2F56872 		sub	r2, r2, #928
 477 03ec 9442     		cmp	r4, r2
 478 03ee 00F0E481 		beq	.L207
 479 03f2 02F58062 		add	r2, r2, #1024
 480 03f6 9442     		cmp	r4, r2
 481 03f8 14BF     		ite	ne
 482 03fa 4FF08072 		movne	r2, #16777216
 483 03fe 4FF48022 		moveq	r2, #262144
 484              	.L39:
 485 0402 6B4D     		ldr	r5, .L306+4
 486              	.L301:
 487 0404 EA60     		str	r2, [r5, #12]
 488              	.L40:
 489 0406 8C42     		cmp	r4, r1
 490 0408 40F2A682 		bls	.L46
 491 040c 9C42     		cmp	r4, r3
 492 040e 00F09C82 		beq	.L248
 493 0412 664B     		ldr	r3, .L306
 494 0414 9C42     		cmp	r4, r3
 495 0416 00F09882 		beq	.L248
 496 041a A3F56873 		sub	r3, r3, #928
 497 041e 9C42     		cmp	r4, r3
 498 0420 00F09382 		beq	.L248
 499 0424 03F58063 		add	r3, r3, #1024
 500 0428 9C42     		cmp	r4, r3
 501 042a 00F08E82 		beq	.L248
 502 042e A3F58963 		sub	r3, r3, #1096
 503 0432 9C42     		cmp	r4, r3
 504 0434 00F08B82 		beq	.L252
 505 0438 03F58063 		add	r3, r3, #1024
 506 043c 9C42     		cmp	r4, r3
 507 043e 00F08682 		beq	.L252
 508 0442 A3F56873 		sub	r3, r3, #928
 509 0446 9C42     		cmp	r4, r3
 510 0448 00F08182 		beq	.L252
 511 044c 03F58063 		add	r3, r3, #1024
 512 0450 9C42     		cmp	r4, r3
 513 0452 00F07C82 		beq	.L252
 514 0456 A3F58963 		sub	r3, r3, #1096
 515 045a 9C42     		cmp	r4, r3
 516 045c 00F07982 		beq	.L255
ARM GAS  /tmp/ccl7IjUI.s 			page 10


 517 0460 03F58063 		add	r3, r3, #1024
 518 0464 9C42     		cmp	r4, r3
 519 0466 00F07482 		beq	.L255
 520 046a A3F56873 		sub	r3, r3, #928
 521 046e 9C42     		cmp	r4, r3
 522 0470 00F06F82 		beq	.L255
 523 0474 03F58063 		add	r3, r3, #1024
 524 0478 9C42     		cmp	r4, r3
 525 047a 14BF     		ite	ne
 526 047c 4FF48003 		movne	r3, #4194304
 527 0480 4FF48033 		moveq	r3, #65536
 528              	.L47:
 529 0484 4A4A     		ldr	r2, .L306+4
 530              	.L303:
 531 0486 D360     		str	r3, [r2, #12]
 532              	.L48:
 533 0488 2368     		ldr	r3, [r4]
 534 048a 43F01603 		orr	r3, r3, #22
 535 048e 2360     		str	r3, [r4]
 536 0490 6369     		ldr	r3, [r4, #20]
 537 0492 43F08003 		orr	r3, r3, #128
 538 0496 6361     		str	r3, [r4, #20]
 539 0498 036C     		ldr	r3, [r0, #64]
 540 049a 0BB9     		cbnz	r3, .L54
 541 049c 836C     		ldr	r3, [r0, #72]
 542 049e 1BB1     		cbz	r3, .L55
 543              	.L54:
 544 04a0 2368     		ldr	r3, [r4]
 545 04a2 43F00803 		orr	r3, r3, #8
 546 04a6 2360     		str	r3, [r4]
 547              	.L55:
 548 04a8 2368     		ldr	r3, [r4]
 549 04aa 0020     		movs	r0, #0
 550 04ac 43F00103 		orr	r3, r3, #1
 551 04b0 2360     		str	r3, [r4]
 552 04b2 ADE5     		b	.L10
 553              	.L111:
 554 04b4 4FF48062 		mov	r2, #1024
 555 04b8 21E7     		b	.L17
 556              	.L114:
 557 04ba 4FF48012 		mov	r2, #1048576
 558 04be 1EE7     		b	.L17
 559              	.L20:
 560 04c0 3A4A     		ldr	r2, .L306
 561 04c2 9442     		cmp	r4, r2
 562 04c4 3FF445AE 		beq	.L118
 563 04c8 A2F56872 		sub	r2, r2, #928
 564 04cc 9442     		cmp	r4, r2
 565 04ce 3FF440AE 		beq	.L118
 566 04d2 02F58062 		add	r2, r2, #1024
 567 04d6 9442     		cmp	r4, r2
 568 04d8 3FF43BAE 		beq	.L118
 569 04dc A2F58962 		sub	r2, r2, #1096
 570 04e0 9442     		cmp	r4, r2
 571 04e2 22D0     		beq	.L122
 572 04e4 02F58062 		add	r2, r2, #1024
 573 04e8 9442     		cmp	r4, r2
ARM GAS  /tmp/ccl7IjUI.s 			page 11


 574 04ea 1ED0     		beq	.L122
 575 04ec A2F56872 		sub	r2, r2, #928
 576 04f0 9442     		cmp	r4, r2
 577 04f2 1AD0     		beq	.L122
 578 04f4 02F58062 		add	r2, r2, #1024
 579 04f8 9442     		cmp	r4, r2
 580 04fa 16D0     		beq	.L122
 581 04fc A2F58962 		sub	r2, r2, #1096
 582 0500 9442     		cmp	r4, r2
 583 0502 15D0     		beq	.L125
 584 0504 02F58062 		add	r2, r2, #1024
 585 0508 9442     		cmp	r4, r2
 586 050a 11D0     		beq	.L125
 587 050c A2F56872 		sub	r2, r2, #928
 588 0510 9442     		cmp	r4, r2
 589 0512 0DD0     		beq	.L125
 590 0514 02F58062 		add	r2, r2, #1024
 591 0518 9442     		cmp	r4, r2
 592 051a 14BF     		ite	ne
 593 051c 4FF08062 		movne	r2, #67108864
 594 0520 4FF48012 		moveq	r2, #1048576
 595              	.L21:
 596 0524 224D     		ldr	r5, .L306+4
 597              	.L296:
 598 0526 AA60     		str	r2, [r5, #8]
 599 0528 EBE6     		b	.L29
 600              	.L122:
 601 052a 4FF48062 		mov	r2, #1024
 602 052e F9E7     		b	.L21
 603              	.L125:
 604 0530 4FF48012 		mov	r2, #1048576
 605 0534 F6E7     		b	.L21
 606              	.L24:
 607 0536 1D4A     		ldr	r2, .L306
 608 0538 9442     		cmp	r4, r2
 609 053a 3FF44EAE 		beq	.L129
 610 053e A2F56872 		sub	r2, r2, #928
 611 0542 9442     		cmp	r4, r2
 612 0544 3FF449AE 		beq	.L129
 613 0548 02F58062 		add	r2, r2, #1024
 614 054c 9442     		cmp	r4, r2
 615 054e 3FF444AE 		beq	.L129
 616 0552 A2F58962 		sub	r2, r2, #1096
 617 0556 9442     		cmp	r4, r2
 618 0558 21D0     		beq	.L133
 619 055a 02F58062 		add	r2, r2, #1024
 620 055e 9442     		cmp	r4, r2
 621 0560 1DD0     		beq	.L133
 622 0562 A2F56872 		sub	r2, r2, #928
 623 0566 9442     		cmp	r4, r2
 624 0568 19D0     		beq	.L133
 625 056a 02F58062 		add	r2, r2, #1024
 626 056e 9442     		cmp	r4, r2
 627 0570 15D0     		beq	.L133
 628 0572 A2F58962 		sub	r2, r2, #1096
 629 0576 9442     		cmp	r4, r2
 630 0578 14D0     		beq	.L136
ARM GAS  /tmp/ccl7IjUI.s 			page 12


 631 057a 02F58062 		add	r2, r2, #1024
 632 057e 9442     		cmp	r4, r2
 633 0580 10D0     		beq	.L136
 634 0582 A2F56872 		sub	r2, r2, #928
 635 0586 9442     		cmp	r4, r2
 636 0588 0CD0     		beq	.L136
 637 058a 02F58062 		add	r2, r2, #1024
 638 058e 9442     		cmp	r4, r2
 639 0590 14BF     		ite	ne
 640 0592 4FF08062 		movne	r2, #67108864
 641 0596 4FF48012 		moveq	r2, #1048576
 642              	.L25:
 643 059a 064D     		ldr	r5, .L306+8
 644 059c B0E6     		b	.L297
 645              	.L133:
 646 059e 4FF48062 		mov	r2, #1024
 647 05a2 FAE7     		b	.L25
 648              	.L136:
 649 05a4 4FF48012 		mov	r2, #1048576
 650 05a8 F7E7     		b	.L25
 651              	.L307:
 652 05aa 00BF     		.align	2
 653              	.L306:
 654 05ac 10640240 		.word	1073898512
 655 05b0 00640240 		.word	1073898496
 656 05b4 00600240 		.word	1073897472
 657              	.L27:
 658 05b8 C14A     		ldr	r2, .L308
 659 05ba 9442     		cmp	r4, r2
 660 05bc 3FF44DAE 		beq	.L140
 661 05c0 A2F56872 		sub	r2, r2, #928
 662 05c4 9442     		cmp	r4, r2
 663 05c6 3FF448AE 		beq	.L140
 664 05ca 02F58062 		add	r2, r2, #1024
 665 05ce 9442     		cmp	r4, r2
 666 05d0 3FF443AE 		beq	.L140
 667 05d4 A2F58962 		sub	r2, r2, #1096
 668 05d8 9442     		cmp	r4, r2
 669 05da 21D0     		beq	.L144
 670 05dc 02F58062 		add	r2, r2, #1024
 671 05e0 9442     		cmp	r4, r2
 672 05e2 1DD0     		beq	.L144
 673 05e4 A2F56872 		sub	r2, r2, #928
 674 05e8 9442     		cmp	r4, r2
 675 05ea 19D0     		beq	.L144
 676 05ec 02F58062 		add	r2, r2, #1024
 677 05f0 9442     		cmp	r4, r2
 678 05f2 15D0     		beq	.L144
 679 05f4 A2F58962 		sub	r2, r2, #1096
 680 05f8 9442     		cmp	r4, r2
 681 05fa 14D0     		beq	.L147
 682 05fc 02F58062 		add	r2, r2, #1024
 683 0600 9442     		cmp	r4, r2
 684 0602 10D0     		beq	.L147
 685 0604 A2F56872 		sub	r2, r2, #928
 686 0608 9442     		cmp	r4, r2
 687 060a 0CD0     		beq	.L147
ARM GAS  /tmp/ccl7IjUI.s 			page 13


 688 060c 02F58062 		add	r2, r2, #1024
 689 0610 9442     		cmp	r4, r2
 690 0612 14BF     		ite	ne
 691 0614 4FF08062 		movne	r2, #67108864
 692 0618 4FF48012 		moveq	r2, #1048576
 693              	.L28:
 694 061c A94D     		ldr	r5, .L308+4
 695 061e 82E7     		b	.L296
 696              	.L144:
 697 0620 4FF48062 		mov	r2, #1024
 698 0624 FAE7     		b	.L28
 699              	.L147:
 700 0626 4FF48012 		mov	r2, #1048576
 701 062a F7E7     		b	.L28
 702              	.L152:
 703 062c 0822     		movs	r2, #8
 704 062e A7E6     		b	.L31
 705              	.L156:
 706 0630 4FF40072 		mov	r2, #512
 707 0634 A4E6     		b	.L31
 708              	.L159:
 709 0636 4FF40022 		mov	r2, #524288
 710 063a A1E6     		b	.L31
 711              	.L30:
 712 063c A24A     		ldr	r2, .L308+8
 713 063e 9442     		cmp	r4, r2
 714 0640 3CD9     		bls	.L33
 715 0642 9C42     		cmp	r4, r3
 716 0644 32D0     		beq	.L164
 717 0646 02F55672 		add	r2, r2, #856
 718 064a 9442     		cmp	r4, r2
 719 064c 2ED0     		beq	.L164
 720 064e A2F56872 		sub	r2, r2, #928
 721 0652 9442     		cmp	r4, r2
 722 0654 2AD0     		beq	.L164
 723 0656 02F58062 		add	r2, r2, #1024
 724 065a 9442     		cmp	r4, r2
 725 065c 26D0     		beq	.L164
 726 065e A2F58962 		sub	r2, r2, #1096
 727 0662 9442     		cmp	r4, r2
 728 0664 24D0     		beq	.L168
 729 0666 02F58062 		add	r2, r2, #1024
 730 066a 9442     		cmp	r4, r2
 731 066c 20D0     		beq	.L168
 732 066e A2F56872 		sub	r2, r2, #928
 733 0672 9442     		cmp	r4, r2
 734 0674 1CD0     		beq	.L168
 735 0676 02F58062 		add	r2, r2, #1024
 736 067a 9442     		cmp	r4, r2
 737 067c 18D0     		beq	.L168
 738 067e A2F58962 		sub	r2, r2, #1096
 739 0682 9442     		cmp	r4, r2
 740 0684 17D0     		beq	.L171
 741 0686 02F58062 		add	r2, r2, #1024
 742 068a 9442     		cmp	r4, r2
 743 068c 13D0     		beq	.L171
 744 068e A2F56872 		sub	r2, r2, #928
ARM GAS  /tmp/ccl7IjUI.s 			page 14


 745 0692 9442     		cmp	r4, r2
 746 0694 0FD0     		beq	.L171
 747 0696 02F58062 		add	r2, r2, #1024
 748 069a 9442     		cmp	r4, r2
 749 069c 14BF     		ite	ne
 750 069e 4FF00072 		movne	r2, #33554432
 751 06a2 4FF40022 		moveq	r2, #524288
 752              	.L34:
 753 06a6 894D     		ldr	r5, .L308+12
 754              	.L298:
 755 06a8 AA60     		str	r2, [r5, #8]
 756 06aa 6BE6     		b	.L32
 757              	.L164:
 758 06ac 0822     		movs	r2, #8
 759 06ae FAE7     		b	.L34
 760              	.L168:
 761 06b0 4FF40072 		mov	r2, #512
 762 06b4 F7E7     		b	.L34
 763              	.L171:
 764 06b6 4FF40022 		mov	r2, #524288
 765 06ba F4E7     		b	.L34
 766              	.L33:
 767 06bc 844A     		ldr	r2, .L308+16
 768 06be 9442     		cmp	r4, r2
 769 06c0 3BD9     		bls	.L35
 770 06c2 9C42     		cmp	r4, r3
 771 06c4 31D0     		beq	.L176
 772 06c6 02F56E72 		add	r2, r2, #952
 773 06ca 9442     		cmp	r4, r2
 774 06cc 2DD0     		beq	.L176
 775 06ce A2F56872 		sub	r2, r2, #928
 776 06d2 9442     		cmp	r4, r2
 777 06d4 29D0     		beq	.L176
 778 06d6 02F58062 		add	r2, r2, #1024
 779 06da 9442     		cmp	r4, r2
 780 06dc 25D0     		beq	.L176
 781 06de A2F58962 		sub	r2, r2, #1096
 782 06e2 9442     		cmp	r4, r2
 783 06e4 23D0     		beq	.L180
 784 06e6 02F58062 		add	r2, r2, #1024
 785 06ea 9442     		cmp	r4, r2
 786 06ec 1FD0     		beq	.L180
 787 06ee A2F56872 		sub	r2, r2, #928
 788 06f2 9442     		cmp	r4, r2
 789 06f4 1BD0     		beq	.L180
 790 06f6 02F58062 		add	r2, r2, #1024
 791 06fa 9442     		cmp	r4, r2
 792 06fc 17D0     		beq	.L180
 793 06fe A2F58962 		sub	r2, r2, #1096
 794 0702 9442     		cmp	r4, r2
 795 0704 16D0     		beq	.L183
 796 0706 02F58062 		add	r2, r2, #1024
 797 070a 9442     		cmp	r4, r2
 798 070c 12D0     		beq	.L183
 799 070e A2F56872 		sub	r2, r2, #928
 800 0712 9442     		cmp	r4, r2
 801 0714 0ED0     		beq	.L183
ARM GAS  /tmp/ccl7IjUI.s 			page 15


 802 0716 02F58062 		add	r2, r2, #1024
 803 071a 9442     		cmp	r4, r2
 804 071c 14BF     		ite	ne
 805 071e 4FF00072 		movne	r2, #33554432
 806 0722 4FF40022 		moveq	r2, #524288
 807              	.L36:
 808 0726 674D     		ldr	r5, .L308+4
 809 0728 2BE6     		b	.L299
 810              	.L176:
 811 072a 0822     		movs	r2, #8
 812 072c FBE7     		b	.L36
 813              	.L180:
 814 072e 4FF40072 		mov	r2, #512
 815 0732 F8E7     		b	.L36
 816              	.L183:
 817 0734 4FF40022 		mov	r2, #524288
 818 0738 F5E7     		b	.L36
 819              	.L35:
 820 073a 9C42     		cmp	r4, r3
 821 073c 30D0     		beq	.L188
 822 073e 604A     		ldr	r2, .L308
 823 0740 9442     		cmp	r4, r2
 824 0742 2DD0     		beq	.L188
 825 0744 A2F56872 		sub	r2, r2, #928
 826 0748 9442     		cmp	r4, r2
 827 074a 29D0     		beq	.L188
 828 074c 02F58062 		add	r2, r2, #1024
 829 0750 9442     		cmp	r4, r2
 830 0752 25D0     		beq	.L188
 831 0754 A2F58962 		sub	r2, r2, #1096
 832 0758 9442     		cmp	r4, r2
 833 075a 23D0     		beq	.L192
 834 075c 02F58062 		add	r2, r2, #1024
 835 0760 9442     		cmp	r4, r2
 836 0762 1FD0     		beq	.L192
 837 0764 A2F56872 		sub	r2, r2, #928
 838 0768 9442     		cmp	r4, r2
 839 076a 1BD0     		beq	.L192
 840 076c 02F58062 		add	r2, r2, #1024
 841 0770 9442     		cmp	r4, r2
 842 0772 17D0     		beq	.L192
 843 0774 A2F58962 		sub	r2, r2, #1096
 844 0778 9442     		cmp	r4, r2
 845 077a 16D0     		beq	.L195
 846 077c 02F58062 		add	r2, r2, #1024
 847 0780 9442     		cmp	r4, r2
 848 0782 12D0     		beq	.L195
 849 0784 A2F56872 		sub	r2, r2, #928
 850 0788 9442     		cmp	r4, r2
 851 078a 0ED0     		beq	.L195
 852 078c 02F58062 		add	r2, r2, #1024
 853 0790 9442     		cmp	r4, r2
 854 0792 14BF     		ite	ne
 855 0794 4FF00072 		movne	r2, #33554432
 856 0798 4FF40022 		moveq	r2, #524288
 857              	.L37:
 858 079c 494D     		ldr	r5, .L308+4
ARM GAS  /tmp/ccl7IjUI.s 			page 16


 859 079e 83E7     		b	.L298
 860              	.L188:
 861 07a0 0822     		movs	r2, #8
 862 07a2 FBE7     		b	.L37
 863              	.L192:
 864 07a4 4FF40072 		mov	r2, #512
 865 07a8 F8E7     		b	.L37
 866              	.L195:
 867 07aa 4FF40022 		mov	r2, #524288
 868 07ae F5E7     		b	.L37
 869              	.L200:
 870 07b0 0422     		movs	r2, #4
 871 07b2 26E6     		b	.L39
 872              	.L204:
 873 07b4 4FF48072 		mov	r2, #256
 874 07b8 23E6     		b	.L39
 875              	.L207:
 876 07ba 4FF48022 		mov	r2, #262144
 877 07be 20E6     		b	.L39
 878              	.L38:
 879 07c0 414A     		ldr	r2, .L308+8
 880 07c2 9442     		cmp	r4, r2
 881 07c4 3CD9     		bls	.L41
 882 07c6 9C42     		cmp	r4, r3
 883 07c8 32D0     		beq	.L212
 884 07ca 02F55672 		add	r2, r2, #856
 885 07ce 9442     		cmp	r4, r2
 886 07d0 2ED0     		beq	.L212
 887 07d2 A2F56872 		sub	r2, r2, #928
 888 07d6 9442     		cmp	r4, r2
 889 07d8 2AD0     		beq	.L212
 890 07da 02F58062 		add	r2, r2, #1024
 891 07de 9442     		cmp	r4, r2
 892 07e0 26D0     		beq	.L212
 893 07e2 A2F58962 		sub	r2, r2, #1096
 894 07e6 9442     		cmp	r4, r2
 895 07e8 24D0     		beq	.L216
 896 07ea 02F58062 		add	r2, r2, #1024
 897 07ee 9442     		cmp	r4, r2
 898 07f0 20D0     		beq	.L216
 899 07f2 A2F56872 		sub	r2, r2, #928
 900 07f6 9442     		cmp	r4, r2
 901 07f8 1CD0     		beq	.L216
 902 07fa 02F58062 		add	r2, r2, #1024
 903 07fe 9442     		cmp	r4, r2
 904 0800 18D0     		beq	.L216
 905 0802 A2F58962 		sub	r2, r2, #1096
 906 0806 9442     		cmp	r4, r2
 907 0808 17D0     		beq	.L219
 908 080a 02F58062 		add	r2, r2, #1024
 909 080e 9442     		cmp	r4, r2
 910 0810 13D0     		beq	.L219
 911 0812 A2F56872 		sub	r2, r2, #928
 912 0816 9442     		cmp	r4, r2
 913 0818 0FD0     		beq	.L219
 914 081a 02F58062 		add	r2, r2, #1024
 915 081e 9442     		cmp	r4, r2
ARM GAS  /tmp/ccl7IjUI.s 			page 17


 916 0820 14BF     		ite	ne
 917 0822 4FF08072 		movne	r2, #16777216
 918 0826 4FF48022 		moveq	r2, #262144
 919              	.L42:
 920 082a 284D     		ldr	r5, .L308+12
 921              	.L300:
 922 082c AA60     		str	r2, [r5, #8]
 923 082e EAE5     		b	.L40
 924              	.L212:
 925 0830 0422     		movs	r2, #4
 926 0832 FAE7     		b	.L42
 927              	.L216:
 928 0834 4FF48072 		mov	r2, #256
 929 0838 F7E7     		b	.L42
 930              	.L219:
 931 083a 4FF48022 		mov	r2, #262144
 932 083e F4E7     		b	.L42
 933              	.L41:
 934 0840 234A     		ldr	r2, .L308+16
 935 0842 9442     		cmp	r4, r2
 936 0844 46D9     		bls	.L43
 937 0846 9C42     		cmp	r4, r3
 938 0848 31D0     		beq	.L224
 939 084a 02F56E72 		add	r2, r2, #952
 940 084e 9442     		cmp	r4, r2
 941 0850 2DD0     		beq	.L224
 942 0852 A2F56872 		sub	r2, r2, #928
 943 0856 9442     		cmp	r4, r2
 944 0858 29D0     		beq	.L224
 945 085a 02F58062 		add	r2, r2, #1024
 946 085e 9442     		cmp	r4, r2
 947 0860 25D0     		beq	.L224
 948 0862 A2F58962 		sub	r2, r2, #1096
 949 0866 9442     		cmp	r4, r2
 950 0868 23D0     		beq	.L228
 951 086a 02F58062 		add	r2, r2, #1024
 952 086e 9442     		cmp	r4, r2
 953 0870 1FD0     		beq	.L228
 954 0872 A2F56872 		sub	r2, r2, #928
 955 0876 9442     		cmp	r4, r2
 956 0878 1BD0     		beq	.L228
 957 087a 02F58062 		add	r2, r2, #1024
 958 087e 9442     		cmp	r4, r2
 959 0880 17D0     		beq	.L228
 960 0882 A2F58962 		sub	r2, r2, #1096
 961 0886 9442     		cmp	r4, r2
 962 0888 16D0     		beq	.L231
 963 088a 02F58062 		add	r2, r2, #1024
 964 088e 9442     		cmp	r4, r2
 965 0890 12D0     		beq	.L231
 966 0892 A2F56872 		sub	r2, r2, #928
 967 0896 9442     		cmp	r4, r2
 968 0898 0ED0     		beq	.L231
 969 089a 02F58062 		add	r2, r2, #1024
 970 089e 9442     		cmp	r4, r2
 971 08a0 14BF     		ite	ne
 972 08a2 4FF08072 		movne	r2, #16777216
ARM GAS  /tmp/ccl7IjUI.s 			page 18


 973 08a6 4FF48022 		moveq	r2, #262144
 974              	.L44:
 975 08aa 064D     		ldr	r5, .L308+4
 976 08ac AAE5     		b	.L301
 977              	.L224:
 978 08ae 0422     		movs	r2, #4
 979 08b0 FBE7     		b	.L44
 980              	.L228:
 981 08b2 4FF48072 		mov	r2, #256
 982 08b6 F8E7     		b	.L44
 983              	.L231:
 984 08b8 4FF48022 		mov	r2, #262144
 985 08bc F5E7     		b	.L44
 986              	.L309:
 987 08be 00BF     		.align	2
 988              	.L308:
 989 08c0 10640240 		.word	1073898512
 990 08c4 00600240 		.word	1073897472
 991 08c8 B8600240 		.word	1073897656
 992 08cc 00640240 		.word	1073898496
 993 08d0 58600240 		.word	1073897560
 994              	.L43:
 995 08d4 9C42     		cmp	r4, r3
 996 08d6 30D0     		beq	.L236
 997 08d8 7C4A     		ldr	r2, .L310
 998 08da 9442     		cmp	r4, r2
 999 08dc 2DD0     		beq	.L236
 1000 08de A2F56872 		sub	r2, r2, #928
 1001 08e2 9442     		cmp	r4, r2
 1002 08e4 29D0     		beq	.L236
 1003 08e6 02F58062 		add	r2, r2, #1024
 1004 08ea 9442     		cmp	r4, r2
 1005 08ec 25D0     		beq	.L236
 1006 08ee A2F58962 		sub	r2, r2, #1096
 1007 08f2 9442     		cmp	r4, r2
 1008 08f4 23D0     		beq	.L240
 1009 08f6 02F58062 		add	r2, r2, #1024
 1010 08fa 9442     		cmp	r4, r2
 1011 08fc 1FD0     		beq	.L240
 1012 08fe A2F56872 		sub	r2, r2, #928
 1013 0902 9442     		cmp	r4, r2
 1014 0904 1BD0     		beq	.L240
 1015 0906 02F58062 		add	r2, r2, #1024
 1016 090a 9442     		cmp	r4, r2
 1017 090c 17D0     		beq	.L240
 1018 090e A2F58962 		sub	r2, r2, #1096
 1019 0912 9442     		cmp	r4, r2
 1020 0914 16D0     		beq	.L243
 1021 0916 02F58062 		add	r2, r2, #1024
 1022 091a 9442     		cmp	r4, r2
 1023 091c 12D0     		beq	.L243
 1024 091e A2F56872 		sub	r2, r2, #928
 1025 0922 9442     		cmp	r4, r2
 1026 0924 0ED0     		beq	.L243
 1027 0926 02F58062 		add	r2, r2, #1024
 1028 092a 9442     		cmp	r4, r2
 1029 092c 14BF     		ite	ne
ARM GAS  /tmp/ccl7IjUI.s 			page 19


 1030 092e 4FF08072 		movne	r2, #16777216
 1031 0932 4FF48022 		moveq	r2, #262144
 1032              	.L45:
 1033 0936 664D     		ldr	r5, .L310+4
 1034 0938 78E7     		b	.L300
 1035              	.L236:
 1036 093a 0422     		movs	r2, #4
 1037 093c FBE7     		b	.L45
 1038              	.L240:
 1039 093e 4FF48072 		mov	r2, #256
 1040 0942 F8E7     		b	.L45
 1041              	.L243:
 1042 0944 4FF48022 		mov	r2, #262144
 1043 0948 F5E7     		b	.L45
 1044              	.L248:
 1045 094a 0123     		movs	r3, #1
 1046 094c 9AE5     		b	.L47
 1047              	.L252:
 1048 094e 4023     		movs	r3, #64
 1049 0950 98E5     		b	.L47
 1050              	.L255:
 1051 0952 4FF48033 		mov	r3, #65536
 1052 0956 95E5     		b	.L47
 1053              	.L46:
 1054 0958 5E4A     		ldr	r2, .L310+8
 1055 095a 9442     		cmp	r4, r2
 1056 095c 3AD9     		bls	.L49
 1057 095e 9C42     		cmp	r4, r3
 1058 0960 31D0     		beq	.L260
 1059 0962 5A4B     		ldr	r3, .L310
 1060 0964 9C42     		cmp	r4, r3
 1061 0966 2ED0     		beq	.L260
 1062 0968 A3F56873 		sub	r3, r3, #928
 1063 096c 9C42     		cmp	r4, r3
 1064 096e 2AD0     		beq	.L260
 1065 0970 03F58063 		add	r3, r3, #1024
 1066 0974 9C42     		cmp	r4, r3
 1067 0976 26D0     		beq	.L260
 1068 0978 A3F58963 		sub	r3, r3, #1096
 1069 097c 9C42     		cmp	r4, r3
 1070 097e 24D0     		beq	.L264
 1071 0980 03F58063 		add	r3, r3, #1024
 1072 0984 9C42     		cmp	r4, r3
 1073 0986 20D0     		beq	.L264
 1074 0988 A3F56873 		sub	r3, r3, #928
 1075 098c 9C42     		cmp	r4, r3
 1076 098e 1CD0     		beq	.L264
 1077 0990 03F58063 		add	r3, r3, #1024
 1078 0994 9C42     		cmp	r4, r3
 1079 0996 18D0     		beq	.L264
 1080 0998 A3F58963 		sub	r3, r3, #1096
 1081 099c 9C42     		cmp	r4, r3
 1082 099e 16D0     		beq	.L267
 1083 09a0 03F58063 		add	r3, r3, #1024
 1084 09a4 9C42     		cmp	r4, r3
 1085 09a6 12D0     		beq	.L267
 1086 09a8 A3F56873 		sub	r3, r3, #928
ARM GAS  /tmp/ccl7IjUI.s 			page 20


 1087 09ac 9C42     		cmp	r4, r3
 1088 09ae 0ED0     		beq	.L267
 1089 09b0 03F58063 		add	r3, r3, #1024
 1090 09b4 9C42     		cmp	r4, r3
 1091 09b6 14BF     		ite	ne
 1092 09b8 4FF48003 		movne	r3, #4194304
 1093 09bc 4FF48033 		moveq	r3, #65536
 1094              	.L50:
 1095 09c0 454A     		ldr	r2, .L310+12
 1096              	.L302:
 1097 09c2 9360     		str	r3, [r2, #8]
 1098 09c4 60E5     		b	.L48
 1099              	.L260:
 1100 09c6 0123     		movs	r3, #1
 1101 09c8 FAE7     		b	.L50
 1102              	.L264:
 1103 09ca 4023     		movs	r3, #64
 1104 09cc F8E7     		b	.L50
 1105              	.L267:
 1106 09ce 4FF48033 		mov	r3, #65536
 1107 09d2 F5E7     		b	.L50
 1108              	.L49:
 1109 09d4 414A     		ldr	r2, .L310+16
 1110 09d6 9442     		cmp	r4, r2
 1111 09d8 39D9     		bls	.L51
 1112 09da 9C42     		cmp	r4, r3
 1113 09dc 30D0     		beq	.L272
 1114 09de 3B4B     		ldr	r3, .L310
 1115 09e0 9C42     		cmp	r4, r3
 1116 09e2 2DD0     		beq	.L272
 1117 09e4 A3F56873 		sub	r3, r3, #928
 1118 09e8 9C42     		cmp	r4, r3
 1119 09ea 29D0     		beq	.L272
 1120 09ec 03F58063 		add	r3, r3, #1024
 1121 09f0 9C42     		cmp	r4, r3
 1122 09f2 25D0     		beq	.L272
 1123 09f4 A3F58963 		sub	r3, r3, #1096
 1124 09f8 9C42     		cmp	r4, r3
 1125 09fa 23D0     		beq	.L276
 1126 09fc 03F58063 		add	r3, r3, #1024
 1127 0a00 9C42     		cmp	r4, r3
 1128 0a02 1FD0     		beq	.L276
 1129 0a04 A3F56873 		sub	r3, r3, #928
 1130 0a08 9C42     		cmp	r4, r3
 1131 0a0a 1BD0     		beq	.L276
 1132 0a0c 03F58063 		add	r3, r3, #1024
 1133 0a10 9C42     		cmp	r4, r3
 1134 0a12 17D0     		beq	.L276
 1135 0a14 A3F58963 		sub	r3, r3, #1096
 1136 0a18 9C42     		cmp	r4, r3
 1137 0a1a 15D0     		beq	.L279
 1138 0a1c 03F58063 		add	r3, r3, #1024
 1139 0a20 9C42     		cmp	r4, r3
 1140 0a22 11D0     		beq	.L279
 1141 0a24 A3F56873 		sub	r3, r3, #928
 1142 0a28 9C42     		cmp	r4, r3
 1143 0a2a 0DD0     		beq	.L279
ARM GAS  /tmp/ccl7IjUI.s 			page 21


 1144 0a2c 03F58063 		add	r3, r3, #1024
 1145 0a30 9C42     		cmp	r4, r3
 1146 0a32 14BF     		ite	ne
 1147 0a34 4FF48003 		movne	r3, #4194304
 1148 0a38 4FF48033 		moveq	r3, #65536
 1149              	.L52:
 1150 0a3c 244A     		ldr	r2, .L310+4
 1151 0a3e 22E5     		b	.L303
 1152              	.L272:
 1153 0a40 0123     		movs	r3, #1
 1154 0a42 FBE7     		b	.L52
 1155              	.L276:
 1156 0a44 4023     		movs	r3, #64
 1157 0a46 F9E7     		b	.L52
 1158              	.L279:
 1159 0a48 4FF48033 		mov	r3, #65536
 1160 0a4c F6E7     		b	.L52
 1161              	.L51:
 1162 0a4e 9C42     		cmp	r4, r3
 1163 0a50 30D0     		beq	.L284
 1164 0a52 1E4B     		ldr	r3, .L310
 1165 0a54 9C42     		cmp	r4, r3
 1166 0a56 2DD0     		beq	.L284
 1167 0a58 A3F56873 		sub	r3, r3, #928
 1168 0a5c 9C42     		cmp	r4, r3
 1169 0a5e 29D0     		beq	.L284
 1170 0a60 03F58063 		add	r3, r3, #1024
 1171 0a64 9C42     		cmp	r4, r3
 1172 0a66 25D0     		beq	.L284
 1173 0a68 A3F58963 		sub	r3, r3, #1096
 1174 0a6c 9C42     		cmp	r4, r3
 1175 0a6e 23D0     		beq	.L288
 1176 0a70 03F58063 		add	r3, r3, #1024
 1177 0a74 9C42     		cmp	r4, r3
 1178 0a76 1FD0     		beq	.L288
 1179 0a78 A3F56873 		sub	r3, r3, #928
 1180 0a7c 9C42     		cmp	r4, r3
 1181 0a7e 1BD0     		beq	.L288
 1182 0a80 03F58063 		add	r3, r3, #1024
 1183 0a84 9C42     		cmp	r4, r3
 1184 0a86 17D0     		beq	.L288
 1185 0a88 A3F58963 		sub	r3, r3, #1096
 1186 0a8c 9C42     		cmp	r4, r3
 1187 0a8e 15D0     		beq	.L291
 1188 0a90 03F58063 		add	r3, r3, #1024
 1189 0a94 9C42     		cmp	r4, r3
 1190 0a96 11D0     		beq	.L291
 1191 0a98 A3F56873 		sub	r3, r3, #928
 1192 0a9c 9C42     		cmp	r4, r3
 1193 0a9e 0DD0     		beq	.L291
 1194 0aa0 03F58063 		add	r3, r3, #1024
 1195 0aa4 9C42     		cmp	r4, r3
 1196 0aa6 14BF     		ite	ne
 1197 0aa8 4FF48003 		movne	r3, #4194304
 1198 0aac 4FF48033 		moveq	r3, #65536
 1199              	.L53:
 1200 0ab0 074A     		ldr	r2, .L310+4
ARM GAS  /tmp/ccl7IjUI.s 			page 22


 1201 0ab2 86E7     		b	.L302
 1202              	.L284:
 1203 0ab4 0123     		movs	r3, #1
 1204 0ab6 FBE7     		b	.L53
 1205              	.L288:
 1206 0ab8 4023     		movs	r3, #64
 1207 0aba F9E7     		b	.L53
 1208              	.L291:
 1209 0abc 4FF48033 		mov	r3, #65536
 1210 0ac0 F6E7     		b	.L53
 1211              	.L11:
 1212 0ac2 80F83450 		strb	r5, [r0, #52]
 1213              	.L56:
 1214 0ac6 0220     		movs	r0, #2
 1215 0ac8 FFF7A2BA 		b	.L10
 1216              	.L311:
 1217              		.align	2
 1218              	.L310:
 1219 0acc 10640240 		.word	1073898512
 1220 0ad0 00600240 		.word	1073897472
 1221 0ad4 B8600240 		.word	1073897656
 1222 0ad8 00640240 		.word	1073898496
 1223 0adc 58600240 		.word	1073897560
 1225              		.section	.text.HAL_DMAEx_ChangeMemory,"ax",%progbits
 1226              		.align	1
 1227              		.global	HAL_DMAEx_ChangeMemory
 1228              		.syntax unified
 1229              		.thumb
 1230              		.thumb_func
 1231              		.fpu fpv5-sp-d16
 1233              	HAL_DMAEx_ChangeMemory:
 1234              		@ args = 0, pretend = 0, frame = 0
 1235              		@ frame_needed = 0, uses_anonymous_args = 0
 1236              		@ link register save eliminated.
 1237 0000 0368     		ldr	r3, [r0]
 1238 0002 12B9     		cbnz	r2, .L313
 1239 0004 D960     		str	r1, [r3, #12]
 1240              	.L314:
 1241 0006 0020     		movs	r0, #0
 1242 0008 7047     		bx	lr
 1243              	.L313:
 1244 000a 1961     		str	r1, [r3, #16]
 1245 000c FBE7     		b	.L314
 1247              		.ident	"GCC: (GNU Tools for Arm Embedded Processors 8-2018-q4-major) 8.2.1 20181213 (release) [gcc
ARM GAS  /tmp/ccl7IjUI.s 			page 23


DEFINED SYMBOLS
                            *ABS*:0000000000000000 stm32f7xx_hal_dma_ex.c
     /tmp/ccl7IjUI.s:15     .text.HAL_DMAEx_MultiBufferStart:0000000000000000 $t
     /tmp/ccl7IjUI.s:23     .text.HAL_DMAEx_MultiBufferStart:0000000000000000 HAL_DMAEx_MultiBufferStart
     /tmp/ccl7IjUI.s:73     .text.HAL_DMAEx_MultiBufferStart_IT:0000000000000000 $t
     /tmp/ccl7IjUI.s:80     .text.HAL_DMAEx_MultiBufferStart_IT:0000000000000000 HAL_DMAEx_MultiBufferStart_IT
     /tmp/ccl7IjUI.s:353    .text.HAL_DMAEx_MultiBufferStart_IT:0000000000000270 $d
     /tmp/ccl7IjUI.s:361    .text.HAL_DMAEx_MultiBufferStart_IT:000000000000028c $t
     /tmp/ccl7IjUI.s:654    .text.HAL_DMAEx_MultiBufferStart_IT:00000000000005ac $d
     /tmp/ccl7IjUI.s:658    .text.HAL_DMAEx_MultiBufferStart_IT:00000000000005b8 $t
     /tmp/ccl7IjUI.s:989    .text.HAL_DMAEx_MultiBufferStart_IT:00000000000008c0 $d
     /tmp/ccl7IjUI.s:995    .text.HAL_DMAEx_MultiBufferStart_IT:00000000000008d4 $t
     /tmp/ccl7IjUI.s:1219   .text.HAL_DMAEx_MultiBufferStart_IT:0000000000000acc $d
     /tmp/ccl7IjUI.s:1226   .text.HAL_DMAEx_ChangeMemory:0000000000000000 $t
     /tmp/ccl7IjUI.s:1233   .text.HAL_DMAEx_ChangeMemory:0000000000000000 HAL_DMAEx_ChangeMemory

NO UNDEFINED SYMBOLS
