ARM GAS  /tmp/ccgj4T3J.s 			page 1


   1              		.cpu cortex-m7
   2              		.eabi_attribute 27, 1
   3              		.eabi_attribute 20, 1
   4              		.eabi_attribute 21, 1
   5              		.eabi_attribute 23, 3
   6              		.eabi_attribute 24, 1
   7              		.eabi_attribute 25, 1
   8              		.eabi_attribute 26, 1
   9              		.eabi_attribute 30, 4
  10              		.eabi_attribute 34, 1
  11              		.eabi_attribute 18, 4
  12              		.file	"stm32f7xx_ll_rcc.c"
  13              		.text
  14              		.section	.text.LL_RCC_HSI_IsReady,"ax",%progbits
  15              		.align	1
  16              		.arch armv7e-m
  17              		.syntax unified
  18              		.thumb
  19              		.thumb_func
  20              		.fpu fpv5-sp-d16
  22              	LL_RCC_HSI_IsReady:
  23              		@ args = 0, pretend = 0, frame = 0
  24              		@ frame_needed = 0, uses_anonymous_args = 0
  25              		@ link register save eliminated.
  26 0000 024B     		ldr	r3, .L2
  27 0002 1868     		ldr	r0, [r3]
  28 0004 C0F34000 		ubfx	r0, r0, #1, #1
  29 0008 7047     		bx	lr
  30              	.L3:
  31 000a 00BF     		.align	2
  32              	.L2:
  33 000c 00380240 		.word	1073887232
  35              		.section	.text.LL_RCC_LSE_IsReady,"ax",%progbits
  36              		.align	1
  37              		.syntax unified
  38              		.thumb
  39              		.thumb_func
  40              		.fpu fpv5-sp-d16
  42              	LL_RCC_LSE_IsReady:
  43              		@ args = 0, pretend = 0, frame = 0
  44              		@ frame_needed = 0, uses_anonymous_args = 0
  45              		@ link register save eliminated.
  46 0000 024B     		ldr	r3, .L5
  47 0002 186F     		ldr	r0, [r3, #112]
  48 0004 C0F34000 		ubfx	r0, r0, #1, #1
  49 0008 7047     		bx	lr
  50              	.L6:
  51 000a 00BF     		.align	2
  52              	.L5:
  53 000c 00380240 		.word	1073887232
  55              		.section	.text.LL_RCC_DeInit,"ax",%progbits
  56              		.align	1
  57              		.global	LL_RCC_DeInit
  58              		.syntax unified
  59              		.thumb
  60              		.thumb_func
  61              		.fpu fpv5-sp-d16
ARM GAS  /tmp/ccgj4T3J.s 			page 2


  63              	LL_RCC_DeInit:
  64              		@ args = 0, pretend = 0, frame = 8
  65              		@ frame_needed = 0, uses_anonymous_args = 0
  66 0000 07B5     		push	{r0, r1, r2, lr}
  67 0002 204A     		ldr	r2, .L16
  68 0004 1368     		ldr	r3, [r2]
  69 0006 43F00103 		orr	r3, r3, #1
  70 000a 1360     		str	r3, [r2]
  71              	.L8:
  72 000c FFF7FEFF 		bl	LL_RCC_HSI_IsReady
  73 0010 0128     		cmp	r0, #1
  74 0012 FBD1     		bne	.L8
  75 0014 0023     		movs	r3, #0
  76 0016 9360     		str	r3, [r2, #8]
  77 0018 1368     		ldr	r3, [r2]
  78 001a 0193     		str	r3, [sp, #4]
  79 001c 019B     		ldr	r3, [sp, #4]
  80 001e 23F0A853 		bic	r3, r3, #352321536
  81 0022 23F45023 		bic	r3, r3, #851968
  82 0026 0193     		str	r3, [sp, #4]
  83 0028 019B     		ldr	r3, [sp, #4]
  84 002a 1360     		str	r3, [r2]
  85 002c 1368     		ldr	r3, [r2]
  86 002e 23F0F803 		bic	r3, r3, #248
  87 0032 43F08003 		orr	r3, r3, #128
  88 0036 1360     		str	r3, [r2]
  89 0038 124B     		ldr	r3, .L16
  90              	.L9:
  91 003a 1A68     		ldr	r2, [r3]
  92 003c 9101     		lsls	r1, r2, #6
  93 003e FCD4     		bmi	.L9
  94              	.L10:
  95 0040 1A68     		ldr	r2, [r3]
  96 0042 1201     		lsls	r2, r2, #4
  97 0044 FCD4     		bmi	.L10
  98              	.L11:
  99 0046 1868     		ldr	r0, [r3]
 100 0048 10F00050 		ands	r0, r0, #536870912
 101 004c FBD1     		bne	.L11
 102 004e 0E4A     		ldr	r2, .L16+4
 103 0050 5A60     		str	r2, [r3, #4]
 104 0052 103A     		subs	r2, r2, #16
 105 0054 C3F88420 		str	r2, [r3, #132]
 106 0058 C3F88820 		str	r2, [r3, #136]
 107 005c DA68     		ldr	r2, [r3, #12]
 108 005e 22F4FE42 		bic	r2, r2, #32512
 109 0062 DA60     		str	r2, [r3, #12]
 110 0064 DA68     		ldr	r2, [r3, #12]
 111 0066 42F47F02 		orr	r2, r2, #16711680
 112 006a DA60     		str	r2, [r3, #12]
 113 006c 5A6F     		ldr	r2, [r3, #116]
 114 006e 22F00102 		bic	r2, r2, #1
 115 0072 5A67     		str	r2, [r3, #116]
 116 0074 5A6F     		ldr	r2, [r3, #116]
 117 0076 42F08072 		orr	r2, r2, #16777216
 118 007a 5A67     		str	r2, [r3, #116]
 119 007c 03B0     		add	sp, sp, #12
ARM GAS  /tmp/ccgj4T3J.s 			page 3


 120              		@ sp needed
 121 007e 5DF804FB 		ldr	pc, [sp], #4
 122              	.L17:
 123 0082 00BF     		.align	2
 124              	.L16:
 125 0084 00380240 		.word	1073887232
 126 0088 10300024 		.word	603992080
 128              		.section	.text.RCC_GetHCLKClockFreq,"ax",%progbits
 129              		.align	1
 130              		.global	RCC_GetHCLKClockFreq
 131              		.syntax unified
 132              		.thumb
 133              		.thumb_func
 134              		.fpu fpv5-sp-d16
 136              	RCC_GetHCLKClockFreq:
 137              		@ args = 0, pretend = 0, frame = 0
 138              		@ frame_needed = 0, uses_anonymous_args = 0
 139              		@ link register save eliminated.
 140 0000 034B     		ldr	r3, .L19
 141 0002 044A     		ldr	r2, .L19+4
 142 0004 9B68     		ldr	r3, [r3, #8]
 143 0006 C3F30313 		ubfx	r3, r3, #4, #4
 144 000a D35C     		ldrb	r3, [r2, r3]	@ zero_extendqisi2
 145 000c D840     		lsrs	r0, r0, r3
 146 000e 7047     		bx	lr
 147              	.L20:
 148              		.align	2
 149              	.L19:
 150 0010 00380240 		.word	1073887232
 151 0014 00000000 		.word	AHBPrescTable
 153              		.section	.text.RCC_GetPCLK1ClockFreq,"ax",%progbits
 154              		.align	1
 155              		.global	RCC_GetPCLK1ClockFreq
 156              		.syntax unified
 157              		.thumb
 158              		.thumb_func
 159              		.fpu fpv5-sp-d16
 161              	RCC_GetPCLK1ClockFreq:
 162              		@ args = 0, pretend = 0, frame = 0
 163              		@ frame_needed = 0, uses_anonymous_args = 0
 164              		@ link register save eliminated.
 165 0000 034B     		ldr	r3, .L22
 166 0002 044A     		ldr	r2, .L22+4
 167 0004 9B68     		ldr	r3, [r3, #8]
 168 0006 C3F38223 		ubfx	r3, r3, #10, #3
 169 000a D35C     		ldrb	r3, [r2, r3]	@ zero_extendqisi2
 170 000c D840     		lsrs	r0, r0, r3
 171 000e 7047     		bx	lr
 172              	.L23:
 173              		.align	2
 174              	.L22:
 175 0010 00380240 		.word	1073887232
 176 0014 00000000 		.word	APBPrescTable
 178              		.section	.text.RCC_GetPCLK2ClockFreq,"ax",%progbits
 179              		.align	1
 180              		.global	RCC_GetPCLK2ClockFreq
 181              		.syntax unified
ARM GAS  /tmp/ccgj4T3J.s 			page 4


 182              		.thumb
 183              		.thumb_func
 184              		.fpu fpv5-sp-d16
 186              	RCC_GetPCLK2ClockFreq:
 187              		@ args = 0, pretend = 0, frame = 0
 188              		@ frame_needed = 0, uses_anonymous_args = 0
 189              		@ link register save eliminated.
 190 0000 034B     		ldr	r3, .L25
 191 0002 044A     		ldr	r2, .L25+4
 192 0004 9B68     		ldr	r3, [r3, #8]
 193 0006 C3F34233 		ubfx	r3, r3, #13, #3
 194 000a D35C     		ldrb	r3, [r2, r3]	@ zero_extendqisi2
 195 000c D840     		lsrs	r0, r0, r3
 196 000e 7047     		bx	lr
 197              	.L26:
 198              		.align	2
 199              	.L25:
 200 0010 00380240 		.word	1073887232
 201 0014 00000000 		.word	APBPrescTable
 203              		.section	.text.RCC_PLL_GetFreqDomain_SYS,"ax",%progbits
 204              		.align	1
 205              		.global	RCC_PLL_GetFreqDomain_SYS
 206              		.syntax unified
 207              		.thumb
 208              		.thumb_func
 209              		.fpu fpv5-sp-d16
 211              	RCC_PLL_GetFreqDomain_SYS:
 212              		@ args = 0, pretend = 0, frame = 0
 213              		@ frame_needed = 0, uses_anonymous_args = 0
 214              		@ link register save eliminated.
 215 0000 0C4B     		ldr	r3, .L30
 216 0002 0D48     		ldr	r0, .L30+4
 217 0004 5A68     		ldr	r2, [r3, #4]
 218 0006 5968     		ldr	r1, [r3, #4]
 219 0008 12F4800F 		tst	r2, #4194304
 220 000c 0B4A     		ldr	r2, .L30+8
 221 000e 01F03F01 		and	r1, r1, #63
 222 0012 18BF     		it	ne
 223 0014 1046     		movne	r0, r2
 224 0016 5A68     		ldr	r2, [r3, #4]
 225 0018 5B68     		ldr	r3, [r3, #4]
 226 001a C2F38812 		ubfx	r2, r2, #6, #9
 227 001e C3F30143 		ubfx	r3, r3, #16, #2
 228 0022 B0FBF1F0 		udiv	r0, r0, r1
 229 0026 0133     		adds	r3, r3, #1
 230 0028 5043     		muls	r0, r2, r0
 231 002a 5B00     		lsls	r3, r3, #1
 232 002c B0FBF3F0 		udiv	r0, r0, r3
 233 0030 7047     		bx	lr
 234              	.L31:
 235 0032 00BF     		.align	2
 236              	.L30:
 237 0034 00380240 		.word	1073887232
 238 0038 0024F400 		.word	16000000
 239 003c 00127A00 		.word	8000000
 241              		.section	.text.RCC_GetSystemClockFreq,"ax",%progbits
 242              		.align	1
ARM GAS  /tmp/ccgj4T3J.s 			page 5


 243              		.global	RCC_GetSystemClockFreq
 244              		.syntax unified
 245              		.thumb
 246              		.thumb_func
 247              		.fpu fpv5-sp-d16
 249              	RCC_GetSystemClockFreq:
 250              		@ args = 0, pretend = 0, frame = 0
 251              		@ frame_needed = 0, uses_anonymous_args = 0
 252              		@ link register save eliminated.
 253 0000 064B     		ldr	r3, .L36
 254 0002 9B68     		ldr	r3, [r3, #8]
 255 0004 03F00C03 		and	r3, r3, #12
 256 0008 042B     		cmp	r3, #4
 257 000a 03D0     		beq	.L34
 258 000c 082B     		cmp	r3, #8
 259 000e 03D1     		bne	.L35
 260 0010 FFF7FEBF 		b	RCC_PLL_GetFreqDomain_SYS
 261              	.L34:
 262 0014 0248     		ldr	r0, .L36+4
 263 0016 7047     		bx	lr
 264              	.L35:
 265 0018 0248     		ldr	r0, .L36+8
 266 001a 7047     		bx	lr
 267              	.L37:
 268              		.align	2
 269              	.L36:
 270 001c 00380240 		.word	1073887232
 271 0020 00127A00 		.word	8000000
 272 0024 0024F400 		.word	16000000
 274              		.section	.text.LL_RCC_GetSystemClocksFreq,"ax",%progbits
 275              		.align	1
 276              		.global	LL_RCC_GetSystemClocksFreq
 277              		.syntax unified
 278              		.thumb
 279              		.thumb_func
 280              		.fpu fpv5-sp-d16
 282              	LL_RCC_GetSystemClocksFreq:
 283              		@ args = 0, pretend = 0, frame = 0
 284              		@ frame_needed = 0, uses_anonymous_args = 0
 285 0000 10B5     		push	{r4, lr}
 286 0002 0446     		mov	r4, r0
 287 0004 FFF7FEFF 		bl	RCC_GetSystemClockFreq
 288 0008 2060     		str	r0, [r4]
 289 000a FFF7FEFF 		bl	RCC_GetHCLKClockFreq
 290 000e 6060     		str	r0, [r4, #4]
 291 0010 FFF7FEFF 		bl	RCC_GetPCLK1ClockFreq
 292 0014 A060     		str	r0, [r4, #8]
 293 0016 6068     		ldr	r0, [r4, #4]
 294 0018 FFF7FEFF 		bl	RCC_GetPCLK2ClockFreq
 295 001c E060     		str	r0, [r4, #12]
 296 001e 10BD     		pop	{r4, pc}
 298              		.section	.text.LL_RCC_GetUSARTClockFreq,"ax",%progbits
 299              		.align	1
 300              		.global	LL_RCC_GetUSARTClockFreq
 301              		.syntax unified
 302              		.thumb
 303              		.thumb_func
ARM GAS  /tmp/ccgj4T3J.s 			page 6


 304              		.fpu fpv5-sp-d16
 306              	LL_RCC_GetUSARTClockFreq:
 307              		@ args = 0, pretend = 0, frame = 0
 308              		@ frame_needed = 0, uses_anonymous_args = 0
 309 0000 0328     		cmp	r0, #3
 310 0002 08B5     		push	{r3, lr}
 311 0004 28D1     		bne	.L40
 312 0006 344B     		ldr	r3, .L67
 313 0008 344A     		ldr	r2, .L67+4
 314 000a D3F89030 		ldr	r3, [r3, #144]
 315 000e 03F00303 		and	r3, r3, #3
 316 0012 43F44033 		orr	r3, r3, #196608
 317 0016 9342     		cmp	r3, r2
 318 0018 09D0     		beq	.L41
 319 001a B3F1031F 		cmp	r3, #196611
 320 001e 0CD0     		beq	.L42
 321 0020 013A     		subs	r2, r2, #1
 322              	.L65:
 323 0022 9342     		cmp	r3, r2
 324 0024 10D1     		bne	.L43
 325              	.L47:
 326 0026 BDE80840 		pop	{r3, lr}
 327 002a FFF7FEBF 		b	RCC_GetSystemClockFreq
 328              	.L41:
 329 002e FFF7FEFF 		bl	LL_RCC_HSI_IsReady
 330 0032 0028     		cmp	r0, #0
 331 0034 4ED1     		bne	.L50
 332              	.L45:
 333 0036 0020     		movs	r0, #0
 334              	.L39:
 335 0038 08BD     		pop	{r3, pc}
 336              	.L42:
 337 003a FFF7FEFF 		bl	LL_RCC_LSE_IsReady
 338 003e 0028     		cmp	r0, #0
 339 0040 F9D0     		beq	.L45
 340 0042 4FF40040 		mov	r0, #32768
 341 0046 F7E7     		b	.L39
 342              	.L43:
 343 0048 FFF7FEFF 		bl	RCC_GetSystemClockFreq
 344 004c FFF7FEFF 		bl	RCC_GetHCLKClockFreq
 345 0050 BDE80840 		pop	{r3, lr}
 346 0054 FFF7FEBF 		b	RCC_GetPCLK2ClockFreq
 347              	.L40:
 348 0058 0C28     		cmp	r0, #12
 349 005a 17D1     		bne	.L46
 350 005c 1E4B     		ldr	r3, .L67
 351 005e 204A     		ldr	r2, .L67+8
 352 0060 D3F89030 		ldr	r3, [r3, #144]
 353 0064 03F00C03 		and	r3, r3, #12
 354 0068 43F44023 		orr	r3, r3, #786432
 355 006c 9342     		cmp	r3, r2
 356 006e DED0     		beq	.L41
 357 0070 B3F10C1F 		cmp	r3, #786444
 358 0074 E1D0     		beq	.L42
 359 0076 043A     		subs	r2, r2, #4
 360              	.L66:
 361 0078 9342     		cmp	r3, r2
ARM GAS  /tmp/ccgj4T3J.s 			page 7


 362 007a D4D0     		beq	.L47
 363 007c FFF7FEFF 		bl	RCC_GetSystemClockFreq
 364 0080 FFF7FEFF 		bl	RCC_GetHCLKClockFreq
 365 0084 BDE80840 		pop	{r3, lr}
 366 0088 FFF7FEBF 		b	RCC_GetPCLK1ClockFreq
 367              	.L46:
 368 008c B0F5406F 		cmp	r0, #3072
 369 0090 0FD1     		bne	.L48
 370 0092 114B     		ldr	r3, .L67
 371 0094 134A     		ldr	r2, .L67+12
 372 0096 D3F89030 		ldr	r3, [r3, #144]
 373 009a 03F44063 		and	r3, r3, #3072
 374 009e 43F04063 		orr	r3, r3, #201326592
 375 00a2 9342     		cmp	r3, r2
 376 00a4 C3D0     		beq	.L41
 377 00a6 B3F10C2F 		cmp	r3, #201329664
 378 00aa C6D0     		beq	.L42
 379 00ac A2F58062 		sub	r2, r2, #1024
 380 00b0 B7E7     		b	.L65
 381              	.L48:
 382 00b2 3028     		cmp	r0, #48
 383 00b4 BFD1     		bne	.L45
 384 00b6 084B     		ldr	r3, .L67
 385 00b8 0B4A     		ldr	r2, .L67+16
 386 00ba D3F89030 		ldr	r3, [r3, #144]
 387 00be 03F03003 		and	r3, r3, #48
 388 00c2 43F44013 		orr	r3, r3, #3145728
 389 00c6 9342     		cmp	r3, r2
 390 00c8 B1D0     		beq	.L41
 391 00ca B3F1301F 		cmp	r3, #3145776
 392 00ce B4D0     		beq	.L42
 393 00d0 103A     		subs	r2, r2, #16
 394 00d2 D1E7     		b	.L66
 395              	.L50:
 396 00d4 0548     		ldr	r0, .L67+20
 397 00d6 AFE7     		b	.L39
 398              	.L68:
 399              		.align	2
 400              	.L67:
 401 00d8 00380240 		.word	1073887232
 402 00dc 02000300 		.word	196610
 403 00e0 08000C00 		.word	786440
 404 00e4 0008000C 		.word	201328640
 405 00e8 20003000 		.word	3145760
 406 00ec 0024F400 		.word	16000000
 408              		.section	.text.LL_RCC_GetUARTClockFreq,"ax",%progbits
 409              		.align	1
 410              		.global	LL_RCC_GetUARTClockFreq
 411              		.syntax unified
 412              		.thumb
 413              		.thumb_func
 414              		.fpu fpv5-sp-d16
 416              	LL_RCC_GetUARTClockFreq:
 417              		@ args = 0, pretend = 0, frame = 0
 418              		@ frame_needed = 0, uses_anonymous_args = 0
 419 0000 C028     		cmp	r0, #192
 420 0002 08B5     		push	{r3, lr}
ARM GAS  /tmp/ccgj4T3J.s 			page 8


 421 0004 28D1     		bne	.L70
 422 0006 324B     		ldr	r3, .L97
 423 0008 324A     		ldr	r2, .L97+4
 424 000a D3F89030 		ldr	r3, [r3, #144]
 425 000e 03F0C003 		and	r3, r3, #192
 426 0012 43F44003 		orr	r3, r3, #12582912
 427 0016 9342     		cmp	r3, r2
 428 0018 09D0     		beq	.L71
 429 001a B3F1C01F 		cmp	r3, #12583104
 430 001e 0CD0     		beq	.L72
 431 0020 403A     		subs	r2, r2, #64
 432              	.L94:
 433 0022 9342     		cmp	r3, r2
 434 0024 10D1     		bne	.L73
 435 0026 BDE80840 		pop	{r3, lr}
 436 002a FFF7FEBF 		b	RCC_GetSystemClockFreq
 437              	.L71:
 438 002e FFF7FEFF 		bl	LL_RCC_HSI_IsReady
 439 0032 0028     		cmp	r0, #0
 440 0034 49D1     		bne	.L79
 441              	.L75:
 442 0036 0020     		movs	r0, #0
 443              	.L69:
 444 0038 08BD     		pop	{r3, pc}
 445              	.L72:
 446 003a FFF7FEFF 		bl	LL_RCC_LSE_IsReady
 447 003e 0028     		cmp	r0, #0
 448 0040 F9D0     		beq	.L75
 449 0042 4FF40040 		mov	r0, #32768
 450 0046 F7E7     		b	.L69
 451              	.L73:
 452 0048 FFF7FEFF 		bl	RCC_GetSystemClockFreq
 453 004c FFF7FEFF 		bl	RCC_GetHCLKClockFreq
 454 0050 BDE80840 		pop	{r3, lr}
 455 0054 FFF7FEBF 		b	RCC_GetPCLK1ClockFreq
 456              	.L70:
 457 0058 B0F5407F 		cmp	r0, #768
 458 005c 0FD1     		bne	.L76
 459 005e 1C4B     		ldr	r3, .L97
 460 0060 1D4A     		ldr	r2, .L97+8
 461 0062 D3F89030 		ldr	r3, [r3, #144]
 462 0066 03F44073 		and	r3, r3, #768
 463 006a 43F04073 		orr	r3, r3, #50331648
 464 006e 9342     		cmp	r3, r2
 465 0070 DDD0     		beq	.L71
 466 0072 B3F1032F 		cmp	r3, #50332416
 467 0076 E0D0     		beq	.L72
 468 0078 A2F58072 		sub	r2, r2, #256
 469 007c D1E7     		b	.L94
 470              	.L76:
 471 007e B0F5405F 		cmp	r0, #12288
 472 0082 0FD1     		bne	.L78
 473 0084 124B     		ldr	r3, .L97
 474 0086 154A     		ldr	r2, .L97+12
 475 0088 D3F89030 		ldr	r3, [r3, #144]
 476 008c 03F44053 		and	r3, r3, #12288
 477 0090 43F04053 		orr	r3, r3, #805306368
ARM GAS  /tmp/ccgj4T3J.s 			page 9


 478 0094 9342     		cmp	r3, r2
 479 0096 CAD0     		beq	.L71
 480 0098 B3F1302F 		cmp	r3, #805318656
 481 009c CDD0     		beq	.L72
 482 009e A2F58052 		sub	r2, r2, #4096
 483 00a2 BEE7     		b	.L94
 484              	.L78:
 485 00a4 B0F5404F 		cmp	r0, #49152
 486 00a8 C5D1     		bne	.L75
 487 00aa 094B     		ldr	r3, .L97
 488 00ac 0C4A     		ldr	r2, .L97+16
 489 00ae D3F89030 		ldr	r3, [r3, #144]
 490 00b2 03F44043 		and	r3, r3, #49152
 491 00b6 43F04043 		orr	r3, r3, #-1073741824
 492 00ba 9342     		cmp	r3, r2
 493 00bc B7D0     		beq	.L71
 494 00be B3F1C02F 		cmp	r3, #-1073692672
 495 00c2 BAD0     		beq	.L72
 496 00c4 A2F58042 		sub	r2, r2, #16384
 497 00c8 ABE7     		b	.L94
 498              	.L79:
 499 00ca 0648     		ldr	r0, .L97+20
 500 00cc B4E7     		b	.L69
 501              	.L98:
 502 00ce 00BF     		.align	2
 503              	.L97:
 504 00d0 00380240 		.word	1073887232
 505 00d4 8000C000 		.word	12583040
 506 00d8 00020003 		.word	50332160
 507 00dc 00200030 		.word	805314560
 508 00e0 008000C0 		.word	-1073709056
 509 00e4 0024F400 		.word	16000000
 511              		.section	.text.LL_RCC_GetI2CClockFreq,"ax",%progbits
 512              		.align	1
 513              		.global	LL_RCC_GetI2CClockFreq
 514              		.syntax unified
 515              		.thumb
 516              		.thumb_func
 517              		.fpu fpv5-sp-d16
 519              	LL_RCC_GetI2CClockFreq:
 520              		@ args = 0, pretend = 0, frame = 0
 521              		@ frame_needed = 0, uses_anonymous_args = 0
 522 0000 B0F5403F 		cmp	r0, #196608
 523 0004 08B5     		push	{r3, lr}
 524 0006 1DD1     		bne	.L100
 525 0008 1F4B     		ldr	r3, .L112
 526 000a 204A     		ldr	r2, .L112+4
 527 000c D3F89030 		ldr	r3, [r3, #144]
 528 0010 C3F30143 		ubfx	r3, r3, #16, #2
 529 0014 43F44033 		orr	r3, r3, #196608
 530 0018 9342     		cmp	r3, r2
 531 001a 0AD0     		beq	.L101
 532 001c 0132     		adds	r2, r2, #1
 533              	.L111:
 534 001e 9342     		cmp	r3, r2
 535 0020 0BD0     		beq	.L102
 536 0022 FFF7FEFF 		bl	RCC_GetSystemClockFreq
ARM GAS  /tmp/ccgj4T3J.s 			page 10


 537 0026 FFF7FEFF 		bl	RCC_GetHCLKClockFreq
 538 002a BDE80840 		pop	{r3, lr}
 539 002e FFF7FEBF 		b	RCC_GetPCLK1ClockFreq
 540              	.L101:
 541 0032 BDE80840 		pop	{r3, lr}
 542 0036 FFF7FEBF 		b	RCC_GetSystemClockFreq
 543              	.L102:
 544 003a FFF7FEFF 		bl	LL_RCC_HSI_IsReady
 545 003e 08BB     		cbnz	r0, .L107
 546              	.L106:
 547 0040 0020     		movs	r0, #0
 548              	.L99:
 549 0042 08BD     		pop	{r3, pc}
 550              	.L100:
 551 0044 B0F5402F 		cmp	r0, #786432
 552 0048 0CD1     		bne	.L105
 553 004a 0F4B     		ldr	r3, .L112
 554 004c 104A     		ldr	r2, .L112+8
 555 004e D3F89030 		ldr	r3, [r3, #144]
 556 0052 1B0C     		lsrs	r3, r3, #16
 557 0054 03F00C03 		and	r3, r3, #12
 558 0058 43F44023 		orr	r3, r3, #786432
 559 005c 9342     		cmp	r3, r2
 560 005e E8D0     		beq	.L101
 561 0060 0432     		adds	r2, r2, #4
 562 0062 DCE7     		b	.L111
 563              	.L105:
 564 0064 B0F5401F 		cmp	r0, #3145728
 565 0068 EAD1     		bne	.L106
 566 006a 074B     		ldr	r3, .L112
 567 006c 094A     		ldr	r2, .L112+12
 568 006e D3F89030 		ldr	r3, [r3, #144]
 569 0072 1B0C     		lsrs	r3, r3, #16
 570 0074 03F03003 		and	r3, r3, #48
 571 0078 43F44013 		orr	r3, r3, #3145728
 572 007c 9342     		cmp	r3, r2
 573 007e D8D0     		beq	.L101
 574 0080 1032     		adds	r2, r2, #16
 575 0082 CCE7     		b	.L111
 576              	.L107:
 577 0084 0448     		ldr	r0, .L112+16
 578 0086 DCE7     		b	.L99
 579              	.L113:
 580              		.align	2
 581              	.L112:
 582 0088 00380240 		.word	1073887232
 583 008c 01000300 		.word	196609
 584 0090 04000C00 		.word	786436
 585 0094 10003000 		.word	3145744
 586 0098 0024F400 		.word	16000000
 588              		.section	.text.LL_RCC_GetLPTIMClockFreq,"ax",%progbits
 589              		.align	1
 590              		.global	LL_RCC_GetLPTIMClockFreq
 591              		.syntax unified
 592              		.thumb
 593              		.thumb_func
 594              		.fpu fpv5-sp-d16
ARM GAS  /tmp/ccgj4T3J.s 			page 11


 596              	LL_RCC_GetLPTIMClockFreq:
 597              		@ args = 0, pretend = 0, frame = 0
 598              		@ frame_needed = 0, uses_anonymous_args = 0
 599 0000 B0F1407F 		cmp	r0, #50331648
 600 0004 08B5     		push	{r3, lr}
 601 0006 01D0     		beq	.L115
 602              	.L120:
 603 0008 0020     		movs	r0, #0
 604              	.L114:
 605 000a 08BD     		pop	{r3, pc}
 606              	.L115:
 607 000c 144A     		ldr	r2, .L124
 608 000e D2F89030 		ldr	r3, [r2, #144]
 609 0012 03F04073 		and	r3, r3, #50331648
 610 0016 B3F1007F 		cmp	r3, #33554432
 611 001a 0BD0     		beq	.L117
 612 001c B3F1407F 		cmp	r3, #50331648
 613 0020 0ED0     		beq	.L118
 614 0022 B3F1807F 		cmp	r3, #16777216
 615 0026 12D1     		bne	.L119
 616 0028 536F     		ldr	r3, [r2, #116]
 617 002a 9B07     		lsls	r3, r3, #30
 618 002c ECD5     		bpl	.L120
 619 002e 4FF4FA40 		mov	r0, #32000
 620 0032 EAE7     		b	.L114
 621              	.L117:
 622 0034 FFF7FEFF 		bl	LL_RCC_HSI_IsReady
 623 0038 0028     		cmp	r0, #0
 624 003a E5D0     		beq	.L120
 625 003c 0948     		ldr	r0, .L124+4
 626 003e E4E7     		b	.L114
 627              	.L118:
 628 0040 FFF7FEFF 		bl	LL_RCC_LSE_IsReady
 629 0044 0028     		cmp	r0, #0
 630 0046 DFD0     		beq	.L120
 631 0048 4FF40040 		mov	r0, #32768
 632 004c DDE7     		b	.L114
 633              	.L119:
 634 004e FFF7FEFF 		bl	RCC_GetSystemClockFreq
 635 0052 FFF7FEFF 		bl	RCC_GetHCLKClockFreq
 636 0056 BDE80840 		pop	{r3, lr}
 637 005a FFF7FEBF 		b	RCC_GetPCLK1ClockFreq
 638              	.L125:
 639 005e 00BF     		.align	2
 640              	.L124:
 641 0060 00380240 		.word	1073887232
 642 0064 0024F400 		.word	16000000
 644              		.section	.text.RCC_PLL_GetFreqDomain_48M,"ax",%progbits
 645              		.align	1
 646              		.global	RCC_PLL_GetFreqDomain_48M
 647              		.syntax unified
 648              		.thumb
 649              		.thumb_func
 650              		.fpu fpv5-sp-d16
 652              	RCC_PLL_GetFreqDomain_48M:
 653              		@ args = 0, pretend = 0, frame = 0
 654              		@ frame_needed = 0, uses_anonymous_args = 0
ARM GAS  /tmp/ccgj4T3J.s 			page 12


 655 0000 0B4A     		ldr	r2, .L129
 656 0002 0C48     		ldr	r0, .L129+4
 657 0004 5368     		ldr	r3, [r2, #4]
 658 0006 10B5     		push	{r4, lr}
 659 0008 13F4800F 		tst	r3, #4194304
 660 000c 5468     		ldr	r4, [r2, #4]
 661 000e 0A4B     		ldr	r3, .L129+8
 662 0010 5168     		ldr	r1, [r2, #4]
 663 0012 18BF     		it	ne
 664 0014 0346     		movne	r3, r0
 665 0016 5068     		ldr	r0, [r2, #4]
 666 0018 04F03F02 		and	r2, r4, #63
 667 001c B3FBF2F3 		udiv	r3, r3, r2
 668 0020 C1F38812 		ubfx	r2, r1, #6, #9
 669 0024 C0F30360 		ubfx	r0, r0, #24, #4
 670 0028 5343     		muls	r3, r2, r3
 671 002a B3FBF0F0 		udiv	r0, r3, r0
 672 002e 10BD     		pop	{r4, pc}
 673              	.L130:
 674              		.align	2
 675              	.L129:
 676 0030 00380240 		.word	1073887232
 677 0034 00127A00 		.word	8000000
 678 0038 0024F400 		.word	16000000
 680              		.section	.text.RCC_PLLSAI_GetFreqDomain_SAI,"ax",%progbits
 681              		.align	1
 682              		.global	RCC_PLLSAI_GetFreqDomain_SAI
 683              		.syntax unified
 684              		.thumb
 685              		.thumb_func
 686              		.fpu fpv5-sp-d16
 688              	RCC_PLLSAI_GetFreqDomain_SAI:
 689              		@ args = 0, pretend = 0, frame = 0
 690              		@ frame_needed = 0, uses_anonymous_args = 0
 691 0000 0F4A     		ldr	r2, .L134
 692 0002 1048     		ldr	r0, .L134+4
 693 0004 5368     		ldr	r3, [r2, #4]
 694 0006 10B5     		push	{r4, lr}
 695 0008 13F4800F 		tst	r3, #4194304
 696 000c 5468     		ldr	r4, [r2, #4]
 697 000e 0E4B     		ldr	r3, .L134+8
 698 0010 04F03F04 		and	r4, r4, #63
 699 0014 18BF     		it	ne
 700 0016 0346     		movne	r3, r0
 701 0018 D2F88810 		ldr	r1, [r2, #136]
 702 001c D2F88800 		ldr	r0, [r2, #136]
 703 0020 D2F88C20 		ldr	r2, [r2, #140]
 704 0024 C1F38811 		ubfx	r1, r1, #6, #9
 705 0028 C0F30360 		ubfx	r0, r0, #24, #4
 706 002c C2F30422 		ubfx	r2, r2, #8, #5
 707 0030 B3FBF4F3 		udiv	r3, r3, r4
 708 0034 02FB0000 		mla	r0, r2, r0, r0
 709 0038 4B43     		muls	r3, r1, r3
 710 003a B3FBF0F0 		udiv	r0, r3, r0
 711 003e 10BD     		pop	{r4, pc}
 712              	.L135:
 713              		.align	2
ARM GAS  /tmp/ccgj4T3J.s 			page 13


 714              	.L134:
 715 0040 00380240 		.word	1073887232
 716 0044 00127A00 		.word	8000000
 717 0048 0024F400 		.word	16000000
 719              		.section	.text.RCC_PLLSAI_GetFreqDomain_48M,"ax",%progbits
 720              		.align	1
 721              		.global	RCC_PLLSAI_GetFreqDomain_48M
 722              		.syntax unified
 723              		.thumb
 724              		.thumb_func
 725              		.fpu fpv5-sp-d16
 727              	RCC_PLLSAI_GetFreqDomain_48M:
 728              		@ args = 0, pretend = 0, frame = 0
 729              		@ frame_needed = 0, uses_anonymous_args = 0
 730              		@ link register save eliminated.
 731 0000 0D4B     		ldr	r3, .L139
 732 0002 0E48     		ldr	r0, .L139+4
 733 0004 5A68     		ldr	r2, [r3, #4]
 734 0006 5968     		ldr	r1, [r3, #4]
 735 0008 12F4800F 		tst	r2, #4194304
 736 000c 0C4A     		ldr	r2, .L139+8
 737 000e 01F03F01 		and	r1, r1, #63
 738 0012 18BF     		it	ne
 739 0014 1046     		movne	r0, r2
 740 0016 D3F88820 		ldr	r2, [r3, #136]
 741 001a D3F88830 		ldr	r3, [r3, #136]
 742 001e C2F38812 		ubfx	r2, r2, #6, #9
 743 0022 C3F30143 		ubfx	r3, r3, #16, #2
 744 0026 B0FBF1F0 		udiv	r0, r0, r1
 745 002a 0133     		adds	r3, r3, #1
 746 002c 5043     		muls	r0, r2, r0
 747 002e 5B00     		lsls	r3, r3, #1
 748 0030 B0FBF3F0 		udiv	r0, r0, r3
 749 0034 7047     		bx	lr
 750              	.L140:
 751 0036 00BF     		.align	2
 752              	.L139:
 753 0038 00380240 		.word	1073887232
 754 003c 0024F400 		.word	16000000
 755 0040 00127A00 		.word	8000000
 757              		.section	.text.LL_RCC_GetSDMMCClockFreq,"ax",%progbits
 758              		.align	1
 759              		.global	LL_RCC_GetSDMMCClockFreq
 760              		.syntax unified
 761              		.thumb
 762              		.thumb_func
 763              		.fpu fpv5-sp-d16
 765              	LL_RCC_GetSDMMCClockFreq:
 766              		@ args = 0, pretend = 0, frame = 0
 767              		@ frame_needed = 0, uses_anonymous_args = 0
 768              		@ link register save eliminated.
 769 0000 0F4B     		ldr	r3, .L158
 770 0002 B0F1805F 		cmp	r0, #268435456
 771 0006 D3F89020 		ldr	r2, [r3, #144]
 772 000a 0ED1     		bne	.L142
 773 000c D200     		lsls	r2, r2, #3
 774 000e 12D4     		bmi	.L143
ARM GAS  /tmp/ccgj4T3J.s 			page 14


 775              	.L157:
 776 0010 D3F89020 		ldr	r2, [r3, #144]
 777 0014 1B68     		ldr	r3, [r3]
 778 0016 1201     		lsls	r2, r2, #4
 779 0018 03D4     		bmi	.L144
 780 001a 9801     		lsls	r0, r3, #6
 781 001c 0DD5     		bpl	.L141
 782 001e FFF7FEBF 		b	RCC_PLL_GetFreqDomain_48M
 783              	.L144:
 784 0022 9900     		lsls	r1, r3, #2
 785 0024 09D5     		bpl	.L141
 786 0026 FFF7FEBF 		b	RCC_PLLSAI_GetFreqDomain_48M
 787              	.L142:
 788 002a 0240     		ands	r2, r2, r0
 789 002c 40EA1240 		orr	r0, r0, r2, lsr #16
 790 0030 B0F1005F 		cmp	r0, #536870912
 791 0034 ECD0     		beq	.L157
 792              	.L143:
 793 0036 FFF7FEBF 		b	RCC_GetSystemClockFreq
 794              	.L141:
 795 003a 0020     		movs	r0, #0
 796 003c 7047     		bx	lr
 797              	.L159:
 798 003e 00BF     		.align	2
 799              	.L158:
 800 0040 00380240 		.word	1073887232
 802              		.section	.text.LL_RCC_GetRNGClockFreq,"ax",%progbits
 803              		.align	1
 804              		.global	LL_RCC_GetRNGClockFreq
 805              		.syntax unified
 806              		.thumb
 807              		.thumb_func
 808              		.fpu fpv5-sp-d16
 810              	LL_RCC_GetRNGClockFreq:
 811              		@ args = 0, pretend = 0, frame = 0
 812              		@ frame_needed = 0, uses_anonymous_args = 0
 813              		@ link register save eliminated.
 814 0000 074B     		ldr	r3, .L169
 815 0002 D3F89020 		ldr	r2, [r3, #144]
 816 0006 1B68     		ldr	r3, [r3]
 817 0008 1042     		tst	r0, r2
 818 000a 03D1     		bne	.L161
 819 000c 9A01     		lsls	r2, r3, #6
 820 000e 05D5     		bpl	.L160
 821 0010 FFF7FEBF 		b	RCC_PLL_GetFreqDomain_48M
 822              	.L161:
 823 0014 9B00     		lsls	r3, r3, #2
 824 0016 01D5     		bpl	.L160
 825 0018 FFF7FEBF 		b	RCC_PLLSAI_GetFreqDomain_48M
 826              	.L160:
 827 001c 0020     		movs	r0, #0
 828 001e 7047     		bx	lr
 829              	.L170:
 830              		.align	2
 831              	.L169:
 832 0020 00380240 		.word	1073887232
 834              		.section	.text.LL_RCC_GetUSBClockFreq,"ax",%progbits
ARM GAS  /tmp/ccgj4T3J.s 			page 15


 835              		.align	1
 836              		.global	LL_RCC_GetUSBClockFreq
 837              		.syntax unified
 838              		.thumb
 839              		.thumb_func
 840              		.fpu fpv5-sp-d16
 842              	LL_RCC_GetUSBClockFreq:
 843              		@ args = 0, pretend = 0, frame = 0
 844              		@ frame_needed = 0, uses_anonymous_args = 0
 845              		@ link register save eliminated.
 846 0000 FFF7FEBF 		b	LL_RCC_GetRNGClockFreq
 848              		.section	.text.RCC_PLLI2S_GetFreqDomain_SAI,"ax",%progbits
 849              		.align	1
 850              		.global	RCC_PLLI2S_GetFreqDomain_SAI
 851              		.syntax unified
 852              		.thumb
 853              		.thumb_func
 854              		.fpu fpv5-sp-d16
 856              	RCC_PLLI2S_GetFreqDomain_SAI:
 857              		@ args = 0, pretend = 0, frame = 0
 858              		@ frame_needed = 0, uses_anonymous_args = 0
 859 0000 0F4A     		ldr	r2, .L175
 860 0002 1048     		ldr	r0, .L175+4
 861 0004 5368     		ldr	r3, [r2, #4]
 862 0006 10B5     		push	{r4, lr}
 863 0008 13F4800F 		tst	r3, #4194304
 864 000c 5468     		ldr	r4, [r2, #4]
 865 000e 0E4B     		ldr	r3, .L175+8
 866 0010 04F03F04 		and	r4, r4, #63
 867 0014 18BF     		it	ne
 868 0016 0346     		movne	r3, r0
 869 0018 D2F88410 		ldr	r1, [r2, #132]
 870 001c D2F88400 		ldr	r0, [r2, #132]
 871 0020 D2F88C20 		ldr	r2, [r2, #140]
 872 0024 C1F38811 		ubfx	r1, r1, #6, #9
 873 0028 C0F30360 		ubfx	r0, r0, #24, #4
 874 002c 02F01F02 		and	r2, r2, #31
 875 0030 B3FBF4F3 		udiv	r3, r3, r4
 876 0034 02FB0000 		mla	r0, r2, r0, r0
 877 0038 4B43     		muls	r3, r1, r3
 878 003a B3FBF0F0 		udiv	r0, r3, r0
 879 003e 10BD     		pop	{r4, pc}
 880              	.L176:
 881              		.align	2
 882              	.L175:
 883 0040 00380240 		.word	1073887232
 884 0044 00127A00 		.word	8000000
 885 0048 0024F400 		.word	16000000
 887              		.section	.text.LL_RCC_GetSAIClockFreq,"ax",%progbits
 888              		.align	1
 889              		.global	LL_RCC_GetSAIClockFreq
 890              		.syntax unified
 891              		.thumb
 892              		.thumb_func
 893              		.fpu fpv5-sp-d16
 895              	LL_RCC_GetSAIClockFreq:
 896              		@ args = 0, pretend = 0, frame = 0
ARM GAS  /tmp/ccgj4T3J.s 			page 16


 897              		@ frame_needed = 0, uses_anonymous_args = 0
 898              		@ link register save eliminated.
 899 0000 B0F5401F 		cmp	r0, #3145728
 900 0004 1CD1     		bne	.L178
 901 0006 1B4A     		ldr	r2, .L200
 902 0008 1B49     		ldr	r1, .L200+4
 903 000a D2F88C30 		ldr	r3, [r2, #140]
 904 000e 1B0C     		lsrs	r3, r3, #16
 905 0010 03F03003 		and	r3, r3, #48
 906 0014 43F44013 		orr	r3, r3, #3145728
 907 0018 8B42     		cmp	r3, r1
 908 001a 0BD0     		beq	.L179
 909 001c 1031     		adds	r1, r1, #16
 910 001e 8B42     		cmp	r3, r1
 911 0020 22D0     		beq	.L187
 912 0022 B3F5401F 		cmp	r3, #3145728
 913              	.L199:
 914 0026 22D1     		bne	.L188
 915 0028 1068     		ldr	r0, [r2]
 916 002a 10F00050 		ands	r0, r0, #536870912
 917 002e 1FD0     		beq	.L177
 918 0030 FFF7FEBF 		b	RCC_PLLSAI_GetFreqDomain_SAI
 919              	.L179:
 920 0034 1068     		ldr	r0, [r2]
 921 0036 10F00060 		ands	r0, r0, #134217728
 922 003a 19D0     		beq	.L177
 923 003c FFF7FEBF 		b	RCC_PLLI2S_GetFreqDomain_SAI
 924              	.L178:
 925 0040 B0F5400F 		cmp	r0, #12582912
 926 0044 13D1     		bne	.L188
 927 0046 0B4A     		ldr	r2, .L200
 928 0048 0C49     		ldr	r1, .L200+8
 929 004a D2F88C30 		ldr	r3, [r2, #140]
 930 004e 1B0C     		lsrs	r3, r3, #16
 931 0050 03F0C003 		and	r3, r3, #192
 932 0054 43F44003 		orr	r3, r3, #12582912
 933 0058 8B42     		cmp	r3, r1
 934 005a EBD0     		beq	.L179
 935 005c 4031     		adds	r1, r1, #64
 936 005e 8B42     		cmp	r3, r1
 937 0060 02D0     		beq	.L187
 938 0062 B3F5400F 		cmp	r3, #12582912
 939 0066 DEE7     		b	.L199
 940              	.L187:
 941 0068 4BF68030 		movw	r0, #48000
 942 006c 7047     		bx	lr
 943              	.L188:
 944 006e 0020     		movs	r0, #0
 945              	.L177:
 946 0070 7047     		bx	lr
 947              	.L201:
 948 0072 00BF     		.align	2
 949              	.L200:
 950 0074 00380240 		.word	1073887232
 951 0078 10003000 		.word	3145744
 952 007c 4000C000 		.word	12582976
 954              		.section	.text.RCC_PLLI2S_GetFreqDomain_I2S,"ax",%progbits
ARM GAS  /tmp/ccgj4T3J.s 			page 17


 955              		.align	1
 956              		.global	RCC_PLLI2S_GetFreqDomain_I2S
 957              		.syntax unified
 958              		.thumb
 959              		.thumb_func
 960              		.fpu fpv5-sp-d16
 962              	RCC_PLLI2S_GetFreqDomain_I2S:
 963              		@ args = 0, pretend = 0, frame = 0
 964              		@ frame_needed = 0, uses_anonymous_args = 0
 965 0000 0C4A     		ldr	r2, .L205
 966 0002 0D48     		ldr	r0, .L205+4
 967 0004 5368     		ldr	r3, [r2, #4]
 968 0006 10B5     		push	{r4, lr}
 969 0008 13F4800F 		tst	r3, #4194304
 970 000c 5468     		ldr	r4, [r2, #4]
 971 000e 0B4B     		ldr	r3, .L205+8
 972 0010 D2F88410 		ldr	r1, [r2, #132]
 973 0014 08BF     		it	eq
 974 0016 0346     		moveq	r3, r0
 975 0018 D2F88400 		ldr	r0, [r2, #132]
 976 001c 04F03F02 		and	r2, r4, #63
 977 0020 B3FBF2F3 		udiv	r3, r3, r2
 978 0024 C1F38812 		ubfx	r2, r1, #6, #9
 979 0028 C0F30270 		ubfx	r0, r0, #28, #3
 980 002c 5343     		muls	r3, r2, r3
 981 002e B3FBF0F0 		udiv	r0, r3, r0
 982 0032 10BD     		pop	{r4, pc}
 983              	.L206:
 984              		.align	2
 985              	.L205:
 986 0034 00380240 		.word	1073887232
 987 0038 0024F400 		.word	16000000
 988 003c 00127A00 		.word	8000000
 990              		.section	.text.LL_RCC_GetI2SClockFreq,"ax",%progbits
 991              		.align	1
 992              		.global	LL_RCC_GetI2SClockFreq
 993              		.syntax unified
 994              		.thumb
 995              		.thumb_func
 996              		.fpu fpv5-sp-d16
 998              	LL_RCC_GetI2SClockFreq:
 999              		@ args = 0, pretend = 0, frame = 0
 1000              		@ frame_needed = 0, uses_anonymous_args = 0
 1001              		@ link register save eliminated.
 1002 0000 B0F5000F 		cmp	r0, #8388608
 1003 0004 09D1     		bne	.L209
 1004 0006 074B     		ldr	r3, .L214
 1005 0008 9A68     		ldr	r2, [r3, #8]
 1006 000a 1202     		lsls	r2, r2, #8
 1007 000c 07D4     		bmi	.L210
 1008 000e 1868     		ldr	r0, [r3]
 1009 0010 10F00060 		ands	r0, r0, #134217728
 1010 0014 04D0     		beq	.L207
 1011 0016 FFF7FEBF 		b	RCC_PLLI2S_GetFreqDomain_I2S
 1012              	.L209:
 1013 001a 0020     		movs	r0, #0
 1014 001c 7047     		bx	lr
ARM GAS  /tmp/ccgj4T3J.s 			page 18


 1015              	.L210:
 1016 001e 0248     		ldr	r0, .L214+4
 1017              	.L207:
 1018 0020 7047     		bx	lr
 1019              	.L215:
 1020 0022 00BF     		.align	2
 1021              	.L214:
 1022 0024 00380240 		.word	1073887232
 1023 0028 0080BB00 		.word	12288000
 1025              		.ident	"GCC: (15:10.3-2021.07-4) 10.3.1 20210621 (release)"
ARM GAS  /tmp/ccgj4T3J.s 			page 19

