ARM GAS  /tmp/ccyVcUrL.s 			page 1


   1              		.cpu cortex-m7
   2              		.eabi_attribute 27, 1
   3              		.eabi_attribute 20, 1
   4              		.eabi_attribute 21, 1
   5              		.eabi_attribute 23, 3
   6              		.eabi_attribute 24, 1
   7              		.eabi_attribute 25, 1
   8              		.eabi_attribute 26, 1
   9              		.eabi_attribute 30, 4
  10              		.eabi_attribute 34, 1
  11              		.eabi_attribute 18, 4
  12              		.file	"stm32f7xx_hal_flash.c"
  13              		.text
  14              		.section	.text.FLASH_Program_DoubleWord,"ax",%progbits
  15              		.align	1
  16              		.arch armv7e-m
  17              		.syntax unified
  18              		.thumb
  19              		.thumb_func
  20              		.fpu fpv5-sp-d16
  22              	FLASH_Program_DoubleWord:
  23              		@ args = 0, pretend = 0, frame = 0
  24              		@ frame_needed = 0, uses_anonymous_args = 0
  25 0000 0A49     		ldr	r1, .L2
  26 0002 10B5     		push	{r4, lr}
  27 0004 0C69     		ldr	r4, [r1, #16]
  28 0006 24F44074 		bic	r4, r4, #768
  29 000a 0C61     		str	r4, [r1, #16]
  30 000c 0C69     		ldr	r4, [r1, #16]
  31 000e 44F44074 		orr	r4, r4, #768
  32 0012 0C61     		str	r4, [r1, #16]
  33 0014 0C69     		ldr	r4, [r1, #16]
  34 0016 44F00104 		orr	r4, r4, #1
  35 001a 0C61     		str	r4, [r1, #16]
  36 001c 0260     		str	r2, [r0]
  37              		.syntax unified
  38              	@ 868 "Drivers/CMSIS/Include/cmsis_gcc.h" 1
  39 001e BFF36F8F 		isb 0xF
  40              	@ 0 "" 2
  41              		.thumb
  42              		.syntax unified
  43 0022 4360     		str	r3, [r0, #4]
  44              		.syntax unified
  45              	@ 879 "Drivers/CMSIS/Include/cmsis_gcc.h" 1
  46 0024 BFF34F8F 		dsb 0xF
  47              	@ 0 "" 2
  48              		.thumb
  49              		.syntax unified
  50 0028 10BD     		pop	{r4, pc}
  51              	.L3:
  52 002a 00BF     		.align	2
  53              	.L2:
  54 002c 003C0240 		.word	1073888256
  56              		.section	.text.FLASH_Program_Word,"ax",%progbits
  57              		.align	1
  58              		.syntax unified
  59              		.thumb
ARM GAS  /tmp/ccyVcUrL.s 			page 2


  60              		.thumb_func
  61              		.fpu fpv5-sp-d16
  63              	FLASH_Program_Word:
  64              		@ args = 0, pretend = 0, frame = 0
  65              		@ frame_needed = 0, uses_anonymous_args = 0
  66              		@ link register save eliminated.
  67 0000 084B     		ldr	r3, .L5
  68 0002 1A69     		ldr	r2, [r3, #16]
  69 0004 22F44072 		bic	r2, r2, #768
  70 0008 1A61     		str	r2, [r3, #16]
  71 000a 1A69     		ldr	r2, [r3, #16]
  72 000c 42F40072 		orr	r2, r2, #512
  73 0010 1A61     		str	r2, [r3, #16]
  74 0012 1A69     		ldr	r2, [r3, #16]
  75 0014 42F00102 		orr	r2, r2, #1
  76 0018 1A61     		str	r2, [r3, #16]
  77 001a 0160     		str	r1, [r0]
  78              		.syntax unified
  79              	@ 879 "Drivers/CMSIS/Include/cmsis_gcc.h" 1
  80 001c BFF34F8F 		dsb 0xF
  81              	@ 0 "" 2
  82              		.thumb
  83              		.syntax unified
  84 0020 7047     		bx	lr
  85              	.L6:
  86 0022 00BF     		.align	2
  87              	.L5:
  88 0024 003C0240 		.word	1073888256
  90              		.section	.text.FLASH_Program_HalfWord,"ax",%progbits
  91              		.align	1
  92              		.syntax unified
  93              		.thumb
  94              		.thumb_func
  95              		.fpu fpv5-sp-d16
  97              	FLASH_Program_HalfWord:
  98              		@ args = 0, pretend = 0, frame = 0
  99              		@ frame_needed = 0, uses_anonymous_args = 0
 100              		@ link register save eliminated.
 101 0000 084B     		ldr	r3, .L8
 102 0002 1A69     		ldr	r2, [r3, #16]
 103 0004 22F44072 		bic	r2, r2, #768
 104 0008 1A61     		str	r2, [r3, #16]
 105 000a 1A69     		ldr	r2, [r3, #16]
 106 000c 42F48072 		orr	r2, r2, #256
 107 0010 1A61     		str	r2, [r3, #16]
 108 0012 1A69     		ldr	r2, [r3, #16]
 109 0014 42F00102 		orr	r2, r2, #1
 110 0018 1A61     		str	r2, [r3, #16]
 111 001a 0180     		strh	r1, [r0]	@ movhi
 112              		.syntax unified
 113              	@ 879 "Drivers/CMSIS/Include/cmsis_gcc.h" 1
 114 001c BFF34F8F 		dsb 0xF
 115              	@ 0 "" 2
 116              		.thumb
 117              		.syntax unified
 118 0020 7047     		bx	lr
 119              	.L9:
ARM GAS  /tmp/ccyVcUrL.s 			page 3


 120 0022 00BF     		.align	2
 121              	.L8:
 122 0024 003C0240 		.word	1073888256
 124              		.section	.text.FLASH_Program_Byte,"ax",%progbits
 125              		.align	1
 126              		.syntax unified
 127              		.thumb
 128              		.thumb_func
 129              		.fpu fpv5-sp-d16
 131              	FLASH_Program_Byte:
 132              		@ args = 0, pretend = 0, frame = 0
 133              		@ frame_needed = 0, uses_anonymous_args = 0
 134              		@ link register save eliminated.
 135 0000 074B     		ldr	r3, .L11
 136 0002 1A69     		ldr	r2, [r3, #16]
 137 0004 22F44072 		bic	r2, r2, #768
 138 0008 1A61     		str	r2, [r3, #16]
 139 000a 1A69     		ldr	r2, [r3, #16]
 140 000c 1A61     		str	r2, [r3, #16]
 141 000e 1A69     		ldr	r2, [r3, #16]
 142 0010 42F00102 		orr	r2, r2, #1
 143 0014 1A61     		str	r2, [r3, #16]
 144 0016 0170     		strb	r1, [r0]
 145              		.syntax unified
 146              	@ 879 "Drivers/CMSIS/Include/cmsis_gcc.h" 1
 147 0018 BFF34F8F 		dsb 0xF
 148              	@ 0 "" 2
 149              		.thumb
 150              		.syntax unified
 151 001c 7047     		bx	lr
 152              	.L12:
 153 001e 00BF     		.align	2
 154              	.L11:
 155 0020 003C0240 		.word	1073888256
 157              		.section	.text.FLASH_SetErrorCode,"ax",%progbits
 158              		.align	1
 159              		.syntax unified
 160              		.thumb
 161              		.thumb_func
 162              		.fpu fpv5-sp-d16
 164              	FLASH_SetErrorCode:
 165              		@ args = 0, pretend = 0, frame = 0
 166              		@ frame_needed = 0, uses_anonymous_args = 0
 167              		@ link register save eliminated.
 168 0000 1B4A     		ldr	r2, .L38
 169 0002 D368     		ldr	r3, [r2, #12]
 170 0004 9907     		lsls	r1, r3, #30
 171 0006 04D5     		bpl	.L14
 172 0008 1A49     		ldr	r1, .L38+4
 173 000a 8B69     		ldr	r3, [r1, #24]
 174 000c 43F02003 		orr	r3, r3, #32
 175 0010 8B61     		str	r3, [r1, #24]
 176              	.L14:
 177 0012 D368     		ldr	r3, [r2, #12]
 178 0014 DA06     		lsls	r2, r3, #27
 179 0016 04D5     		bpl	.L15
 180 0018 164A     		ldr	r2, .L38+4
ARM GAS  /tmp/ccyVcUrL.s 			page 4


 181 001a 9369     		ldr	r3, [r2, #24]
 182 001c 43F01003 		orr	r3, r3, #16
 183 0020 9361     		str	r3, [r2, #24]
 184              	.L15:
 185 0022 134A     		ldr	r2, .L38
 186 0024 D368     		ldr	r3, [r2, #12]
 187 0026 9B06     		lsls	r3, r3, #26
 188 0028 04D5     		bpl	.L16
 189 002a 1249     		ldr	r1, .L38+4
 190 002c 8B69     		ldr	r3, [r1, #24]
 191 002e 43F00803 		orr	r3, r3, #8
 192 0032 8B61     		str	r3, [r1, #24]
 193              	.L16:
 194 0034 D368     		ldr	r3, [r2, #12]
 195 0036 5806     		lsls	r0, r3, #25
 196 0038 04D5     		bpl	.L17
 197 003a 0E4A     		ldr	r2, .L38+4
 198 003c 9369     		ldr	r3, [r2, #24]
 199 003e 43F00403 		orr	r3, r3, #4
 200 0042 9361     		str	r3, [r2, #24]
 201              	.L17:
 202 0044 0A4A     		ldr	r2, .L38
 203 0046 D368     		ldr	r3, [r2, #12]
 204 0048 1906     		lsls	r1, r3, #24
 205 004a 04D5     		bpl	.L18
 206 004c 0949     		ldr	r1, .L38+4
 207 004e 8B69     		ldr	r3, [r1, #24]
 208 0050 43F00203 		orr	r3, r3, #2
 209 0054 8B61     		str	r3, [r1, #24]
 210              	.L18:
 211 0056 D368     		ldr	r3, [r2, #12]
 212 0058 DB05     		lsls	r3, r3, #23
 213 005a 04D5     		bpl	.L19
 214 005c 054A     		ldr	r2, .L38+4
 215 005e 9369     		ldr	r3, [r2, #24]
 216 0060 43F04003 		orr	r3, r3, #64
 217 0064 9361     		str	r3, [r2, #24]
 218              	.L19:
 219 0066 024B     		ldr	r3, .L38
 220 0068 4FF4F972 		mov	r2, #498
 221 006c DA60     		str	r2, [r3, #12]
 222 006e 7047     		bx	lr
 223              	.L39:
 224              		.align	2
 225              	.L38:
 226 0070 003C0240 		.word	1073888256
 227 0074 00000000 		.word	.LANCHOR0
 229              		.section	.text.HAL_FLASH_Program_IT,"ax",%progbits
 230              		.align	1
 231              		.global	HAL_FLASH_Program_IT
 232              		.syntax unified
 233              		.thumb
 234              		.thumb_func
 235              		.fpu fpv5-sp-d16
 237              	HAL_FLASH_Program_IT:
 238              		@ args = 0, pretend = 0, frame = 0
 239              		@ frame_needed = 0, uses_anonymous_args = 0
ARM GAS  /tmp/ccyVcUrL.s 			page 5


 240 0000 70B5     		push	{r4, r5, r6, lr}
 241 0002 174D     		ldr	r5, .L49
 242 0004 0446     		mov	r4, r0
 243 0006 0846     		mov	r0, r1
 244 0008 297D     		ldrb	r1, [r5, #20]	@ zero_extendqisi2
 245 000a 0129     		cmp	r1, #1
 246 000c 25D0     		beq	.L47
 247 000e 0121     		movs	r1, #1
 248 0010 2975     		strb	r1, [r5, #20]
 249 0012 1449     		ldr	r1, .L49+4
 250 0014 0E69     		ldr	r6, [r1, #16]
 251 0016 46F08076 		orr	r6, r6, #16777216
 252 001a 0E61     		str	r6, [r1, #16]
 253 001c 0E69     		ldr	r6, [r1, #16]
 254 001e 46F00076 		orr	r6, r6, #33554432
 255 0022 0E61     		str	r6, [r1, #16]
 256 0024 F326     		movs	r6, #243
 257 0026 CE60     		str	r6, [r1, #12]
 258 0028 0321     		movs	r1, #3
 259 002a 2970     		strb	r1, [r5]
 260 002c 2861     		str	r0, [r5, #16]
 261 002e 032C     		cmp	r4, #3
 262 0030 06D8     		bhi	.L48
 263 0032 DFE804F0 		tbb	[pc, r4]
 264              	.L43:
 265 0036 02       		.byte	(.L46-.L43)/2
 266 0037 07       		.byte	(.L45-.L43)/2
 267 0038 0B       		.byte	(.L44-.L43)/2
 268 0039 0F       		.byte	(.L42-.L43)/2
 269              		.p2align 1
 270              	.L46:
 271 003a D1B2     		uxtb	r1, r2
 272 003c FFF7FEFF 		bl	FLASH_Program_Byte
 273              	.L48:
 274 0040 0020     		movs	r0, #0
 275 0042 0BE0     		b	.L41
 276              	.L45:
 277 0044 91B2     		uxth	r1, r2
 278 0046 FFF7FEFF 		bl	FLASH_Program_HalfWord
 279 004a F9E7     		b	.L48
 280              	.L44:
 281 004c 1146     		mov	r1, r2
 282 004e FFF7FEFF 		bl	FLASH_Program_Word
 283 0052 F5E7     		b	.L48
 284              	.L42:
 285 0054 FFF7FEFF 		bl	FLASH_Program_DoubleWord
 286 0058 F2E7     		b	.L48
 287              	.L47:
 288 005a 0220     		movs	r0, #2
 289              	.L41:
 290 005c 70BD     		pop	{r4, r5, r6, pc}
 291              	.L50:
 292 005e 00BF     		.align	2
 293              	.L49:
 294 0060 00000000 		.word	.LANCHOR0
 295 0064 003C0240 		.word	1073888256
 297              		.section	.text.HAL_FLASH_EndOfOperationCallback,"ax",%progbits
ARM GAS  /tmp/ccyVcUrL.s 			page 6


 298              		.align	1
 299              		.weak	HAL_FLASH_EndOfOperationCallback
 300              		.syntax unified
 301              		.thumb
 302              		.thumb_func
 303              		.fpu fpv5-sp-d16
 305              	HAL_FLASH_EndOfOperationCallback:
 306              		@ args = 0, pretend = 0, frame = 0
 307              		@ frame_needed = 0, uses_anonymous_args = 0
 308              		@ link register save eliminated.
 309 0000 7047     		bx	lr
 311              		.section	.text.HAL_FLASH_OperationErrorCallback,"ax",%progbits
 312              		.align	1
 313              		.weak	HAL_FLASH_OperationErrorCallback
 314              		.syntax unified
 315              		.thumb
 316              		.thumb_func
 317              		.fpu fpv5-sp-d16
 319              	HAL_FLASH_OperationErrorCallback:
 320              		@ args = 0, pretend = 0, frame = 0
 321              		@ frame_needed = 0, uses_anonymous_args = 0
 322              		@ link register save eliminated.
 323 0000 7047     		bx	lr
 325              		.section	.text.HAL_FLASH_IRQHandler,"ax",%progbits
 326              		.align	1
 327              		.global	HAL_FLASH_IRQHandler
 328              		.syntax unified
 329              		.thumb
 330              		.thumb_func
 331              		.fpu fpv5-sp-d16
 333              	HAL_FLASH_IRQHandler:
 334              		@ args = 0, pretend = 0, frame = 0
 335              		@ frame_needed = 0, uses_anonymous_args = 0
 336 0000 364B     		ldr	r3, .L71
 337 0002 1A69     		ldr	r2, [r3, #16]
 338 0004 22F00102 		bic	r2, r2, #1
 339 0008 70B5     		push	{r4, r5, r6, lr}
 340 000a 1A61     		str	r2, [r3, #16]
 341 000c 1A69     		ldr	r2, [r3, #16]
 342 000e 344D     		ldr	r5, .L71+4
 343 0010 22F00202 		bic	r2, r2, #2
 344 0014 1A61     		str	r2, [r3, #16]
 345 0016 1A69     		ldr	r2, [r3, #16]
 346 0018 22F0F802 		bic	r2, r2, #248
 347 001c 1A61     		str	r2, [r3, #16]
 348 001e 1A69     		ldr	r2, [r3, #16]
 349 0020 22F00402 		bic	r2, r2, #4
 350 0024 1A61     		str	r2, [r3, #16]
 351 0026 DC68     		ldr	r4, [r3, #12]
 352 0028 14F00104 		ands	r4, r4, #1
 353 002c 19D0     		beq	.L54
 354 002e 0122     		movs	r2, #1
 355 0030 DA60     		str	r2, [r3, #12]
 356 0032 2A78     		ldrb	r2, [r5]	@ zero_extendqisi2
 357 0034 022A     		cmp	r2, #2
 358 0036 D3B2     		uxtb	r3, r2
 359 0038 42D0     		beq	.L55
ARM GAS  /tmp/ccyVcUrL.s 			page 7


 360 003a 032B     		cmp	r3, #3
 361 003c 46D0     		beq	.L56
 362 003e 012B     		cmp	r3, #1
 363 0040 46D1     		bne	.L62
 364 0042 6B68     		ldr	r3, [r5, #4]
 365 0044 013B     		subs	r3, r3, #1
 366 0046 6B60     		str	r3, [r5, #4]
 367 0048 6E68     		ldr	r6, [r5, #4]
 368 004a 002E     		cmp	r6, #0
 369 004c 30D0     		beq	.L57
 370 004e E868     		ldr	r0, [r5, #12]
 371 0050 FFF7FEFF 		bl	HAL_FLASH_EndOfOperationCallback
 372 0054 EC68     		ldr	r4, [r5, #12]
 373 0056 0134     		adds	r4, r4, #1
 374 0058 EC60     		str	r4, [r5, #12]
 375 005a 2046     		mov	r0, r4
 376 005c 297A     		ldrb	r1, [r5, #8]	@ zero_extendqisi2
 377 005e FFF7FEFF 		bl	FLASH_Erase_Sector
 378              	.L54:
 379 0062 1E4B     		ldr	r3, .L71
 380 0064 DB68     		ldr	r3, [r3, #12]
 381 0066 13F4F97F 		tst	r3, #498
 382 006a 12D0     		beq	.L58
 383 006c 2A78     		ldrb	r2, [r5]	@ zero_extendqisi2
 384 006e 022A     		cmp	r2, #2
 385 0070 D3B2     		uxtb	r3, r2
 386 0072 31D0     		beq	.L63
 387 0074 032B     		cmp	r3, #3
 388 0076 2DD0     		beq	.L60
 389 0078 012B     		cmp	r3, #1
 390 007a 03D1     		bne	.L59
 391 007c 4FF0FF33 		mov	r3, #-1
 392 0080 EC68     		ldr	r4, [r5, #12]
 393 0082 EB60     		str	r3, [r5, #12]
 394              	.L59:
 395 0084 FFF7FEFF 		bl	FLASH_SetErrorCode
 396 0088 2046     		mov	r0, r4
 397 008a FFF7FEFF 		bl	HAL_FLASH_OperationErrorCallback
 398 008e 0023     		movs	r3, #0
 399 0090 2B70     		strb	r3, [r5]
 400              	.L58:
 401 0092 2B78     		ldrb	r3, [r5]	@ zero_extendqisi2
 402 0094 03F0FF01 		and	r1, r3, #255
 403 0098 4BB9     		cbnz	r3, .L53
 404 009a 104B     		ldr	r3, .L71
 405 009c 1A69     		ldr	r2, [r3, #16]
 406 009e 22F08072 		bic	r2, r2, #16777216
 407 00a2 1A61     		str	r2, [r3, #16]
 408 00a4 1A69     		ldr	r2, [r3, #16]
 409 00a6 22F00072 		bic	r2, r2, #33554432
 410 00aa 1A61     		str	r2, [r3, #16]
 411 00ac 2975     		strb	r1, [r5, #20]
 412              	.L53:
 413 00ae 70BD     		pop	{r4, r5, r6, pc}
 414              	.L57:
 415 00b0 4FF0FF34 		mov	r4, #-1
 416 00b4 2046     		mov	r0, r4
ARM GAS  /tmp/ccyVcUrL.s 			page 8


 417 00b6 EC60     		str	r4, [r5, #12]
 418 00b8 FFF7FEFF 		bl	HAL_FLASH_EndOfOperationCallback
 419 00bc 2E70     		strb	r6, [r5]
 420 00be D0E7     		b	.L54
 421              	.L55:
 422 00c0 0020     		movs	r0, #0
 423              	.L70:
 424 00c2 0024     		movs	r4, #0
 425 00c4 FFF7FEFF 		bl	HAL_FLASH_EndOfOperationCallback
 426 00c8 2C70     		strb	r4, [r5]
 427 00ca CAE7     		b	.L54
 428              	.L56:
 429 00cc 2869     		ldr	r0, [r5, #16]
 430 00ce F8E7     		b	.L70
 431              	.L62:
 432 00d0 0024     		movs	r4, #0
 433 00d2 C6E7     		b	.L54
 434              	.L60:
 435 00d4 2C69     		ldr	r4, [r5, #16]
 436 00d6 D5E7     		b	.L59
 437              	.L63:
 438 00d8 0024     		movs	r4, #0
 439 00da D3E7     		b	.L59
 440              	.L72:
 441              		.align	2
 442              	.L71:
 443 00dc 003C0240 		.word	1073888256
 444 00e0 00000000 		.word	.LANCHOR0
 446              		.section	.text.HAL_FLASH_Unlock,"ax",%progbits
 447              		.align	1
 448              		.global	HAL_FLASH_Unlock
 449              		.syntax unified
 450              		.thumb
 451              		.thumb_func
 452              		.fpu fpv5-sp-d16
 454              	HAL_FLASH_Unlock:
 455              		@ args = 0, pretend = 0, frame = 0
 456              		@ frame_needed = 0, uses_anonymous_args = 0
 457              		@ link register save eliminated.
 458 0000 064B     		ldr	r3, .L76
 459 0002 1A69     		ldr	r2, [r3, #16]
 460 0004 002A     		cmp	r2, #0
 461 0006 07DA     		bge	.L75
 462 0008 054A     		ldr	r2, .L76+4
 463 000a 5A60     		str	r2, [r3, #4]
 464 000c 02F18832 		add	r2, r2, #-2004318072
 465 0010 5A60     		str	r2, [r3, #4]
 466 0012 1869     		ldr	r0, [r3, #16]
 467 0014 C00F     		lsrs	r0, r0, #31
 468 0016 7047     		bx	lr
 469              	.L75:
 470 0018 0020     		movs	r0, #0
 471 001a 7047     		bx	lr
 472              	.L77:
 473              		.align	2
 474              	.L76:
 475 001c 003C0240 		.word	1073888256
ARM GAS  /tmp/ccyVcUrL.s 			page 9


 476 0020 23016745 		.word	1164378403
 478              		.section	.text.HAL_FLASH_Lock,"ax",%progbits
 479              		.align	1
 480              		.global	HAL_FLASH_Lock
 481              		.syntax unified
 482              		.thumb
 483              		.thumb_func
 484              		.fpu fpv5-sp-d16
 486              	HAL_FLASH_Lock:
 487              		@ args = 0, pretend = 0, frame = 0
 488              		@ frame_needed = 0, uses_anonymous_args = 0
 489              		@ link register save eliminated.
 490 0000 034A     		ldr	r2, .L79
 491 0002 0020     		movs	r0, #0
 492 0004 1369     		ldr	r3, [r2, #16]
 493 0006 43F00043 		orr	r3, r3, #-2147483648
 494 000a 1361     		str	r3, [r2, #16]
 495 000c 7047     		bx	lr
 496              	.L80:
 497 000e 00BF     		.align	2
 498              	.L79:
 499 0010 003C0240 		.word	1073888256
 501              		.section	.text.HAL_FLASH_OB_Unlock,"ax",%progbits
 502              		.align	1
 503              		.global	HAL_FLASH_OB_Unlock
 504              		.syntax unified
 505              		.thumb
 506              		.thumb_func
 507              		.fpu fpv5-sp-d16
 509              	HAL_FLASH_OB_Unlock:
 510              		@ args = 0, pretend = 0, frame = 0
 511              		@ frame_needed = 0, uses_anonymous_args = 0
 512              		@ link register save eliminated.
 513 0000 064B     		ldr	r3, .L84
 514 0002 5A69     		ldr	r2, [r3, #20]
 515 0004 D207     		lsls	r2, r2, #31
 516 0006 06D5     		bpl	.L83
 517 0008 054A     		ldr	r2, .L84+4
 518 000a 0020     		movs	r0, #0
 519 000c 9A60     		str	r2, [r3, #8]
 520 000e 02F14432 		add	r2, r2, #1145324612
 521 0012 9A60     		str	r2, [r3, #8]
 522 0014 7047     		bx	lr
 523              	.L83:
 524 0016 0120     		movs	r0, #1
 525 0018 7047     		bx	lr
 526              	.L85:
 527 001a 00BF     		.align	2
 528              	.L84:
 529 001c 003C0240 		.word	1073888256
 530 0020 3B2A1908 		.word	135866939
 532              		.section	.text.HAL_FLASH_OB_Lock,"ax",%progbits
 533              		.align	1
 534              		.global	HAL_FLASH_OB_Lock
 535              		.syntax unified
 536              		.thumb
 537              		.thumb_func
ARM GAS  /tmp/ccyVcUrL.s 			page 10


 538              		.fpu fpv5-sp-d16
 540              	HAL_FLASH_OB_Lock:
 541              		@ args = 0, pretend = 0, frame = 0
 542              		@ frame_needed = 0, uses_anonymous_args = 0
 543              		@ link register save eliminated.
 544 0000 034A     		ldr	r2, .L87
 545 0002 0020     		movs	r0, #0
 546 0004 5369     		ldr	r3, [r2, #20]
 547 0006 43F00103 		orr	r3, r3, #1
 548 000a 5361     		str	r3, [r2, #20]
 549 000c 7047     		bx	lr
 550              	.L88:
 551 000e 00BF     		.align	2
 552              	.L87:
 553 0010 003C0240 		.word	1073888256
 555              		.section	.text.HAL_FLASH_GetError,"ax",%progbits
 556              		.align	1
 557              		.global	HAL_FLASH_GetError
 558              		.syntax unified
 559              		.thumb
 560              		.thumb_func
 561              		.fpu fpv5-sp-d16
 563              	HAL_FLASH_GetError:
 564              		@ args = 0, pretend = 0, frame = 0
 565              		@ frame_needed = 0, uses_anonymous_args = 0
 566              		@ link register save eliminated.
 567 0000 014B     		ldr	r3, .L90
 568 0002 9869     		ldr	r0, [r3, #24]
 569 0004 7047     		bx	lr
 570              	.L91:
 571 0006 00BF     		.align	2
 572              	.L90:
 573 0008 00000000 		.word	.LANCHOR0
 575              		.section	.text.FLASH_WaitForLastOperation,"ax",%progbits
 576              		.align	1
 577              		.global	FLASH_WaitForLastOperation
 578              		.syntax unified
 579              		.thumb
 580              		.thumb_func
 581              		.fpu fpv5-sp-d16
 583              	FLASH_WaitForLastOperation:
 584              		@ args = 0, pretend = 0, frame = 0
 585              		@ frame_needed = 0, uses_anonymous_args = 0
 586 0000 134B     		ldr	r3, .L103
 587 0002 0022     		movs	r2, #0
 588 0004 70B5     		push	{r4, r5, r6, lr}
 589 0006 0446     		mov	r4, r0
 590 0008 9A61     		str	r2, [r3, #24]
 591 000a 124D     		ldr	r5, .L103+4
 592 000c FFF7FEFF 		bl	HAL_GetTick
 593 0010 0646     		mov	r6, r0
 594              	.L94:
 595 0012 EB68     		ldr	r3, [r5, #12]
 596 0014 DB03     		lsls	r3, r3, #15
 597 0016 07D4     		bmi	.L98
 598 0018 EA68     		ldr	r2, [r5, #12]
 599 001a 12F4F972 		ands	r2, r2, #498
ARM GAS  /tmp/ccyVcUrL.s 			page 11


 600 001e 0ED0     		beq	.L99
 601 0020 FFF7FEFF 		bl	FLASH_SetErrorCode
 602 0024 0120     		movs	r0, #1
 603 0026 03E0     		b	.L96
 604              	.L98:
 605 0028 621C     		adds	r2, r4, #1
 606 002a F2D0     		beq	.L94
 607 002c 0CB9     		cbnz	r4, .L95
 608              	.L97:
 609 002e 0320     		movs	r0, #3
 610              	.L96:
 611 0030 70BD     		pop	{r4, r5, r6, pc}
 612              	.L95:
 613 0032 FFF7FEFF 		bl	HAL_GetTick
 614 0036 801B     		subs	r0, r0, r6
 615 0038 A042     		cmp	r0, r4
 616 003a EAD9     		bls	.L94
 617 003c F7E7     		b	.L97
 618              	.L99:
 619 003e E868     		ldr	r0, [r5, #12]
 620 0040 10F00100 		ands	r0, r0, #1
 621 0044 F4D0     		beq	.L96
 622 0046 0123     		movs	r3, #1
 623 0048 1046     		mov	r0, r2
 624 004a EB60     		str	r3, [r5, #12]
 625 004c F0E7     		b	.L96
 626              	.L104:
 627 004e 00BF     		.align	2
 628              	.L103:
 629 0050 00000000 		.word	.LANCHOR0
 630 0054 003C0240 		.word	1073888256
 632              		.section	.text.HAL_FLASH_Program,"ax",%progbits
 633              		.align	1
 634              		.global	HAL_FLASH_Program
 635              		.syntax unified
 636              		.thumb
 637              		.thumb_func
 638              		.fpu fpv5-sp-d16
 640              	HAL_FLASH_Program:
 641              		@ args = 0, pretend = 0, frame = 8
 642              		@ frame_needed = 0, uses_anonymous_args = 0
 643 0000 F7B5     		push	{r0, r1, r2, r4, r5, r6, r7, lr}
 644 0002 1C4F     		ldr	r7, .L115
 645 0004 1546     		mov	r5, r2
 646 0006 0646     		mov	r6, r0
 647 0008 0C46     		mov	r4, r1
 648 000a 3A7D     		ldrb	r2, [r7, #20]	@ zero_extendqisi2
 649 000c 0193     		str	r3, [sp, #4]
 650 000e 012A     		cmp	r2, #1
 651 0010 2DD0     		beq	.L114
 652 0012 0122     		movs	r2, #1
 653 0014 4CF25030 		movw	r0, #50000
 654 0018 3A75     		strb	r2, [r7, #20]
 655 001a FFF7FEFF 		bl	FLASH_WaitForLastOperation
 656 001e 98B9     		cbnz	r0, .L107
 657 0020 019B     		ldr	r3, [sp, #4]
 658 0022 032E     		cmp	r6, #3
ARM GAS  /tmp/ccyVcUrL.s 			page 12


 659 0024 07D8     		bhi	.L108
 660 0026 DFE806F0 		tbb	[pc, r6]
 661              	.L110:
 662 002a 02       		.byte	(.L113-.L110)/2
 663 002b 13       		.byte	(.L112-.L110)/2
 664 002c 18       		.byte	(.L111-.L110)/2
 665 002d 1D       		.byte	(.L109-.L110)/2
 666              		.p2align 1
 667              	.L113:
 668 002e E9B2     		uxtb	r1, r5
 669 0030 2046     		mov	r0, r4
 670 0032 FFF7FEFF 		bl	FLASH_Program_Byte
 671              	.L108:
 672 0036 4CF25030 		movw	r0, #50000
 673 003a FFF7FEFF 		bl	FLASH_WaitForLastOperation
 674 003e 0E4A     		ldr	r2, .L115+4
 675 0040 1369     		ldr	r3, [r2, #16]
 676 0042 23F00103 		bic	r3, r3, #1
 677 0046 1361     		str	r3, [r2, #16]
 678              	.L107:
 679 0048 0023     		movs	r3, #0
 680 004a 3B75     		strb	r3, [r7, #20]
 681              	.L106:
 682 004c 03B0     		add	sp, sp, #12
 683              		@ sp needed
 684 004e F0BD     		pop	{r4, r5, r6, r7, pc}
 685              	.L112:
 686 0050 A9B2     		uxth	r1, r5
 687 0052 2046     		mov	r0, r4
 688 0054 FFF7FEFF 		bl	FLASH_Program_HalfWord
 689 0058 EDE7     		b	.L108
 690              	.L111:
 691 005a 2946     		mov	r1, r5
 692 005c 2046     		mov	r0, r4
 693 005e FFF7FEFF 		bl	FLASH_Program_Word
 694 0062 E8E7     		b	.L108
 695              	.L109:
 696 0064 2A46     		mov	r2, r5
 697 0066 2046     		mov	r0, r4
 698 0068 FFF7FEFF 		bl	FLASH_Program_DoubleWord
 699 006c E3E7     		b	.L108
 700              	.L114:
 701 006e 0220     		movs	r0, #2
 702 0070 ECE7     		b	.L106
 703              	.L116:
 704 0072 00BF     		.align	2
 705              	.L115:
 706 0074 00000000 		.word	.LANCHOR0
 707 0078 003C0240 		.word	1073888256
 709              		.section	.text.HAL_FLASH_OB_Launch,"ax",%progbits
 710              		.align	1
 711              		.global	HAL_FLASH_OB_Launch
 712              		.syntax unified
 713              		.thumb
 714              		.thumb_func
 715              		.fpu fpv5-sp-d16
 717              	HAL_FLASH_OB_Launch:
ARM GAS  /tmp/ccyVcUrL.s 			page 13


 718              		@ args = 0, pretend = 0, frame = 0
 719              		@ frame_needed = 0, uses_anonymous_args = 0
 720              		@ link register save eliminated.
 721 0000 044A     		ldr	r2, .L118
 722 0002 4CF25030 		movw	r0, #50000
 723 0006 5369     		ldr	r3, [r2, #20]
 724 0008 43F00203 		orr	r3, r3, #2
 725 000c 5361     		str	r3, [r2, #20]
 726 000e FFF7FEBF 		b	FLASH_WaitForLastOperation
 727              	.L119:
 728 0012 00BF     		.align	2
 729              	.L118:
 730 0014 003C0240 		.word	1073888256
 732              		.global	pFlash
 733              		.section	.bss.pFlash,"aw",%nobits
 734              		.align	2
 735              		.set	.LANCHOR0,. + 0
 738              	pFlash:
 739 0000 00000000 		.space	28
 739      00000000 
 739      00000000 
 739      00000000 
 739      00000000 
 740              		.ident	"GCC: (15:10.3-2021.07-4) 10.3.1 20210621 (release)"
ARM GAS  /tmp/ccyVcUrL.s 			page 14

