ARM GAS  /tmp/cch0yqzn.s 			page 1


   1              		.cpu cortex-m7
   2              		.eabi_attribute 27, 1
   3              		.eabi_attribute 20, 1
   4              		.eabi_attribute 21, 1
   5              		.eabi_attribute 23, 3
   6              		.eabi_attribute 24, 1
   7              		.eabi_attribute 25, 1
   8              		.eabi_attribute 26, 1
   9              		.eabi_attribute 30, 4
  10              		.eabi_attribute 34, 1
  11              		.eabi_attribute 18, 4
  12              		.file	"stm32f7xx_hal_pwr_ex.c"
  13              		.text
  14              		.section	.text.HAL_PWREx_EnableBkUpReg,"ax",%progbits
  15              		.align	1
  16              		.global	HAL_PWREx_EnableBkUpReg
  17              		.arch armv7e-m
  18              		.syntax unified
  19              		.thumb
  20              		.thumb_func
  21              		.fpu fpv5-sp-d16
  23              	HAL_PWREx_EnableBkUpReg:
  24              		@ args = 0, pretend = 0, frame = 0
  25              		@ frame_needed = 0, uses_anonymous_args = 0
  26 0000 38B5     		push	{r3, r4, r5, lr}
  27 0002 0C4C     		ldr	r4, .L6
  28 0004 6368     		ldr	r3, [r4, #4]
  29 0006 43F40073 		orr	r3, r3, #512
  30 000a 6360     		str	r3, [r4, #4]
  31 000c 6368     		ldr	r3, [r4, #4]
  32 000e 43F48073 		orr	r3, r3, #256
  33 0012 6360     		str	r3, [r4, #4]
  34 0014 FFF7FEFF 		bl	HAL_GetTick
  35 0018 0546     		mov	r5, r0
  36              	.L2:
  37 001a 6368     		ldr	r3, [r4, #4]
  38 001c 1B07     		lsls	r3, r3, #28
  39 001e 01D5     		bpl	.L4
  40 0020 0020     		movs	r0, #0
  41              	.L3:
  42 0022 38BD     		pop	{r3, r4, r5, pc}
  43              	.L4:
  44 0024 FFF7FEFF 		bl	HAL_GetTick
  45 0028 401B     		subs	r0, r0, r5
  46 002a B0F57A7F 		cmp	r0, #1000
  47 002e F4D9     		bls	.L2
  48 0030 0320     		movs	r0, #3
  49 0032 F6E7     		b	.L3
  50              	.L7:
  51              		.align	2
  52              	.L6:
  53 0034 00700040 		.word	1073770496
  55              		.section	.text.HAL_PWREx_DisableBkUpReg,"ax",%progbits
  56              		.align	1
  57              		.global	HAL_PWREx_DisableBkUpReg
  58              		.syntax unified
  59              		.thumb
ARM GAS  /tmp/cch0yqzn.s 			page 2


  60              		.thumb_func
  61              		.fpu fpv5-sp-d16
  63              	HAL_PWREx_DisableBkUpReg:
  64              		@ args = 0, pretend = 0, frame = 0
  65              		@ frame_needed = 0, uses_anonymous_args = 0
  66 0000 38B5     		push	{r3, r4, r5, lr}
  67 0002 0C4C     		ldr	r4, .L13
  68 0004 6368     		ldr	r3, [r4, #4]
  69 0006 23F40073 		bic	r3, r3, #512
  70 000a 6360     		str	r3, [r4, #4]
  71 000c 6368     		ldr	r3, [r4, #4]
  72 000e 43F48073 		orr	r3, r3, #256
  73 0012 6360     		str	r3, [r4, #4]
  74 0014 FFF7FEFF 		bl	HAL_GetTick
  75 0018 0546     		mov	r5, r0
  76              	.L9:
  77 001a 6068     		ldr	r0, [r4, #4]
  78 001c 10F00800 		ands	r0, r0, #8
  79 0020 00D1     		bne	.L11
  80              	.L10:
  81 0022 38BD     		pop	{r3, r4, r5, pc}
  82              	.L11:
  83 0024 FFF7FEFF 		bl	HAL_GetTick
  84 0028 401B     		subs	r0, r0, r5
  85 002a B0F57A7F 		cmp	r0, #1000
  86 002e F4D9     		bls	.L9
  87 0030 0320     		movs	r0, #3
  88 0032 F6E7     		b	.L10
  89              	.L14:
  90              		.align	2
  91              	.L13:
  92 0034 00700040 		.word	1073770496
  94              		.section	.text.HAL_PWREx_EnableFlashPowerDown,"ax",%progbits
  95              		.align	1
  96              		.global	HAL_PWREx_EnableFlashPowerDown
  97              		.syntax unified
  98              		.thumb
  99              		.thumb_func
 100              		.fpu fpv5-sp-d16
 102              	HAL_PWREx_EnableFlashPowerDown:
 103              		@ args = 0, pretend = 0, frame = 0
 104              		@ frame_needed = 0, uses_anonymous_args = 0
 105              		@ link register save eliminated.
 106 0000 024A     		ldr	r2, .L16
 107 0002 1368     		ldr	r3, [r2]
 108 0004 43F40073 		orr	r3, r3, #512
 109 0008 1360     		str	r3, [r2]
 110 000a 7047     		bx	lr
 111              	.L17:
 112              		.align	2
 113              	.L16:
 114 000c 00700040 		.word	1073770496
 116              		.section	.text.HAL_PWREx_DisableFlashPowerDown,"ax",%progbits
 117              		.align	1
 118              		.global	HAL_PWREx_DisableFlashPowerDown
 119              		.syntax unified
 120              		.thumb
ARM GAS  /tmp/cch0yqzn.s 			page 3


 121              		.thumb_func
 122              		.fpu fpv5-sp-d16
 124              	HAL_PWREx_DisableFlashPowerDown:
 125              		@ args = 0, pretend = 0, frame = 0
 126              		@ frame_needed = 0, uses_anonymous_args = 0
 127              		@ link register save eliminated.
 128 0000 024A     		ldr	r2, .L19
 129 0002 1368     		ldr	r3, [r2]
 130 0004 23F40073 		bic	r3, r3, #512
 131 0008 1360     		str	r3, [r2]
 132 000a 7047     		bx	lr
 133              	.L20:
 134              		.align	2
 135              	.L19:
 136 000c 00700040 		.word	1073770496
 138              		.section	.text.HAL_PWREx_EnableMainRegulatorLowVoltage,"ax",%progbits
 139              		.align	1
 140              		.global	HAL_PWREx_EnableMainRegulatorLowVoltage
 141              		.syntax unified
 142              		.thumb
 143              		.thumb_func
 144              		.fpu fpv5-sp-d16
 146              	HAL_PWREx_EnableMainRegulatorLowVoltage:
 147              		@ args = 0, pretend = 0, frame = 0
 148              		@ frame_needed = 0, uses_anonymous_args = 0
 149              		@ link register save eliminated.
 150 0000 024A     		ldr	r2, .L22
 151 0002 1368     		ldr	r3, [r2]
 152 0004 43F40063 		orr	r3, r3, #2048
 153 0008 1360     		str	r3, [r2]
 154 000a 7047     		bx	lr
 155              	.L23:
 156              		.align	2
 157              	.L22:
 158 000c 00700040 		.word	1073770496
 160              		.section	.text.HAL_PWREx_DisableMainRegulatorLowVoltage,"ax",%progbits
 161              		.align	1
 162              		.global	HAL_PWREx_DisableMainRegulatorLowVoltage
 163              		.syntax unified
 164              		.thumb
 165              		.thumb_func
 166              		.fpu fpv5-sp-d16
 168              	HAL_PWREx_DisableMainRegulatorLowVoltage:
 169              		@ args = 0, pretend = 0, frame = 0
 170              		@ frame_needed = 0, uses_anonymous_args = 0
 171              		@ link register save eliminated.
 172 0000 024A     		ldr	r2, .L25
 173 0002 1368     		ldr	r3, [r2]
 174 0004 23F40063 		bic	r3, r3, #2048
 175 0008 1360     		str	r3, [r2]
 176 000a 7047     		bx	lr
 177              	.L26:
 178              		.align	2
 179              	.L25:
 180 000c 00700040 		.word	1073770496
 182              		.section	.text.HAL_PWREx_EnableLowRegulatorLowVoltage,"ax",%progbits
 183              		.align	1
ARM GAS  /tmp/cch0yqzn.s 			page 4


 184              		.global	HAL_PWREx_EnableLowRegulatorLowVoltage
 185              		.syntax unified
 186              		.thumb
 187              		.thumb_func
 188              		.fpu fpv5-sp-d16
 190              	HAL_PWREx_EnableLowRegulatorLowVoltage:
 191              		@ args = 0, pretend = 0, frame = 0
 192              		@ frame_needed = 0, uses_anonymous_args = 0
 193              		@ link register save eliminated.
 194 0000 024A     		ldr	r2, .L28
 195 0002 1368     		ldr	r3, [r2]
 196 0004 43F48063 		orr	r3, r3, #1024
 197 0008 1360     		str	r3, [r2]
 198 000a 7047     		bx	lr
 199              	.L29:
 200              		.align	2
 201              	.L28:
 202 000c 00700040 		.word	1073770496
 204              		.section	.text.HAL_PWREx_DisableLowRegulatorLowVoltage,"ax",%progbits
 205              		.align	1
 206              		.global	HAL_PWREx_DisableLowRegulatorLowVoltage
 207              		.syntax unified
 208              		.thumb
 209              		.thumb_func
 210              		.fpu fpv5-sp-d16
 212              	HAL_PWREx_DisableLowRegulatorLowVoltage:
 213              		@ args = 0, pretend = 0, frame = 0
 214              		@ frame_needed = 0, uses_anonymous_args = 0
 215              		@ link register save eliminated.
 216 0000 024A     		ldr	r2, .L31
 217 0002 1368     		ldr	r3, [r2]
 218 0004 23F48063 		bic	r3, r3, #1024
 219 0008 1360     		str	r3, [r2]
 220 000a 7047     		bx	lr
 221              	.L32:
 222              		.align	2
 223              	.L31:
 224 000c 00700040 		.word	1073770496
 226              		.section	.text.HAL_PWREx_EnableOverDrive,"ax",%progbits
 227              		.align	1
 228              		.global	HAL_PWREx_EnableOverDrive
 229              		.syntax unified
 230              		.thumb
 231              		.thumb_func
 232              		.fpu fpv5-sp-d16
 234              	HAL_PWREx_EnableOverDrive:
 235              		@ args = 0, pretend = 0, frame = 8
 236              		@ frame_needed = 0, uses_anonymous_args = 0
 237 0000 194B     		ldr	r3, .L41
 238 0002 37B5     		push	{r0, r1, r2, r4, r5, lr}
 239 0004 1A6C     		ldr	r2, [r3, #64]
 240 0006 194C     		ldr	r4, .L41+4
 241 0008 42F08052 		orr	r2, r2, #268435456
 242 000c 1A64     		str	r2, [r3, #64]
 243 000e 1B6C     		ldr	r3, [r3, #64]
 244 0010 03F08053 		and	r3, r3, #268435456
 245 0014 0193     		str	r3, [sp, #4]
ARM GAS  /tmp/cch0yqzn.s 			page 5


 246 0016 019B     		ldr	r3, [sp, #4]
 247 0018 2368     		ldr	r3, [r4]
 248 001a 43F48033 		orr	r3, r3, #65536
 249 001e 2360     		str	r3, [r4]
 250 0020 FFF7FEFF 		bl	HAL_GetTick
 251 0024 0546     		mov	r5, r0
 252              	.L34:
 253 0026 6368     		ldr	r3, [r4, #4]
 254 0028 DA03     		lsls	r2, r3, #15
 255 002a 0CD5     		bpl	.L36
 256 002c 2368     		ldr	r3, [r4]
 257 002e 43F40033 		orr	r3, r3, #131072
 258 0032 2360     		str	r3, [r4]
 259 0034 FFF7FEFF 		bl	HAL_GetTick
 260 0038 0C4C     		ldr	r4, .L41+4
 261 003a 0546     		mov	r5, r0
 262              	.L37:
 263 003c 6368     		ldr	r3, [r4, #4]
 264 003e 9B03     		lsls	r3, r3, #14
 265 0040 0AD5     		bpl	.L39
 266 0042 0020     		movs	r0, #0
 267 0044 06E0     		b	.L35
 268              	.L36:
 269 0046 FFF7FEFF 		bl	HAL_GetTick
 270 004a 401B     		subs	r0, r0, r5
 271 004c B0F57A7F 		cmp	r0, #1000
 272 0050 E9D9     		bls	.L34
 273              	.L38:
 274 0052 0320     		movs	r0, #3
 275              	.L35:
 276 0054 03B0     		add	sp, sp, #12
 277              		@ sp needed
 278 0056 30BD     		pop	{r4, r5, pc}
 279              	.L39:
 280 0058 FFF7FEFF 		bl	HAL_GetTick
 281 005c 401B     		subs	r0, r0, r5
 282 005e B0F57A7F 		cmp	r0, #1000
 283 0062 EBD9     		bls	.L37
 284 0064 F5E7     		b	.L38
 285              	.L42:
 286 0066 00BF     		.align	2
 287              	.L41:
 288 0068 00380240 		.word	1073887232
 289 006c 00700040 		.word	1073770496
 291              		.section	.text.HAL_PWREx_DisableOverDrive,"ax",%progbits
 292              		.align	1
 293              		.global	HAL_PWREx_DisableOverDrive
 294              		.syntax unified
 295              		.thumb
 296              		.thumb_func
 297              		.fpu fpv5-sp-d16
 299              	HAL_PWREx_DisableOverDrive:
 300              		@ args = 0, pretend = 0, frame = 8
 301              		@ frame_needed = 0, uses_anonymous_args = 0
 302 0000 184B     		ldr	r3, .L51
 303 0002 37B5     		push	{r0, r1, r2, r4, r5, lr}
 304 0004 1A6C     		ldr	r2, [r3, #64]
ARM GAS  /tmp/cch0yqzn.s 			page 6


 305 0006 184C     		ldr	r4, .L51+4
 306 0008 42F08052 		orr	r2, r2, #268435456
 307 000c 1A64     		str	r2, [r3, #64]
 308 000e 1B6C     		ldr	r3, [r3, #64]
 309 0010 03F08053 		and	r3, r3, #268435456
 310 0014 0193     		str	r3, [sp, #4]
 311 0016 019B     		ldr	r3, [sp, #4]
 312 0018 2368     		ldr	r3, [r4]
 313 001a 23F40033 		bic	r3, r3, #131072
 314 001e 2360     		str	r3, [r4]
 315 0020 FFF7FEFF 		bl	HAL_GetTick
 316 0024 0546     		mov	r5, r0
 317              	.L44:
 318 0026 6368     		ldr	r3, [r4, #4]
 319 0028 9B03     		lsls	r3, r3, #14
 320 002a 12D4     		bmi	.L46
 321 002c 2368     		ldr	r3, [r4]
 322 002e 23F48033 		bic	r3, r3, #65536
 323 0032 2360     		str	r3, [r4]
 324 0034 FFF7FEFF 		bl	HAL_GetTick
 325 0038 0B4C     		ldr	r4, .L51+4
 326 003a 0546     		mov	r5, r0
 327              	.L47:
 328 003c 6068     		ldr	r0, [r4, #4]
 329 003e 10F48030 		ands	r0, r0, #65536
 330 0042 0DD0     		beq	.L45
 331 0044 FFF7FEFF 		bl	HAL_GetTick
 332 0048 401B     		subs	r0, r0, r5
 333 004a B0F57A7F 		cmp	r0, #1000
 334 004e F5D9     		bls	.L47
 335 0050 05E0     		b	.L48
 336              	.L46:
 337 0052 FFF7FEFF 		bl	HAL_GetTick
 338 0056 401B     		subs	r0, r0, r5
 339 0058 B0F57A7F 		cmp	r0, #1000
 340 005c E3D9     		bls	.L44
 341              	.L48:
 342 005e 0320     		movs	r0, #3
 343              	.L45:
 344 0060 03B0     		add	sp, sp, #12
 345              		@ sp needed
 346 0062 30BD     		pop	{r4, r5, pc}
 347              	.L52:
 348              		.align	2
 349              	.L51:
 350 0064 00380240 		.word	1073887232
 351 0068 00700040 		.word	1073770496
 353              		.section	.text.HAL_PWREx_EnterUnderDriveSTOPMode,"ax",%progbits
 354              		.align	1
 355              		.global	HAL_PWREx_EnterUnderDriveSTOPMode
 356              		.syntax unified
 357              		.thumb
 358              		.thumb_func
 359              		.fpu fpv5-sp-d16
 361              	HAL_PWREx_EnterUnderDriveSTOPMode:
 362              		@ args = 0, pretend = 0, frame = 8
 363              		@ frame_needed = 0, uses_anonymous_args = 0
ARM GAS  /tmp/cch0yqzn.s 			page 7


 364 0000 1F4B     		ldr	r3, .L60
 365 0002 F7B5     		push	{r0, r1, r2, r4, r5, r6, r7, lr}
 366 0004 1A6C     		ldr	r2, [r3, #64]
 367 0006 0646     		mov	r6, r0
 368 0008 1E4C     		ldr	r4, .L60+4
 369 000a 0D46     		mov	r5, r1
 370 000c 42F08052 		orr	r2, r2, #268435456
 371 0010 1A64     		str	r2, [r3, #64]
 372 0012 1B6C     		ldr	r3, [r3, #64]
 373 0014 03F08053 		and	r3, r3, #268435456
 374 0018 0193     		str	r3, [sp, #4]
 375 001a 019B     		ldr	r3, [sp, #4]
 376 001c 6368     		ldr	r3, [r4, #4]
 377 001e 43F44023 		orr	r3, r3, #786432
 378 0022 6360     		str	r3, [r4, #4]
 379 0024 2368     		ldr	r3, [r4]
 380 0026 43F44023 		orr	r3, r3, #786432
 381 002a 2360     		str	r3, [r4]
 382 002c FFF7FEFF 		bl	HAL_GetTick
 383 0030 0746     		mov	r7, r0
 384              	.L54:
 385 0032 6368     		ldr	r3, [r4, #4]
 386 0034 03F44023 		and	r3, r3, #786432
 387 0038 B3F5402F 		cmp	r3, #786432
 388 003c 16D0     		beq	.L56
 389 003e 2068     		ldr	r0, [r4]
 390 0040 012D     		cmp	r5, #1
 391 0042 114B     		ldr	r3, .L60+8
 392 0044 20F44060 		bic	r0, r0, #3072
 393 0048 20F00300 		bic	r0, r0, #3
 394 004c 40EA0600 		orr	r0, r0, r6
 395 0050 2060     		str	r0, [r4]
 396 0052 1A69     		ldr	r2, [r3, #16]
 397 0054 42F00402 		orr	r2, r2, #4
 398 0058 1A61     		str	r2, [r3, #16]
 399 005a 0FD1     		bne	.L57
 400              		.syntax unified
 401              	@ 427 "Drivers/STM32F7xx_HAL_Driver/Src/stm32f7xx_hal_pwr_ex.c" 1
 402 005c 30BF     		wfi
 403              	@ 0 "" 2
 404              		.thumb
 405              		.syntax unified
 406              	.L58:
 407 005e 1A69     		ldr	r2, [r3, #16]
 408 0060 0020     		movs	r0, #0
 409 0062 22F00402 		bic	r2, r2, #4
 410 0066 1A61     		str	r2, [r3, #16]
 411              	.L55:
 412 0068 03B0     		add	sp, sp, #12
 413              		@ sp needed
 414 006a F0BD     		pop	{r4, r5, r6, r7, pc}
 415              	.L56:
 416 006c FFF7FEFF 		bl	HAL_GetTick
 417 0070 C01B     		subs	r0, r0, r7
 418 0072 B0F57A7F 		cmp	r0, #1000
 419 0076 DCD9     		bls	.L54
 420 0078 0320     		movs	r0, #3
ARM GAS  /tmp/cch0yqzn.s 			page 8


 421 007a F5E7     		b	.L55
 422              	.L57:
 423              		.syntax unified
 424              	@ 432 "Drivers/STM32F7xx_HAL_Driver/Src/stm32f7xx_hal_pwr_ex.c" 1
 425 007c 20BF     		wfe
 426              	@ 0 "" 2
 427              		.thumb
 428              		.syntax unified
 429 007e EEE7     		b	.L58
 430              	.L61:
 431              		.align	2
 432              	.L60:
 433 0080 00380240 		.word	1073887232
 434 0084 00700040 		.word	1073770496
 435 0088 00ED00E0 		.word	-536810240
 437              		.section	.text.HAL_PWREx_GetVoltageRange,"ax",%progbits
 438              		.align	1
 439              		.global	HAL_PWREx_GetVoltageRange
 440              		.syntax unified
 441              		.thumb
 442              		.thumb_func
 443              		.fpu fpv5-sp-d16
 445              	HAL_PWREx_GetVoltageRange:
 446              		@ args = 0, pretend = 0, frame = 0
 447              		@ frame_needed = 0, uses_anonymous_args = 0
 448              		@ link register save eliminated.
 449 0000 024B     		ldr	r3, .L63
 450 0002 1868     		ldr	r0, [r3]
 451 0004 00F44040 		and	r0, r0, #49152
 452 0008 7047     		bx	lr
 453              	.L64:
 454 000a 00BF     		.align	2
 455              	.L63:
 456 000c 00700040 		.word	1073770496
 458              		.section	.text.HAL_PWREx_ControlVoltageScaling,"ax",%progbits
 459              		.align	1
 460              		.global	HAL_PWREx_ControlVoltageScaling
 461              		.syntax unified
 462              		.thumb
 463              		.thumb_func
 464              		.fpu fpv5-sp-d16
 466              	HAL_PWREx_ControlVoltageScaling:
 467              		@ args = 0, pretend = 0, frame = 8
 468              		@ frame_needed = 0, uses_anonymous_args = 0
 469 0000 73B5     		push	{r0, r1, r4, r5, r6, lr}
 470 0002 284C     		ldr	r4, .L76
 471 0004 0546     		mov	r5, r0
 472 0006 236C     		ldr	r3, [r4, #64]
 473 0008 43F08053 		orr	r3, r3, #268435456
 474 000c 2364     		str	r3, [r4, #64]
 475 000e 236C     		ldr	r3, [r4, #64]
 476 0010 03F08053 		and	r3, r3, #268435456
 477 0014 0093     		str	r3, [sp]
 478 0016 009B     		ldr	r3, [sp]
 479 0018 A368     		ldr	r3, [r4, #8]
 480 001a 03F00C03 		and	r3, r3, #12
 481 001e 082B     		cmp	r3, #8
ARM GAS  /tmp/cch0yqzn.s 			page 9


 482 0020 3DD0     		beq	.L74
 483 0022 2368     		ldr	r3, [r4]
 484 0024 23F08073 		bic	r3, r3, #16777216
 485 0028 2360     		str	r3, [r4]
 486 002a FFF7FEFF 		bl	HAL_GetTick
 487 002e 0646     		mov	r6, r0
 488              	.L67:
 489 0030 2368     		ldr	r3, [r4]
 490 0032 9901     		lsls	r1, r3, #6
 491 0034 1ED4     		bmi	.L68
 492 0036 1C4B     		ldr	r3, .L76+4
 493 0038 1868     		ldr	r0, [r3]
 494 003a 20F44040 		bic	r0, r0, #49152
 495 003e 2843     		orrs	r0, r0, r5
 496 0040 1860     		str	r0, [r3]
 497 0042 1B68     		ldr	r3, [r3]
 498 0044 03F44043 		and	r3, r3, #49152
 499 0048 0193     		str	r3, [sp, #4]
 500 004a 019B     		ldr	r3, [sp, #4]
 501 004c 2368     		ldr	r3, [r4]
 502 004e 43F08073 		orr	r3, r3, #16777216
 503 0052 2360     		str	r3, [r4]
 504 0054 FFF7FEFF 		bl	HAL_GetTick
 505 0058 124C     		ldr	r4, .L76
 506 005a 0546     		mov	r5, r0
 507              	.L69:
 508 005c 2368     		ldr	r3, [r4]
 509 005e 9A01     		lsls	r2, r3, #6
 510 0060 10D5     		bpl	.L71
 511 0062 FFF7FEFF 		bl	HAL_GetTick
 512 0066 104C     		ldr	r4, .L76+4
 513 0068 0546     		mov	r5, r0
 514              	.L72:
 515 006a 6368     		ldr	r3, [r4, #4]
 516 006c 5B04     		lsls	r3, r3, #17
 517 006e 0FD5     		bpl	.L73
 518 0070 0020     		movs	r0, #0
 519 0072 05E0     		b	.L66
 520              	.L68:
 521 0074 FFF7FEFF 		bl	HAL_GetTick
 522 0078 801B     		subs	r0, r0, r6
 523 007a 0228     		cmp	r0, #2
 524 007c D8D9     		bls	.L67
 525              	.L70:
 526 007e 0320     		movs	r0, #3
 527              	.L66:
 528 0080 02B0     		add	sp, sp, #8
 529              		@ sp needed
 530 0082 70BD     		pop	{r4, r5, r6, pc}
 531              	.L71:
 532 0084 FFF7FEFF 		bl	HAL_GetTick
 533 0088 401B     		subs	r0, r0, r5
 534 008a 0228     		cmp	r0, #2
 535 008c E6D9     		bls	.L69
 536 008e F6E7     		b	.L70
 537              	.L73:
 538 0090 FFF7FEFF 		bl	HAL_GetTick
ARM GAS  /tmp/cch0yqzn.s 			page 10


 539 0094 401B     		subs	r0, r0, r5
 540 0096 B0F57A7F 		cmp	r0, #1000
 541 009a E6D9     		bls	.L72
 542 009c EFE7     		b	.L70
 543              	.L74:
 544 009e 0120     		movs	r0, #1
 545 00a0 EEE7     		b	.L66
 546              	.L77:
 547 00a2 00BF     		.align	2
 548              	.L76:
 549 00a4 00380240 		.word	1073887232
 550 00a8 00700040 		.word	1073770496
 552              		.ident	"GCC: (GNU Tools for Arm Embedded Processors 8-2018-q4-major) 8.2.1 20181213 (release) [gcc
ARM GAS  /tmp/cch0yqzn.s 			page 11


DEFINED SYMBOLS
                            *ABS*:0000000000000000 stm32f7xx_hal_pwr_ex.c
     /tmp/cch0yqzn.s:15     .text.HAL_PWREx_EnableBkUpReg:0000000000000000 $t
     /tmp/cch0yqzn.s:23     .text.HAL_PWREx_EnableBkUpReg:0000000000000000 HAL_PWREx_EnableBkUpReg
     /tmp/cch0yqzn.s:53     .text.HAL_PWREx_EnableBkUpReg:0000000000000034 $d
     /tmp/cch0yqzn.s:56     .text.HAL_PWREx_DisableBkUpReg:0000000000000000 $t
     /tmp/cch0yqzn.s:63     .text.HAL_PWREx_DisableBkUpReg:0000000000000000 HAL_PWREx_DisableBkUpReg
     /tmp/cch0yqzn.s:92     .text.HAL_PWREx_DisableBkUpReg:0000000000000034 $d
     /tmp/cch0yqzn.s:95     .text.HAL_PWREx_EnableFlashPowerDown:0000000000000000 $t
     /tmp/cch0yqzn.s:102    .text.HAL_PWREx_EnableFlashPowerDown:0000000000000000 HAL_PWREx_EnableFlashPowerDown
     /tmp/cch0yqzn.s:114    .text.HAL_PWREx_EnableFlashPowerDown:000000000000000c $d
     /tmp/cch0yqzn.s:117    .text.HAL_PWREx_DisableFlashPowerDown:0000000000000000 $t
     /tmp/cch0yqzn.s:124    .text.HAL_PWREx_DisableFlashPowerDown:0000000000000000 HAL_PWREx_DisableFlashPowerDown
     /tmp/cch0yqzn.s:136    .text.HAL_PWREx_DisableFlashPowerDown:000000000000000c $d
     /tmp/cch0yqzn.s:139    .text.HAL_PWREx_EnableMainRegulatorLowVoltage:0000000000000000 $t
     /tmp/cch0yqzn.s:146    .text.HAL_PWREx_EnableMainRegulatorLowVoltage:0000000000000000 HAL_PWREx_EnableMainRegulatorLowVoltage
     /tmp/cch0yqzn.s:158    .text.HAL_PWREx_EnableMainRegulatorLowVoltage:000000000000000c $d
     /tmp/cch0yqzn.s:161    .text.HAL_PWREx_DisableMainRegulatorLowVoltage:0000000000000000 $t
     /tmp/cch0yqzn.s:168    .text.HAL_PWREx_DisableMainRegulatorLowVoltage:0000000000000000 HAL_PWREx_DisableMainRegulatorLowVoltage
     /tmp/cch0yqzn.s:180    .text.HAL_PWREx_DisableMainRegulatorLowVoltage:000000000000000c $d
     /tmp/cch0yqzn.s:183    .text.HAL_PWREx_EnableLowRegulatorLowVoltage:0000000000000000 $t
     /tmp/cch0yqzn.s:190    .text.HAL_PWREx_EnableLowRegulatorLowVoltage:0000000000000000 HAL_PWREx_EnableLowRegulatorLowVoltage
     /tmp/cch0yqzn.s:202    .text.HAL_PWREx_EnableLowRegulatorLowVoltage:000000000000000c $d
     /tmp/cch0yqzn.s:205    .text.HAL_PWREx_DisableLowRegulatorLowVoltage:0000000000000000 $t
     /tmp/cch0yqzn.s:212    .text.HAL_PWREx_DisableLowRegulatorLowVoltage:0000000000000000 HAL_PWREx_DisableLowRegulatorLowVoltage
     /tmp/cch0yqzn.s:224    .text.HAL_PWREx_DisableLowRegulatorLowVoltage:000000000000000c $d
     /tmp/cch0yqzn.s:227    .text.HAL_PWREx_EnableOverDrive:0000000000000000 $t
     /tmp/cch0yqzn.s:234    .text.HAL_PWREx_EnableOverDrive:0000000000000000 HAL_PWREx_EnableOverDrive
     /tmp/cch0yqzn.s:288    .text.HAL_PWREx_EnableOverDrive:0000000000000068 $d
     /tmp/cch0yqzn.s:292    .text.HAL_PWREx_DisableOverDrive:0000000000000000 $t
     /tmp/cch0yqzn.s:299    .text.HAL_PWREx_DisableOverDrive:0000000000000000 HAL_PWREx_DisableOverDrive
     /tmp/cch0yqzn.s:350    .text.HAL_PWREx_DisableOverDrive:0000000000000064 $d
     /tmp/cch0yqzn.s:354    .text.HAL_PWREx_EnterUnderDriveSTOPMode:0000000000000000 $t
     /tmp/cch0yqzn.s:361    .text.HAL_PWREx_EnterUnderDriveSTOPMode:0000000000000000 HAL_PWREx_EnterUnderDriveSTOPMode
     /tmp/cch0yqzn.s:433    .text.HAL_PWREx_EnterUnderDriveSTOPMode:0000000000000080 $d
     /tmp/cch0yqzn.s:438    .text.HAL_PWREx_GetVoltageRange:0000000000000000 $t
     /tmp/cch0yqzn.s:445    .text.HAL_PWREx_GetVoltageRange:0000000000000000 HAL_PWREx_GetVoltageRange
     /tmp/cch0yqzn.s:456    .text.HAL_PWREx_GetVoltageRange:000000000000000c $d
     /tmp/cch0yqzn.s:459    .text.HAL_PWREx_ControlVoltageScaling:0000000000000000 $t
     /tmp/cch0yqzn.s:466    .text.HAL_PWREx_ControlVoltageScaling:0000000000000000 HAL_PWREx_ControlVoltageScaling
     /tmp/cch0yqzn.s:549    .text.HAL_PWREx_ControlVoltageScaling:00000000000000a4 $d

UNDEFINED SYMBOLS
HAL_GetTick
