ARM GAS  /tmp/cc2VSDCt.s 			page 1


   1              		.cpu cortex-m7
   2              		.eabi_attribute 27, 1
   3              		.eabi_attribute 20, 1
   4              		.eabi_attribute 21, 1
   5              		.eabi_attribute 23, 3
   6              		.eabi_attribute 24, 1
   7              		.eabi_attribute 25, 1
   8              		.eabi_attribute 26, 1
   9              		.eabi_attribute 30, 4
  10              		.eabi_attribute 34, 1
  11              		.eabi_attribute 18, 4
  12              		.file	"stm32f7xx_hal_pcd.c"
  13              		.text
  14              		.section	.text.HAL_PCD_MspInit,"ax",%progbits
  15              		.align	1
  16              		.weak	HAL_PCD_MspInit
  17              		.arch armv7e-m
  18              		.syntax unified
  19              		.thumb
  20              		.thumb_func
  21              		.fpu fpv5-sp-d16
  23              	HAL_PCD_MspInit:
  24              		@ args = 0, pretend = 0, frame = 0
  25              		@ frame_needed = 0, uses_anonymous_args = 0
  26              		@ link register save eliminated.
  27 0000 7047     		bx	lr
  29              		.section	.text.HAL_PCD_Init,"ax",%progbits
  30              		.align	1
  31              		.global	HAL_PCD_Init
  32              		.syntax unified
  33              		.thumb
  34              		.thumb_func
  35              		.fpu fpv5-sp-d16
  37              	HAL_PCD_Init:
  38              		@ args = 0, pretend = 0, frame = 0
  39              		@ frame_needed = 0, uses_anonymous_args = 0
  40 0000 F0B5     		push	{r4, r5, r6, r7, lr}
  41 0002 0446     		mov	r4, r0
  42 0004 8BB0     		sub	sp, sp, #44
  43 0006 60B3     		cbz	r0, .L13
  44 0008 90F8BD34 		ldrb	r3, [r0, #1213]	@ zero_extendqisi2
  45 000c 0568     		ldr	r5, [r0]
  46 000e 03F0FF02 		and	r2, r3, #255
  47 0012 1BB9     		cbnz	r3, .L4
  48 0014 80F8BC24 		strb	r2, [r0, #1212]
  49 0018 FFF7FEFF 		bl	HAL_PCD_MspInit
  50              	.L4:
  51 001c 0323     		movs	r3, #3
  52 001e 6E46     		mov	r6, sp
  53 0020 271D     		adds	r7, r4, #4
  54 0022 84F8BD34 		strb	r3, [r4, #1213]
  55 0026 EB6B     		ldr	r3, [r5, #60]
  56 0028 2546     		mov	r5, r4
  57 002a 13F48073 		ands	r3, r3, #256
  58 002e 55F8100B 		ldr	r0, [r5], #16
  59 0032 08BF     		it	eq
  60 0034 2361     		streq	r3, [r4, #16]
ARM GAS  /tmp/cc2VSDCt.s 			page 2


  61 0036 FFF7FEFF 		bl	USB_DisableGlobalInt
  62 003a 0FCD     		ldmia	r5!, {r0, r1, r2, r3}
  63 003c 0FC6     		stmia	r6!, {r0, r1, r2, r3}
  64 003e 0FCD     		ldmia	r5!, {r0, r1, r2, r3}
  65 0040 0FC6     		stmia	r6!, {r0, r1, r2, r3}
  66 0042 95E80300 		ldm	r5, {r0, r1}
  67 0046 2546     		mov	r5, r4
  68 0048 86E80300 		stm	r6, {r0, r1}
  69 004c 97E80E00 		ldm	r7, {r1, r2, r3}
  70 0050 55F8100B 		ldr	r0, [r5], #16
  71 0054 FFF7FEFF 		bl	USB_CoreInit
  72 0058 0646     		mov	r6, r0
  73 005a 20B1     		cbz	r0, .L6
  74 005c 0223     		movs	r3, #2
  75 005e 84F8BD34 		strb	r3, [r4, #1213]
  76              	.L13:
  77 0062 0125     		movs	r5, #1
  78 0064 52E0     		b	.L3
  79              	.L6:
  80 0066 0146     		mov	r1, r0
  81 0068 2068     		ldr	r0, [r4]
  82 006a FFF7FEFF 		bl	USB_SetCurrentMode
  83 006e 3046     		mov	r0, r6
  84 0070 D4F804C0 		ldr	ip, [r4, #4]
  85 0074 2426     		movs	r6, #36
  86 0076 4FF0010E 		mov	lr, #1
  87 007a 0146     		mov	r1, r0
  88              	.L7:
  89 007c C2B2     		uxtb	r2, r0
  90 007e 0130     		adds	r0, r0, #1
  91 0080 9445     		cmp	ip, r2
  92 0082 1BD8     		bhi	.L8
  93 0084 0023     		movs	r3, #0
  94 0086 2426     		movs	r6, #36
  95 0088 1946     		mov	r1, r3
  96              	.L9:
  97 008a D8B2     		uxtb	r0, r3
  98 008c 0133     		adds	r3, r3, #1
  99 008e 8445     		cmp	ip, r0
 100 0090 22D8     		bhi	.L10
 101 0092 6E46     		mov	r6, sp
 102 0094 0FCD     		ldmia	r5!, {r0, r1, r2, r3}
 103 0096 0FC6     		stmia	r6!, {r0, r1, r2, r3}
 104 0098 0FCD     		ldmia	r5!, {r0, r1, r2, r3}
 105 009a 0FC6     		stmia	r6!, {r0, r1, r2, r3}
 106 009c 95E80300 		ldm	r5, {r0, r1}
 107 00a0 86E80300 		stm	r6, {r0, r1}
 108 00a4 97E80E00 		ldm	r7, {r1, r2, r3}
 109 00a8 2068     		ldr	r0, [r4]
 110 00aa FFF7FEFF 		bl	USB_DevInit
 111 00ae 0123     		movs	r3, #1
 112 00b0 0546     		mov	r5, r0
 113 00b2 F0B1     		cbz	r0, .L11
 114 00b4 0222     		movs	r2, #2
 115 00b6 84F8BD24 		strb	r2, [r4, #1213]
 116 00ba D2E7     		b	.L13
 117              	.L8:
ARM GAS  /tmp/cc2VSDCt.s 			page 3


 118 00bc 06FB0243 		mla	r3, r6, r2, r4
 119 00c0 83F83DE0 		strb	lr, [r3, #61]
 120 00c4 83F83C20 		strb	r2, [r3, #60]
 121 00c8 A3F84420 		strh	r2, [r3, #68]	@ movhi
 122 00cc 83F84010 		strb	r1, [r3, #64]
 123 00d0 5965     		str	r1, [r3, #84]
 124 00d2 C3E91211 		strd	r1, r1, [r3, #72]
 125 00d6 D1E7     		b	.L7
 126              	.L10:
 127 00d8 06FB0042 		mla	r2, r6, r0, r4
 128 00dc 82F87D12 		strb	r1, [r2, #637]
 129 00e0 82F87C02 		strb	r0, [r2, #636]
 130 00e4 82F88012 		strb	r1, [r2, #640]
 131 00e8 C2F89412 		str	r1, [r2, #660]
 132 00ec C2E9A211 		strd	r1, r1, [r2, #648]
 133 00f0 CBE7     		b	.L9
 134              	.L11:
 135 00f2 84F83800 		strb	r0, [r4, #56]
 136 00f6 84F8BD34 		strb	r3, [r4, #1213]
 137 00fa 636A     		ldr	r3, [r4, #36]
 138 00fc 012B     		cmp	r3, #1
 139 00fe 02D1     		bne	.L12
 140 0100 2046     		mov	r0, r4
 141 0102 FFF7FEFF 		bl	HAL_PCDEx_ActivateLPM
 142              	.L12:
 143 0106 2068     		ldr	r0, [r4]
 144 0108 FFF7FEFF 		bl	USB_DevDisconnect
 145              	.L3:
 146 010c 2846     		mov	r0, r5
 147 010e 0BB0     		add	sp, sp, #44
 148              		@ sp needed
 149 0110 F0BD     		pop	{r4, r5, r6, r7, pc}
 151              		.section	.text.HAL_PCD_MspDeInit,"ax",%progbits
 152              		.align	1
 153              		.weak	HAL_PCD_MspDeInit
 154              		.syntax unified
 155              		.thumb
 156              		.thumb_func
 157              		.fpu fpv5-sp-d16
 159              	HAL_PCD_MspDeInit:
 160              		@ args = 0, pretend = 0, frame = 0
 161              		@ frame_needed = 0, uses_anonymous_args = 0
 162              		@ link register save eliminated.
 163 0000 7047     		bx	lr
 165              		.section	.text.HAL_PCD_DeInit,"ax",%progbits
 166              		.align	1
 167              		.global	HAL_PCD_DeInit
 168              		.syntax unified
 169              		.thumb
 170              		.thumb_func
 171              		.fpu fpv5-sp-d16
 173              	HAL_PCD_DeInit:
 174              		@ args = 0, pretend = 0, frame = 0
 175              		@ frame_needed = 0, uses_anonymous_args = 0
 176 0000 38B5     		push	{r3, r4, r5, lr}
 177 0002 0446     		mov	r4, r0
 178 0004 10B9     		cbnz	r0, .L16
ARM GAS  /tmp/cc2VSDCt.s 			page 4


 179              	.L18:
 180 0006 0125     		movs	r5, #1
 181              	.L17:
 182 0008 2846     		mov	r0, r5
 183 000a 38BD     		pop	{r3, r4, r5, pc}
 184              	.L16:
 185 000c 0323     		movs	r3, #3
 186 000e 80F8BD34 		strb	r3, [r0, #1213]
 187 0012 0068     		ldr	r0, [r0]
 188 0014 FFF7FEFF 		bl	USB_StopDevice
 189 0018 0546     		mov	r5, r0
 190 001a 0028     		cmp	r0, #0
 191 001c F3D1     		bne	.L18
 192 001e 2046     		mov	r0, r4
 193 0020 FFF7FEFF 		bl	HAL_PCD_MspDeInit
 194 0024 84F8BD54 		strb	r5, [r4, #1213]
 195 0028 EEE7     		b	.L17
 197              		.section	.text.HAL_PCD_Start,"ax",%progbits
 198              		.align	1
 199              		.global	HAL_PCD_Start
 200              		.syntax unified
 201              		.thumb
 202              		.thumb_func
 203              		.fpu fpv5-sp-d16
 205              	HAL_PCD_Start:
 206              		@ args = 0, pretend = 0, frame = 0
 207              		@ frame_needed = 0, uses_anonymous_args = 0
 208 0000 10B5     		push	{r4, lr}
 209 0002 90F8BC34 		ldrb	r3, [r0, #1212]	@ zero_extendqisi2
 210 0006 0446     		mov	r4, r0
 211 0008 012B     		cmp	r3, #1
 212 000a 0CD0     		beq	.L21
 213 000c 0123     		movs	r3, #1
 214 000e 80F8BC34 		strb	r3, [r0, #1212]
 215 0012 0068     		ldr	r0, [r0]
 216 0014 FFF7FEFF 		bl	USB_EnableGlobalInt
 217 0018 2068     		ldr	r0, [r4]
 218 001a FFF7FEFF 		bl	USB_DevConnect
 219 001e 0020     		movs	r0, #0
 220 0020 84F8BC04 		strb	r0, [r4, #1212]
 221              	.L20:
 222 0024 10BD     		pop	{r4, pc}
 223              	.L21:
 224 0026 0220     		movs	r0, #2
 225 0028 FCE7     		b	.L20
 227              		.section	.text.HAL_PCD_Stop,"ax",%progbits
 228              		.align	1
 229              		.global	HAL_PCD_Stop
 230              		.syntax unified
 231              		.thumb
 232              		.thumb_func
 233              		.fpu fpv5-sp-d16
 235              	HAL_PCD_Stop:
 236              		@ args = 0, pretend = 0, frame = 0
 237              		@ frame_needed = 0, uses_anonymous_args = 0
 238 0000 10B5     		push	{r4, lr}
 239 0002 90F8BC34 		ldrb	r3, [r0, #1212]	@ zero_extendqisi2
ARM GAS  /tmp/cc2VSDCt.s 			page 5


 240 0006 0446     		mov	r4, r0
 241 0008 012B     		cmp	r3, #1
 242 000a 10D0     		beq	.L24
 243 000c 0123     		movs	r3, #1
 244 000e 80F8BC34 		strb	r3, [r0, #1212]
 245 0012 0068     		ldr	r0, [r0]
 246 0014 FFF7FEFF 		bl	USB_DisableGlobalInt
 247 0018 2068     		ldr	r0, [r4]
 248 001a FFF7FEFF 		bl	USB_DevDisconnect
 249 001e 1021     		movs	r1, #16
 250 0020 2068     		ldr	r0, [r4]
 251 0022 FFF7FEFF 		bl	USB_FlushTxFifo
 252 0026 0020     		movs	r0, #0
 253 0028 84F8BC04 		strb	r0, [r4, #1212]
 254              	.L23:
 255 002c 10BD     		pop	{r4, pc}
 256              	.L24:
 257 002e 0220     		movs	r0, #2
 258 0030 FCE7     		b	.L23
 260              		.section	.text.HAL_PCD_WKUP_IRQHandler,"ax",%progbits
 261              		.align	1
 262              		.global	HAL_PCD_WKUP_IRQHandler
 263              		.syntax unified
 264              		.thumb
 265              		.thumb_func
 266              		.fpu fpv5-sp-d16
 268              	HAL_PCD_WKUP_IRQHandler:
 269              		@ args = 0, pretend = 0, frame = 0
 270              		@ frame_needed = 0, uses_anonymous_args = 0
 271              		@ link register save eliminated.
 272 0000 0368     		ldr	r3, [r0]
 273 0002 DB6B     		ldr	r3, [r3, #60]
 274 0004 13F4807F 		tst	r3, #256
 275 0008 034B     		ldr	r3, .L29
 276 000a 0CBF     		ite	eq
 277 000c 4FF48022 		moveq	r2, #262144
 278 0010 4FF48012 		movne	r2, #1048576
 279 0014 5A61     		str	r2, [r3, #20]
 280 0016 7047     		bx	lr
 281              	.L30:
 282              		.align	2
 283              	.L29:
 284 0018 003C0140 		.word	1073822720
 286              		.section	.text.HAL_PCD_DataOutStageCallback,"ax",%progbits
 287              		.align	1
 288              		.weak	HAL_PCD_DataOutStageCallback
 289              		.syntax unified
 290              		.thumb
 291              		.thumb_func
 292              		.fpu fpv5-sp-d16
 294              	HAL_PCD_DataOutStageCallback:
 295              		@ args = 0, pretend = 0, frame = 0
 296              		@ frame_needed = 0, uses_anonymous_args = 0
 297              		@ link register save eliminated.
 298 0000 7047     		bx	lr
 300              		.section	.text.HAL_PCD_DataInStageCallback,"ax",%progbits
 301              		.align	1
ARM GAS  /tmp/cc2VSDCt.s 			page 6


 302              		.weak	HAL_PCD_DataInStageCallback
 303              		.syntax unified
 304              		.thumb
 305              		.thumb_func
 306              		.fpu fpv5-sp-d16
 308              	HAL_PCD_DataInStageCallback:
 309              		@ args = 0, pretend = 0, frame = 0
 310              		@ frame_needed = 0, uses_anonymous_args = 0
 311              		@ link register save eliminated.
 312 0000 7047     		bx	lr
 314              		.section	.text.HAL_PCD_SetupStageCallback,"ax",%progbits
 315              		.align	1
 316              		.weak	HAL_PCD_SetupStageCallback
 317              		.syntax unified
 318              		.thumb
 319              		.thumb_func
 320              		.fpu fpv5-sp-d16
 322              	HAL_PCD_SetupStageCallback:
 323              		@ args = 0, pretend = 0, frame = 0
 324              		@ frame_needed = 0, uses_anonymous_args = 0
 325              		@ link register save eliminated.
 326 0000 7047     		bx	lr
 328              		.section	.text.HAL_PCD_SOFCallback,"ax",%progbits
 329              		.align	1
 330              		.weak	HAL_PCD_SOFCallback
 331              		.syntax unified
 332              		.thumb
 333              		.thumb_func
 334              		.fpu fpv5-sp-d16
 336              	HAL_PCD_SOFCallback:
 337              		@ args = 0, pretend = 0, frame = 0
 338              		@ frame_needed = 0, uses_anonymous_args = 0
 339              		@ link register save eliminated.
 340 0000 7047     		bx	lr
 342              		.section	.text.HAL_PCD_ResetCallback,"ax",%progbits
 343              		.align	1
 344              		.weak	HAL_PCD_ResetCallback
 345              		.syntax unified
 346              		.thumb
 347              		.thumb_func
 348              		.fpu fpv5-sp-d16
 350              	HAL_PCD_ResetCallback:
 351              		@ args = 0, pretend = 0, frame = 0
 352              		@ frame_needed = 0, uses_anonymous_args = 0
 353              		@ link register save eliminated.
 354 0000 7047     		bx	lr
 356              		.section	.text.HAL_PCD_SuspendCallback,"ax",%progbits
 357              		.align	1
 358              		.weak	HAL_PCD_SuspendCallback
 359              		.syntax unified
 360              		.thumb
 361              		.thumb_func
 362              		.fpu fpv5-sp-d16
 364              	HAL_PCD_SuspendCallback:
 365              		@ args = 0, pretend = 0, frame = 0
 366              		@ frame_needed = 0, uses_anonymous_args = 0
 367              		@ link register save eliminated.
ARM GAS  /tmp/cc2VSDCt.s 			page 7


 368 0000 7047     		bx	lr
 370              		.section	.text.HAL_PCD_ResumeCallback,"ax",%progbits
 371              		.align	1
 372              		.weak	HAL_PCD_ResumeCallback
 373              		.syntax unified
 374              		.thumb
 375              		.thumb_func
 376              		.fpu fpv5-sp-d16
 378              	HAL_PCD_ResumeCallback:
 379              		@ args = 0, pretend = 0, frame = 0
 380              		@ frame_needed = 0, uses_anonymous_args = 0
 381              		@ link register save eliminated.
 382 0000 7047     		bx	lr
 384              		.section	.text.HAL_PCD_ISOOUTIncompleteCallback,"ax",%progbits
 385              		.align	1
 386              		.weak	HAL_PCD_ISOOUTIncompleteCallback
 387              		.syntax unified
 388              		.thumb
 389              		.thumb_func
 390              		.fpu fpv5-sp-d16
 392              	HAL_PCD_ISOOUTIncompleteCallback:
 393              		@ args = 0, pretend = 0, frame = 0
 394              		@ frame_needed = 0, uses_anonymous_args = 0
 395              		@ link register save eliminated.
 396 0000 7047     		bx	lr
 398              		.section	.text.HAL_PCD_ISOINIncompleteCallback,"ax",%progbits
 399              		.align	1
 400              		.weak	HAL_PCD_ISOINIncompleteCallback
 401              		.syntax unified
 402              		.thumb
 403              		.thumb_func
 404              		.fpu fpv5-sp-d16
 406              	HAL_PCD_ISOINIncompleteCallback:
 407              		@ args = 0, pretend = 0, frame = 0
 408              		@ frame_needed = 0, uses_anonymous_args = 0
 409              		@ link register save eliminated.
 410 0000 7047     		bx	lr
 412              		.section	.text.HAL_PCD_ConnectCallback,"ax",%progbits
 413              		.align	1
 414              		.weak	HAL_PCD_ConnectCallback
 415              		.syntax unified
 416              		.thumb
 417              		.thumb_func
 418              		.fpu fpv5-sp-d16
 420              	HAL_PCD_ConnectCallback:
 421              		@ args = 0, pretend = 0, frame = 0
 422              		@ frame_needed = 0, uses_anonymous_args = 0
 423              		@ link register save eliminated.
 424 0000 7047     		bx	lr
 426              		.section	.text.HAL_PCD_DisconnectCallback,"ax",%progbits
 427              		.align	1
 428              		.weak	HAL_PCD_DisconnectCallback
 429              		.syntax unified
 430              		.thumb
 431              		.thumb_func
 432              		.fpu fpv5-sp-d16
 434              	HAL_PCD_DisconnectCallback:
ARM GAS  /tmp/cc2VSDCt.s 			page 8


 435              		@ args = 0, pretend = 0, frame = 0
 436              		@ frame_needed = 0, uses_anonymous_args = 0
 437              		@ link register save eliminated.
 438 0000 7047     		bx	lr
 440              		.section	.text.HAL_PCD_DevConnect,"ax",%progbits
 441              		.align	1
 442              		.global	HAL_PCD_DevConnect
 443              		.syntax unified
 444              		.thumb
 445              		.thumb_func
 446              		.fpu fpv5-sp-d16
 448              	HAL_PCD_DevConnect:
 449              		@ args = 0, pretend = 0, frame = 0
 450              		@ frame_needed = 0, uses_anonymous_args = 0
 451 0000 10B5     		push	{r4, lr}
 452 0002 90F8BC34 		ldrb	r3, [r0, #1212]	@ zero_extendqisi2
 453 0006 0446     		mov	r4, r0
 454 0008 012B     		cmp	r3, #1
 455 000a 09D0     		beq	.L44
 456 000c 0123     		movs	r3, #1
 457 000e 80F8BC34 		strb	r3, [r0, #1212]
 458 0012 0068     		ldr	r0, [r0]
 459 0014 FFF7FEFF 		bl	USB_DevConnect
 460 0018 0020     		movs	r0, #0
 461 001a 84F8BC04 		strb	r0, [r4, #1212]
 462              	.L43:
 463 001e 10BD     		pop	{r4, pc}
 464              	.L44:
 465 0020 0220     		movs	r0, #2
 466 0022 FCE7     		b	.L43
 468              		.section	.text.HAL_PCD_DevDisconnect,"ax",%progbits
 469              		.align	1
 470              		.global	HAL_PCD_DevDisconnect
 471              		.syntax unified
 472              		.thumb
 473              		.thumb_func
 474              		.fpu fpv5-sp-d16
 476              	HAL_PCD_DevDisconnect:
 477              		@ args = 0, pretend = 0, frame = 0
 478              		@ frame_needed = 0, uses_anonymous_args = 0
 479 0000 10B5     		push	{r4, lr}
 480 0002 90F8BC34 		ldrb	r3, [r0, #1212]	@ zero_extendqisi2
 481 0006 0446     		mov	r4, r0
 482 0008 012B     		cmp	r3, #1
 483 000a 09D0     		beq	.L47
 484 000c 0123     		movs	r3, #1
 485 000e 80F8BC34 		strb	r3, [r0, #1212]
 486 0012 0068     		ldr	r0, [r0]
 487 0014 FFF7FEFF 		bl	USB_DevDisconnect
 488 0018 0020     		movs	r0, #0
 489 001a 84F8BC04 		strb	r0, [r4, #1212]
 490              	.L46:
 491 001e 10BD     		pop	{r4, pc}
 492              	.L47:
 493 0020 0220     		movs	r0, #2
 494 0022 FCE7     		b	.L46
 496              		.section	.text.HAL_PCD_SetAddress,"ax",%progbits
ARM GAS  /tmp/cc2VSDCt.s 			page 9


 497              		.align	1
 498              		.global	HAL_PCD_SetAddress
 499              		.syntax unified
 500              		.thumb
 501              		.thumb_func
 502              		.fpu fpv5-sp-d16
 504              	HAL_PCD_SetAddress:
 505              		@ args = 0, pretend = 0, frame = 0
 506              		@ frame_needed = 0, uses_anonymous_args = 0
 507 0000 10B5     		push	{r4, lr}
 508 0002 90F8BC24 		ldrb	r2, [r0, #1212]	@ zero_extendqisi2
 509 0006 0446     		mov	r4, r0
 510 0008 012A     		cmp	r2, #1
 511 000a 0BD0     		beq	.L50
 512 000c 0122     		movs	r2, #1
 513 000e 80F83810 		strb	r1, [r0, #56]
 514 0012 80F8BC24 		strb	r2, [r0, #1212]
 515 0016 0068     		ldr	r0, [r0]
 516 0018 FFF7FEFF 		bl	USB_SetDevAddress
 517 001c 0020     		movs	r0, #0
 518 001e 84F8BC04 		strb	r0, [r4, #1212]
 519              	.L49:
 520 0022 10BD     		pop	{r4, pc}
 521              	.L50:
 522 0024 0220     		movs	r0, #2
 523 0026 FCE7     		b	.L49
 525              		.section	.text.HAL_PCD_EP_Open,"ax",%progbits
 526              		.align	1
 527              		.global	HAL_PCD_EP_Open
 528              		.syntax unified
 529              		.thumb
 530              		.thumb_func
 531              		.fpu fpv5-sp-d16
 533              	HAL_PCD_EP_Open:
 534              		@ args = 0, pretend = 0, frame = 0
 535              		@ frame_needed = 0, uses_anonymous_args = 0
 536 0000 70B5     		push	{r4, r5, r6, lr}
 537 0002 01F00F06 		and	r6, r1, #15
 538 0006 11F0800F 		tst	r1, #128
 539 000a 0546     		mov	r5, r0
 540 000c 4FF02400 		mov	r0, #36
 541 0010 06EBC604 		add	r4, r6, r6, lsl #3
 542 0014 4FEA8404 		lsl	r4, r4, #2
 543 0018 1FD0     		beq	.L52
 544 001a 04F13C01 		add	r1, r4, #60
 545 001e 00FB0650 		mla	r0, r0, r6, r5
 546 0022 0124     		movs	r4, #1
 547 0024 2944     		add	r1, r1, r5
 548 0026 80F83D40 		strb	r4, [r0, #61]
 549              	.L53:
 550 002a CA60     		str	r2, [r1, #12]
 551 002c 4A78     		ldrb	r2, [r1, #1]	@ zero_extendqisi2
 552 002e 0E70     		strb	r6, [r1]
 553 0030 0B71     		strb	r3, [r1, #4]
 554 0032 02B1     		cbz	r2, .L54
 555 0034 0E81     		strh	r6, [r1, #8]	@ movhi
 556              	.L54:
ARM GAS  /tmp/cc2VSDCt.s 			page 10


 557 0036 022B     		cmp	r3, #2
 558 0038 04BF     		itt	eq
 559 003a 0023     		moveq	r3, #0
 560 003c 4B71     		strbeq	r3, [r1, #5]
 561 003e 95F8BC34 		ldrb	r3, [r5, #1212]	@ zero_extendqisi2
 562 0042 012B     		cmp	r3, #1
 563 0044 12D0     		beq	.L57
 564 0046 0123     		movs	r3, #1
 565 0048 2868     		ldr	r0, [r5]
 566 004a 85F8BC34 		strb	r3, [r5, #1212]
 567 004e FFF7FEFF 		bl	USB_ActivateEndpoint
 568 0052 0020     		movs	r0, #0
 569 0054 85F8BC04 		strb	r0, [r5, #1212]
 570              	.L56:
 571 0058 70BD     		pop	{r4, r5, r6, pc}
 572              	.L52:
 573 005a 04F51F71 		add	r1, r4, #636
 574 005e 00FB0650 		mla	r0, r0, r6, r5
 575 0062 0024     		movs	r4, #0
 576 0064 2944     		add	r1, r1, r5
 577 0066 80F87D42 		strb	r4, [r0, #637]
 578 006a DEE7     		b	.L53
 579              	.L57:
 580 006c 0220     		movs	r0, #2
 581 006e F3E7     		b	.L56
 583              		.section	.text.HAL_PCD_EP_Close,"ax",%progbits
 584              		.align	1
 585              		.global	HAL_PCD_EP_Close
 586              		.syntax unified
 587              		.thumb
 588              		.thumb_func
 589              		.fpu fpv5-sp-d16
 591              	HAL_PCD_EP_Close:
 592              		@ args = 0, pretend = 0, frame = 0
 593              		@ frame_needed = 0, uses_anonymous_args = 0
 594 0000 10B5     		push	{r4, lr}
 595 0002 0446     		mov	r4, r0
 596 0004 01F00F00 		and	r0, r1, #15
 597 0008 11F0800F 		tst	r1, #128
 598 000c 4FF02402 		mov	r2, #36
 599 0010 00EBC003 		add	r3, r0, r0, lsl #3
 600 0014 4FEA8303 		lsl	r3, r3, #2
 601 0018 16D0     		beq	.L62
 602 001a 03F13C01 		add	r1, r3, #60
 603 001e 02FB0042 		mla	r2, r2, r0, r4
 604 0022 0123     		movs	r3, #1
 605 0024 2144     		add	r1, r1, r4
 606 0026 82F83D30 		strb	r3, [r2, #61]
 607              	.L63:
 608 002a 0870     		strb	r0, [r1]
 609 002c 94F8BC34 		ldrb	r3, [r4, #1212]	@ zero_extendqisi2
 610 0030 012B     		cmp	r3, #1
 611 0032 12D0     		beq	.L65
 612 0034 0123     		movs	r3, #1
 613 0036 2068     		ldr	r0, [r4]
 614 0038 84F8BC34 		strb	r3, [r4, #1212]
 615 003c FFF7FEFF 		bl	USB_DeactivateEndpoint
ARM GAS  /tmp/cc2VSDCt.s 			page 11


 616 0040 0020     		movs	r0, #0
 617 0042 84F8BC04 		strb	r0, [r4, #1212]
 618              	.L64:
 619 0046 10BD     		pop	{r4, pc}
 620              	.L62:
 621 0048 03F51F71 		add	r1, r3, #636
 622 004c 02FB0042 		mla	r2, r2, r0, r4
 623 0050 0023     		movs	r3, #0
 624 0052 2144     		add	r1, r1, r4
 625 0054 82F87D32 		strb	r3, [r2, #637]
 626 0058 E7E7     		b	.L63
 627              	.L65:
 628 005a 0220     		movs	r0, #2
 629 005c F3E7     		b	.L64
 631              		.section	.text.HAL_PCD_EP_Receive,"ax",%progbits
 632              		.align	1
 633              		.global	HAL_PCD_EP_Receive
 634              		.syntax unified
 635              		.thumb
 636              		.thumb_func
 637              		.fpu fpv5-sp-d16
 639              	HAL_PCD_EP_Receive:
 640              		@ args = 0, pretend = 0, frame = 0
 641              		@ frame_needed = 0, uses_anonymous_args = 0
 642 0000 38B5     		push	{r3, r4, r5, lr}
 643 0002 01F00F05 		and	r5, r1, #15
 644 0006 2424     		movs	r4, #36
 645 0008 04FB0501 		mla	r1, r4, r5, r0
 646 000c 04FB0504 		mla	r4, r4, r5, r0
 647 0010 01F51F71 		add	r1, r1, #636
 648 0014 C4F89432 		str	r3, [r4, #660]
 649 0018 0023     		movs	r3, #0
 650 001a C4F88C22 		str	r2, [r4, #652]
 651 001e C4F89C32 		str	r3, [r4, #668]
 652 0022 84F87D32 		strb	r3, [r4, #637]
 653 0026 84F87C52 		strb	r5, [r4, #636]
 654 002a 0369     		ldr	r3, [r0, #16]
 655 002c 0068     		ldr	r0, [r0]
 656 002e 012B     		cmp	r3, #1
 657 0030 08BF     		it	eq
 658 0032 C4F89022 		streq	r2, [r4, #656]
 659 0036 DAB2     		uxtb	r2, r3
 660 0038 1DB9     		cbnz	r5, .L68
 661 003a FFF7FEFF 		bl	USB_EP0StartXfer
 662              	.L69:
 663 003e 0020     		movs	r0, #0
 664 0040 38BD     		pop	{r3, r4, r5, pc}
 665              	.L68:
 666 0042 FFF7FEFF 		bl	USB_EPStartXfer
 667 0046 FAE7     		b	.L69
 669              		.section	.text.HAL_PCD_EP_GetRxCount,"ax",%progbits
 670              		.align	1
 671              		.global	HAL_PCD_EP_GetRxCount
 672              		.syntax unified
 673              		.thumb
 674              		.thumb_func
 675              		.fpu fpv5-sp-d16
ARM GAS  /tmp/cc2VSDCt.s 			page 12


 677              	HAL_PCD_EP_GetRxCount:
 678              		@ args = 0, pretend = 0, frame = 0
 679              		@ frame_needed = 0, uses_anonymous_args = 0
 680              		@ link register save eliminated.
 681 0000 01F00F01 		and	r1, r1, #15
 682 0004 2423     		movs	r3, #36
 683 0006 03FB0100 		mla	r0, r3, r1, r0
 684 000a D0F89C02 		ldr	r0, [r0, #668]
 685 000e 7047     		bx	lr
 687              		.section	.text.HAL_PCD_EP_Transmit,"ax",%progbits
 688              		.align	1
 689              		.global	HAL_PCD_EP_Transmit
 690              		.syntax unified
 691              		.thumb
 692              		.thumb_func
 693              		.fpu fpv5-sp-d16
 695              	HAL_PCD_EP_Transmit:
 696              		@ args = 0, pretend = 0, frame = 0
 697              		@ frame_needed = 0, uses_anonymous_args = 0
 698 0000 38B5     		push	{r3, r4, r5, lr}
 699 0002 01F00F05 		and	r5, r1, #15
 700 0006 2424     		movs	r4, #36
 701 0008 04FB0501 		mla	r1, r4, r5, r0
 702 000c 04FB0504 		mla	r4, r4, r5, r0
 703 0010 3C31     		adds	r1, r1, #60
 704 0012 6365     		str	r3, [r4, #84]
 705 0014 0023     		movs	r3, #0
 706 0016 E264     		str	r2, [r4, #76]
 707 0018 E365     		str	r3, [r4, #92]
 708 001a 0123     		movs	r3, #1
 709 001c 84F83C50 		strb	r5, [r4, #60]
 710 0020 84F83D30 		strb	r3, [r4, #61]
 711 0024 0369     		ldr	r3, [r0, #16]
 712 0026 0068     		ldr	r0, [r0]
 713 0028 012B     		cmp	r3, #1
 714 002a 08BF     		it	eq
 715 002c 2265     		streq	r2, [r4, #80]
 716 002e DAB2     		uxtb	r2, r3
 717 0030 1DB9     		cbnz	r5, .L73
 718 0032 FFF7FEFF 		bl	USB_EP0StartXfer
 719              	.L74:
 720 0036 0020     		movs	r0, #0
 721 0038 38BD     		pop	{r3, r4, r5, pc}
 722              	.L73:
 723 003a FFF7FEFF 		bl	USB_EPStartXfer
 724 003e FAE7     		b	.L74
 726              		.section	.text.HAL_PCD_EP_SetStall,"ax",%progbits
 727              		.align	1
 728              		.global	HAL_PCD_EP_SetStall
 729              		.syntax unified
 730              		.thumb
 731              		.thumb_func
 732              		.fpu fpv5-sp-d16
 734              	HAL_PCD_EP_SetStall:
 735              		@ args = 0, pretend = 0, frame = 0
 736              		@ frame_needed = 0, uses_anonymous_args = 0
 737 0000 38B5     		push	{r3, r4, r5, lr}
ARM GAS  /tmp/cc2VSDCt.s 			page 13


 738 0002 01F00F05 		and	r5, r1, #15
 739 0006 4368     		ldr	r3, [r0, #4]
 740 0008 0446     		mov	r4, r0
 741 000a 9D42     		cmp	r5, r3
 742 000c 2CD8     		bhi	.L80
 743 000e 11F0800F 		tst	r1, #128
 744 0012 4FF02400 		mov	r0, #36
 745 0016 1ED0     		beq	.L77
 746 0018 00FB0541 		mla	r1, r0, r5, r4
 747 001c 0123     		movs	r3, #1
 748 001e 00FB0542 		mla	r2, r0, r5, r4
 749 0022 3C31     		adds	r1, r1, #60
 750 0024 82F83D30 		strb	r3, [r2, #61]
 751              	.L78:
 752 0028 0123     		movs	r3, #1
 753 002a 0D70     		strb	r5, [r1]
 754 002c 8B70     		strb	r3, [r1, #2]
 755 002e 94F8BC24 		ldrb	r2, [r4, #1212]	@ zero_extendqisi2
 756 0032 9A42     		cmp	r2, r3
 757 0034 1AD0     		beq	.L81
 758 0036 2068     		ldr	r0, [r4]
 759 0038 84F8BC34 		strb	r3, [r4, #1212]
 760 003c FFF7FEFF 		bl	USB_EPSetStall
 761 0040 2DB9     		cbnz	r5, .L79
 762 0042 04F2C442 		addw	r2, r4, #1220
 763 0046 217C     		ldrb	r1, [r4, #16]	@ zero_extendqisi2
 764 0048 2068     		ldr	r0, [r4]
 765 004a FFF7FEFF 		bl	USB_EP0_OutStart
 766              	.L79:
 767 004e 0020     		movs	r0, #0
 768 0050 84F8BC04 		strb	r0, [r4, #1212]
 769              	.L76:
 770 0054 38BD     		pop	{r3, r4, r5, pc}
 771              	.L77:
 772 0056 00FB0143 		mla	r3, r0, r1, r4
 773 005a 1A46     		mov	r2, r3
 774 005c 03F51F71 		add	r1, r3, #636
 775 0060 0023     		movs	r3, #0
 776 0062 82F87D32 		strb	r3, [r2, #637]
 777 0066 DFE7     		b	.L78
 778              	.L80:
 779 0068 0120     		movs	r0, #1
 780 006a F3E7     		b	.L76
 781              	.L81:
 782 006c 0220     		movs	r0, #2
 783 006e F1E7     		b	.L76
 785              		.section	.text.HAL_PCD_EP_ClrStall,"ax",%progbits
 786              		.align	1
 787              		.global	HAL_PCD_EP_ClrStall
 788              		.syntax unified
 789              		.thumb
 790              		.thumb_func
 791              		.fpu fpv5-sp-d16
 793              	HAL_PCD_EP_ClrStall:
 794              		@ args = 0, pretend = 0, frame = 0
 795              		@ frame_needed = 0, uses_anonymous_args = 0
 796 0000 38B5     		push	{r3, r4, r5, lr}
ARM GAS  /tmp/cc2VSDCt.s 			page 14


 797 0002 01F00F02 		and	r2, r1, #15
 798 0006 4368     		ldr	r3, [r0, #4]
 799 0008 0446     		mov	r4, r0
 800 000a 9A42     		cmp	r2, r3
 801 000c 2AD8     		bhi	.L86
 802 000e 02EBC203 		add	r3, r2, r2, lsl #3
 803 0012 11F0800F 		tst	r1, #128
 804 0016 4FF02400 		mov	r0, #36
 805 001a 4FEA8303 		lsl	r3, r3, #2
 806 001e 18D0     		beq	.L84
 807 0020 03F13C01 		add	r1, r3, #60
 808 0024 00FB0240 		mla	r0, r0, r2, r4
 809 0028 0123     		movs	r3, #1
 810 002a 2144     		add	r1, r1, r4
 811 002c 80F83D30 		strb	r3, [r0, #61]
 812              	.L85:
 813 0030 0025     		movs	r5, #0
 814 0032 0A70     		strb	r2, [r1]
 815 0034 8D70     		strb	r5, [r1, #2]
 816 0036 94F8BC34 		ldrb	r3, [r4, #1212]	@ zero_extendqisi2
 817 003a 012B     		cmp	r3, #1
 818 003c 14D0     		beq	.L87
 819 003e 0123     		movs	r3, #1
 820 0040 2068     		ldr	r0, [r4]
 821 0042 84F8BC34 		strb	r3, [r4, #1212]
 822 0046 FFF7FEFF 		bl	USB_EPClearStall
 823 004a 2846     		mov	r0, r5
 824 004c 84F8BC54 		strb	r5, [r4, #1212]
 825              	.L83:
 826 0050 38BD     		pop	{r3, r4, r5, pc}
 827              	.L84:
 828 0052 03F51F71 		add	r1, r3, #636
 829 0056 00FB0240 		mla	r0, r0, r2, r4
 830 005a 0023     		movs	r3, #0
 831 005c 2144     		add	r1, r1, r4
 832 005e 80F87D32 		strb	r3, [r0, #637]
 833 0062 E5E7     		b	.L85
 834              	.L86:
 835 0064 0120     		movs	r0, #1
 836 0066 F3E7     		b	.L83
 837              	.L87:
 838 0068 0220     		movs	r0, #2
 839 006a F1E7     		b	.L83
 841              		.section	.text.HAL_PCD_EP_Abort,"ax",%progbits
 842              		.align	1
 843              		.global	HAL_PCD_EP_Abort
 844              		.syntax unified
 845              		.thumb
 846              		.thumb_func
 847              		.fpu fpv5-sp-d16
 849              	HAL_PCD_EP_Abort:
 850              		@ args = 0, pretend = 0, frame = 0
 851              		@ frame_needed = 0, uses_anonymous_args = 0
 852              		@ link register save eliminated.
 853 0000 01F00F03 		and	r3, r1, #15
 854 0004 0A06     		lsls	r2, r1, #24
 855 0006 03EBC303 		add	r3, r3, r3, lsl #3
ARM GAS  /tmp/cc2VSDCt.s 			page 15


 856 000a 4FEA8303 		lsl	r3, r3, #2
 857 000e 4CBF     		ite	mi
 858 0010 03F13C01 		addmi	r1, r3, #60
 859 0014 03F51F71 		addpl	r1, r3, #636
 860 0018 0144     		add	r1, r1, r0
 861 001a 0068     		ldr	r0, [r0]
 862 001c FFF7FEBF 		b	USB_EPStopXfer
 864              		.section	.text.HAL_PCD_IRQHandler,"ax",%progbits
 865              		.align	1
 866              		.global	HAL_PCD_IRQHandler
 867              		.syntax unified
 868              		.thumb
 869              		.thumb_func
 870              		.fpu fpv5-sp-d16
 872              	HAL_PCD_IRQHandler:
 873              		@ args = 0, pretend = 0, frame = 24
 874              		@ frame_needed = 0, uses_anonymous_args = 0
 875 0000 2DE9F04F 		push	{r4, r5, r6, r7, r8, r9, r10, fp, lr}
 876 0004 0668     		ldr	r6, [r0]
 877 0006 89B0     		sub	sp, sp, #36
 878 0008 0446     		mov	r4, r0
 879 000a 3046     		mov	r0, r6
 880 000c FFF7FEFF 		bl	USB_GetMode
 881 0010 0390     		str	r0, [sp, #12]
 882 0012 0028     		cmp	r0, #0
 883 0014 40F06F81 		bne	.L92
 884 0018 2068     		ldr	r0, [r4]
 885 001a FFF7FEFF 		bl	USB_ReadInterrupts
 886 001e 0028     		cmp	r0, #0
 887 0020 00F06981 		beq	.L92
 888 0024 D6F80838 		ldr	r3, [r6, #2056]
 889 0028 06F50065 		add	r5, r6, #2048
 890 002c 2068     		ldr	r0, [r4]
 891 002e C3F30D23 		ubfx	r3, r3, #8, #14
 892 0032 C4F8FC34 		str	r3, [r4, #1276]
 893 0036 FFF7FEFF 		bl	USB_ReadInterrupts
 894 003a 8107     		lsls	r1, r0, #30
 895 003c 04D5     		bpl	.L96
 896 003e 2268     		ldr	r2, [r4]
 897 0040 5369     		ldr	r3, [r2, #20]
 898 0042 03F00203 		and	r3, r3, #2
 899 0046 5361     		str	r3, [r2, #20]
 900              	.L96:
 901 0048 2068     		ldr	r0, [r4]
 902 004a FFF7FEFF 		bl	USB_ReadInterrupts
 903 004e C206     		lsls	r2, r0, #27
 904 0050 2CD5     		bpl	.L97
 905 0052 2268     		ldr	r2, [r4]
 906 0054 9369     		ldr	r3, [r2, #24]
 907 0056 23F01003 		bic	r3, r3, #16
 908 005a 9361     		str	r3, [r2, #24]
 909 005c D6F82080 		ldr	r8, [r6, #32]
 910 0060 C8F34343 		ubfx	r3, r8, #17, #4
 911 0064 08F00F07 		and	r7, r8, #15
 912 0068 022B     		cmp	r3, #2
 913 006a 40F04781 		bne	.L98
 914 006e 47F6F073 		movw	r3, #32752
ARM GAS  /tmp/cc2VSDCt.s 			page 16


 915 0072 18EA030F 		tst	r8, r3
 916 0076 14D0     		beq	.L99
 917 0078 2423     		movs	r3, #36
 918 007a C8F30A19 		ubfx	r9, r8, #4, #11
 919 007e 3046     		mov	r0, r6
 920 0080 03FB0747 		mla	r7, r3, r7, r4
 921 0084 4A46     		mov	r2, r9
 922 0086 D7F88C12 		ldr	r1, [r7, #652]
 923 008a FFF7FEFF 		bl	USB_ReadPacket
 924 008e D7F88C32 		ldr	r3, [r7, #652]
 925 0092 4B44     		add	r3, r3, r9
 926 0094 C7F88C32 		str	r3, [r7, #652]
 927 0098 D7F89C32 		ldr	r3, [r7, #668]
 928 009c 4B44     		add	r3, r3, r9
 929              	.L270:
 930 009e C7F89C32 		str	r3, [r7, #668]
 931              	.L99:
 932 00a2 2268     		ldr	r2, [r4]
 933 00a4 9369     		ldr	r3, [r2, #24]
 934 00a6 43F01003 		orr	r3, r3, #16
 935 00aa 9361     		str	r3, [r2, #24]
 936              	.L97:
 937 00ac 2068     		ldr	r0, [r4]
 938 00ae FFF7FEFF 		bl	USB_ReadInterrupts
 939 00b2 0303     		lsls	r3, r0, #12
 940 00b4 00F13481 		bmi	.L100
 941              	.L130:
 942 00b8 2068     		ldr	r0, [r4]
 943 00ba FFF7FEFF 		bl	USB_ReadInterrupts
 944 00be 4703     		lsls	r7, r0, #13
 945 00c0 0CD5     		bpl	.L102
 946 00c2 2746     		mov	r7, r4
 947 00c4 06F5106A 		add	r10, r6, #2304
 948 00c8 4FF00009 		mov	r9, #0
 949 00cc 2068     		ldr	r0, [r4]
 950 00ce FFF7FEFF 		bl	USB_ReadDevAllInEpInterrupt
 951 00d2 0490     		str	r0, [sp, #16]
 952              	.L133:
 953 00d4 049B     		ldr	r3, [sp, #16]
 954 00d6 002B     		cmp	r3, #0
 955 00d8 40F0EA81 		bne	.L150
 956              	.L102:
 957 00dc 2068     		ldr	r0, [r4]
 958 00de FFF7FEFF 		bl	USB_ReadInterrupts
 959 00e2 0028     		cmp	r0, #0
 960 00e4 13DA     		bge	.L132
 961 00e6 6B68     		ldr	r3, [r5, #4]
 962 00e8 23F00103 		bic	r3, r3, #1
 963 00ec 6B60     		str	r3, [r5, #4]
 964 00ee 94F8F434 		ldrb	r3, [r4, #1268]	@ zero_extendqisi2
 965 00f2 012B     		cmp	r3, #1
 966 00f4 40F08582 		bne	.L151
 967 00f8 0021     		movs	r1, #0
 968 00fa 2046     		mov	r0, r4
 969 00fc 84F8F414 		strb	r1, [r4, #1268]
 970 0100 FFF7FEFF 		bl	HAL_PCDEx_LPM_Callback
 971              	.L152:
ARM GAS  /tmp/cc2VSDCt.s 			page 17


 972 0104 2268     		ldr	r2, [r4]
 973 0106 5369     		ldr	r3, [r2, #20]
 974 0108 03F00043 		and	r3, r3, #-2147483648
 975 010c 5361     		str	r3, [r2, #20]
 976              	.L132:
 977 010e 2068     		ldr	r0, [r4]
 978 0110 FFF7FEFF 		bl	USB_ReadInterrupts
 979 0114 0005     		lsls	r0, r0, #20
 980 0116 0AD5     		bpl	.L153
 981 0118 AB68     		ldr	r3, [r5, #8]
 982 011a D907     		lsls	r1, r3, #31
 983 011c 02D5     		bpl	.L154
 984 011e 2046     		mov	r0, r4
 985 0120 FFF7FEFF 		bl	HAL_PCD_SuspendCallback
 986              	.L154:
 987 0124 2268     		ldr	r2, [r4]
 988 0126 5369     		ldr	r3, [r2, #20]
 989 0128 03F40063 		and	r3, r3, #2048
 990 012c 5361     		str	r3, [r2, #20]
 991              	.L153:
 992 012e 2068     		ldr	r0, [r4]
 993 0130 FFF7FEFF 		bl	USB_ReadInterrupts
 994 0134 0201     		lsls	r2, r0, #4
 995 0136 14D5     		bpl	.L155
 996 0138 2368     		ldr	r3, [r4]
 997 013a 5A69     		ldr	r2, [r3, #20]
 998 013c 02F00062 		and	r2, r2, #134217728
 999 0140 5A61     		str	r2, [r3, #20]
 1000 0142 94F8F424 		ldrb	r2, [r4, #1268]	@ zero_extendqisi2
 1001 0146 002A     		cmp	r2, #0
 1002 0148 40F05F82 		bne	.L156
 1003 014c 0121     		movs	r1, #1
 1004 014e 2046     		mov	r0, r4
 1005 0150 84F8F414 		strb	r1, [r4, #1268]
 1006 0154 5B6D     		ldr	r3, [r3, #84]
 1007 0156 C3F38303 		ubfx	r3, r3, #2, #4
 1008 015a C4F8F834 		str	r3, [r4, #1272]
 1009 015e FFF7FEFF 		bl	HAL_PCDEx_LPM_Callback
 1010              	.L155:
 1011 0162 2068     		ldr	r0, [r4]
 1012 0164 FFF7FEFF 		bl	USB_ReadInterrupts
 1013 0168 C304     		lsls	r3, r0, #19
 1014 016a 33D5     		bpl	.L157
 1015 016c 6B68     		ldr	r3, [r5, #4]
 1016 016e 1021     		movs	r1, #16
 1017 0170 2068     		ldr	r0, [r4]
 1018 0172 23F00103 		bic	r3, r3, #1
 1019 0176 6B60     		str	r3, [r5, #4]
 1020 0178 FFF7FEFF 		bl	USB_FlushTxFifo
 1021 017c 06F51063 		add	r3, r6, #2304
 1022 0180 4FF67F31 		movw	r1, #64383
 1023              	.L158:
 1024 0184 6268     		ldr	r2, [r4, #4]
 1025 0186 0398     		ldr	r0, [sp, #12]
 1026 0188 8242     		cmp	r2, r0
 1027 018a 00F24782 		bhi	.L159
 1028 018e EB69     		ldr	r3, [r5, #28]
ARM GAS  /tmp/cc2VSDCt.s 			page 18


 1029 0190 43F00113 		orr	r3, r3, #65537
 1030 0194 EB61     		str	r3, [r5, #28]
 1031 0196 236B     		ldr	r3, [r4, #48]
 1032 0198 002B     		cmp	r3, #0
 1033 019a 00F05982 		beq	.L160
 1034 019e D5F88430 		ldr	r3, [r5, #132]
 1035 01a2 43F00B03 		orr	r3, r3, #11
 1036 01a6 C5F88430 		str	r3, [r5, #132]
 1037 01aa 6B6C     		ldr	r3, [r5, #68]
 1038 01ac 43F00B03 		orr	r3, r3, #11
 1039 01b0 6B64     		str	r3, [r5, #68]
 1040              	.L161:
 1041 01b2 D6F80038 		ldr	r3, [r6, #2048]
 1042 01b6 04F2C442 		addw	r2, r4, #1220
 1043 01ba 217C     		ldrb	r1, [r4, #16]	@ zero_extendqisi2
 1044 01bc 23F4FE63 		bic	r3, r3, #2032
 1045 01c0 2068     		ldr	r0, [r4]
 1046 01c2 C6F80038 		str	r3, [r6, #2048]
 1047 01c6 FFF7FEFF 		bl	USB_EP0_OutStart
 1048 01ca 2268     		ldr	r2, [r4]
 1049 01cc 5369     		ldr	r3, [r2, #20]
 1050 01ce 03F48053 		and	r3, r3, #4096
 1051 01d2 5361     		str	r3, [r2, #20]
 1052              	.L157:
 1053 01d4 2068     		ldr	r0, [r4]
 1054 01d6 FFF7FEFF 		bl	USB_ReadInterrupts
 1055 01da 8704     		lsls	r7, r0, #18
 1056 01dc 16D5     		bpl	.L162
 1057 01de 2068     		ldr	r0, [r4]
 1058 01e0 FFF7FEFF 		bl	USB_ActivateSetup
 1059 01e4 2068     		ldr	r0, [r4]
 1060 01e6 FFF7FEFF 		bl	USB_GetDevSpeed
 1061 01ea 2768     		ldr	r7, [r4]
 1062 01ec E060     		str	r0, [r4, #12]
 1063 01ee FFF7FEFF 		bl	HAL_RCC_GetHCLKFreq
 1064 01f2 227B     		ldrb	r2, [r4, #12]	@ zero_extendqisi2
 1065 01f4 0146     		mov	r1, r0
 1066 01f6 3846     		mov	r0, r7
 1067 01f8 FFF7FEFF 		bl	USB_SetTurnaroundTime
 1068 01fc 2046     		mov	r0, r4
 1069 01fe FFF7FEFF 		bl	HAL_PCD_ResetCallback
 1070 0202 2268     		ldr	r2, [r4]
 1071 0204 5369     		ldr	r3, [r2, #20]
 1072 0206 03F40053 		and	r3, r3, #8192
 1073 020a 5361     		str	r3, [r2, #20]
 1074              	.L162:
 1075 020c 2068     		ldr	r0, [r4]
 1076 020e FFF7FEFF 		bl	USB_ReadInterrupts
 1077 0212 0007     		lsls	r0, r0, #28
 1078 0214 07D5     		bpl	.L163
 1079 0216 2046     		mov	r0, r4
 1080 0218 FFF7FEFF 		bl	HAL_PCD_SOFCallback
 1081 021c 2268     		ldr	r2, [r4]
 1082 021e 5369     		ldr	r3, [r2, #20]
 1083 0220 03F00803 		and	r3, r3, #8
 1084 0224 5361     		str	r3, [r2, #20]
 1085              	.L163:
ARM GAS  /tmp/cc2VSDCt.s 			page 19


 1086 0226 2068     		ldr	r0, [r4]
 1087 0228 FFF7FEFF 		bl	USB_ReadInterrupts
 1088 022c 0106     		lsls	r1, r0, #24
 1089 022e 00F11A82 		bmi	.L164
 1090              	.L170:
 1091 0232 2068     		ldr	r0, [r4]
 1092 0234 FFF7FEFF 		bl	USB_ReadInterrupts
 1093 0238 C202     		lsls	r2, r0, #11
 1094 023a 0CD5     		bpl	.L165
 1095 023c A046     		mov	r8, r4
 1096 023e 06F51269 		add	r9, r6, #2336
 1097 0242 0127     		movs	r7, #1
 1098              	.L166:
 1099 0244 6368     		ldr	r3, [r4, #4]
 1100 0246 BB42     		cmp	r3, r7
 1101 0248 00F22682 		bhi	.L172
 1102 024c 2268     		ldr	r2, [r4]
 1103 024e 5369     		ldr	r3, [r2, #20]
 1104 0250 03F48013 		and	r3, r3, #1048576
 1105 0254 5361     		str	r3, [r2, #20]
 1106              	.L165:
 1107 0256 2068     		ldr	r0, [r4]
 1108 0258 FFF7FEFF 		bl	USB_ReadInterrupts
 1109 025c 8302     		lsls	r3, r0, #10
 1110 025e 2DD5     		bpl	.L173
 1111 0260 D4F804E0 		ldr	lr, [r4, #4]
 1112 0264 2346     		mov	r3, r4
 1113 0266 06F53260 		add	r0, r6, #2848
 1114 026a 0121     		movs	r1, #1
 1115              	.L174:
 1116 026c 8E45     		cmp	lr, r1
 1117 026e 20D9     		bls	.L176
 1118 0270 93F8A4C2 		ldrb	ip, [r3, #676]	@ zero_extendqisi2
 1119 0274 0268     		ldr	r2, [r0]
 1120 0276 BCF1010F 		cmp	ip, #1
 1121 027a 40F02382 		bne	.L175
 1122 027e 002A     		cmp	r2, #0
 1123 0280 80F22082 		bge	.L175
 1124 0284 D4F8FC74 		ldr	r7, [r4, #1276]
 1125 0288 02F48032 		and	r2, r2, #65536
 1126 028c 07F00107 		and	r7, r7, #1
 1127 0290 BA42     		cmp	r2, r7
 1128 0292 40F01782 		bne	.L175
 1129 0296 83F8A3C2 		strb	ip, [r3, #675]
 1130 029a B269     		ldr	r2, [r6, #24]
 1131 029c 42F08002 		orr	r2, r2, #128
 1132 02a0 B261     		str	r2, [r6, #24]
 1133 02a2 7269     		ldr	r2, [r6, #20]
 1134 02a4 1706     		lsls	r7, r2, #24
 1135 02a6 00F10D82 		bmi	.L175
 1136 02aa 6B68     		ldr	r3, [r5, #4]
 1137 02ac 43F40073 		orr	r3, r3, #512
 1138 02b0 6B60     		str	r3, [r5, #4]
 1139              	.L176:
 1140 02b2 2268     		ldr	r2, [r4]
 1141 02b4 5369     		ldr	r3, [r2, #20]
 1142 02b6 03F40013 		and	r3, r3, #2097152
ARM GAS  /tmp/cc2VSDCt.s 			page 20


 1143 02ba 5361     		str	r3, [r2, #20]
 1144              	.L173:
 1145 02bc 2068     		ldr	r0, [r4]
 1146 02be FFF7FEFF 		bl	USB_ReadInterrupts
 1147 02c2 4100     		lsls	r1, r0, #1
 1148 02c4 07D5     		bpl	.L178
 1149 02c6 2046     		mov	r0, r4
 1150 02c8 FFF7FEFF 		bl	HAL_PCD_ConnectCallback
 1151 02cc 2268     		ldr	r2, [r4]
 1152 02ce 5369     		ldr	r3, [r2, #20]
 1153 02d0 03F08043 		and	r3, r3, #1073741824
 1154 02d4 5361     		str	r3, [r2, #20]
 1155              	.L178:
 1156 02d6 2068     		ldr	r0, [r4]
 1157 02d8 FFF7FEFF 		bl	USB_ReadInterrupts
 1158 02dc 4207     		lsls	r2, r0, #29
 1159 02de 0AD5     		bpl	.L92
 1160 02e0 2368     		ldr	r3, [r4]
 1161 02e2 5D68     		ldr	r5, [r3, #4]
 1162 02e4 6B07     		lsls	r3, r5, #29
 1163 02e6 02D5     		bpl	.L179
 1164 02e8 2046     		mov	r0, r4
 1165 02ea FFF7FEFF 		bl	HAL_PCD_DisconnectCallback
 1166              	.L179:
 1167 02ee 2268     		ldr	r2, [r4]
 1168 02f0 5368     		ldr	r3, [r2, #4]
 1169 02f2 2B43     		orrs	r3, r3, r5
 1170 02f4 5360     		str	r3, [r2, #4]
 1171              	.L92:
 1172 02f6 09B0     		add	sp, sp, #36
 1173              		@ sp needed
 1174 02f8 BDE8F08F 		pop	{r4, r5, r6, r7, r8, r9, r10, fp, pc}
 1175              	.L98:
 1176 02fc 062B     		cmp	r3, #6
 1177 02fe 7FF4D0AE 		bne	.L99
 1178 0302 0822     		movs	r2, #8
 1179 0304 04F2C441 		addw	r1, r4, #1220
 1180 0308 3046     		mov	r0, r6
 1181 030a C8F30A18 		ubfx	r8, r8, #4, #11
 1182 030e FFF7FEFF 		bl	USB_ReadPacket
 1183 0312 2423     		movs	r3, #36
 1184 0314 03FB0747 		mla	r7, r3, r7, r4
 1185 0318 D7F89C32 		ldr	r3, [r7, #668]
 1186 031c 4344     		add	r3, r3, r8
 1187 031e BEE6     		b	.L270
 1188              	.L100:
 1189 0320 06F53068 		add	r8, r6, #2816
 1190 0324 A246     		mov	r10, r4
 1191 0326 0027     		movs	r7, #0
 1192 0328 2068     		ldr	r0, [r4]
 1193 032a FFF7FEFF 		bl	USB_ReadDevAllOutEpInterrupt
 1194 032e 0490     		str	r0, [sp, #16]
 1195              	.L103:
 1196 0330 049B     		ldr	r3, [sp, #16]
 1197 0332 002B     		cmp	r3, #0
 1198 0334 3FF4C0AE 		beq	.L130
 1199 0338 049B     		ldr	r3, [sp, #16]
ARM GAS  /tmp/cc2VSDCt.s 			page 21


 1200 033a D807     		lsls	r0, r3, #31
 1201 033c 76D5     		bpl	.L105
 1202 033e 5FFA87FB 		uxtb	fp, r7
 1203 0342 2068     		ldr	r0, [r4]
 1204 0344 5946     		mov	r1, fp
 1205 0346 FFF7FEFF 		bl	USB_ReadDevOutEPInterrupt
 1206 034a 10F0010F 		tst	r0, #1
 1207 034e 8146     		mov	r9, r0
 1208 0350 1CD0     		beq	.L107
 1209 0352 0123     		movs	r3, #1
 1210 0354 2068     		ldr	r0, [r4]
 1211 0356 2169     		ldr	r1, [r4, #16]
 1212 0358 C8F80830 		str	r3, [r8, #8]
 1213 035c 00F53063 		add	r3, r0, #2816
 1214 0360 0129     		cmp	r1, #1
 1215 0362 D0F840C0 		ldr	ip, [r0, #64]
 1216 0366 03EB4713 		add	r3, r3, r7, lsl #5
 1217 036a 9A68     		ldr	r2, [r3, #8]
 1218 036c 40F08B80 		bne	.L108
 1219 0370 1107     		lsls	r1, r2, #28
 1220 0372 07D5     		bpl	.L109
 1221 0374 A749     		ldr	r1, .L274
 1222 0376 8C45     		cmp	ip, r1
 1223 0378 08D9     		bls	.L107
 1224 037a 1004     		lsls	r0, r2, #16
 1225 037c 06D5     		bpl	.L107
 1226              	.L271:
 1227 037e 4FF40042 		mov	r2, #32768
 1228 0382 02E0     		b	.L272
 1229              	.L109:
 1230 0384 9106     		lsls	r1, r2, #26
 1231 0386 5AD5     		bpl	.L111
 1232 0388 2022     		movs	r2, #32
 1233              	.L272:
 1234 038a 9A60     		str	r2, [r3, #8]
 1235              	.L107:
 1236 038c 19F0080F 		tst	r9, #8
 1237 0390 21D0     		beq	.L120
 1238 0392 0823     		movs	r3, #8
 1239 0394 9F48     		ldr	r0, .L274
 1240 0396 C8F80830 		str	r3, [r8, #8]
 1241 039a 2368     		ldr	r3, [r4]
 1242 039c 1A6C     		ldr	r2, [r3, #64]
 1243 039e 03F53063 		add	r3, r3, #2816
 1244 03a2 8242     		cmp	r2, r0
 1245 03a4 03EB4713 		add	r3, r3, r7, lsl #5
 1246 03a8 9968     		ldr	r1, [r3, #8]
 1247 03aa 04D9     		bls	.L121
 1248 03ac 0904     		lsls	r1, r1, #16
 1249 03ae 02D5     		bpl	.L121
 1250 03b0 4FF40041 		mov	r1, #32768
 1251 03b4 9960     		str	r1, [r3, #8]
 1252              	.L121:
 1253 03b6 2046     		mov	r0, r4
 1254 03b8 0592     		str	r2, [sp, #20]
 1255 03ba FFF7FEFF 		bl	HAL_PCD_SetupStageCallback
 1256 03be 954B     		ldr	r3, .L274
ARM GAS  /tmp/cc2VSDCt.s 			page 22


 1257 03c0 059A     		ldr	r2, [sp, #20]
 1258 03c2 9A42     		cmp	r2, r3
 1259 03c4 07D9     		bls	.L120
 1260 03c6 2169     		ldr	r1, [r4, #16]
 1261 03c8 0129     		cmp	r1, #1
 1262 03ca 04D1     		bne	.L120
 1263 03cc 04F2C442 		addw	r2, r4, #1220
 1264 03d0 2068     		ldr	r0, [r4]
 1265 03d2 FFF7FEFF 		bl	USB_EP0_OutStart
 1266              	.L120:
 1267 03d6 19F0100F 		tst	r9, #16
 1268 03da 02D0     		beq	.L123
 1269 03dc 1023     		movs	r3, #16
 1270 03de C8F80830 		str	r3, [r8, #8]
 1271              	.L123:
 1272 03e2 19F0020F 		tst	r9, #2
 1273 03e6 14D0     		beq	.L124
 1274 03e8 7369     		ldr	r3, [r6, #20]
 1275 03ea 1A06     		lsls	r2, r3, #24
 1276 03ec 03D5     		bpl	.L125
 1277 03ee 6B68     		ldr	r3, [r5, #4]
 1278 03f0 43F48063 		orr	r3, r3, #1024
 1279 03f4 6B60     		str	r3, [r5, #4]
 1280              	.L125:
 1281 03f6 9AF87F32 		ldrb	r3, [r10, #639]	@ zero_extendqisi2
 1282 03fa 012B     		cmp	r3, #1
 1283 03fc 06D1     		bne	.L126
 1284 03fe 0023     		movs	r3, #0
 1285 0400 5946     		mov	r1, fp
 1286 0402 2046     		mov	r0, r4
 1287 0404 8AF87F32 		strb	r3, [r10, #639]
 1288 0408 FFF7FEFF 		bl	HAL_PCD_ISOOUTIncompleteCallback
 1289              	.L126:
 1290 040c 0223     		movs	r3, #2
 1291 040e C8F80830 		str	r3, [r8, #8]
 1292              	.L124:
 1293 0412 19F0200F 		tst	r9, #32
 1294 0416 02D0     		beq	.L127
 1295 0418 2023     		movs	r3, #32
 1296 041a C8F80830 		str	r3, [r8, #8]
 1297              	.L127:
 1298 041e 19F4005F 		tst	r9, #8192
 1299 0422 03D0     		beq	.L105
 1300 0424 4FF40053 		mov	r3, #8192
 1301 0428 C8F80830 		str	r3, [r8, #8]
 1302              	.L105:
 1303 042c 049B     		ldr	r3, [sp, #16]
 1304 042e 0137     		adds	r7, r7, #1
 1305 0430 08F12008 		add	r8, r8, #32
 1306 0434 0AF1240A 		add	r10, r10, #36
 1307 0438 5B08     		lsrs	r3, r3, #1
 1308 043a 0493     		str	r3, [sp, #16]
 1309 043c 78E7     		b	.L103
 1310              	.L111:
 1311 043e 12F0280F 		tst	r2, #40
 1312 0442 A3D1     		bne	.L107
 1313 0444 7349     		ldr	r1, .L274
ARM GAS  /tmp/cc2VSDCt.s 			page 23


 1314 0446 8C45     		cmp	ip, r1
 1315 0448 01D9     		bls	.L112
 1316 044a 1204     		lsls	r2, r2, #16
 1317 044c 97D4     		bmi	.L271
 1318              	.L112:
 1319 044e 1A69     		ldr	r2, [r3, #16]
 1320 0450 DAF89832 		ldr	r3, [r10, #664]
 1321 0454 C2F31202 		ubfx	r2, r2, #0, #19
 1322 0458 9B1A     		subs	r3, r3, r2
 1323 045a CAF89C32 		str	r3, [r10, #668]
 1324 045e 6FB9     		cbnz	r7, .L118
 1325 0460 D4F89422 		ldr	r2, [r4, #660]
 1326 0464 2AB9     		cbnz	r2, .L114
 1327 0466 04F2C442 		addw	r2, r4, #1220
 1328 046a 0121     		movs	r1, #1
 1329              	.L273:
 1330 046c FFF7FEFF 		bl	USB_EP0_OutStart
 1331 0470 04E0     		b	.L118
 1332              	.L114:
 1333 0472 D4F88C22 		ldr	r2, [r4, #652]
 1334 0476 1344     		add	r3, r3, r2
 1335 0478 C4F88C32 		str	r3, [r4, #652]
 1336              	.L118:
 1337 047c 5946     		mov	r1, fp
 1338 047e 2046     		mov	r0, r4
 1339 0480 FFF7FEFF 		bl	HAL_PCD_DataOutStageCallback
 1340 0484 82E7     		b	.L107
 1341              	.L108:
 1342 0486 6449     		ldr	r1, .L274+4
 1343 0488 8C45     		cmp	ip, r1
 1344 048a 07D1     		bne	.L115
 1345 048c 1104     		lsls	r1, r2, #16
 1346 048e 3FF576AF 		bmi	.L271
 1347 0492 9006     		lsls	r0, r2, #26
 1348 0494 F2D5     		bpl	.L118
 1349 0496 2022     		movs	r2, #32
 1350 0498 9A60     		str	r2, [r3, #8]
 1351 049a EFE7     		b	.L118
 1352              	.L115:
 1353 049c 002F     		cmp	r7, #0
 1354 049e EDD1     		bne	.L118
 1355 04a0 D4F89432 		ldr	r3, [r4, #660]
 1356 04a4 002B     		cmp	r3, #0
 1357 04a6 E9D1     		bne	.L118
 1358 04a8 04F2C442 		addw	r2, r4, #1220
 1359 04ac 3946     		mov	r1, r7
 1360 04ae DDE7     		b	.L273
 1361              	.L150:
 1362 04b0 049B     		ldr	r3, [sp, #16]
 1363 04b2 DB07     		lsls	r3, r3, #31
 1364 04b4 40F19C80 		bpl	.L135
 1365 04b8 5FFA89FB 		uxtb	fp, r9
 1366 04bc 2068     		ldr	r0, [r4]
 1367 04be 5946     		mov	r1, fp
 1368 04c0 FFF7FEFF 		bl	USB_ReadDevInEPInterrupt
 1369 04c4 10F0010F 		tst	r0, #1
 1370 04c8 8046     		mov	r8, r0
ARM GAS  /tmp/cc2VSDCt.s 			page 24


 1371 04ca 20D0     		beq	.L136
 1372 04cc 0121     		movs	r1, #1
 1373 04ce 09F00F02 		and	r2, r9, #15
 1374 04d2 6B6B     		ldr	r3, [r5, #52]
 1375 04d4 01FA02F2 		lsl	r2, r1, r2
 1376 04d8 23EA0203 		bic	r3, r3, r2
 1377 04dc 6B63     		str	r3, [r5, #52]
 1378 04de 0B46     		mov	r3, r1
 1379 04e0 CAF80810 		str	r1, [r10, #8]
 1380 04e4 2169     		ldr	r1, [r4, #16]
 1381 04e6 9942     		cmp	r1, r3
 1382 04e8 0DD1     		bne	.L138
 1383 04ea D7E91223 		ldrd	r2, r3, [r7, #72]
 1384 04ee 1344     		add	r3, r3, r2
 1385 04f0 FB64     		str	r3, [r7, #76]
 1386 04f2 B9F1000F 		cmp	r9, #0
 1387 04f6 06D1     		bne	.L138
 1388 04f8 636D     		ldr	r3, [r4, #84]
 1389 04fa 23B9     		cbnz	r3, .L138
 1390 04fc 04F2C442 		addw	r2, r4, #1220
 1391 0500 2068     		ldr	r0, [r4]
 1392 0502 FFF7FEFF 		bl	USB_EP0_OutStart
 1393              	.L138:
 1394 0506 5946     		mov	r1, fp
 1395 0508 2046     		mov	r0, r4
 1396 050a FFF7FEFF 		bl	HAL_PCD_DataInStageCallback
 1397              	.L136:
 1398 050e 18F0080F 		tst	r8, #8
 1399 0512 02D0     		beq	.L140
 1400 0514 0823     		movs	r3, #8
 1401 0516 CAF80830 		str	r3, [r10, #8]
 1402              	.L140:
 1403 051a 18F0100F 		tst	r8, #16
 1404 051e 02D0     		beq	.L141
 1405 0520 1023     		movs	r3, #16
 1406 0522 CAF80830 		str	r3, [r10, #8]
 1407              	.L141:
 1408 0526 18F0400F 		tst	r8, #64
 1409 052a 02D0     		beq	.L142
 1410 052c 4023     		movs	r3, #64
 1411 052e CAF80830 		str	r3, [r10, #8]
 1412              	.L142:
 1413 0532 18F0020F 		tst	r8, #2
 1414 0536 12D0     		beq	.L143
 1415 0538 4946     		mov	r1, r9
 1416 053a 3046     		mov	r0, r6
 1417 053c FFF7FEFF 		bl	USB_FlushTxFifo
 1418 0540 97F83F30 		ldrb	r3, [r7, #63]	@ zero_extendqisi2
 1419 0544 012B     		cmp	r3, #1
 1420 0546 07D1     		bne	.L144
 1421 0548 4FF00003 		mov	r3, #0
 1422 054c 5946     		mov	r1, fp
 1423 054e 2046     		mov	r0, r4
 1424 0550 87F83F30 		strb	r3, [r7, #63]
 1425 0554 FFF7FEFF 		bl	HAL_PCD_ISOINIncompleteCallback
 1426              	.L144:
 1427 0558 0223     		movs	r3, #2
ARM GAS  /tmp/cc2VSDCt.s 			page 25


 1428 055a CAF80830 		str	r3, [r10, #8]
 1429              	.L143:
 1430 055e 18F0800F 		tst	r8, #128
 1431 0562 45D0     		beq	.L135
 1432 0564 FA6D     		ldr	r2, [r7, #92]
 1433 0566 7B6D     		ldr	r3, [r7, #84]
 1434 0568 9A42     		cmp	r2, r3
 1435 056a 41D8     		bhi	.L135
 1436 056c 9B1A     		subs	r3, r3, r2
 1437 056e BA6C     		ldr	r2, [r7, #72]
 1438 0570 2168     		ldr	r1, [r4]
 1439 0572 9342     		cmp	r3, r2
 1440 0574 0591     		str	r1, [sp, #20]
 1441 0576 28BF     		it	cs
 1442 0578 1346     		movcs	r3, r2
 1443 057a 0333     		adds	r3, r3, #3
 1444 057c 9B08     		lsrs	r3, r3, #2
 1445 057e 0693     		str	r3, [sp, #24]
 1446 0580 01F51063 		add	r3, r1, #2304
 1447 0584 03EB4913 		add	r3, r3, r9, lsl #5
 1448 0588 0793     		str	r3, [sp, #28]
 1449              	.L146:
 1450 058a 079B     		ldr	r3, [sp, #28]
 1451 058c 0698     		ldr	r0, [sp, #24]
 1452 058e 9969     		ldr	r1, [r3, #24]
 1453 0590 FA6D     		ldr	r2, [r7, #92]
 1454 0592 89B2     		uxth	r1, r1
 1455 0594 7B6D     		ldr	r3, [r7, #84]
 1456 0596 8142     		cmp	r1, r0
 1457 0598 28D3     		bcc	.L147
 1458 059a 9A42     		cmp	r2, r3
 1459 059c 0CD3     		bcc	.L148
 1460              	.L149:
 1461 059e 059B     		ldr	r3, [sp, #20]
 1462 05a0 09F00F01 		and	r1, r9, #15
 1463 05a4 0120     		movs	r0, #1
 1464 05a6 D3F83428 		ldr	r2, [r3, #2100]
 1465 05aa 00FA01F1 		lsl	r1, r0, r1
 1466 05ae 22EA0102 		bic	r2, r2, r1
 1467 05b2 C3F83428 		str	r2, [r3, #2100]
 1468 05b6 1BE0     		b	.L135
 1469              	.L148:
 1470 05b8 A3EB0208 		sub	r8, r3, r2
 1471 05bc BB6C     		ldr	r3, [r7, #72]
 1472 05be 5A46     		mov	r2, fp
 1473 05c0 0598     		ldr	r0, [sp, #20]
 1474 05c2 9845     		cmp	r8, r3
 1475 05c4 28BF     		it	cs
 1476 05c6 9846     		movcs	r8, r3
 1477 05c8 08F10303 		add	r3, r8, #3
 1478 05cc 9B08     		lsrs	r3, r3, #2
 1479 05ce 0693     		str	r3, [sp, #24]
 1480 05d0 237C     		ldrb	r3, [r4, #16]	@ zero_extendqisi2
 1481 05d2 0093     		str	r3, [sp]
 1482 05d4 1FFA88F3 		uxth	r3, r8
 1483 05d8 F96C     		ldr	r1, [r7, #76]
 1484 05da FFF7FEFF 		bl	USB_WritePacket
ARM GAS  /tmp/cc2VSDCt.s 			page 26


 1485 05de FB6C     		ldr	r3, [r7, #76]
 1486 05e0 4344     		add	r3, r3, r8
 1487 05e2 FB64     		str	r3, [r7, #76]
 1488 05e4 FB6D     		ldr	r3, [r7, #92]
 1489 05e6 4344     		add	r3, r3, r8
 1490 05e8 FB65     		str	r3, [r7, #92]
 1491 05ea CEE7     		b	.L146
 1492              	.L147:
 1493 05ec 9A42     		cmp	r2, r3
 1494 05ee D6D2     		bcs	.L149
 1495              	.L135:
 1496 05f0 049B     		ldr	r3, [sp, #16]
 1497 05f2 09F10109 		add	r9, r9, #1
 1498 05f6 2437     		adds	r7, r7, #36
 1499 05f8 0AF1200A 		add	r10, r10, #32
 1500 05fc 5B08     		lsrs	r3, r3, #1
 1501 05fe 0493     		str	r3, [sp, #16]
 1502 0600 68E5     		b	.L133
 1503              	.L151:
 1504 0602 2046     		mov	r0, r4
 1505 0604 FFF7FEFF 		bl	HAL_PCD_ResumeCallback
 1506 0608 7CE5     		b	.L152
 1507              	.L156:
 1508 060a 2046     		mov	r0, r4
 1509 060c FFF7FEFF 		bl	HAL_PCD_SuspendCallback
 1510 0610 A7E5     		b	.L155
 1511              	.L275:
 1512 0612 00BF     		.align	2
 1513              	.L274:
 1514 0614 0A30544F 		.word	1330917386
 1515 0618 0A31544F 		.word	1330917642
 1516              	.L159:
 1517 061c 9960     		str	r1, [r3, #8]
 1518 061e 2033     		adds	r3, r3, #32
 1519 0620 53F8202C 		ldr	r2, [r3, #-32]
 1520 0624 22F40012 		bic	r2, r2, #2097152
 1521 0628 43F8202C 		str	r2, [r3, #-32]
 1522 062c C3F8E811 		str	r1, [r3, #488]
 1523 0630 D3F8E021 		ldr	r2, [r3, #480]
 1524 0634 22F40012 		bic	r2, r2, #2097152
 1525 0638 C3F8E021 		str	r2, [r3, #480]
 1526 063c D3F8E021 		ldr	r2, [r3, #480]
 1527 0640 42F00062 		orr	r2, r2, #134217728
 1528 0644 C3F8E021 		str	r2, [r3, #480]
 1529 0648 039A     		ldr	r2, [sp, #12]
 1530 064a 0132     		adds	r2, r2, #1
 1531 064c 0392     		str	r2, [sp, #12]
 1532 064e 99E5     		b	.L158
 1533              	.L160:
 1534 0650 6B69     		ldr	r3, [r5, #20]
 1535 0652 43F40053 		orr	r3, r3, #8192
 1536 0656 43F02B03 		orr	r3, r3, #43
 1537 065a 6B61     		str	r3, [r5, #20]
 1538 065c 2B69     		ldr	r3, [r5, #16]
 1539 065e 43F00B03 		orr	r3, r3, #11
 1540 0662 2B61     		str	r3, [r5, #16]
 1541 0664 A5E5     		b	.L161
ARM GAS  /tmp/cc2VSDCt.s 			page 27


 1542              	.L164:
 1543 0666 B369     		ldr	r3, [r6, #24]
 1544 0668 0127     		movs	r7, #1
 1545 066a 04F27F28 		addw	r8, r4, #639
 1546 066e 4FF02409 		mov	r9, #36
 1547 0672 23F08003 		bic	r3, r3, #128
 1548 0676 B361     		str	r3, [r6, #24]
 1549              	.L167:
 1550 0678 6368     		ldr	r3, [r4, #4]
 1551 067a BB42     		cmp	r3, r7
 1552 067c 7FF6D9AD 		bls	.L170
 1553 0680 09FB07F3 		mul	r3, r9, r7
 1554 0684 18F80330 		ldrb	r3, [r8, r3]	@ zero_extendqisi2
 1555 0688 012B     		cmp	r3, #1
 1556 068a 03D1     		bne	.L168
 1557 068c F9B2     		uxtb	r1, r7
 1558 068e 2046     		mov	r0, r4
 1559 0690 FFF7FEFF 		bl	HAL_PCD_EP_Abort
 1560              	.L168:
 1561 0694 0137     		adds	r7, r7, #1
 1562 0696 EFE7     		b	.L167
 1563              	.L172:
 1564 0698 98F86430 		ldrb	r3, [r8, #100]	@ zero_extendqisi2
 1565 069c D9F80020 		ldr	r2, [r9]
 1566 06a0 012B     		cmp	r3, #1
 1567 06a2 09D1     		bne	.L171
 1568 06a4 002A     		cmp	r2, #0
 1569 06a6 07DA     		bge	.L171
 1570 06a8 67F07F01 		orn	r1, r7, #127
 1571 06ac 2046     		mov	r0, r4
 1572 06ae 88F86330 		strb	r3, [r8, #99]
 1573 06b2 C9B2     		uxtb	r1, r1
 1574 06b4 FFF7FEFF 		bl	HAL_PCD_EP_Abort
 1575              	.L171:
 1576 06b8 0137     		adds	r7, r7, #1
 1577 06ba 08F12408 		add	r8, r8, #36
 1578 06be 09F12009 		add	r9, r9, #32
 1579 06c2 BFE5     		b	.L166
 1580              	.L175:
 1581 06c4 0131     		adds	r1, r1, #1
 1582 06c6 2433     		adds	r3, r3, #36
 1583 06c8 2030     		adds	r0, r0, #32
 1584 06ca CFE5     		b	.L174
 1586              		.section	.text.HAL_PCD_EP_Flush,"ax",%progbits
 1587              		.align	1
 1588              		.global	HAL_PCD_EP_Flush
 1589              		.syntax unified
 1590              		.thumb
 1591              		.thumb_func
 1592              		.fpu fpv5-sp-d16
 1594              	HAL_PCD_EP_Flush:
 1595              		@ args = 0, pretend = 0, frame = 0
 1596              		@ frame_needed = 0, uses_anonymous_args = 0
 1597 0000 10B5     		push	{r4, lr}
 1598 0002 90F8BC34 		ldrb	r3, [r0, #1212]	@ zero_extendqisi2
 1599 0006 0446     		mov	r4, r0
 1600 0008 012B     		cmp	r3, #1
ARM GAS  /tmp/cc2VSDCt.s 			page 28


 1601 000a 10D0     		beq	.L280
 1602 000c 0123     		movs	r3, #1
 1603 000e 80F8BC34 		strb	r3, [r0, #1212]
 1604 0012 0B06     		lsls	r3, r1, #24
 1605 0014 0068     		ldr	r0, [r0]
 1606 0016 07D5     		bpl	.L278
 1607 0018 01F00F01 		and	r1, r1, #15
 1608 001c FFF7FEFF 		bl	USB_FlushTxFifo
 1609              	.L279:
 1610 0020 0020     		movs	r0, #0
 1611 0022 84F8BC04 		strb	r0, [r4, #1212]
 1612              	.L277:
 1613 0026 10BD     		pop	{r4, pc}
 1614              	.L278:
 1615 0028 FFF7FEFF 		bl	USB_FlushRxFifo
 1616 002c F8E7     		b	.L279
 1617              	.L280:
 1618 002e 0220     		movs	r0, #2
 1619 0030 F9E7     		b	.L277
 1621              		.section	.text.HAL_PCD_ActivateRemoteWakeup,"ax",%progbits
 1622              		.align	1
 1623              		.global	HAL_PCD_ActivateRemoteWakeup
 1624              		.syntax unified
 1625              		.thumb
 1626              		.thumb_func
 1627              		.fpu fpv5-sp-d16
 1629              	HAL_PCD_ActivateRemoteWakeup:
 1630              		@ args = 0, pretend = 0, frame = 0
 1631              		@ frame_needed = 0, uses_anonymous_args = 0
 1632              		@ link register save eliminated.
 1633 0000 0068     		ldr	r0, [r0]
 1634 0002 FFF7FEBF 		b	USB_ActivateRemoteWakeup
 1636              		.section	.text.HAL_PCD_DeActivateRemoteWakeup,"ax",%progbits
 1637              		.align	1
 1638              		.global	HAL_PCD_DeActivateRemoteWakeup
 1639              		.syntax unified
 1640              		.thumb
 1641              		.thumb_func
 1642              		.fpu fpv5-sp-d16
 1644              	HAL_PCD_DeActivateRemoteWakeup:
 1645              		@ args = 0, pretend = 0, frame = 0
 1646              		@ frame_needed = 0, uses_anonymous_args = 0
 1647              		@ link register save eliminated.
 1648 0000 0068     		ldr	r0, [r0]
 1649 0002 FFF7FEBF 		b	USB_DeActivateRemoteWakeup
 1651              		.section	.text.HAL_PCD_GetState,"ax",%progbits
 1652              		.align	1
 1653              		.global	HAL_PCD_GetState
 1654              		.syntax unified
 1655              		.thumb
 1656              		.thumb_func
 1657              		.fpu fpv5-sp-d16
 1659              	HAL_PCD_GetState:
 1660              		@ args = 0, pretend = 0, frame = 0
 1661              		@ frame_needed = 0, uses_anonymous_args = 0
 1662              		@ link register save eliminated.
 1663 0000 90F8BD04 		ldrb	r0, [r0, #1213]	@ zero_extendqisi2
ARM GAS  /tmp/cc2VSDCt.s 			page 29


 1664 0004 7047     		bx	lr
 1666              		.section	.text.HAL_PCD_SetTestMode,"ax",%progbits
 1667              		.align	1
 1668              		.global	HAL_PCD_SetTestMode
 1669              		.syntax unified
 1670              		.thumb
 1671              		.thumb_func
 1672              		.fpu fpv5-sp-d16
 1674              	HAL_PCD_SetTestMode:
 1675              		@ args = 0, pretend = 0, frame = 0
 1676              		@ frame_needed = 0, uses_anonymous_args = 0
 1677              		@ link register save eliminated.
 1678 0000 4B1E     		subs	r3, r1, #1
 1679 0002 042B     		cmp	r3, #4
 1680 0004 06D8     		bhi	.L285
 1681 0006 0368     		ldr	r3, [r0]
 1682 0008 D3F80428 		ldr	r2, [r3, #2052]
 1683 000c 42EA0111 		orr	r1, r2, r1, lsl #4
 1684 0010 C3F80418 		str	r1, [r3, #2052]
 1685              	.L285:
 1686 0014 0020     		movs	r0, #0
 1687 0016 7047     		bx	lr
 1689              		.ident	"GCC: (15:10.3-2021.07-4) 10.3.1 20210621 (release)"
ARM GAS  /tmp/cc2VSDCt.s 			page 30

