ARM GAS  /tmp/cckhjLjw.s 			page 1


   1              		.cpu cortex-m7
   2              		.eabi_attribute 27, 1
   3              		.eabi_attribute 20, 1
   4              		.eabi_attribute 21, 1
   5              		.eabi_attribute 23, 3
   6              		.eabi_attribute 24, 1
   7              		.eabi_attribute 25, 1
   8              		.eabi_attribute 26, 1
   9              		.eabi_attribute 30, 4
  10              		.eabi_attribute 34, 1
  11              		.eabi_attribute 18, 4
  12              		.file	"stm32f7xx_hal_i2c.c"
  13              		.text
  14              		.section	.text.I2C_Flush_TXDR,"ax",%progbits
  15              		.align	1
  16              		.arch armv7e-m
  17              		.syntax unified
  18              		.thumb
  19              		.thumb_func
  20              		.fpu fpv5-sp-d16
  22              	I2C_Flush_TXDR:
  23              		@ args = 0, pretend = 0, frame = 0
  24              		@ frame_needed = 0, uses_anonymous_args = 0
  25              		@ link register save eliminated.
  26 0000 0368     		ldr	r3, [r0]
  27 0002 9A69     		ldr	r2, [r3, #24]
  28 0004 9107     		lsls	r1, r2, #30
  29 0006 01D5     		bpl	.L2
  30 0008 0022     		movs	r2, #0
  31 000a 9A62     		str	r2, [r3, #40]
  32              	.L2:
  33 000c 9A69     		ldr	r2, [r3, #24]
  34 000e D207     		lsls	r2, r2, #31
  35 0010 03D4     		bmi	.L1
  36 0012 9A69     		ldr	r2, [r3, #24]
  37 0014 42F00102 		orr	r2, r2, #1
  38 0018 9A61     		str	r2, [r3, #24]
  39              	.L1:
  40 001a 7047     		bx	lr
  42              		.section	.text.I2C_TransferConfig,"ax",%progbits
  43              		.align	1
  44              		.syntax unified
  45              		.thumb
  46              		.thumb_func
  47              		.fpu fpv5-sp-d16
  49              	I2C_TransferConfig:
  50              		@ args = 4, pretend = 0, frame = 0
  51              		@ frame_needed = 0, uses_anonymous_args = 0
  52 0000 30B5     		push	{r4, r5, lr}
  53 0002 039D     		ldr	r5, [sp, #12]
  54 0004 0468     		ldr	r4, [r0]
  55 0006 45EA0242 		orr	r2, r5, r2, lsl #16
  56 000a 6068     		ldr	r0, [r4, #4]
  57 000c 1343     		orrs	r3, r3, r2
  58 000e C1F30902 		ubfx	r2, r1, #0, #10
  59 0012 1A43     		orrs	r2, r2, r3
  60 0014 034B     		ldr	r3, .L8
ARM GAS  /tmp/cckhjLjw.s 			page 2


  61 0016 43EA5553 		orr	r3, r3, r5, lsr #21
  62 001a 20EA0300 		bic	r0, r0, r3
  63 001e 0243     		orrs	r2, r2, r0
  64 0020 6260     		str	r2, [r4, #4]
  65 0022 30BD     		pop	{r4, r5, pc}
  66              	.L9:
  67              		.align	2
  68              	.L8:
  69 0024 FF63FF03 		.word	67068927
  71              		.section	.text.I2C_Enable_IRQ,"ax",%progbits
  72              		.align	1
  73              		.syntax unified
  74              		.thumb
  75              		.thumb_func
  76              		.fpu fpv5-sp-d16
  78              	I2C_Enable_IRQ:
  79              		@ args = 0, pretend = 0, frame = 0
  80              		@ frame_needed = 0, uses_anonymous_args = 0
  81 0000 01F00403 		and	r3, r1, #4
  82 0004 144A     		ldr	r2, .L27
  83 0006 002B     		cmp	r3, #0
  84 0008 30B5     		push	{r4, r5, lr}
  85 000a 446B     		ldr	r4, [r0, #52]
  86 000c 0CBF     		ite	eq
  87 000e 0023     		moveq	r3, #0
  88 0010 B823     		movne	r3, #184
  89 0012 9442     		cmp	r4, r2
  90 0014 01F01202 		and	r2, r1, #18
  91 0018 02D0     		beq	.L11
  92 001a 104D     		ldr	r5, .L27+4
  93 001c AC42     		cmp	r4, r5
  94 001e 0ED1     		bne	.L12
  95              	.L11:
  96 0020 01F01101 		and	r1, r1, #17
  97 0024 1129     		cmp	r1, #17
  98 0026 08BF     		it	eq
  99 0028 43F09003 		orreq	r3, r3, #144
 100 002c 122A     		cmp	r2, #18
 101 002e 01D1     		bne	.L15
 102 0030 43F06003 		orr	r3, r3, #96
 103              	.L15:
 104 0034 0168     		ldr	r1, [r0]
 105 0036 0A68     		ldr	r2, [r1]
 106 0038 1343     		orrs	r3, r3, r2
 107 003a 0B60     		str	r3, [r1]
 108 003c 30BD     		pop	{r4, r5, pc}
 109              	.L12:
 110 003e CC07     		lsls	r4, r1, #31
 111 0040 48BF     		it	mi
 112 0042 43F0F203 		orrmi	r3, r3, #242
 113 0046 8907     		lsls	r1, r1, #30
 114 0048 48BF     		it	mi
 115 004a 43F0F403 		orrmi	r3, r3, #244
 116 004e 122A     		cmp	r2, #18
 117 0050 08BF     		it	eq
 118 0052 43F02003 		orreq	r3, r3, #32
 119 0056 EDE7     		b	.L15
ARM GAS  /tmp/cckhjLjw.s 			page 3


 120              	.L28:
 121              		.align	2
 122              	.L27:
 123 0058 00000000 		.word	I2C_Master_ISR_DMA
 124 005c 00000000 		.word	I2C_Slave_ISR_DMA
 126              		.section	.text.I2C_Disable_IRQ,"ax",%progbits
 127              		.align	1
 128              		.syntax unified
 129              		.thumb
 130              		.thumb_func
 131              		.fpu fpv5-sp-d16
 133              	I2C_Disable_IRQ:
 134              		@ args = 0, pretend = 0, frame = 0
 135              		@ frame_needed = 0, uses_anonymous_args = 0
 136              		@ link register save eliminated.
 137 0000 11F00103 		ands	r3, r1, #1
 138 0004 07D0     		beq	.L30
 139 0006 90F84130 		ldrb	r3, [r0, #65]	@ zero_extendqisi2
 140 000a 03F02803 		and	r3, r3, #40
 141 000e 282B     		cmp	r3, #40
 142 0010 0CBF     		ite	eq
 143 0012 4223     		moveq	r3, #66
 144 0014 F223     		movne	r3, #242
 145              	.L30:
 146 0016 8A07     		lsls	r2, r1, #30
 147 0018 09D5     		bpl	.L31
 148 001a 90F84120 		ldrb	r2, [r0, #65]	@ zero_extendqisi2
 149 001e 02F02802 		and	r2, r2, #40
 150 0022 282A     		cmp	r2, #40
 151 0024 0CBF     		ite	eq
 152 0026 43F04403 		orreq	r3, r3, #68
 153 002a 43F0F403 		orrne	r3, r3, #244
 154              	.L31:
 155 002e 4A07     		lsls	r2, r1, #29
 156 0030 0168     		ldr	r1, [r0]
 157 0032 48BF     		it	mi
 158 0034 43F0B803 		orrmi	r3, r3, #184
 159 0038 0A68     		ldr	r2, [r1]
 160 003a 22EA0303 		bic	r3, r2, r3
 161 003e 0B60     		str	r3, [r1]
 162 0040 7047     		bx	lr
 164              		.section	.text.I2C_ConvertOtherXferOptions,"ax",%progbits
 165              		.align	1
 166              		.syntax unified
 167              		.thumb
 168              		.thumb_func
 169              		.fpu fpv5-sp-d16
 171              	I2C_ConvertOtherXferOptions:
 172              		@ args = 0, pretend = 0, frame = 0
 173              		@ frame_needed = 0, uses_anonymous_args = 0
 174              		@ link register save eliminated.
 175 0000 C36A     		ldr	r3, [r0, #44]
 176 0002 AA2B     		cmp	r3, #170
 177 0004 02D1     		bne	.L43
 178 0006 0023     		movs	r3, #0
 179              	.L45:
 180 0008 C362     		str	r3, [r0, #44]
ARM GAS  /tmp/cckhjLjw.s 			page 4


 181              	.L42:
 182 000a 7047     		bx	lr
 183              	.L43:
 184 000c C36A     		ldr	r3, [r0, #44]
 185 000e B3F52A4F 		cmp	r3, #43520
 186 0012 FAD1     		bne	.L42
 187 0014 4FF00073 		mov	r3, #33554432
 188 0018 F6E7     		b	.L45
 190              		.section	.text.I2C_WaitOnFlagUntilTimeout,"ax",%progbits
 191              		.align	1
 192              		.syntax unified
 193              		.thumb
 194              		.thumb_func
 195              		.fpu fpv5-sp-d16
 197              	I2C_WaitOnFlagUntilTimeout:
 198              		@ args = 4, pretend = 0, frame = 0
 199              		@ frame_needed = 0, uses_anonymous_args = 0
 200 0000 2DE9F041 		push	{r4, r5, r6, r7, r8, lr}
 201 0004 069F     		ldr	r7, [sp, #24]
 202 0006 0446     		mov	r4, r0
 203 0008 8846     		mov	r8, r1
 204 000a 1646     		mov	r6, r2
 205 000c 1D46     		mov	r5, r3
 206              	.L47:
 207 000e 2268     		ldr	r2, [r4]
 208              	.L48:
 209 0010 9369     		ldr	r3, [r2, #24]
 210 0012 38EA0303 		bics	r3, r8, r3
 211 0016 0CBF     		ite	eq
 212 0018 0123     		moveq	r3, #1
 213 001a 0023     		movne	r3, #0
 214 001c B342     		cmp	r3, r6
 215 001e 01D0     		beq	.L51
 216 0020 0020     		movs	r0, #0
 217 0022 15E0     		b	.L50
 218              	.L51:
 219 0024 6B1C     		adds	r3, r5, #1
 220 0026 F3D0     		beq	.L48
 221 0028 FFF7FEFF 		bl	HAL_GetTick
 222 002c C01B     		subs	r0, r0, r7
 223 002e A842     		cmp	r0, r5
 224 0030 01D8     		bhi	.L49
 225 0032 002D     		cmp	r5, #0
 226 0034 EBD1     		bne	.L47
 227              	.L49:
 228 0036 636C     		ldr	r3, [r4, #68]
 229 0038 0120     		movs	r0, #1
 230 003a 43F02003 		orr	r3, r3, #32
 231 003e 6364     		str	r3, [r4, #68]
 232 0040 2023     		movs	r3, #32
 233 0042 84F84130 		strb	r3, [r4, #65]
 234 0046 0023     		movs	r3, #0
 235 0048 84F84230 		strb	r3, [r4, #66]
 236 004c 84F84030 		strb	r3, [r4, #64]
 237              	.L50:
 238 0050 BDE8F081 		pop	{r4, r5, r6, r7, r8, pc}
 240              		.section	.text.I2C_IsAcknowledgeFailed,"ax",%progbits
ARM GAS  /tmp/cckhjLjw.s 			page 5


 241              		.align	1
 242              		.syntax unified
 243              		.thumb
 244              		.thumb_func
 245              		.fpu fpv5-sp-d16
 247              	I2C_IsAcknowledgeFailed:
 248              		@ args = 0, pretend = 0, frame = 0
 249              		@ frame_needed = 0, uses_anonymous_args = 0
 250 0000 0368     		ldr	r3, [r0]
 251 0002 70B5     		push	{r4, r5, r6, lr}
 252 0004 0446     		mov	r4, r0
 253 0006 9869     		ldr	r0, [r3, #24]
 254 0008 0D46     		mov	r5, r1
 255 000a 1646     		mov	r6, r2
 256 000c 10F01000 		ands	r0, r0, #16
 257 0010 16D1     		bne	.L56
 258              	.L57:
 259 0012 70BD     		pop	{r4, r5, r6, pc}
 260              	.L60:
 261 0014 691C     		adds	r1, r5, #1
 262 0016 14D0     		beq	.L58
 263 0018 FFF7FEFF 		bl	HAL_GetTick
 264 001c 801B     		subs	r0, r0, r6
 265 001e A842     		cmp	r0, r5
 266 0020 00D8     		bhi	.L59
 267 0022 6DB9     		cbnz	r5, .L56
 268              	.L59:
 269 0024 636C     		ldr	r3, [r4, #68]
 270 0026 43F02003 		orr	r3, r3, #32
 271 002a 6364     		str	r3, [r4, #68]
 272 002c 2023     		movs	r3, #32
 273 002e 84F84130 		strb	r3, [r4, #65]
 274              	.L65:
 275 0032 0023     		movs	r3, #0
 276 0034 0120     		movs	r0, #1
 277 0036 84F84230 		strb	r3, [r4, #66]
 278 003a 84F84030 		strb	r3, [r4, #64]
 279 003e E8E7     		b	.L57
 280              	.L56:
 281 0040 2368     		ldr	r3, [r4]
 282              	.L58:
 283 0042 9969     		ldr	r1, [r3, #24]
 284 0044 8A06     		lsls	r2, r1, #26
 285 0046 E5D5     		bpl	.L60
 286 0048 1022     		movs	r2, #16
 287 004a 2025     		movs	r5, #32
 288 004c 2046     		mov	r0, r4
 289 004e DA61     		str	r2, [r3, #28]
 290 0050 DD61     		str	r5, [r3, #28]
 291 0052 FFF7FEFF 		bl	I2C_Flush_TXDR
 292 0056 2268     		ldr	r2, [r4]
 293 0058 5368     		ldr	r3, [r2, #4]
 294 005a 23F0FF73 		bic	r3, r3, #33423360
 295 005e 23F48B33 		bic	r3, r3, #71168
 296 0062 23F4FF73 		bic	r3, r3, #510
 297 0066 23F00103 		bic	r3, r3, #1
 298 006a 5360     		str	r3, [r2, #4]
ARM GAS  /tmp/cckhjLjw.s 			page 6


 299 006c 636C     		ldr	r3, [r4, #68]
 300 006e 43F00403 		orr	r3, r3, #4
 301 0072 6364     		str	r3, [r4, #68]
 302 0074 84F84150 		strb	r5, [r4, #65]
 303 0078 DBE7     		b	.L65
 305              		.section	.text.I2C_WaitOnTXISFlagUntilTimeout,"ax",%progbits
 306              		.align	1
 307              		.syntax unified
 308              		.thumb
 309              		.thumb_func
 310              		.fpu fpv5-sp-d16
 312              	I2C_WaitOnTXISFlagUntilTimeout:
 313              		@ args = 0, pretend = 0, frame = 0
 314              		@ frame_needed = 0, uses_anonymous_args = 0
 315 0000 70B5     		push	{r4, r5, r6, lr}
 316 0002 0446     		mov	r4, r0
 317 0004 0D46     		mov	r5, r1
 318 0006 1646     		mov	r6, r2
 319              	.L69:
 320 0008 2368     		ldr	r3, [r4]
 321 000a 9B69     		ldr	r3, [r3, #24]
 322 000c 9B07     		lsls	r3, r3, #30
 323 000e 01D5     		bpl	.L71
 324 0010 0020     		movs	r0, #0
 325              	.L68:
 326 0012 70BD     		pop	{r4, r5, r6, pc}
 327              	.L71:
 328 0014 3246     		mov	r2, r6
 329 0016 2946     		mov	r1, r5
 330 0018 2046     		mov	r0, r4
 331 001a FFF7FEFF 		bl	I2C_IsAcknowledgeFailed
 332 001e A0B9     		cbnz	r0, .L72
 333 0020 6A1C     		adds	r2, r5, #1
 334 0022 F1D0     		beq	.L69
 335 0024 FFF7FEFF 		bl	HAL_GetTick
 336 0028 801B     		subs	r0, r0, r6
 337 002a A842     		cmp	r0, r5
 338 002c 01D8     		bhi	.L70
 339 002e 002D     		cmp	r5, #0
 340 0030 EAD1     		bne	.L69
 341              	.L70:
 342 0032 636C     		ldr	r3, [r4, #68]
 343 0034 43F02003 		orr	r3, r3, #32
 344 0038 6364     		str	r3, [r4, #68]
 345 003a 2023     		movs	r3, #32
 346 003c 84F84130 		strb	r3, [r4, #65]
 347 0040 0023     		movs	r3, #0
 348 0042 84F84230 		strb	r3, [r4, #66]
 349 0046 84F84030 		strb	r3, [r4, #64]
 350              	.L72:
 351 004a 0120     		movs	r0, #1
 352 004c E1E7     		b	.L68
 354              		.section	.text.I2C_RequestMemoryWrite,"ax",%progbits
 355              		.align	1
 356              		.syntax unified
 357              		.thumb
 358              		.thumb_func
ARM GAS  /tmp/cckhjLjw.s 			page 7


 359              		.fpu fpv5-sp-d16
 361              	I2C_RequestMemoryWrite:
 362              		@ args = 8, pretend = 0, frame = 0
 363              		@ frame_needed = 0, uses_anonymous_args = 0
 364 0000 F7B5     		push	{r0, r1, r2, r4, r5, r6, r7, lr}
 365 0002 1F46     		mov	r7, r3
 366 0004 164B     		ldr	r3, .L83
 367 0006 0546     		mov	r5, r0
 368 0008 099E     		ldr	r6, [sp, #36]
 369 000a 0093     		str	r3, [sp]
 370 000c 1446     		mov	r4, r2
 371 000e 4FF08073 		mov	r3, #16777216
 372 0012 FAB2     		uxtb	r2, r7
 373 0014 FFF7FEFF 		bl	I2C_TransferConfig
 374 0018 3246     		mov	r2, r6
 375 001a 0899     		ldr	r1, [sp, #32]
 376 001c 2846     		mov	r0, r5
 377 001e FFF7FEFF 		bl	I2C_WaitOnTXISFlagUntilTimeout
 378 0022 10B1     		cbz	r0, .L77
 379              	.L81:
 380 0024 0120     		movs	r0, #1
 381              	.L78:
 382 0026 03B0     		add	sp, sp, #12
 383              		@ sp needed
 384 0028 F0BD     		pop	{r4, r5, r6, r7, pc}
 385              	.L77:
 386 002a 012F     		cmp	r7, #1
 387 002c 2B68     		ldr	r3, [r5]
 388 002e 0CD1     		bne	.L79
 389              	.L82:
 390 0030 E4B2     		uxtb	r4, r4
 391 0032 0022     		movs	r2, #0
 392 0034 8021     		movs	r1, #128
 393 0036 2846     		mov	r0, r5
 394 0038 9C62     		str	r4, [r3, #40]
 395 003a 089B     		ldr	r3, [sp, #32]
 396 003c 0096     		str	r6, [sp]
 397 003e FFF7FEFF 		bl	I2C_WaitOnFlagUntilTimeout
 398 0042 0030     		adds	r0, r0, #0
 399 0044 18BF     		it	ne
 400 0046 0120     		movne	r0, #1
 401 0048 EDE7     		b	.L78
 402              	.L79:
 403 004a 220A     		lsrs	r2, r4, #8
 404 004c 0899     		ldr	r1, [sp, #32]
 405 004e 2846     		mov	r0, r5
 406 0050 9A62     		str	r2, [r3, #40]
 407 0052 3246     		mov	r2, r6
 408 0054 FFF7FEFF 		bl	I2C_WaitOnTXISFlagUntilTimeout
 409 0058 0028     		cmp	r0, #0
 410 005a E3D1     		bne	.L81
 411 005c 2B68     		ldr	r3, [r5]
 412 005e E7E7     		b	.L82
 413              	.L84:
 414              		.align	2
 415              	.L83:
 416 0060 00200080 		.word	-2147475456
ARM GAS  /tmp/cckhjLjw.s 			page 8


 418              		.section	.text.I2C_RequestMemoryRead,"ax",%progbits
 419              		.align	1
 420              		.syntax unified
 421              		.thumb
 422              		.thumb_func
 423              		.fpu fpv5-sp-d16
 425              	I2C_RequestMemoryRead:
 426              		@ args = 8, pretend = 0, frame = 0
 427              		@ frame_needed = 0, uses_anonymous_args = 0
 428 0000 F7B5     		push	{r0, r1, r2, r4, r5, r6, r7, lr}
 429 0002 1F46     		mov	r7, r3
 430 0004 164B     		ldr	r3, .L92
 431 0006 0546     		mov	r5, r0
 432 0008 099E     		ldr	r6, [sp, #36]
 433 000a 0093     		str	r3, [sp]
 434 000c 1446     		mov	r4, r2
 435 000e 0023     		movs	r3, #0
 436 0010 FAB2     		uxtb	r2, r7
 437 0012 FFF7FEFF 		bl	I2C_TransferConfig
 438 0016 3246     		mov	r2, r6
 439 0018 0899     		ldr	r1, [sp, #32]
 440 001a 2846     		mov	r0, r5
 441 001c FFF7FEFF 		bl	I2C_WaitOnTXISFlagUntilTimeout
 442 0020 10B1     		cbz	r0, .L86
 443              	.L90:
 444 0022 0120     		movs	r0, #1
 445              	.L87:
 446 0024 03B0     		add	sp, sp, #12
 447              		@ sp needed
 448 0026 F0BD     		pop	{r4, r5, r6, r7, pc}
 449              	.L86:
 450 0028 012F     		cmp	r7, #1
 451 002a 2B68     		ldr	r3, [r5]
 452 002c 0CD1     		bne	.L88
 453              	.L91:
 454 002e E4B2     		uxtb	r4, r4
 455 0030 0022     		movs	r2, #0
 456 0032 4021     		movs	r1, #64
 457 0034 2846     		mov	r0, r5
 458 0036 9C62     		str	r4, [r3, #40]
 459 0038 089B     		ldr	r3, [sp, #32]
 460 003a 0096     		str	r6, [sp]
 461 003c FFF7FEFF 		bl	I2C_WaitOnFlagUntilTimeout
 462 0040 0030     		adds	r0, r0, #0
 463 0042 18BF     		it	ne
 464 0044 0120     		movne	r0, #1
 465 0046 EDE7     		b	.L87
 466              	.L88:
 467 0048 220A     		lsrs	r2, r4, #8
 468 004a 0899     		ldr	r1, [sp, #32]
 469 004c 2846     		mov	r0, r5
 470 004e 9A62     		str	r2, [r3, #40]
 471 0050 3246     		mov	r2, r6
 472 0052 FFF7FEFF 		bl	I2C_WaitOnTXISFlagUntilTimeout
 473 0056 0028     		cmp	r0, #0
 474 0058 E3D1     		bne	.L90
 475 005a 2B68     		ldr	r3, [r5]
ARM GAS  /tmp/cckhjLjw.s 			page 9


 476 005c E7E7     		b	.L91
 477              	.L93:
 478 005e 00BF     		.align	2
 479              	.L92:
 480 0060 00200080 		.word	-2147475456
 482              		.section	.text.I2C_WaitOnSTOPFlagUntilTimeout,"ax",%progbits
 483              		.align	1
 484              		.syntax unified
 485              		.thumb
 486              		.thumb_func
 487              		.fpu fpv5-sp-d16
 489              	I2C_WaitOnSTOPFlagUntilTimeout:
 490              		@ args = 0, pretend = 0, frame = 0
 491              		@ frame_needed = 0, uses_anonymous_args = 0
 492 0000 70B5     		push	{r4, r5, r6, lr}
 493 0002 0446     		mov	r4, r0
 494 0004 0D46     		mov	r5, r1
 495 0006 1646     		mov	r6, r2
 496              	.L95:
 497 0008 2368     		ldr	r3, [r4]
 498 000a 9B69     		ldr	r3, [r3, #24]
 499 000c 9B06     		lsls	r3, r3, #26
 500 000e 01D5     		bpl	.L98
 501 0010 0020     		movs	r0, #0
 502              	.L96:
 503 0012 70BD     		pop	{r4, r5, r6, pc}
 504              	.L98:
 505 0014 3246     		mov	r2, r6
 506 0016 2946     		mov	r1, r5
 507 0018 2046     		mov	r0, r4
 508 001a FFF7FEFF 		bl	I2C_IsAcknowledgeFailed
 509 001e 90B9     		cbnz	r0, .L99
 510 0020 FFF7FEFF 		bl	HAL_GetTick
 511 0024 801B     		subs	r0, r0, r6
 512 0026 A842     		cmp	r0, r5
 513 0028 01D8     		bhi	.L97
 514 002a 002D     		cmp	r5, #0
 515 002c ECD1     		bne	.L95
 516              	.L97:
 517 002e 636C     		ldr	r3, [r4, #68]
 518 0030 43F02003 		orr	r3, r3, #32
 519 0034 6364     		str	r3, [r4, #68]
 520 0036 2023     		movs	r3, #32
 521 0038 84F84130 		strb	r3, [r4, #65]
 522 003c 0023     		movs	r3, #0
 523 003e 84F84230 		strb	r3, [r4, #66]
 524 0042 84F84030 		strb	r3, [r4, #64]
 525              	.L99:
 526 0046 0120     		movs	r0, #1
 527 0048 E3E7     		b	.L96
 529              		.section	.text.I2C_WaitOnRXNEFlagUntilTimeout,"ax",%progbits
 530              		.align	1
 531              		.syntax unified
 532              		.thumb
 533              		.thumb_func
 534              		.fpu fpv5-sp-d16
 536              	I2C_WaitOnRXNEFlagUntilTimeout:
ARM GAS  /tmp/cckhjLjw.s 			page 10


 537              		@ args = 0, pretend = 0, frame = 0
 538              		@ frame_needed = 0, uses_anonymous_args = 0
 539 0000 70B5     		push	{r4, r5, r6, lr}
 540 0002 0446     		mov	r4, r0
 541 0004 0D46     		mov	r5, r1
 542 0006 1646     		mov	r6, r2
 543              	.L102:
 544 0008 2368     		ldr	r3, [r4]
 545 000a 9B69     		ldr	r3, [r3, #24]
 546 000c 5B07     		lsls	r3, r3, #29
 547 000e 0ED4     		bmi	.L108
 548 0010 3246     		mov	r2, r6
 549 0012 2946     		mov	r1, r5
 550 0014 2046     		mov	r0, r4
 551 0016 FFF7FEFF 		bl	I2C_IsAcknowledgeFailed
 552 001a F0B9     		cbnz	r0, .L109
 553 001c 2368     		ldr	r3, [r4]
 554 001e 9A69     		ldr	r2, [r3, #24]
 555 0020 9106     		lsls	r1, r2, #26
 556 0022 1CD5     		bpl	.L104
 557 0024 9A69     		ldr	r2, [r3, #24]
 558 0026 5207     		lsls	r2, r2, #29
 559 0028 03D5     		bpl	.L105
 560 002a 228D     		ldrh	r2, [r4, #40]
 561 002c 0AB1     		cbz	r2, .L105
 562              	.L108:
 563 002e 0020     		movs	r0, #0
 564              	.L103:
 565 0030 70BD     		pop	{r4, r5, r6, pc}
 566              	.L105:
 567 0032 2021     		movs	r1, #32
 568 0034 D961     		str	r1, [r3, #28]
 569 0036 5A68     		ldr	r2, [r3, #4]
 570 0038 22F0FF72 		bic	r2, r2, #33423360
 571 003c 22F48B32 		bic	r2, r2, #71168
 572 0040 22F4FF72 		bic	r2, r2, #510
 573 0044 22F00102 		bic	r2, r2, #1
 574 0048 5A60     		str	r2, [r3, #4]
 575 004a 0023     		movs	r3, #0
 576 004c 6364     		str	r3, [r4, #68]
 577 004e 84F84110 		strb	r1, [r4, #65]
 578 0052 84F84230 		strb	r3, [r4, #66]
 579              	.L117:
 580 0056 84F84030 		strb	r3, [r4, #64]
 581              	.L109:
 582 005a 0120     		movs	r0, #1
 583 005c E8E7     		b	.L103
 584              	.L104:
 585 005e FFF7FEFF 		bl	HAL_GetTick
 586 0062 801B     		subs	r0, r0, r6
 587 0064 A842     		cmp	r0, r5
 588 0066 01D8     		bhi	.L106
 589 0068 002D     		cmp	r5, #0
 590 006a CDD1     		bne	.L102
 591              	.L106:
 592 006c 636C     		ldr	r3, [r4, #68]
 593 006e 43F02003 		orr	r3, r3, #32
ARM GAS  /tmp/cckhjLjw.s 			page 11


 594 0072 6364     		str	r3, [r4, #68]
 595 0074 2023     		movs	r3, #32
 596 0076 84F84130 		strb	r3, [r4, #65]
 597 007a 0023     		movs	r3, #0
 598 007c EBE7     		b	.L117
 600              		.section	.text.HAL_I2C_MspInit,"ax",%progbits
 601              		.align	1
 602              		.weak	HAL_I2C_MspInit
 603              		.syntax unified
 604              		.thumb
 605              		.thumb_func
 606              		.fpu fpv5-sp-d16
 608              	HAL_I2C_MspInit:
 609              		@ args = 0, pretend = 0, frame = 0
 610              		@ frame_needed = 0, uses_anonymous_args = 0
 611              		@ link register save eliminated.
 612 0000 7047     		bx	lr
 614              		.section	.text.HAL_I2C_Init,"ax",%progbits
 615              		.align	1
 616              		.global	HAL_I2C_Init
 617              		.syntax unified
 618              		.thumb
 619              		.thumb_func
 620              		.fpu fpv5-sp-d16
 622              	HAL_I2C_Init:
 623              		@ args = 0, pretend = 0, frame = 0
 624              		@ frame_needed = 0, uses_anonymous_args = 0
 625 0000 10B5     		push	{r4, lr}
 626 0002 0446     		mov	r4, r0
 627 0004 0028     		cmp	r0, #0
 628 0006 4AD0     		beq	.L124
 629 0008 90F84130 		ldrb	r3, [r0, #65]	@ zero_extendqisi2
 630 000c 03F0FF02 		and	r2, r3, #255
 631 0010 1BB9     		cbnz	r3, .L121
 632 0012 80F84020 		strb	r2, [r0, #64]
 633 0016 FFF7FEFF 		bl	HAL_I2C_MspInit
 634              	.L121:
 635 001a 2423     		movs	r3, #36
 636 001c 84F84130 		strb	r3, [r4, #65]
 637 0020 2368     		ldr	r3, [r4]
 638 0022 1A68     		ldr	r2, [r3]
 639 0024 22F00102 		bic	r2, r2, #1
 640 0028 1A60     		str	r2, [r3]
 641 002a 6268     		ldr	r2, [r4, #4]
 642 002c 22F07062 		bic	r2, r2, #251658240
 643 0030 1A61     		str	r2, [r3, #16]
 644 0032 9A68     		ldr	r2, [r3, #8]
 645 0034 22F40042 		bic	r2, r2, #32768
 646 0038 9A60     		str	r2, [r3, #8]
 647 003a D4E90221 		ldrd	r2, r1, [r4, #8]
 648 003e 0129     		cmp	r1, #1
 649 0040 24D1     		bne	.L122
 650 0042 42F40042 		orr	r2, r2, #32768
 651 0046 9A60     		str	r2, [r3, #8]
 652              	.L123:
 653 0048 5A68     		ldr	r2, [r3, #4]
 654 004a 0020     		movs	r0, #0
ARM GAS  /tmp/cckhjLjw.s 			page 12


 655 004c 42F00072 		orr	r2, r2, #33554432
 656 0050 42F40042 		orr	r2, r2, #32768
 657 0054 5A60     		str	r2, [r3, #4]
 658 0056 DA68     		ldr	r2, [r3, #12]
 659 0058 22F40042 		bic	r2, r2, #32768
 660 005c DA60     		str	r2, [r3, #12]
 661 005e D4E90421 		ldrd	r2, r1, [r4, #16]
 662 0062 0A43     		orrs	r2, r2, r1
 663 0064 A169     		ldr	r1, [r4, #24]
 664 0066 42EA0122 		orr	r2, r2, r1, lsl #8
 665 006a DA60     		str	r2, [r3, #12]
 666 006c D4E90721 		ldrd	r2, r1, [r4, #28]
 667 0070 0A43     		orrs	r2, r2, r1
 668 0072 1A60     		str	r2, [r3]
 669 0074 1A68     		ldr	r2, [r3]
 670 0076 42F00102 		orr	r2, r2, #1
 671 007a 1A60     		str	r2, [r3]
 672 007c 2023     		movs	r3, #32
 673 007e 6064     		str	r0, [r4, #68]
 674 0080 84F84130 		strb	r3, [r4, #65]
 675 0084 2063     		str	r0, [r4, #48]
 676 0086 84F84200 		strb	r0, [r4, #66]
 677              	.L120:
 678 008a 10BD     		pop	{r4, pc}
 679              	.L122:
 680 008c 42F40442 		orr	r2, r2, #33792
 681 0090 0229     		cmp	r1, #2
 682 0092 9A60     		str	r2, [r3, #8]
 683 0094 D8D1     		bne	.L123
 684 0096 4FF40062 		mov	r2, #2048
 685 009a 5A60     		str	r2, [r3, #4]
 686 009c D4E7     		b	.L123
 687              	.L124:
 688 009e 0120     		movs	r0, #1
 689 00a0 F3E7     		b	.L120
 691              		.section	.text.HAL_I2C_MspDeInit,"ax",%progbits
 692              		.align	1
 693              		.weak	HAL_I2C_MspDeInit
 694              		.syntax unified
 695              		.thumb
 696              		.thumb_func
 697              		.fpu fpv5-sp-d16
 699              	HAL_I2C_MspDeInit:
 700              		@ args = 0, pretend = 0, frame = 0
 701              		@ frame_needed = 0, uses_anonymous_args = 0
 702              		@ link register save eliminated.
 703 0000 7047     		bx	lr
 705              		.section	.text.HAL_I2C_DeInit,"ax",%progbits
 706              		.align	1
 707              		.global	HAL_I2C_DeInit
 708              		.syntax unified
 709              		.thumb
 710              		.thumb_func
 711              		.fpu fpv5-sp-d16
 713              	HAL_I2C_DeInit:
 714              		@ args = 0, pretend = 0, frame = 0
 715              		@ frame_needed = 0, uses_anonymous_args = 0
ARM GAS  /tmp/cckhjLjw.s 			page 13


 716 0000 10B5     		push	{r4, lr}
 717 0002 0446     		mov	r4, r0
 718 0004 98B1     		cbz	r0, .L128
 719 0006 0268     		ldr	r2, [r0]
 720 0008 2423     		movs	r3, #36
 721 000a 80F84130 		strb	r3, [r0, #65]
 722 000e 1368     		ldr	r3, [r2]
 723 0010 23F00103 		bic	r3, r3, #1
 724 0014 1360     		str	r3, [r2]
 725 0016 FFF7FEFF 		bl	HAL_I2C_MspDeInit
 726 001a 0020     		movs	r0, #0
 727 001c 6064     		str	r0, [r4, #68]
 728 001e 84F84000 		strb	r0, [r4, #64]
 729 0022 84F84100 		strb	r0, [r4, #65]
 730 0026 2063     		str	r0, [r4, #48]
 731 0028 84F84200 		strb	r0, [r4, #66]
 732              	.L127:
 733 002c 10BD     		pop	{r4, pc}
 734              	.L128:
 735 002e 0120     		movs	r0, #1
 736 0030 FCE7     		b	.L127
 738              		.section	.text.HAL_I2C_Master_Transmit,"ax",%progbits
 739              		.align	1
 740              		.global	HAL_I2C_Master_Transmit
 741              		.syntax unified
 742              		.thumb
 743              		.thumb_func
 744              		.fpu fpv5-sp-d16
 746              	HAL_I2C_Master_Transmit:
 747              		@ args = 4, pretend = 0, frame = 0
 748              		@ frame_needed = 0, uses_anonymous_args = 0
 749 0000 2DE9F743 		push	{r0, r1, r2, r4, r5, r6, r7, r8, r9, lr}
 750 0004 9846     		mov	r8, r3
 751 0006 90F84130 		ldrb	r3, [r0, #65]	@ zero_extendqisi2
 752 000a 0446     		mov	r4, r0
 753 000c 0E46     		mov	r6, r1
 754 000e 202B     		cmp	r3, #32
 755 0010 9146     		mov	r9, r2
 756 0012 40F08280 		bne	.L140
 757 0016 90F84030 		ldrb	r3, [r0, #64]	@ zero_extendqisi2
 758 001a 012B     		cmp	r3, #1
 759 001c 7DD0     		beq	.L140
 760 001e 0127     		movs	r7, #1
 761 0020 80F84070 		strb	r7, [r0, #64]
 762 0024 FFF7FEFF 		bl	HAL_GetTick
 763 0028 1923     		movs	r3, #25
 764 002a 0546     		mov	r5, r0
 765 002c 0090     		str	r0, [sp]
 766 002e 3A46     		mov	r2, r7
 767 0030 4FF40041 		mov	r1, #32768
 768 0034 2046     		mov	r0, r4
 769 0036 FFF7FEFF 		bl	I2C_WaitOnFlagUntilTimeout
 770 003a 18B1     		cbz	r0, .L131
 771              	.L135:
 772 003c 0120     		movs	r0, #1
 773              	.L130:
 774 003e 03B0     		add	sp, sp, #12
ARM GAS  /tmp/cckhjLjw.s 			page 14


 775              		@ sp needed
 776 0040 BDE8F083 		pop	{r4, r5, r6, r7, r8, r9, pc}
 777              	.L131:
 778 0044 2123     		movs	r3, #33
 779 0046 C4F82490 		str	r9, [r4, #36]
 780 004a 6063     		str	r0, [r4, #52]
 781 004c 84F84130 		strb	r3, [r4, #65]
 782 0050 1023     		movs	r3, #16
 783 0052 84F84230 		strb	r3, [r4, #66]
 784 0056 6064     		str	r0, [r4, #68]
 785 0058 A4F82A80 		strh	r8, [r4, #42]	@ movhi
 786 005c 638D     		ldrh	r3, [r4, #42]
 787 005e FF2B     		cmp	r3, #255
 788 0060 2F4B     		ldr	r3, .L147
 789 0062 26D9     		bls	.L132
 790 0064 FF22     		movs	r2, #255
 791 0066 0093     		str	r3, [sp]
 792 0068 2285     		strh	r2, [r4, #40]	@ movhi
 793              	.L146:
 794 006a 4FF08073 		mov	r3, #16777216
 795              	.L144:
 796 006e 3146     		mov	r1, r6
 797 0070 2046     		mov	r0, r4
 798 0072 FFF7FEFF 		bl	I2C_TransferConfig
 799              	.L134:
 800 0076 638D     		ldrh	r3, [r4, #42]
 801 0078 2A46     		mov	r2, r5
 802 007a 0A99     		ldr	r1, [sp, #40]
 803 007c 2046     		mov	r0, r4
 804 007e 9BB2     		uxth	r3, r3
 805 0080 FBB9     		cbnz	r3, .L138
 806 0082 FFF7FEFF 		bl	I2C_WaitOnSTOPFlagUntilTimeout
 807 0086 0028     		cmp	r0, #0
 808 0088 D8D1     		bne	.L135
 809 008a 2368     		ldr	r3, [r4]
 810 008c 2021     		movs	r1, #32
 811 008e D961     		str	r1, [r3, #28]
 812 0090 5A68     		ldr	r2, [r3, #4]
 813 0092 22F0FF72 		bic	r2, r2, #33423360
 814 0096 22F48B32 		bic	r2, r2, #71168
 815 009a 22F4FF72 		bic	r2, r2, #510
 816 009e 22F00102 		bic	r2, r2, #1
 817 00a2 5A60     		str	r2, [r3, #4]
 818 00a4 84F84110 		strb	r1, [r4, #65]
 819 00a8 84F84000 		strb	r0, [r4, #64]
 820 00ac 84F84200 		strb	r0, [r4, #66]
 821 00b0 C5E7     		b	.L130
 822              	.L132:
 823 00b2 628D     		ldrh	r2, [r4, #42]
 824 00b4 0093     		str	r3, [sp]
 825 00b6 92B2     		uxth	r2, r2
 826 00b8 2285     		strh	r2, [r4, #40]	@ movhi
 827              	.L145:
 828 00ba 4FF00073 		mov	r3, #33554432
 829 00be D2B2     		uxtb	r2, r2
 830 00c0 D5E7     		b	.L144
 831              	.L138:
ARM GAS  /tmp/cckhjLjw.s 			page 15


 832 00c2 FFF7FEFF 		bl	I2C_WaitOnTXISFlagUntilTimeout
 833 00c6 0028     		cmp	r0, #0
 834 00c8 B8D1     		bne	.L135
 835 00ca 636A     		ldr	r3, [r4, #36]
 836 00cc 2268     		ldr	r2, [r4]
 837 00ce 13F8011B 		ldrb	r1, [r3], #1	@ zero_extendqisi2
 838 00d2 9162     		str	r1, [r2, #40]
 839 00d4 6362     		str	r3, [r4, #36]
 840 00d6 638D     		ldrh	r3, [r4, #42]
 841 00d8 228D     		ldrh	r2, [r4, #40]
 842 00da 013B     		subs	r3, r3, #1
 843 00dc 013A     		subs	r2, r2, #1
 844 00de 9BB2     		uxth	r3, r3
 845 00e0 92B2     		uxth	r2, r2
 846 00e2 6385     		strh	r3, [r4, #42]	@ movhi
 847 00e4 638D     		ldrh	r3, [r4, #42]
 848 00e6 2285     		strh	r2, [r4, #40]	@ movhi
 849 00e8 9BB2     		uxth	r3, r3
 850 00ea 002B     		cmp	r3, #0
 851 00ec C3D0     		beq	.L134
 852 00ee 002A     		cmp	r2, #0
 853 00f0 C1D1     		bne	.L134
 854 00f2 0095     		str	r5, [sp]
 855 00f4 8021     		movs	r1, #128
 856 00f6 0A9B     		ldr	r3, [sp, #40]
 857 00f8 2046     		mov	r0, r4
 858 00fa FFF7FEFF 		bl	I2C_WaitOnFlagUntilTimeout
 859 00fe 0028     		cmp	r0, #0
 860 0100 9CD1     		bne	.L135
 861 0102 638D     		ldrh	r3, [r4, #42]
 862 0104 FF2B     		cmp	r3, #255
 863 0106 03D9     		bls	.L137
 864 0108 FF22     		movs	r2, #255
 865 010a 0090     		str	r0, [sp]
 866 010c 2285     		strh	r2, [r4, #40]	@ movhi
 867 010e ACE7     		b	.L146
 868              	.L137:
 869 0110 628D     		ldrh	r2, [r4, #42]
 870 0112 0090     		str	r0, [sp]
 871 0114 92B2     		uxth	r2, r2
 872 0116 2285     		strh	r2, [r4, #40]	@ movhi
 873 0118 CFE7     		b	.L145
 874              	.L140:
 875 011a 0220     		movs	r0, #2
 876 011c 8FE7     		b	.L130
 877              	.L148:
 878 011e 00BF     		.align	2
 879              	.L147:
 880 0120 00200080 		.word	-2147475456
 882              		.section	.text.HAL_I2C_Master_Receive,"ax",%progbits
 883              		.align	1
 884              		.global	HAL_I2C_Master_Receive
 885              		.syntax unified
 886              		.thumb
 887              		.thumb_func
 888              		.fpu fpv5-sp-d16
 890              	HAL_I2C_Master_Receive:
ARM GAS  /tmp/cckhjLjw.s 			page 16


 891              		@ args = 4, pretend = 0, frame = 0
 892              		@ frame_needed = 0, uses_anonymous_args = 0
 893 0000 2DE9F743 		push	{r0, r1, r2, r4, r5, r6, r7, r8, r9, lr}
 894 0004 9846     		mov	r8, r3
 895 0006 90F84130 		ldrb	r3, [r0, #65]	@ zero_extendqisi2
 896 000a 0446     		mov	r4, r0
 897 000c 0E46     		mov	r6, r1
 898 000e 202B     		cmp	r3, #32
 899 0010 9146     		mov	r9, r2
 900 0012 40F08380 		bne	.L160
 901 0016 90F84030 		ldrb	r3, [r0, #64]	@ zero_extendqisi2
 902 001a 012B     		cmp	r3, #1
 903 001c 7ED0     		beq	.L160
 904 001e 0127     		movs	r7, #1
 905 0020 80F84070 		strb	r7, [r0, #64]
 906 0024 FFF7FEFF 		bl	HAL_GetTick
 907 0028 1923     		movs	r3, #25
 908 002a 0546     		mov	r5, r0
 909 002c 0090     		str	r0, [sp]
 910 002e 3A46     		mov	r2, r7
 911 0030 4FF40041 		mov	r1, #32768
 912 0034 2046     		mov	r0, r4
 913 0036 FFF7FEFF 		bl	I2C_WaitOnFlagUntilTimeout
 914 003a 18B1     		cbz	r0, .L151
 915              	.L155:
 916 003c 0120     		movs	r0, #1
 917              	.L150:
 918 003e 03B0     		add	sp, sp, #12
 919              		@ sp needed
 920 0040 BDE8F083 		pop	{r4, r5, r6, r7, r8, r9, pc}
 921              	.L151:
 922 0044 2223     		movs	r3, #34
 923 0046 C4F82490 		str	r9, [r4, #36]
 924 004a 6063     		str	r0, [r4, #52]
 925 004c 84F84130 		strb	r3, [r4, #65]
 926 0050 1023     		movs	r3, #16
 927 0052 84F84230 		strb	r3, [r4, #66]
 928 0056 6064     		str	r0, [r4, #68]
 929 0058 A4F82A80 		strh	r8, [r4, #42]	@ movhi
 930 005c 638D     		ldrh	r3, [r4, #42]
 931 005e FF2B     		cmp	r3, #255
 932 0060 2F4B     		ldr	r3, .L167
 933 0062 26D9     		bls	.L152
 934 0064 FF22     		movs	r2, #255
 935 0066 0093     		str	r3, [sp]
 936 0068 2285     		strh	r2, [r4, #40]	@ movhi
 937              	.L166:
 938 006a 4FF08073 		mov	r3, #16777216
 939              	.L164:
 940 006e 3146     		mov	r1, r6
 941 0070 2046     		mov	r0, r4
 942 0072 FFF7FEFF 		bl	I2C_TransferConfig
 943              	.L154:
 944 0076 638D     		ldrh	r3, [r4, #42]
 945 0078 2A46     		mov	r2, r5
 946 007a 0A99     		ldr	r1, [sp, #40]
 947 007c 2046     		mov	r0, r4
ARM GAS  /tmp/cckhjLjw.s 			page 17


 948 007e 9BB2     		uxth	r3, r3
 949 0080 FBB9     		cbnz	r3, .L158
 950 0082 FFF7FEFF 		bl	I2C_WaitOnSTOPFlagUntilTimeout
 951 0086 0028     		cmp	r0, #0
 952 0088 D8D1     		bne	.L155
 953 008a 2368     		ldr	r3, [r4]
 954 008c 2021     		movs	r1, #32
 955 008e D961     		str	r1, [r3, #28]
 956 0090 5A68     		ldr	r2, [r3, #4]
 957 0092 22F0FF72 		bic	r2, r2, #33423360
 958 0096 22F48B32 		bic	r2, r2, #71168
 959 009a 22F4FF72 		bic	r2, r2, #510
 960 009e 22F00102 		bic	r2, r2, #1
 961 00a2 5A60     		str	r2, [r3, #4]
 962 00a4 84F84110 		strb	r1, [r4, #65]
 963 00a8 84F84000 		strb	r0, [r4, #64]
 964 00ac 84F84200 		strb	r0, [r4, #66]
 965 00b0 C5E7     		b	.L150
 966              	.L152:
 967 00b2 628D     		ldrh	r2, [r4, #42]
 968 00b4 0093     		str	r3, [sp]
 969 00b6 92B2     		uxth	r2, r2
 970 00b8 2285     		strh	r2, [r4, #40]	@ movhi
 971              	.L165:
 972 00ba 4FF00073 		mov	r3, #33554432
 973 00be D2B2     		uxtb	r2, r2
 974 00c0 D5E7     		b	.L164
 975              	.L158:
 976 00c2 FFF7FEFF 		bl	I2C_WaitOnRXNEFlagUntilTimeout
 977 00c6 0028     		cmp	r0, #0
 978 00c8 B8D1     		bne	.L155
 979 00ca 2368     		ldr	r3, [r4]
 980 00cc 5A6A     		ldr	r2, [r3, #36]
 981 00ce 636A     		ldr	r3, [r4, #36]
 982 00d0 1A70     		strb	r2, [r3]
 983 00d2 636A     		ldr	r3, [r4, #36]
 984 00d4 228D     		ldrh	r2, [r4, #40]
 985 00d6 0133     		adds	r3, r3, #1
 986 00d8 013A     		subs	r2, r2, #1
 987 00da 6362     		str	r3, [r4, #36]
 988 00dc 638D     		ldrh	r3, [r4, #42]
 989 00de 92B2     		uxth	r2, r2
 990 00e0 013B     		subs	r3, r3, #1
 991 00e2 2285     		strh	r2, [r4, #40]	@ movhi
 992 00e4 9BB2     		uxth	r3, r3
 993 00e6 6385     		strh	r3, [r4, #42]	@ movhi
 994 00e8 638D     		ldrh	r3, [r4, #42]
 995 00ea 9BB2     		uxth	r3, r3
 996 00ec 002B     		cmp	r3, #0
 997 00ee C2D0     		beq	.L154
 998 00f0 002A     		cmp	r2, #0
 999 00f2 C0D1     		bne	.L154
 1000 00f4 0095     		str	r5, [sp]
 1001 00f6 8021     		movs	r1, #128
 1002 00f8 0A9B     		ldr	r3, [sp, #40]
 1003 00fa 2046     		mov	r0, r4
 1004 00fc FFF7FEFF 		bl	I2C_WaitOnFlagUntilTimeout
ARM GAS  /tmp/cckhjLjw.s 			page 18


 1005 0100 0028     		cmp	r0, #0
 1006 0102 9BD1     		bne	.L155
 1007 0104 638D     		ldrh	r3, [r4, #42]
 1008 0106 FF2B     		cmp	r3, #255
 1009 0108 03D9     		bls	.L157
 1010 010a FF22     		movs	r2, #255
 1011 010c 0090     		str	r0, [sp]
 1012 010e 2285     		strh	r2, [r4, #40]	@ movhi
 1013 0110 ABE7     		b	.L166
 1014              	.L157:
 1015 0112 628D     		ldrh	r2, [r4, #42]
 1016 0114 0090     		str	r0, [sp]
 1017 0116 92B2     		uxth	r2, r2
 1018 0118 2285     		strh	r2, [r4, #40]	@ movhi
 1019 011a CEE7     		b	.L165
 1020              	.L160:
 1021 011c 0220     		movs	r0, #2
 1022 011e 8EE7     		b	.L150
 1023              	.L168:
 1024              		.align	2
 1025              	.L167:
 1026 0120 00240080 		.word	-2147474432
 1028              		.section	.text.HAL_I2C_Slave_Transmit,"ax",%progbits
 1029              		.align	1
 1030              		.global	HAL_I2C_Slave_Transmit
 1031              		.syntax unified
 1032              		.thumb
 1033              		.thumb_func
 1034              		.fpu fpv5-sp-d16
 1036              	HAL_I2C_Slave_Transmit:
 1037              		@ args = 0, pretend = 0, frame = 0
 1038              		@ frame_needed = 0, uses_anonymous_args = 0
 1039 0000 2DE9F347 		push	{r0, r1, r4, r5, r6, r7, r8, r9, r10, lr}
 1040 0004 90F84180 		ldrb	r8, [r0, #65]	@ zero_extendqisi2
 1041 0008 0446     		mov	r4, r0
 1042 000a 8A46     		mov	r10, r1
 1043 000c 9146     		mov	r9, r2
 1044 000e 5FFA88F8 		uxtb	r8, r8
 1045 0012 1E46     		mov	r6, r3
 1046 0014 B8F1200F 		cmp	r8, #32
 1047 0018 40F08D80 		bne	.L182
 1048 001c 01B1     		cbz	r1, .L171
 1049 001e 22B9     		cbnz	r2, .L172
 1050              	.L171:
 1051 0020 4FF40073 		mov	r3, #512
 1052 0024 6364     		str	r3, [r4, #68]
 1053              	.L183:
 1054 0026 0120     		movs	r0, #1
 1055 0028 82E0     		b	.L170
 1056              	.L172:
 1057 002a 90F84030 		ldrb	r3, [r0, #64]	@ zero_extendqisi2
 1058 002e 012B     		cmp	r3, #1
 1059 0030 00F08180 		beq	.L182
 1060 0034 0125     		movs	r5, #1
 1061 0036 80F84050 		strb	r5, [r0, #64]
 1062 003a FFF7FEFF 		bl	HAL_GetTick
 1063 003e 0022     		movs	r2, #0
ARM GAS  /tmp/cckhjLjw.s 			page 19


 1064 0040 2168     		ldr	r1, [r4]
 1065 0042 2123     		movs	r3, #33
 1066 0044 6263     		str	r2, [r4, #52]
 1067 0046 0746     		mov	r7, r0
 1068 0048 84F84130 		strb	r3, [r4, #65]
 1069 004c 84F84280 		strb	r8, [r4, #66]
 1070 0050 6264     		str	r2, [r4, #68]
 1071 0052 A4F82A90 		strh	r9, [r4, #42]	@ movhi
 1072 0056 4B68     		ldr	r3, [r1, #4]
 1073 0058 C4F824A0 		str	r10, [r4, #36]
 1074 005c 23F40043 		bic	r3, r3, #32768
 1075 0060 4B60     		str	r3, [r1, #4]
 1076 0062 3346     		mov	r3, r6
 1077 0064 0090     		str	r0, [sp]
 1078 0066 0821     		movs	r1, #8
 1079 0068 2046     		mov	r0, r4
 1080 006a FFF7FEFF 		bl	I2C_WaitOnFlagUntilTimeout
 1081 006e 2368     		ldr	r3, [r4]
 1082 0070 0246     		mov	r2, r0
 1083 0072 20B1     		cbz	r0, .L173
 1084              	.L192:
 1085 0074 5A68     		ldr	r2, [r3, #4]
 1086 0076 42F40042 		orr	r2, r2, #32768
 1087 007a 5A60     		str	r2, [r3, #4]
 1088 007c D3E7     		b	.L183
 1089              	.L173:
 1090 007e 4FF00808 		mov	r8, #8
 1091 0082 C3F81C80 		str	r8, [r3, #28]
 1092 0086 E368     		ldr	r3, [r4, #12]
 1093 0088 022B     		cmp	r3, #2
 1094 008a 0AD1     		bne	.L174
 1095 008c 3346     		mov	r3, r6
 1096 008e 0097     		str	r7, [sp]
 1097 0090 4146     		mov	r1, r8
 1098 0092 2046     		mov	r0, r4
 1099 0094 FFF7FEFF 		bl	I2C_WaitOnFlagUntilTimeout
 1100 0098 2368     		ldr	r3, [r4]
 1101 009a 0028     		cmp	r0, #0
 1102 009c EAD1     		bne	.L192
 1103 009e C3F81C80 		str	r8, [r3, #28]
 1104              	.L174:
 1105 00a2 0097     		str	r7, [sp]
 1106 00a4 3346     		mov	r3, r6
 1107 00a6 0022     		movs	r2, #0
 1108 00a8 4FF48031 		mov	r1, #65536
 1109 00ac 2046     		mov	r0, r4
 1110 00ae FFF7FEFF 		bl	I2C_WaitOnFlagUntilTimeout
 1111 00b2 98B1     		cbz	r0, .L176
 1112 00b4 2268     		ldr	r2, [r4]
 1113              	.L193:
 1114 00b6 5368     		ldr	r3, [r2, #4]
 1115 00b8 43F40043 		orr	r3, r3, #32768
 1116 00bc 5360     		str	r3, [r2, #4]
 1117 00be B2E7     		b	.L183
 1118              	.L178:
 1119 00c0 FFF7FEFF 		bl	I2C_WaitOnTXISFlagUntilTimeout
 1120 00c4 2268     		ldr	r2, [r4]
ARM GAS  /tmp/cckhjLjw.s 			page 20


 1121 00c6 0028     		cmp	r0, #0
 1122 00c8 F5D1     		bne	.L193
 1123 00ca 636A     		ldr	r3, [r4, #36]
 1124 00cc 13F8011B 		ldrb	r1, [r3], #1	@ zero_extendqisi2
 1125 00d0 9162     		str	r1, [r2, #40]
 1126 00d2 6362     		str	r3, [r4, #36]
 1127 00d4 638D     		ldrh	r3, [r4, #42]
 1128 00d6 013B     		subs	r3, r3, #1
 1129 00d8 9BB2     		uxth	r3, r3
 1130 00da 6385     		strh	r3, [r4, #42]	@ movhi
 1131              	.L176:
 1132 00dc 658D     		ldrh	r5, [r4, #42]
 1133 00de 3A46     		mov	r2, r7
 1134 00e0 3146     		mov	r1, r6
 1135 00e2 2046     		mov	r0, r4
 1136 00e4 ADB2     		uxth	r5, r5
 1137 00e6 002D     		cmp	r5, #0
 1138 00e8 EAD1     		bne	.L178
 1139 00ea FFF7FEFF 		bl	I2C_WaitOnSTOPFlagUntilTimeout
 1140 00ee 2368     		ldr	r3, [r4]
 1141 00f0 38B1     		cbz	r0, .L179
 1142 00f2 5A68     		ldr	r2, [r3, #4]
 1143 00f4 42F40042 		orr	r2, r2, #32768
 1144 00f8 5A60     		str	r2, [r3, #4]
 1145 00fa 626C     		ldr	r2, [r4, #68]
 1146 00fc 042A     		cmp	r2, #4
 1147 00fe 92D1     		bne	.L183
 1148 0100 6564     		str	r5, [r4, #68]
 1149              	.L179:
 1150 0102 2025     		movs	r5, #32
 1151 0104 0122     		movs	r2, #1
 1152 0106 4FF40041 		mov	r1, #32768
 1153 010a 2046     		mov	r0, r4
 1154 010c DD61     		str	r5, [r3, #28]
 1155 010e 3346     		mov	r3, r6
 1156 0110 0097     		str	r7, [sp]
 1157 0112 FFF7FEFF 		bl	I2C_WaitOnFlagUntilTimeout
 1158 0116 2368     		ldr	r3, [r4]
 1159 0118 5A68     		ldr	r2, [r3, #4]
 1160 011a 42F40042 		orr	r2, r2, #32768
 1161 011e 5A60     		str	r2, [r3, #4]
 1162 0120 0028     		cmp	r0, #0
 1163 0122 80D1     		bne	.L183
 1164 0124 84F84150 		strb	r5, [r4, #65]
 1165 0128 84F84000 		strb	r0, [r4, #64]
 1166 012c 84F84200 		strb	r0, [r4, #66]
 1167              	.L170:
 1168 0130 02B0     		add	sp, sp, #8
 1169              		@ sp needed
 1170 0132 BDE8F087 		pop	{r4, r5, r6, r7, r8, r9, r10, pc}
 1171              	.L182:
 1172 0136 0220     		movs	r0, #2
 1173 0138 FAE7     		b	.L170
 1175              		.section	.text.HAL_I2C_Slave_Receive,"ax",%progbits
 1176              		.align	1
 1177              		.global	HAL_I2C_Slave_Receive
 1178              		.syntax unified
ARM GAS  /tmp/cckhjLjw.s 			page 21


 1179              		.thumb
 1180              		.thumb_func
 1181              		.fpu fpv5-sp-d16
 1183              	HAL_I2C_Slave_Receive:
 1184              		@ args = 0, pretend = 0, frame = 0
 1185              		@ frame_needed = 0, uses_anonymous_args = 0
 1186 0000 2DE9F347 		push	{r0, r1, r4, r5, r6, r7, r8, r9, r10, lr}
 1187 0004 90F84180 		ldrb	r8, [r0, #65]	@ zero_extendqisi2
 1188 0008 0446     		mov	r4, r0
 1189 000a 8A46     		mov	r10, r1
 1190 000c 9146     		mov	r9, r2
 1191 000e 5FFA88F8 		uxtb	r8, r8
 1192 0012 1E46     		mov	r6, r3
 1193 0014 B8F1200F 		cmp	r8, #32
 1194 0018 40F08680 		bne	.L205
 1195 001c 01B1     		cbz	r1, .L196
 1196 001e 22B9     		cbnz	r2, .L197
 1197              	.L196:
 1198 0020 4FF40073 		mov	r3, #512
 1199 0024 6364     		str	r3, [r4, #68]
 1200              	.L206:
 1201 0026 0120     		movs	r0, #1
 1202 0028 7BE0     		b	.L195
 1203              	.L197:
 1204 002a 90F84030 		ldrb	r3, [r0, #64]	@ zero_extendqisi2
 1205 002e 012B     		cmp	r3, #1
 1206 0030 7AD0     		beq	.L205
 1207 0032 0125     		movs	r5, #1
 1208 0034 80F84050 		strb	r5, [r0, #64]
 1209 0038 FFF7FEFF 		bl	HAL_GetTick
 1210 003c 2168     		ldr	r1, [r4]
 1211 003e 0022     		movs	r2, #0
 1212 0040 2223     		movs	r3, #34
 1213 0042 C4F824A0 		str	r10, [r4, #36]
 1214 0046 0746     		mov	r7, r0
 1215 0048 84F84130 		strb	r3, [r4, #65]
 1216 004c 84F84280 		strb	r8, [r4, #66]
 1217 0050 6264     		str	r2, [r4, #68]
 1218 0052 A4F82A90 		strh	r9, [r4, #42]	@ movhi
 1219 0056 4B68     		ldr	r3, [r1, #4]
 1220 0058 6263     		str	r2, [r4, #52]
 1221 005a 23F40043 		bic	r3, r3, #32768
 1222 005e 4B60     		str	r3, [r1, #4]
 1223 0060 3346     		mov	r3, r6
 1224 0062 0090     		str	r0, [sp]
 1225 0064 0821     		movs	r1, #8
 1226 0066 2046     		mov	r0, r4
 1227 0068 FFF7FEFF 		bl	I2C_WaitOnFlagUntilTimeout
 1228 006c 2368     		ldr	r3, [r4]
 1229 006e 20B1     		cbz	r0, .L198
 1230              	.L212:
 1231 0070 5A68     		ldr	r2, [r3, #4]
 1232 0072 42F40042 		orr	r2, r2, #32768
 1233 0076 5A60     		str	r2, [r3, #4]
 1234 0078 D5E7     		b	.L206
 1235              	.L198:
 1236 007a 0822     		movs	r2, #8
ARM GAS  /tmp/cckhjLjw.s 			page 22


 1237 007c 4FF48031 		mov	r1, #65536
 1238 0080 2046     		mov	r0, r4
 1239 0082 DA61     		str	r2, [r3, #28]
 1240 0084 3346     		mov	r3, r6
 1241 0086 0097     		str	r7, [sp]
 1242 0088 2A46     		mov	r2, r5
 1243 008a FFF7FEFF 		bl	I2C_WaitOnFlagUntilTimeout
 1244 008e 28B3     		cbz	r0, .L199
 1245 0090 2268     		ldr	r2, [r4]
 1246 0092 5368     		ldr	r3, [r2, #4]
 1247 0094 43F40043 		orr	r3, r3, #32768
 1248 0098 5360     		str	r3, [r2, #4]
 1249 009a C4E7     		b	.L206
 1250              	.L201:
 1251 009c FFF7FEFF 		bl	I2C_WaitOnRXNEFlagUntilTimeout
 1252 00a0 2368     		ldr	r3, [r4]
 1253 00a2 88B1     		cbz	r0, .L200
 1254 00a4 5A68     		ldr	r2, [r3, #4]
 1255 00a6 42F40042 		orr	r2, r2, #32768
 1256 00aa 5A60     		str	r2, [r3, #4]
 1257 00ac 9A69     		ldr	r2, [r3, #24]
 1258 00ae 5207     		lsls	r2, r2, #29
 1259 00b0 B9D5     		bpl	.L206
 1260 00b2 5A6A     		ldr	r2, [r3, #36]
 1261 00b4 636A     		ldr	r3, [r4, #36]
 1262 00b6 1A70     		strb	r2, [r3]
 1263 00b8 636A     		ldr	r3, [r4, #36]
 1264 00ba 0133     		adds	r3, r3, #1
 1265 00bc 6362     		str	r3, [r4, #36]
 1266 00be 638D     		ldrh	r3, [r4, #42]
 1267 00c0 013B     		subs	r3, r3, #1
 1268 00c2 9BB2     		uxth	r3, r3
 1269 00c4 6385     		strh	r3, [r4, #42]	@ movhi
 1270 00c6 AEE7     		b	.L206
 1271              	.L200:
 1272 00c8 5A6A     		ldr	r2, [r3, #36]
 1273 00ca 636A     		ldr	r3, [r4, #36]
 1274 00cc 1A70     		strb	r2, [r3]
 1275 00ce 636A     		ldr	r3, [r4, #36]
 1276 00d0 0133     		adds	r3, r3, #1
 1277 00d2 6362     		str	r3, [r4, #36]
 1278 00d4 638D     		ldrh	r3, [r4, #42]
 1279 00d6 013B     		subs	r3, r3, #1
 1280 00d8 9BB2     		uxth	r3, r3
 1281 00da 6385     		strh	r3, [r4, #42]	@ movhi
 1282              	.L199:
 1283 00dc 638D     		ldrh	r3, [r4, #42]
 1284 00de 3A46     		mov	r2, r7
 1285 00e0 3146     		mov	r1, r6
 1286 00e2 2046     		mov	r0, r4
 1287 00e4 9BB2     		uxth	r3, r3
 1288 00e6 002B     		cmp	r3, #0
 1289 00e8 D8D1     		bne	.L201
 1290 00ea FFF7FEFF 		bl	I2C_WaitOnSTOPFlagUntilTimeout
 1291 00ee 2368     		ldr	r3, [r4]
 1292 00f0 0028     		cmp	r0, #0
 1293 00f2 BDD1     		bne	.L212
ARM GAS  /tmp/cckhjLjw.s 			page 23


 1294 00f4 2025     		movs	r5, #32
 1295 00f6 0122     		movs	r2, #1
 1296 00f8 4FF40041 		mov	r1, #32768
 1297 00fc 2046     		mov	r0, r4
 1298 00fe DD61     		str	r5, [r3, #28]
 1299 0100 3346     		mov	r3, r6
 1300 0102 0097     		str	r7, [sp]
 1301 0104 FFF7FEFF 		bl	I2C_WaitOnFlagUntilTimeout
 1302 0108 2368     		ldr	r3, [r4]
 1303 010a 5A68     		ldr	r2, [r3, #4]
 1304 010c 42F40042 		orr	r2, r2, #32768
 1305 0110 5A60     		str	r2, [r3, #4]
 1306 0112 0028     		cmp	r0, #0
 1307 0114 87D1     		bne	.L206
 1308 0116 84F84150 		strb	r5, [r4, #65]
 1309 011a 84F84000 		strb	r0, [r4, #64]
 1310 011e 84F84200 		strb	r0, [r4, #66]
 1311              	.L195:
 1312 0122 02B0     		add	sp, sp, #8
 1313              		@ sp needed
 1314 0124 BDE8F087 		pop	{r4, r5, r6, r7, r8, r9, r10, pc}
 1315              	.L205:
 1316 0128 0220     		movs	r0, #2
 1317 012a FAE7     		b	.L195
 1319              		.section	.text.HAL_I2C_Master_Transmit_IT,"ax",%progbits
 1320              		.align	1
 1321              		.global	HAL_I2C_Master_Transmit_IT
 1322              		.syntax unified
 1323              		.thumb
 1324              		.thumb_func
 1325              		.fpu fpv5-sp-d16
 1327              	HAL_I2C_Master_Transmit_IT:
 1328              		@ args = 0, pretend = 0, frame = 0
 1329              		@ frame_needed = 0, uses_anonymous_args = 0
 1330 0000 37B5     		push	{r0, r1, r2, r4, r5, lr}
 1331 0002 0446     		mov	r4, r0
 1332 0004 90F84100 		ldrb	r0, [r0, #65]	@ zero_extendqisi2
 1333 0008 2028     		cmp	r0, #32
 1334 000a 34D1     		bne	.L218
 1335 000c 2068     		ldr	r0, [r4]
 1336 000e 8069     		ldr	r0, [r0, #24]
 1337 0010 10F40040 		ands	r0, r0, #32768
 1338 0014 2FD1     		bne	.L218
 1339 0016 94F84050 		ldrb	r5, [r4, #64]	@ zero_extendqisi2
 1340 001a 012D     		cmp	r5, #1
 1341 001c 2BD0     		beq	.L218
 1342 001e 0125     		movs	r5, #1
 1343 0020 6262     		str	r2, [r4, #36]
 1344 0022 84F84050 		strb	r5, [r4, #64]
 1345 0026 2125     		movs	r5, #33
 1346 0028 84F84150 		strb	r5, [r4, #65]
 1347 002c 1025     		movs	r5, #16
 1348 002e 84F84250 		strb	r5, [r4, #66]
 1349 0032 6064     		str	r0, [r4, #68]
 1350 0034 6385     		strh	r3, [r4, #42]	@ movhi
 1351 0036 114B     		ldr	r3, .L220
 1352 0038 E362     		str	r3, [r4, #44]
ARM GAS  /tmp/cckhjLjw.s 			page 24


 1353 003a 114B     		ldr	r3, .L220+4
 1354 003c 6363     		str	r3, [r4, #52]
 1355 003e 638D     		ldrh	r3, [r4, #42]
 1356 0040 FF2B     		cmp	r3, #255
 1357 0042 14D8     		bhi	.L219
 1358 0044 628D     		ldrh	r2, [r4, #42]
 1359 0046 4FF00073 		mov	r3, #33554432
 1360 004a 92B2     		uxth	r2, r2
 1361              	.L215:
 1362 004c 0D48     		ldr	r0, .L220+8
 1363 004e 0025     		movs	r5, #0
 1364 0050 2285     		strh	r2, [r4, #40]	@ movhi
 1365 0052 D2B2     		uxtb	r2, r2
 1366 0054 0090     		str	r0, [sp]
 1367 0056 2046     		mov	r0, r4
 1368 0058 FFF7FEFF 		bl	I2C_TransferConfig
 1369 005c 2046     		mov	r0, r4
 1370 005e 84F84050 		strb	r5, [r4, #64]
 1371 0062 0121     		movs	r1, #1
 1372 0064 FFF7FEFF 		bl	I2C_Enable_IRQ
 1373 0068 2846     		mov	r0, r5
 1374              	.L214:
 1375 006a 03B0     		add	sp, sp, #12
 1376              		@ sp needed
 1377 006c 30BD     		pop	{r4, r5, pc}
 1378              	.L219:
 1379 006e FF22     		movs	r2, #255
 1380 0070 4FF08073 		mov	r3, #16777216
 1381 0074 EAE7     		b	.L215
 1382              	.L218:
 1383 0076 0220     		movs	r0, #2
 1384 0078 F7E7     		b	.L214
 1385              	.L221:
 1386 007a 00BF     		.align	2
 1387              	.L220:
 1388 007c 0000FFFF 		.word	-65536
 1389 0080 00000000 		.word	I2C_Master_ISR_IT
 1390 0084 00200080 		.word	-2147475456
 1392              		.section	.text.HAL_I2C_Master_Receive_IT,"ax",%progbits
 1393              		.align	1
 1394              		.global	HAL_I2C_Master_Receive_IT
 1395              		.syntax unified
 1396              		.thumb
 1397              		.thumb_func
 1398              		.fpu fpv5-sp-d16
 1400              	HAL_I2C_Master_Receive_IT:
 1401              		@ args = 0, pretend = 0, frame = 0
 1402              		@ frame_needed = 0, uses_anonymous_args = 0
 1403 0000 37B5     		push	{r0, r1, r2, r4, r5, lr}
 1404 0002 0446     		mov	r4, r0
 1405 0004 90F84100 		ldrb	r0, [r0, #65]	@ zero_extendqisi2
 1406 0008 2028     		cmp	r0, #32
 1407 000a 34D1     		bne	.L227
 1408 000c 2068     		ldr	r0, [r4]
 1409 000e 8069     		ldr	r0, [r0, #24]
 1410 0010 10F40040 		ands	r0, r0, #32768
 1411 0014 2FD1     		bne	.L227
ARM GAS  /tmp/cckhjLjw.s 			page 25


 1412 0016 94F84050 		ldrb	r5, [r4, #64]	@ zero_extendqisi2
 1413 001a 012D     		cmp	r5, #1
 1414 001c 2BD0     		beq	.L227
 1415 001e 0125     		movs	r5, #1
 1416 0020 6262     		str	r2, [r4, #36]
 1417 0022 84F84050 		strb	r5, [r4, #64]
 1418 0026 2225     		movs	r5, #34
 1419 0028 84F84150 		strb	r5, [r4, #65]
 1420 002c 1025     		movs	r5, #16
 1421 002e 84F84250 		strb	r5, [r4, #66]
 1422 0032 6064     		str	r0, [r4, #68]
 1423 0034 6385     		strh	r3, [r4, #42]	@ movhi
 1424 0036 114B     		ldr	r3, .L229
 1425 0038 E362     		str	r3, [r4, #44]
 1426 003a 114B     		ldr	r3, .L229+4
 1427 003c 6363     		str	r3, [r4, #52]
 1428 003e 638D     		ldrh	r3, [r4, #42]
 1429 0040 FF2B     		cmp	r3, #255
 1430 0042 14D8     		bhi	.L228
 1431 0044 628D     		ldrh	r2, [r4, #42]
 1432 0046 4FF00073 		mov	r3, #33554432
 1433 004a 92B2     		uxth	r2, r2
 1434              	.L224:
 1435 004c 0D48     		ldr	r0, .L229+8
 1436 004e 0025     		movs	r5, #0
 1437 0050 2285     		strh	r2, [r4, #40]	@ movhi
 1438 0052 D2B2     		uxtb	r2, r2
 1439 0054 0090     		str	r0, [sp]
 1440 0056 2046     		mov	r0, r4
 1441 0058 FFF7FEFF 		bl	I2C_TransferConfig
 1442 005c 2046     		mov	r0, r4
 1443 005e 84F84050 		strb	r5, [r4, #64]
 1444 0062 0221     		movs	r1, #2
 1445 0064 FFF7FEFF 		bl	I2C_Enable_IRQ
 1446 0068 2846     		mov	r0, r5
 1447              	.L223:
 1448 006a 03B0     		add	sp, sp, #12
 1449              		@ sp needed
 1450 006c 30BD     		pop	{r4, r5, pc}
 1451              	.L228:
 1452 006e FF22     		movs	r2, #255
 1453 0070 4FF08073 		mov	r3, #16777216
 1454 0074 EAE7     		b	.L224
 1455              	.L227:
 1456 0076 0220     		movs	r0, #2
 1457 0078 F7E7     		b	.L223
 1458              	.L230:
 1459 007a 00BF     		.align	2
 1460              	.L229:
 1461 007c 0000FFFF 		.word	-65536
 1462 0080 00000000 		.word	I2C_Master_ISR_IT
 1463 0084 00240080 		.word	-2147474432
 1465              		.section	.text.HAL_I2C_Slave_Transmit_IT,"ax",%progbits
 1466              		.align	1
 1467              		.global	HAL_I2C_Slave_Transmit_IT
 1468              		.syntax unified
 1469              		.thumb
ARM GAS  /tmp/cckhjLjw.s 			page 26


 1470              		.thumb_func
 1471              		.fpu fpv5-sp-d16
 1473              	HAL_I2C_Slave_Transmit_IT:
 1474              		@ args = 0, pretend = 0, frame = 0
 1475              		@ frame_needed = 0, uses_anonymous_args = 0
 1476 0000 70B5     		push	{r4, r5, r6, lr}
 1477 0002 90F84140 		ldrb	r4, [r0, #65]	@ zero_extendqisi2
 1478 0006 E4B2     		uxtb	r4, r4
 1479 0008 202C     		cmp	r4, #32
 1480 000a 1ED1     		bne	.L234
 1481 000c 90F84050 		ldrb	r5, [r0, #64]	@ zero_extendqisi2
 1482 0010 012D     		cmp	r5, #1
 1483 0012 1AD0     		beq	.L234
 1484 0014 2125     		movs	r5, #33
 1485 0016 0668     		ldr	r6, [r0]
 1486 0018 80F84150 		strb	r5, [r0, #65]
 1487 001c 80F84240 		strb	r4, [r0, #66]
 1488 0020 0024     		movs	r4, #0
 1489 0022 4464     		str	r4, [r0, #68]
 1490 0024 7568     		ldr	r5, [r6, #4]
 1491 0026 25F40045 		bic	r5, r5, #32768
 1492 002a 7560     		str	r5, [r6, #4]
 1493 002c 4285     		strh	r2, [r0, #42]	@ movhi
 1494 002e 428D     		ldrh	r2, [r0, #42]
 1495 0030 4162     		str	r1, [r0, #36]
 1496 0032 0521     		movs	r1, #5
 1497 0034 0285     		strh	r2, [r0, #40]	@ movhi
 1498 0036 064A     		ldr	r2, .L235
 1499 0038 80F84040 		strb	r4, [r0, #64]
 1500 003c C262     		str	r2, [r0, #44]
 1501 003e 054A     		ldr	r2, .L235+4
 1502 0040 4263     		str	r2, [r0, #52]
 1503 0042 FFF7FEFF 		bl	I2C_Enable_IRQ
 1504 0046 2046     		mov	r0, r4
 1505              	.L232:
 1506 0048 70BD     		pop	{r4, r5, r6, pc}
 1507              	.L234:
 1508 004a 0220     		movs	r0, #2
 1509 004c FCE7     		b	.L232
 1510              	.L236:
 1511 004e 00BF     		.align	2
 1512              	.L235:
 1513 0050 0000FFFF 		.word	-65536
 1514 0054 00000000 		.word	I2C_Slave_ISR_IT
 1516              		.section	.text.HAL_I2C_Slave_Receive_IT,"ax",%progbits
 1517              		.align	1
 1518              		.global	HAL_I2C_Slave_Receive_IT
 1519              		.syntax unified
 1520              		.thumb
 1521              		.thumb_func
 1522              		.fpu fpv5-sp-d16
 1524              	HAL_I2C_Slave_Receive_IT:
 1525              		@ args = 0, pretend = 0, frame = 0
 1526              		@ frame_needed = 0, uses_anonymous_args = 0
 1527 0000 70B5     		push	{r4, r5, r6, lr}
 1528 0002 90F84140 		ldrb	r4, [r0, #65]	@ zero_extendqisi2
 1529 0006 E4B2     		uxtb	r4, r4
ARM GAS  /tmp/cckhjLjw.s 			page 27


 1530 0008 202C     		cmp	r4, #32
 1531 000a 1ED1     		bne	.L240
 1532 000c 90F84050 		ldrb	r5, [r0, #64]	@ zero_extendqisi2
 1533 0010 012D     		cmp	r5, #1
 1534 0012 1AD0     		beq	.L240
 1535 0014 2225     		movs	r5, #34
 1536 0016 0668     		ldr	r6, [r0]
 1537 0018 80F84150 		strb	r5, [r0, #65]
 1538 001c 80F84240 		strb	r4, [r0, #66]
 1539 0020 0024     		movs	r4, #0
 1540 0022 4464     		str	r4, [r0, #68]
 1541 0024 7568     		ldr	r5, [r6, #4]
 1542 0026 25F40045 		bic	r5, r5, #32768
 1543 002a 7560     		str	r5, [r6, #4]
 1544 002c 4285     		strh	r2, [r0, #42]	@ movhi
 1545 002e 428D     		ldrh	r2, [r0, #42]
 1546 0030 4162     		str	r1, [r0, #36]
 1547 0032 0621     		movs	r1, #6
 1548 0034 0285     		strh	r2, [r0, #40]	@ movhi
 1549 0036 064A     		ldr	r2, .L241
 1550 0038 80F84040 		strb	r4, [r0, #64]
 1551 003c C262     		str	r2, [r0, #44]
 1552 003e 054A     		ldr	r2, .L241+4
 1553 0040 4263     		str	r2, [r0, #52]
 1554 0042 FFF7FEFF 		bl	I2C_Enable_IRQ
 1555 0046 2046     		mov	r0, r4
 1556              	.L238:
 1557 0048 70BD     		pop	{r4, r5, r6, pc}
 1558              	.L240:
 1559 004a 0220     		movs	r0, #2
 1560 004c FCE7     		b	.L238
 1561              	.L242:
 1562 004e 00BF     		.align	2
 1563              	.L241:
 1564 0050 0000FFFF 		.word	-65536
 1565 0054 00000000 		.word	I2C_Slave_ISR_IT
 1567              		.section	.text.HAL_I2C_Master_Transmit_DMA,"ax",%progbits
 1568              		.align	1
 1569              		.global	HAL_I2C_Master_Transmit_DMA
 1570              		.syntax unified
 1571              		.thumb
 1572              		.thumb_func
 1573              		.fpu fpv5-sp-d16
 1575              	HAL_I2C_Master_Transmit_DMA:
 1576              		@ args = 0, pretend = 0, frame = 0
 1577              		@ frame_needed = 0, uses_anonymous_args = 0
 1578 0000 2DE9F341 		push	{r0, r1, r4, r5, r6, r7, r8, lr}
 1579 0004 0F46     		mov	r7, r1
 1580 0006 1146     		mov	r1, r2
 1581 0008 90F84120 		ldrb	r2, [r0, #65]	@ zero_extendqisi2
 1582 000c 0446     		mov	r4, r0
 1583 000e 202A     		cmp	r2, #32
 1584 0010 7DD1     		bne	.L252
 1585 0012 0268     		ldr	r2, [r0]
 1586 0014 9069     		ldr	r0, [r2, #24]
 1587 0016 10F40040 		ands	r0, r0, #32768
 1588 001a 78D1     		bne	.L252
ARM GAS  /tmp/cckhjLjw.s 			page 28


 1589 001c 94F84050 		ldrb	r5, [r4, #64]	@ zero_extendqisi2
 1590 0020 012D     		cmp	r5, #1
 1591 0022 74D0     		beq	.L252
 1592 0024 0125     		movs	r5, #1
 1593 0026 6162     		str	r1, [r4, #36]
 1594 0028 84F84050 		strb	r5, [r4, #64]
 1595 002c 2125     		movs	r5, #33
 1596 002e 84F84150 		strb	r5, [r4, #65]
 1597 0032 1025     		movs	r5, #16
 1598 0034 84F84250 		strb	r5, [r4, #66]
 1599 0038 6064     		str	r0, [r4, #68]
 1600 003a 6385     		strh	r3, [r4, #42]	@ movhi
 1601 003c 354B     		ldr	r3, .L256
 1602 003e E362     		str	r3, [r4, #44]
 1603 0040 354B     		ldr	r3, .L256+4
 1604 0042 6363     		str	r3, [r4, #52]
 1605 0044 638D     		ldrh	r3, [r4, #42]
 1606 0046 FF2B     		cmp	r3, #255
 1607 0048 32D8     		bhi	.L253
 1608 004a 658D     		ldrh	r5, [r4, #42]
 1609 004c 4FF00078 		mov	r8, #33554432
 1610 0050 ADB2     		uxth	r5, r5
 1611              	.L245:
 1612 0052 2585     		strh	r5, [r4, #40]	@ movhi
 1613 0054 002D     		cmp	r5, #0
 1614 0056 48D0     		beq	.L246
 1615 0058 A06B     		ldr	r0, [r4, #56]
 1616 005a 68B3     		cbz	r0, .L247
 1617 005c 2F4B     		ldr	r3, .L256+8
 1618 005e 0026     		movs	r6, #0
 1619 0060 2832     		adds	r2, r2, #40
 1620 0062 C363     		str	r3, [r0, #60]
 1621 0064 2E4B     		ldr	r3, .L256+12
 1622 0066 0664     		str	r6, [r0, #64]
 1623 0068 C364     		str	r3, [r0, #76]
 1624 006a 2B46     		mov	r3, r5
 1625 006c 0665     		str	r6, [r0, #80]
 1626 006e FFF7FEFF 		bl	HAL_DMA_Start_IT
 1627 0072 0546     		mov	r5, r0
 1628 0074 68BB     		cbnz	r0, .L254
 1629 0076 2B4B     		ldr	r3, .L256+16
 1630 0078 3946     		mov	r1, r7
 1631 007a 94F82820 		ldrb	r2, [r4, #40]	@ zero_extendqisi2
 1632 007e 2046     		mov	r0, r4
 1633 0080 0093     		str	r3, [sp]
 1634 0082 4346     		mov	r3, r8
 1635 0084 FFF7FEFF 		bl	I2C_TransferConfig
 1636 0088 638D     		ldrh	r3, [r4, #42]
 1637 008a 228D     		ldrh	r2, [r4, #40]
 1638 008c 1121     		movs	r1, #17
 1639 008e 84F84050 		strb	r5, [r4, #64]
 1640 0092 2046     		mov	r0, r4
 1641 0094 9B1A     		subs	r3, r3, r2
 1642 0096 9BB2     		uxth	r3, r3
 1643 0098 6385     		strh	r3, [r4, #42]	@ movhi
 1644 009a FFF7FEFF 		bl	I2C_Enable_IRQ
 1645 009e 2268     		ldr	r2, [r4]
ARM GAS  /tmp/cckhjLjw.s 			page 29


 1646 00a0 1368     		ldr	r3, [r2]
 1647 00a2 43F48043 		orr	r3, r3, #16384
 1648 00a6 1360     		str	r3, [r2]
 1649              	.L244:
 1650 00a8 2846     		mov	r0, r5
 1651 00aa 02B0     		add	sp, sp, #8
 1652              		@ sp needed
 1653 00ac BDE8F081 		pop	{r4, r5, r6, r7, r8, pc}
 1654              	.L253:
 1655 00b0 FF25     		movs	r5, #255
 1656 00b2 4FF08078 		mov	r8, #16777216
 1657 00b6 CCE7     		b	.L245
 1658              	.L247:
 1659 00b8 2023     		movs	r3, #32
 1660 00ba 84F84000 		strb	r0, [r4, #64]
 1661 00be 84F84130 		strb	r3, [r4, #65]
 1662 00c2 84F84200 		strb	r0, [r4, #66]
 1663 00c6 636C     		ldr	r3, [r4, #68]
 1664 00c8 43F08003 		orr	r3, r3, #128
 1665 00cc 6364     		str	r3, [r4, #68]
 1666              	.L255:
 1667 00ce 0125     		movs	r5, #1
 1668 00d0 EAE7     		b	.L244
 1669              	.L254:
 1670 00d2 2023     		movs	r3, #32
 1671 00d4 84F84060 		strb	r6, [r4, #64]
 1672 00d8 84F84130 		strb	r3, [r4, #65]
 1673 00dc 84F84260 		strb	r6, [r4, #66]
 1674 00e0 636C     		ldr	r3, [r4, #68]
 1675 00e2 43F01003 		orr	r3, r3, #16
 1676 00e6 6364     		str	r3, [r4, #68]
 1677 00e8 F1E7     		b	.L255
 1678              	.L246:
 1679 00ea 0F4B     		ldr	r3, .L256+20
 1680 00ec 3946     		mov	r1, r7
 1681 00ee 2046     		mov	r0, r4
 1682 00f0 2A46     		mov	r2, r5
 1683 00f2 6363     		str	r3, [r4, #52]
 1684 00f4 0B4B     		ldr	r3, .L256+16
 1685 00f6 0093     		str	r3, [sp]
 1686 00f8 4FF00073 		mov	r3, #33554432
 1687 00fc FFF7FEFF 		bl	I2C_TransferConfig
 1688 0100 84F84050 		strb	r5, [r4, #64]
 1689 0104 0121     		movs	r1, #1
 1690 0106 2046     		mov	r0, r4
 1691 0108 FFF7FEFF 		bl	I2C_Enable_IRQ
 1692 010c CCE7     		b	.L244
 1693              	.L252:
 1694 010e 0225     		movs	r5, #2
 1695 0110 CAE7     		b	.L244
 1696              	.L257:
 1697 0112 00BF     		.align	2
 1698              	.L256:
 1699 0114 0000FFFF 		.word	-65536
 1700 0118 00000000 		.word	I2C_Master_ISR_DMA
 1701 011c 00000000 		.word	I2C_DMAMasterTransmitCplt
 1702 0120 00000000 		.word	I2C_DMAError
ARM GAS  /tmp/cckhjLjw.s 			page 30


 1703 0124 00200080 		.word	-2147475456
 1704 0128 00000000 		.word	I2C_Master_ISR_IT
 1706              		.section	.text.HAL_I2C_Master_Receive_DMA,"ax",%progbits
 1707              		.align	1
 1708              		.global	HAL_I2C_Master_Receive_DMA
 1709              		.syntax unified
 1710              		.thumb
 1711              		.thumb_func
 1712              		.fpu fpv5-sp-d16
 1714              	HAL_I2C_Master_Receive_DMA:
 1715              		@ args = 0, pretend = 0, frame = 0
 1716              		@ frame_needed = 0, uses_anonymous_args = 0
 1717 0000 2DE9F341 		push	{r0, r1, r4, r5, r6, r7, r8, lr}
 1718 0004 0F46     		mov	r7, r1
 1719 0006 90F84110 		ldrb	r1, [r0, #65]	@ zero_extendqisi2
 1720 000a 0446     		mov	r4, r0
 1721 000c 2029     		cmp	r1, #32
 1722 000e 7DD1     		bne	.L267
 1723 0010 0168     		ldr	r1, [r0]
 1724 0012 8869     		ldr	r0, [r1, #24]
 1725 0014 10F40040 		ands	r0, r0, #32768
 1726 0018 78D1     		bne	.L267
 1727 001a 94F84050 		ldrb	r5, [r4, #64]	@ zero_extendqisi2
 1728 001e 012D     		cmp	r5, #1
 1729 0020 74D0     		beq	.L267
 1730 0022 0125     		movs	r5, #1
 1731 0024 6262     		str	r2, [r4, #36]
 1732 0026 84F84050 		strb	r5, [r4, #64]
 1733 002a 2225     		movs	r5, #34
 1734 002c 84F84150 		strb	r5, [r4, #65]
 1735 0030 1025     		movs	r5, #16
 1736 0032 84F84250 		strb	r5, [r4, #66]
 1737 0036 6064     		str	r0, [r4, #68]
 1738 0038 6385     		strh	r3, [r4, #42]	@ movhi
 1739 003a 354B     		ldr	r3, .L271
 1740 003c E362     		str	r3, [r4, #44]
 1741 003e 354B     		ldr	r3, .L271+4
 1742 0040 6363     		str	r3, [r4, #52]
 1743 0042 638D     		ldrh	r3, [r4, #42]
 1744 0044 FF2B     		cmp	r3, #255
 1745 0046 32D8     		bhi	.L268
 1746 0048 658D     		ldrh	r5, [r4, #42]
 1747 004a 4FF00078 		mov	r8, #33554432
 1748 004e ADB2     		uxth	r5, r5
 1749              	.L260:
 1750 0050 2585     		strh	r5, [r4, #40]	@ movhi
 1751 0052 002D     		cmp	r5, #0
 1752 0054 48D0     		beq	.L261
 1753 0056 E06B     		ldr	r0, [r4, #60]
 1754 0058 68B3     		cbz	r0, .L262
 1755 005a 2F4B     		ldr	r3, .L271+8
 1756 005c 0026     		movs	r6, #0
 1757 005e 2431     		adds	r1, r1, #36
 1758 0060 C363     		str	r3, [r0, #60]
 1759 0062 2E4B     		ldr	r3, .L271+12
 1760 0064 0664     		str	r6, [r0, #64]
 1761 0066 C364     		str	r3, [r0, #76]
ARM GAS  /tmp/cckhjLjw.s 			page 31


 1762 0068 2B46     		mov	r3, r5
 1763 006a 0665     		str	r6, [r0, #80]
 1764 006c FFF7FEFF 		bl	HAL_DMA_Start_IT
 1765 0070 0546     		mov	r5, r0
 1766 0072 68BB     		cbnz	r0, .L269
 1767 0074 2A4B     		ldr	r3, .L271+16
 1768 0076 3946     		mov	r1, r7
 1769 0078 94F82820 		ldrb	r2, [r4, #40]	@ zero_extendqisi2
 1770 007c 2046     		mov	r0, r4
 1771 007e 0093     		str	r3, [sp]
 1772 0080 4346     		mov	r3, r8
 1773 0082 FFF7FEFF 		bl	I2C_TransferConfig
 1774 0086 638D     		ldrh	r3, [r4, #42]
 1775 0088 228D     		ldrh	r2, [r4, #40]
 1776 008a 1121     		movs	r1, #17
 1777 008c 84F84050 		strb	r5, [r4, #64]
 1778 0090 2046     		mov	r0, r4
 1779 0092 9B1A     		subs	r3, r3, r2
 1780 0094 9BB2     		uxth	r3, r3
 1781 0096 6385     		strh	r3, [r4, #42]	@ movhi
 1782 0098 FFF7FEFF 		bl	I2C_Enable_IRQ
 1783 009c 2268     		ldr	r2, [r4]
 1784 009e 1368     		ldr	r3, [r2]
 1785 00a0 43F40043 		orr	r3, r3, #32768
 1786 00a4 1360     		str	r3, [r2]
 1787              	.L259:
 1788 00a6 2846     		mov	r0, r5
 1789 00a8 02B0     		add	sp, sp, #8
 1790              		@ sp needed
 1791 00aa BDE8F081 		pop	{r4, r5, r6, r7, r8, pc}
 1792              	.L268:
 1793 00ae FF25     		movs	r5, #255
 1794 00b0 4FF08078 		mov	r8, #16777216
 1795 00b4 CCE7     		b	.L260
 1796              	.L262:
 1797 00b6 2023     		movs	r3, #32
 1798 00b8 84F84000 		strb	r0, [r4, #64]
 1799 00bc 84F84130 		strb	r3, [r4, #65]
 1800 00c0 84F84200 		strb	r0, [r4, #66]
 1801 00c4 636C     		ldr	r3, [r4, #68]
 1802 00c6 43F08003 		orr	r3, r3, #128
 1803 00ca 6364     		str	r3, [r4, #68]
 1804              	.L270:
 1805 00cc 0125     		movs	r5, #1
 1806 00ce EAE7     		b	.L259
 1807              	.L269:
 1808 00d0 2023     		movs	r3, #32
 1809 00d2 84F84060 		strb	r6, [r4, #64]
 1810 00d6 84F84130 		strb	r3, [r4, #65]
 1811 00da 84F84260 		strb	r6, [r4, #66]
 1812 00de 636C     		ldr	r3, [r4, #68]
 1813 00e0 43F01003 		orr	r3, r3, #16
 1814 00e4 6364     		str	r3, [r4, #68]
 1815 00e6 F1E7     		b	.L270
 1816              	.L261:
 1817 00e8 0E4B     		ldr	r3, .L271+20
 1818 00ea 3946     		mov	r1, r7
ARM GAS  /tmp/cckhjLjw.s 			page 32


 1819 00ec 2046     		mov	r0, r4
 1820 00ee 2A46     		mov	r2, r5
 1821 00f0 6363     		str	r3, [r4, #52]
 1822 00f2 0B4B     		ldr	r3, .L271+16
 1823 00f4 0093     		str	r3, [sp]
 1824 00f6 4FF00073 		mov	r3, #33554432
 1825 00fa FFF7FEFF 		bl	I2C_TransferConfig
 1826 00fe 84F84050 		strb	r5, [r4, #64]
 1827 0102 0121     		movs	r1, #1
 1828 0104 2046     		mov	r0, r4
 1829 0106 FFF7FEFF 		bl	I2C_Enable_IRQ
 1830 010a CCE7     		b	.L259
 1831              	.L267:
 1832 010c 0225     		movs	r5, #2
 1833 010e CAE7     		b	.L259
 1834              	.L272:
 1835              		.align	2
 1836              	.L271:
 1837 0110 0000FFFF 		.word	-65536
 1838 0114 00000000 		.word	I2C_Master_ISR_DMA
 1839 0118 00000000 		.word	I2C_DMAMasterReceiveCplt
 1840 011c 00000000 		.word	I2C_DMAError
 1841 0120 00240080 		.word	-2147474432
 1842 0124 00000000 		.word	I2C_Master_ISR_IT
 1844              		.section	.text.HAL_I2C_Slave_Transmit_DMA,"ax",%progbits
 1845              		.align	1
 1846              		.global	HAL_I2C_Slave_Transmit_DMA
 1847              		.syntax unified
 1848              		.thumb
 1849              		.thumb_func
 1850              		.fpu fpv5-sp-d16
 1852              	HAL_I2C_Slave_Transmit_DMA:
 1853              		@ args = 0, pretend = 0, frame = 0
 1854              		@ frame_needed = 0, uses_anonymous_args = 0
 1855 0000 F8B5     		push	{r3, r4, r5, r6, r7, lr}
 1856 0002 0446     		mov	r4, r0
 1857 0004 94F84130 		ldrb	r3, [r4, #65]	@ zero_extendqisi2
 1858 0008 DBB2     		uxtb	r3, r3
 1859 000a 202B     		cmp	r3, #32
 1860 000c 55D1     		bne	.L281
 1861 000e 01B1     		cbz	r1, .L275
 1862 0010 2AB9     		cbnz	r2, .L276
 1863              	.L275:
 1864 0012 4FF40073 		mov	r3, #512
 1865 0016 6364     		str	r3, [r4, #68]
 1866              	.L286:
 1867 0018 0125     		movs	r5, #1
 1868              	.L274:
 1869 001a 2846     		mov	r0, r5
 1870 001c F8BD     		pop	{r3, r4, r5, r6, r7, pc}
 1871              	.L276:
 1872 001e 94F84050 		ldrb	r5, [r4, #64]	@ zero_extendqisi2
 1873 0022 012D     		cmp	r5, #1
 1874 0024 49D0     		beq	.L281
 1875 0026 2125     		movs	r5, #33
 1876 0028 0026     		movs	r6, #0
 1877 002a 0127     		movs	r7, #1
ARM GAS  /tmp/cckhjLjw.s 			page 33


 1878 002c A06B     		ldr	r0, [r4, #56]
 1879 002e 84F84150 		strb	r5, [r4, #65]
 1880 0032 84F84230 		strb	r3, [r4, #66]
 1881 0036 6664     		str	r6, [r4, #68]
 1882 0038 6285     		strh	r2, [r4, #42]	@ movhi
 1883 003a 214A     		ldr	r2, .L287
 1884 003c 638D     		ldrh	r3, [r4, #42]
 1885 003e E262     		str	r2, [r4, #44]
 1886 0040 9BB2     		uxth	r3, r3
 1887 0042 204A     		ldr	r2, .L287+4
 1888 0044 84F84070 		strb	r7, [r4, #64]
 1889 0048 6162     		str	r1, [r4, #36]
 1890 004a 2385     		strh	r3, [r4, #40]	@ movhi
 1891 004c 6263     		str	r2, [r4, #52]
 1892 004e E0B1     		cbz	r0, .L277
 1893 0050 1D4A     		ldr	r2, .L287+8
 1894 0052 0664     		str	r6, [r0, #64]
 1895 0054 C263     		str	r2, [r0, #60]
 1896 0056 1D4A     		ldr	r2, .L287+12
 1897 0058 0665     		str	r6, [r0, #80]
 1898 005a C264     		str	r2, [r0, #76]
 1899 005c 2268     		ldr	r2, [r4]
 1900 005e 2832     		adds	r2, r2, #40
 1901 0060 FFF7FEFF 		bl	HAL_DMA_Start_IT
 1902 0064 0546     		mov	r5, r0
 1903 0066 E0B9     		cbnz	r0, .L285
 1904 0068 2268     		ldr	r2, [r4]
 1905 006a 0421     		movs	r1, #4
 1906 006c 5368     		ldr	r3, [r2, #4]
 1907 006e 23F40043 		bic	r3, r3, #32768
 1908 0072 5360     		str	r3, [r2, #4]
 1909 0074 84F84000 		strb	r0, [r4, #64]
 1910 0078 2046     		mov	r0, r4
 1911 007a FFF7FEFF 		bl	I2C_Enable_IRQ
 1912 007e 2268     		ldr	r2, [r4]
 1913 0080 1368     		ldr	r3, [r2]
 1914 0082 43F48043 		orr	r3, r3, #16384
 1915 0086 1360     		str	r3, [r2]
 1916 0088 C7E7     		b	.L274
 1917              	.L277:
 1918 008a 2823     		movs	r3, #40
 1919 008c 84F84000 		strb	r0, [r4, #64]
 1920 0090 84F84130 		strb	r3, [r4, #65]
 1921 0094 84F84200 		strb	r0, [r4, #66]
 1922 0098 636C     		ldr	r3, [r4, #68]
 1923 009a 43F08003 		orr	r3, r3, #128
 1924 009e 6364     		str	r3, [r4, #68]
 1925 00a0 BAE7     		b	.L286
 1926              	.L285:
 1927 00a2 2823     		movs	r3, #40
 1928 00a4 84F84060 		strb	r6, [r4, #64]
 1929 00a8 84F84130 		strb	r3, [r4, #65]
 1930 00ac 84F84260 		strb	r6, [r4, #66]
 1931 00b0 636C     		ldr	r3, [r4, #68]
 1932 00b2 43F01003 		orr	r3, r3, #16
 1933 00b6 6364     		str	r3, [r4, #68]
 1934 00b8 AEE7     		b	.L286
ARM GAS  /tmp/cckhjLjw.s 			page 34


 1935              	.L281:
 1936 00ba 0225     		movs	r5, #2
 1937 00bc ADE7     		b	.L274
 1938              	.L288:
 1939 00be 00BF     		.align	2
 1940              	.L287:
 1941 00c0 0000FFFF 		.word	-65536
 1942 00c4 00000000 		.word	I2C_Slave_ISR_DMA
 1943 00c8 00000000 		.word	I2C_DMASlaveTransmitCplt
 1944 00cc 00000000 		.word	I2C_DMAError
 1946              		.section	.text.HAL_I2C_Slave_Receive_DMA,"ax",%progbits
 1947              		.align	1
 1948              		.global	HAL_I2C_Slave_Receive_DMA
 1949              		.syntax unified
 1950              		.thumb
 1951              		.thumb_func
 1952              		.fpu fpv5-sp-d16
 1954              	HAL_I2C_Slave_Receive_DMA:
 1955              		@ args = 0, pretend = 0, frame = 0
 1956              		@ frame_needed = 0, uses_anonymous_args = 0
 1957 0000 F8B5     		push	{r3, r4, r5, r6, r7, lr}
 1958 0002 90F84130 		ldrb	r3, [r0, #65]	@ zero_extendqisi2
 1959 0006 0446     		mov	r4, r0
 1960 0008 DBB2     		uxtb	r3, r3
 1961 000a 202B     		cmp	r3, #32
 1962 000c 57D1     		bne	.L297
 1963 000e 01B1     		cbz	r1, .L291
 1964 0010 2AB9     		cbnz	r2, .L292
 1965              	.L291:
 1966 0012 4FF40073 		mov	r3, #512
 1967 0016 6364     		str	r3, [r4, #68]
 1968              	.L302:
 1969 0018 0125     		movs	r5, #1
 1970              	.L290:
 1971 001a 2846     		mov	r0, r5
 1972 001c F8BD     		pop	{r3, r4, r5, r6, r7, pc}
 1973              	.L292:
 1974 001e 90F84000 		ldrb	r0, [r0, #64]	@ zero_extendqisi2
 1975 0022 0128     		cmp	r0, #1
 1976 0024 4BD0     		beq	.L297
 1977 0026 2220     		movs	r0, #34
 1978 0028 0026     		movs	r6, #0
 1979 002a 0127     		movs	r7, #1
 1980 002c 6162     		str	r1, [r4, #36]
 1981 002e 84F84100 		strb	r0, [r4, #65]
 1982 0032 84F84230 		strb	r3, [r4, #66]
 1983 0036 6664     		str	r6, [r4, #68]
 1984 0038 6285     		strh	r2, [r4, #42]	@ movhi
 1985 003a 224A     		ldr	r2, .L303
 1986 003c 638D     		ldrh	r3, [r4, #42]
 1987 003e E06B     		ldr	r0, [r4, #60]
 1988 0040 9BB2     		uxth	r3, r3
 1989 0042 E262     		str	r2, [r4, #44]
 1990 0044 204A     		ldr	r2, .L303+4
 1991 0046 84F84070 		strb	r7, [r4, #64]
 1992 004a 2385     		strh	r3, [r4, #40]	@ movhi
 1993 004c 6263     		str	r2, [r4, #52]
ARM GAS  /tmp/cckhjLjw.s 			page 35


 1994 004e F0B1     		cbz	r0, .L293
 1995 0050 1E4A     		ldr	r2, .L303+8
 1996 0052 2568     		ldr	r5, [r4]
 1997 0054 C263     		str	r2, [r0, #60]
 1998 0056 1E4A     		ldr	r2, .L303+12
 1999 0058 0664     		str	r6, [r0, #64]
 2000 005a C264     		str	r2, [r0, #76]
 2001 005c 0A46     		mov	r2, r1
 2002 005e 0665     		str	r6, [r0, #80]
 2003 0060 05F12401 		add	r1, r5, #36
 2004 0064 FFF7FEFF 		bl	HAL_DMA_Start_IT
 2005 0068 0546     		mov	r5, r0
 2006 006a E0B9     		cbnz	r0, .L301
 2007 006c 2268     		ldr	r2, [r4]
 2008 006e 0421     		movs	r1, #4
 2009 0070 5368     		ldr	r3, [r2, #4]
 2010 0072 23F40043 		bic	r3, r3, #32768
 2011 0076 5360     		str	r3, [r2, #4]
 2012 0078 84F84000 		strb	r0, [r4, #64]
 2013 007c 2046     		mov	r0, r4
 2014 007e FFF7FEFF 		bl	I2C_Enable_IRQ
 2015 0082 2268     		ldr	r2, [r4]
 2016 0084 1368     		ldr	r3, [r2]
 2017 0086 43F40043 		orr	r3, r3, #32768
 2018 008a 1360     		str	r3, [r2]
 2019 008c C5E7     		b	.L290
 2020              	.L293:
 2021 008e 2823     		movs	r3, #40
 2022 0090 84F84000 		strb	r0, [r4, #64]
 2023 0094 84F84130 		strb	r3, [r4, #65]
 2024 0098 84F84200 		strb	r0, [r4, #66]
 2025 009c 636C     		ldr	r3, [r4, #68]
 2026 009e 43F08003 		orr	r3, r3, #128
 2027 00a2 6364     		str	r3, [r4, #68]
 2028 00a4 B8E7     		b	.L302
 2029              	.L301:
 2030 00a6 2823     		movs	r3, #40
 2031 00a8 84F84060 		strb	r6, [r4, #64]
 2032 00ac 84F84130 		strb	r3, [r4, #65]
 2033 00b0 84F84260 		strb	r6, [r4, #66]
 2034 00b4 636C     		ldr	r3, [r4, #68]
 2035 00b6 43F01003 		orr	r3, r3, #16
 2036 00ba 6364     		str	r3, [r4, #68]
 2037 00bc ACE7     		b	.L302
 2038              	.L297:
 2039 00be 0225     		movs	r5, #2
 2040 00c0 ABE7     		b	.L290
 2041              	.L304:
 2042 00c2 00BF     		.align	2
 2043              	.L303:
 2044 00c4 0000FFFF 		.word	-65536
 2045 00c8 00000000 		.word	I2C_Slave_ISR_DMA
 2046 00cc 00000000 		.word	I2C_DMASlaveReceiveCplt
 2047 00d0 00000000 		.word	I2C_DMAError
 2049              		.section	.text.HAL_I2C_Mem_Write,"ax",%progbits
 2050              		.align	1
 2051              		.global	HAL_I2C_Mem_Write
ARM GAS  /tmp/cckhjLjw.s 			page 36


 2052              		.syntax unified
 2053              		.thumb
 2054              		.thumb_func
 2055              		.fpu fpv5-sp-d16
 2057              	HAL_I2C_Mem_Write:
 2058              		@ args = 12, pretend = 0, frame = 8
 2059              		@ frame_needed = 0, uses_anonymous_args = 0
 2060 0000 2DE9F04F 		push	{r4, r5, r6, r7, r8, r9, r10, fp, lr}
 2061 0004 9B46     		mov	fp, r3
 2062 0006 90F84130 		ldrb	r3, [r0, #65]	@ zero_extendqisi2
 2063 000a 85B0     		sub	sp, sp, #20
 2064 000c 0446     		mov	r4, r0
 2065 000e 202B     		cmp	r3, #32
 2066 0010 0F46     		mov	r7, r1
 2067 0012 0392     		str	r2, [sp, #12]
 2068 0014 BDF83CA0 		ldrh	r10, [sp, #60]
 2069 0018 DDF84080 		ldr	r8, [sp, #64]
 2070 001c 40F0A280 		bne	.L318
 2071 0020 0E9B     		ldr	r3, [sp, #56]
 2072 0022 13B1     		cbz	r3, .L307
 2073 0024 BAF1000F 		cmp	r10, #0
 2074 0028 06D1     		bne	.L308
 2075              	.L307:
 2076 002a 4FF40073 		mov	r3, #512
 2077 002e 6364     		str	r3, [r4, #68]
 2078              	.L314:
 2079 0030 0120     		movs	r0, #1
 2080              	.L306:
 2081 0032 05B0     		add	sp, sp, #20
 2082              		@ sp needed
 2083 0034 BDE8F08F 		pop	{r4, r5, r6, r7, r8, r9, r10, fp, pc}
 2084              	.L308:
 2085 0038 90F84030 		ldrb	r3, [r0, #64]	@ zero_extendqisi2
 2086 003c 012B     		cmp	r3, #1
 2087 003e 00F09180 		beq	.L318
 2088 0042 0125     		movs	r5, #1
 2089 0044 80F84050 		strb	r5, [r0, #64]
 2090 0048 FFF7FEFF 		bl	HAL_GetTick
 2091 004c 1923     		movs	r3, #25
 2092 004e 0090     		str	r0, [sp]
 2093 0050 0646     		mov	r6, r0
 2094 0052 2A46     		mov	r2, r5
 2095 0054 4FF40041 		mov	r1, #32768
 2096 0058 2046     		mov	r0, r4
 2097 005a FFF7FEFF 		bl	I2C_WaitOnFlagUntilTimeout
 2098 005e 8146     		mov	r9, r0
 2099 0060 0028     		cmp	r0, #0
 2100 0062 E5D1     		bne	.L314
 2101 0064 2123     		movs	r3, #33
 2102 0066 6063     		str	r0, [r4, #52]
 2103 0068 039A     		ldr	r2, [sp, #12]
 2104 006a 3946     		mov	r1, r7
 2105 006c 84F84130 		strb	r3, [r4, #65]
 2106 0070 4023     		movs	r3, #64
 2107 0072 84F84230 		strb	r3, [r4, #66]
 2108 0076 0E9B     		ldr	r3, [sp, #56]
 2109 0078 6064     		str	r0, [r4, #68]
ARM GAS  /tmp/cckhjLjw.s 			page 37


 2110 007a 2046     		mov	r0, r4
 2111 007c 6362     		str	r3, [r4, #36]
 2112 007e 5B46     		mov	r3, fp
 2113 0080 A4F82AA0 		strh	r10, [r4, #42]	@ movhi
 2114 0084 CDE90086 		strd	r8, r6, [sp]
 2115 0088 FFF7FEFF 		bl	I2C_RequestMemoryWrite
 2116 008c 10B1     		cbz	r0, .L310
 2117 008e 84F84090 		strb	r9, [r4, #64]
 2118 0092 CDE7     		b	.L314
 2119              	.L310:
 2120 0094 638D     		ldrh	r3, [r4, #42]
 2121 0096 FF2B     		cmp	r3, #255
 2122 0098 54D9     		bls	.L311
 2123 009a FF22     		movs	r2, #255
 2124 009c 4FF08073 		mov	r3, #16777216
 2125 00a0 0090     		str	r0, [sp]
 2126 00a2 2285     		strh	r2, [r4, #40]	@ movhi
 2127              	.L326:
 2128 00a4 3946     		mov	r1, r7
 2129 00a6 2046     		mov	r0, r4
 2130 00a8 FFF7FEFF 		bl	I2C_TransferConfig
 2131              	.L312:
 2132 00ac 3246     		mov	r2, r6
 2133 00ae 4146     		mov	r1, r8
 2134 00b0 2046     		mov	r0, r4
 2135 00b2 FFF7FEFF 		bl	I2C_WaitOnTXISFlagUntilTimeout
 2136 00b6 0028     		cmp	r0, #0
 2137 00b8 BAD1     		bne	.L314
 2138 00ba 636A     		ldr	r3, [r4, #36]
 2139 00bc 2268     		ldr	r2, [r4]
 2140 00be 13F8011B 		ldrb	r1, [r3], #1	@ zero_extendqisi2
 2141 00c2 9162     		str	r1, [r2, #40]
 2142 00c4 6362     		str	r3, [r4, #36]
 2143 00c6 638D     		ldrh	r3, [r4, #42]
 2144 00c8 228D     		ldrh	r2, [r4, #40]
 2145 00ca 013B     		subs	r3, r3, #1
 2146 00cc 013A     		subs	r2, r2, #1
 2147 00ce 9BB2     		uxth	r3, r3
 2148 00d0 92B2     		uxth	r2, r2
 2149 00d2 6385     		strh	r3, [r4, #42]	@ movhi
 2150 00d4 638D     		ldrh	r3, [r4, #42]
 2151 00d6 2285     		strh	r2, [r4, #40]	@ movhi
 2152 00d8 9BB2     		uxth	r3, r3
 2153 00da A3B1     		cbz	r3, .L315
 2154 00dc 9AB9     		cbnz	r2, .L315
 2155 00de 0096     		str	r6, [sp]
 2156 00e0 4346     		mov	r3, r8
 2157 00e2 8021     		movs	r1, #128
 2158 00e4 2046     		mov	r0, r4
 2159 00e6 FFF7FEFF 		bl	I2C_WaitOnFlagUntilTimeout
 2160 00ea 0028     		cmp	r0, #0
 2161 00ec A0D1     		bne	.L314
 2162 00ee 638D     		ldrh	r3, [r4, #42]
 2163 00f0 FF2B     		cmp	r3, #255
 2164 00f2 2FD9     		bls	.L316
 2165 00f4 FF22     		movs	r2, #255
 2166 00f6 4FF08073 		mov	r3, #16777216
ARM GAS  /tmp/cckhjLjw.s 			page 38


 2167 00fa 0090     		str	r0, [sp]
 2168 00fc 2285     		strh	r2, [r4, #40]	@ movhi
 2169              	.L327:
 2170 00fe 3946     		mov	r1, r7
 2171 0100 2046     		mov	r0, r4
 2172 0102 FFF7FEFF 		bl	I2C_TransferConfig
 2173              	.L315:
 2174 0106 638D     		ldrh	r3, [r4, #42]
 2175 0108 9BB2     		uxth	r3, r3
 2176 010a 002B     		cmp	r3, #0
 2177 010c CED1     		bne	.L312
 2178 010e 3246     		mov	r2, r6
 2179 0110 4146     		mov	r1, r8
 2180 0112 2046     		mov	r0, r4
 2181 0114 FFF7FEFF 		bl	I2C_WaitOnSTOPFlagUntilTimeout
 2182 0118 0028     		cmp	r0, #0
 2183 011a 89D1     		bne	.L314
 2184 011c 2368     		ldr	r3, [r4]
 2185 011e 2021     		movs	r1, #32
 2186 0120 D961     		str	r1, [r3, #28]
 2187 0122 5A68     		ldr	r2, [r3, #4]
 2188 0124 22F0FF72 		bic	r2, r2, #33423360
 2189 0128 22F48B32 		bic	r2, r2, #71168
 2190 012c 22F4FF72 		bic	r2, r2, #510
 2191 0130 22F00102 		bic	r2, r2, #1
 2192 0134 5A60     		str	r2, [r3, #4]
 2193 0136 84F84110 		strb	r1, [r4, #65]
 2194 013a 84F84000 		strb	r0, [r4, #64]
 2195 013e 84F84200 		strb	r0, [r4, #66]
 2196 0142 76E7     		b	.L306
 2197              	.L311:
 2198 0144 628D     		ldrh	r2, [r4, #42]
 2199 0146 4FF00073 		mov	r3, #33554432
 2200 014a 0090     		str	r0, [sp]
 2201 014c 92B2     		uxth	r2, r2
 2202 014e 2285     		strh	r2, [r4, #40]	@ movhi
 2203 0150 D2B2     		uxtb	r2, r2
 2204 0152 A7E7     		b	.L326
 2205              	.L316:
 2206 0154 628D     		ldrh	r2, [r4, #42]
 2207 0156 4FF00073 		mov	r3, #33554432
 2208 015a 0090     		str	r0, [sp]
 2209 015c 92B2     		uxth	r2, r2
 2210 015e 2285     		strh	r2, [r4, #40]	@ movhi
 2211 0160 D2B2     		uxtb	r2, r2
 2212 0162 CCE7     		b	.L327
 2213              	.L318:
 2214 0164 0220     		movs	r0, #2
 2215 0166 64E7     		b	.L306
 2217              		.section	.text.HAL_I2C_Mem_Read,"ax",%progbits
 2218              		.align	1
 2219              		.global	HAL_I2C_Mem_Read
 2220              		.syntax unified
 2221              		.thumb
 2222              		.thumb_func
 2223              		.fpu fpv5-sp-d16
 2225              	HAL_I2C_Mem_Read:
ARM GAS  /tmp/cckhjLjw.s 			page 39


 2226              		@ args = 12, pretend = 0, frame = 8
 2227              		@ frame_needed = 0, uses_anonymous_args = 0
 2228 0000 2DE9F04F 		push	{r4, r5, r6, r7, r8, r9, r10, fp, lr}
 2229 0004 9B46     		mov	fp, r3
 2230 0006 90F84130 		ldrb	r3, [r0, #65]	@ zero_extendqisi2
 2231 000a 85B0     		sub	sp, sp, #20
 2232 000c 0446     		mov	r4, r0
 2233 000e 202B     		cmp	r3, #32
 2234 0010 0F46     		mov	r7, r1
 2235 0012 0392     		str	r2, [sp, #12]
 2236 0014 BDF83CA0 		ldrh	r10, [sp, #60]
 2237 0018 DDF84080 		ldr	r8, [sp, #64]
 2238 001c 40F0A680 		bne	.L341
 2239 0020 0E9B     		ldr	r3, [sp, #56]
 2240 0022 13B1     		cbz	r3, .L330
 2241 0024 BAF1000F 		cmp	r10, #0
 2242 0028 06D1     		bne	.L331
 2243              	.L330:
 2244 002a 4FF40073 		mov	r3, #512
 2245 002e 6364     		str	r3, [r4, #68]
 2246              	.L337:
 2247 0030 0120     		movs	r0, #1
 2248              	.L329:
 2249 0032 05B0     		add	sp, sp, #20
 2250              		@ sp needed
 2251 0034 BDE8F08F 		pop	{r4, r5, r6, r7, r8, r9, r10, fp, pc}
 2252              	.L331:
 2253 0038 90F84030 		ldrb	r3, [r0, #64]	@ zero_extendqisi2
 2254 003c 012B     		cmp	r3, #1
 2255 003e 00F09580 		beq	.L341
 2256 0042 0125     		movs	r5, #1
 2257 0044 80F84050 		strb	r5, [r0, #64]
 2258 0048 FFF7FEFF 		bl	HAL_GetTick
 2259 004c 1923     		movs	r3, #25
 2260 004e 0090     		str	r0, [sp]
 2261 0050 0646     		mov	r6, r0
 2262 0052 2A46     		mov	r2, r5
 2263 0054 4FF40041 		mov	r1, #32768
 2264 0058 2046     		mov	r0, r4
 2265 005a FFF7FEFF 		bl	I2C_WaitOnFlagUntilTimeout
 2266 005e 8146     		mov	r9, r0
 2267 0060 0028     		cmp	r0, #0
 2268 0062 E5D1     		bne	.L337
 2269 0064 2223     		movs	r3, #34
 2270 0066 6063     		str	r0, [r4, #52]
 2271 0068 039A     		ldr	r2, [sp, #12]
 2272 006a 3946     		mov	r1, r7
 2273 006c 84F84130 		strb	r3, [r4, #65]
 2274 0070 4023     		movs	r3, #64
 2275 0072 84F84230 		strb	r3, [r4, #66]
 2276 0076 0E9B     		ldr	r3, [sp, #56]
 2277 0078 6064     		str	r0, [r4, #68]
 2278 007a 2046     		mov	r0, r4
 2279 007c 6362     		str	r3, [r4, #36]
 2280 007e 5B46     		mov	r3, fp
 2281 0080 A4F82AA0 		strh	r10, [r4, #42]	@ movhi
 2282 0084 CDE90086 		strd	r8, r6, [sp]
ARM GAS  /tmp/cckhjLjw.s 			page 40


 2283 0088 FFF7FEFF 		bl	I2C_RequestMemoryRead
 2284 008c 10B1     		cbz	r0, .L333
 2285 008e 84F84090 		strb	r9, [r4, #64]
 2286 0092 CDE7     		b	.L337
 2287              	.L333:
 2288 0094 638D     		ldrh	r3, [r4, #42]
 2289 0096 FF2B     		cmp	r3, #255
 2290 0098 354B     		ldr	r3, .L351
 2291 009a 57D9     		bls	.L334
 2292 009c FF22     		movs	r2, #255
 2293 009e 0093     		str	r3, [sp]
 2294 00a0 4FF08073 		mov	r3, #16777216
 2295 00a4 2285     		strh	r2, [r4, #40]	@ movhi
 2296              	.L349:
 2297 00a6 3946     		mov	r1, r7
 2298 00a8 2046     		mov	r0, r4
 2299 00aa FFF7FEFF 		bl	I2C_TransferConfig
 2300              	.L335:
 2301 00ae 0096     		str	r6, [sp]
 2302 00b0 4346     		mov	r3, r8
 2303 00b2 0022     		movs	r2, #0
 2304 00b4 0421     		movs	r1, #4
 2305 00b6 2046     		mov	r0, r4
 2306 00b8 FFF7FEFF 		bl	I2C_WaitOnFlagUntilTimeout
 2307 00bc 0028     		cmp	r0, #0
 2308 00be B7D1     		bne	.L337
 2309 00c0 2368     		ldr	r3, [r4]
 2310 00c2 5A6A     		ldr	r2, [r3, #36]
 2311 00c4 636A     		ldr	r3, [r4, #36]
 2312 00c6 1A70     		strb	r2, [r3]
 2313 00c8 636A     		ldr	r3, [r4, #36]
 2314 00ca 228D     		ldrh	r2, [r4, #40]
 2315 00cc 0133     		adds	r3, r3, #1
 2316 00ce 013A     		subs	r2, r2, #1
 2317 00d0 6362     		str	r3, [r4, #36]
 2318 00d2 638D     		ldrh	r3, [r4, #42]
 2319 00d4 92B2     		uxth	r2, r2
 2320 00d6 013B     		subs	r3, r3, #1
 2321 00d8 2285     		strh	r2, [r4, #40]	@ movhi
 2322 00da 9BB2     		uxth	r3, r3
 2323 00dc 6385     		strh	r3, [r4, #42]	@ movhi
 2324 00de 638D     		ldrh	r3, [r4, #42]
 2325 00e0 9BB2     		uxth	r3, r3
 2326 00e2 A3B1     		cbz	r3, .L338
 2327 00e4 9AB9     		cbnz	r2, .L338
 2328 00e6 0096     		str	r6, [sp]
 2329 00e8 4346     		mov	r3, r8
 2330 00ea 8021     		movs	r1, #128
 2331 00ec 2046     		mov	r0, r4
 2332 00ee FFF7FEFF 		bl	I2C_WaitOnFlagUntilTimeout
 2333 00f2 0028     		cmp	r0, #0
 2334 00f4 9CD1     		bne	.L337
 2335 00f6 638D     		ldrh	r3, [r4, #42]
 2336 00f8 FF2B     		cmp	r3, #255
 2337 00fa 2FD9     		bls	.L339
 2338 00fc FF22     		movs	r2, #255
 2339 00fe 4FF08073 		mov	r3, #16777216
ARM GAS  /tmp/cckhjLjw.s 			page 41


 2340 0102 0090     		str	r0, [sp]
 2341 0104 2285     		strh	r2, [r4, #40]	@ movhi
 2342              	.L350:
 2343 0106 3946     		mov	r1, r7
 2344 0108 2046     		mov	r0, r4
 2345 010a FFF7FEFF 		bl	I2C_TransferConfig
 2346              	.L338:
 2347 010e 638D     		ldrh	r3, [r4, #42]
 2348 0110 9BB2     		uxth	r3, r3
 2349 0112 002B     		cmp	r3, #0
 2350 0114 CBD1     		bne	.L335
 2351 0116 3246     		mov	r2, r6
 2352 0118 4146     		mov	r1, r8
 2353 011a 2046     		mov	r0, r4
 2354 011c FFF7FEFF 		bl	I2C_WaitOnSTOPFlagUntilTimeout
 2355 0120 0028     		cmp	r0, #0
 2356 0122 85D1     		bne	.L337
 2357 0124 2368     		ldr	r3, [r4]
 2358 0126 2021     		movs	r1, #32
 2359 0128 D961     		str	r1, [r3, #28]
 2360 012a 5A68     		ldr	r2, [r3, #4]
 2361 012c 22F0FF72 		bic	r2, r2, #33423360
 2362 0130 22F48B32 		bic	r2, r2, #71168
 2363 0134 22F4FF72 		bic	r2, r2, #510
 2364 0138 22F00102 		bic	r2, r2, #1
 2365 013c 5A60     		str	r2, [r3, #4]
 2366 013e 84F84110 		strb	r1, [r4, #65]
 2367 0142 84F84000 		strb	r0, [r4, #64]
 2368 0146 84F84200 		strb	r0, [r4, #66]
 2369 014a 72E7     		b	.L329
 2370              	.L334:
 2371 014c 628D     		ldrh	r2, [r4, #42]
 2372 014e 0093     		str	r3, [sp]
 2373 0150 4FF00073 		mov	r3, #33554432
 2374 0154 92B2     		uxth	r2, r2
 2375 0156 2285     		strh	r2, [r4, #40]	@ movhi
 2376 0158 D2B2     		uxtb	r2, r2
 2377 015a A4E7     		b	.L349
 2378              	.L339:
 2379 015c 628D     		ldrh	r2, [r4, #42]
 2380 015e 4FF00073 		mov	r3, #33554432
 2381 0162 0090     		str	r0, [sp]
 2382 0164 92B2     		uxth	r2, r2
 2383 0166 2285     		strh	r2, [r4, #40]	@ movhi
 2384 0168 D2B2     		uxtb	r2, r2
 2385 016a CCE7     		b	.L350
 2386              	.L341:
 2387 016c 0220     		movs	r0, #2
 2388 016e 60E7     		b	.L329
 2389              	.L352:
 2390              		.align	2
 2391              	.L351:
 2392 0170 00240080 		.word	-2147474432
 2394              		.section	.text.HAL_I2C_Mem_Write_IT,"ax",%progbits
 2395              		.align	1
 2396              		.global	HAL_I2C_Mem_Write_IT
 2397              		.syntax unified
ARM GAS  /tmp/cckhjLjw.s 			page 42


 2398              		.thumb
 2399              		.thumb_func
 2400              		.fpu fpv5-sp-d16
 2402              	HAL_I2C_Mem_Write_IT:
 2403              		@ args = 8, pretend = 0, frame = 0
 2404              		@ frame_needed = 0, uses_anonymous_args = 0
 2405 0000 2DE9F347 		push	{r0, r1, r4, r5, r6, r7, r8, r9, r10, lr}
 2406 0004 9A46     		mov	r10, r3
 2407 0006 90F84130 		ldrb	r3, [r0, #65]	@ zero_extendqisi2
 2408 000a 0446     		mov	r4, r0
 2409 000c 0E46     		mov	r6, r1
 2410 000e 202B     		cmp	r3, #32
 2411 0010 9146     		mov	r9, r2
 2412 0012 DDF82880 		ldr	r8, [sp, #40]
 2413 0016 BDF82C70 		ldrh	r7, [sp, #44]
 2414 001a 51D1     		bne	.L361
 2415 001c B8F1000F 		cmp	r8, #0
 2416 0020 00D0     		beq	.L355
 2417 0022 3FB9     		cbnz	r7, .L356
 2418              	.L355:
 2419 0024 4FF40073 		mov	r3, #512
 2420 0028 6364     		str	r3, [r4, #68]
 2421              	.L366:
 2422 002a 0125     		movs	r5, #1
 2423              	.L354:
 2424 002c 2846     		mov	r0, r5
 2425 002e 02B0     		add	sp, sp, #8
 2426              		@ sp needed
 2427 0030 BDE8F087 		pop	{r4, r5, r6, r7, r8, r9, r10, pc}
 2428              	.L356:
 2429 0034 0368     		ldr	r3, [r0]
 2430 0036 9D69     		ldr	r5, [r3, #24]
 2431 0038 15F40045 		ands	r5, r5, #32768
 2432 003c 40D1     		bne	.L361
 2433 003e 90F84030 		ldrb	r3, [r0, #64]	@ zero_extendqisi2
 2434 0042 012B     		cmp	r3, #1
 2435 0044 3CD0     		beq	.L361
 2436 0046 0123     		movs	r3, #1
 2437 0048 80F84030 		strb	r3, [r0, #64]
 2438 004c FFF7FEFF 		bl	HAL_GetTick
 2439 0050 2123     		movs	r3, #33
 2440 0052 C4F82480 		str	r8, [r4, #36]
 2441 0056 84F84130 		strb	r3, [r4, #65]
 2442 005a 4023     		movs	r3, #64
 2443 005c 84F84230 		strb	r3, [r4, #66]
 2444 0060 184B     		ldr	r3, .L367
 2445 0062 6564     		str	r5, [r4, #68]
 2446 0064 6785     		strh	r7, [r4, #42]	@ movhi
 2447 0066 E362     		str	r3, [r4, #44]
 2448 0068 174B     		ldr	r3, .L367+4
 2449 006a 6363     		str	r3, [r4, #52]
 2450 006c 638D     		ldrh	r3, [r4, #42]
 2451 006e FF2B     		cmp	r3, #255
 2452 0070 13D8     		bhi	.L362
 2453 0072 618D     		ldrh	r1, [r4, #42]
 2454 0074 4FF00077 		mov	r7, #33554432
 2455 0078 89B2     		uxth	r1, r1
ARM GAS  /tmp/cckhjLjw.s 			page 43


 2456              	.L357:
 2457 007a 1923     		movs	r3, #25
 2458 007c 2185     		strh	r1, [r4, #40]	@ movhi
 2459 007e 0190     		str	r0, [sp, #4]
 2460 0080 4A46     		mov	r2, r9
 2461 0082 0093     		str	r3, [sp]
 2462 0084 3146     		mov	r1, r6
 2463 0086 5346     		mov	r3, r10
 2464 0088 2046     		mov	r0, r4
 2465 008a FFF7FEFF 		bl	I2C_RequestMemoryWrite
 2466 008e 0546     		mov	r5, r0
 2467 0090 38B1     		cbz	r0, .L358
 2468 0092 0023     		movs	r3, #0
 2469 0094 84F84030 		strb	r3, [r4, #64]
 2470 0098 C7E7     		b	.L366
 2471              	.L362:
 2472 009a FF21     		movs	r1, #255
 2473 009c 4FF08077 		mov	r7, #16777216
 2474 00a0 EBE7     		b	.L357
 2475              	.L358:
 2476 00a2 0090     		str	r0, [sp]
 2477 00a4 3146     		mov	r1, r6
 2478 00a6 2046     		mov	r0, r4
 2479 00a8 3B46     		mov	r3, r7
 2480 00aa 94F82820 		ldrb	r2, [r4, #40]	@ zero_extendqisi2
 2481 00ae FFF7FEFF 		bl	I2C_TransferConfig
 2482 00b2 84F84050 		strb	r5, [r4, #64]
 2483 00b6 0121     		movs	r1, #1
 2484 00b8 2046     		mov	r0, r4
 2485 00ba FFF7FEFF 		bl	I2C_Enable_IRQ
 2486 00be B5E7     		b	.L354
 2487              	.L361:
 2488 00c0 0225     		movs	r5, #2
 2489 00c2 B3E7     		b	.L354
 2490              	.L368:
 2491              		.align	2
 2492              	.L367:
 2493 00c4 0000FFFF 		.word	-65536
 2494 00c8 00000000 		.word	I2C_Master_ISR_IT
 2496              		.section	.text.HAL_I2C_Mem_Read_IT,"ax",%progbits
 2497              		.align	1
 2498              		.global	HAL_I2C_Mem_Read_IT
 2499              		.syntax unified
 2500              		.thumb
 2501              		.thumb_func
 2502              		.fpu fpv5-sp-d16
 2504              	HAL_I2C_Mem_Read_IT:
 2505              		@ args = 8, pretend = 0, frame = 0
 2506              		@ frame_needed = 0, uses_anonymous_args = 0
 2507 0000 2DE9F347 		push	{r0, r1, r4, r5, r6, r7, r8, r9, r10, lr}
 2508 0004 9A46     		mov	r10, r3
 2509 0006 90F84130 		ldrb	r3, [r0, #65]	@ zero_extendqisi2
 2510 000a 0446     		mov	r4, r0
 2511 000c 0E46     		mov	r6, r1
 2512 000e 202B     		cmp	r3, #32
 2513 0010 9146     		mov	r9, r2
 2514 0012 DDF82880 		ldr	r8, [sp, #40]
ARM GAS  /tmp/cckhjLjw.s 			page 44


 2515 0016 BDF82C70 		ldrh	r7, [sp, #44]
 2516 001a 52D1     		bne	.L377
 2517 001c B8F1000F 		cmp	r8, #0
 2518 0020 00D0     		beq	.L371
 2519 0022 3FB9     		cbnz	r7, .L372
 2520              	.L371:
 2521 0024 4FF40073 		mov	r3, #512
 2522 0028 6364     		str	r3, [r4, #68]
 2523              	.L382:
 2524 002a 0125     		movs	r5, #1
 2525              	.L370:
 2526 002c 2846     		mov	r0, r5
 2527 002e 02B0     		add	sp, sp, #8
 2528              		@ sp needed
 2529 0030 BDE8F087 		pop	{r4, r5, r6, r7, r8, r9, r10, pc}
 2530              	.L372:
 2531 0034 0368     		ldr	r3, [r0]
 2532 0036 9D69     		ldr	r5, [r3, #24]
 2533 0038 15F40045 		ands	r5, r5, #32768
 2534 003c 41D1     		bne	.L377
 2535 003e 90F84030 		ldrb	r3, [r0, #64]	@ zero_extendqisi2
 2536 0042 012B     		cmp	r3, #1
 2537 0044 3DD0     		beq	.L377
 2538 0046 0123     		movs	r3, #1
 2539 0048 80F84030 		strb	r3, [r0, #64]
 2540 004c FFF7FEFF 		bl	HAL_GetTick
 2541 0050 2223     		movs	r3, #34
 2542 0052 C4F82480 		str	r8, [r4, #36]
 2543 0056 84F84130 		strb	r3, [r4, #65]
 2544 005a 4023     		movs	r3, #64
 2545 005c 84F84230 		strb	r3, [r4, #66]
 2546 0060 194B     		ldr	r3, .L383
 2547 0062 6564     		str	r5, [r4, #68]
 2548 0064 6785     		strh	r7, [r4, #42]	@ movhi
 2549 0066 E362     		str	r3, [r4, #44]
 2550 0068 184B     		ldr	r3, .L383+4
 2551 006a 6363     		str	r3, [r4, #52]
 2552 006c 638D     		ldrh	r3, [r4, #42]
 2553 006e FF2B     		cmp	r3, #255
 2554 0070 13D8     		bhi	.L378
 2555 0072 618D     		ldrh	r1, [r4, #42]
 2556 0074 4FF00077 		mov	r7, #33554432
 2557 0078 89B2     		uxth	r1, r1
 2558              	.L373:
 2559 007a 1923     		movs	r3, #25
 2560 007c 2185     		strh	r1, [r4, #40]	@ movhi
 2561 007e 0190     		str	r0, [sp, #4]
 2562 0080 4A46     		mov	r2, r9
 2563 0082 0093     		str	r3, [sp]
 2564 0084 3146     		mov	r1, r6
 2565 0086 5346     		mov	r3, r10
 2566 0088 2046     		mov	r0, r4
 2567 008a FFF7FEFF 		bl	I2C_RequestMemoryRead
 2568 008e 0546     		mov	r5, r0
 2569 0090 38B1     		cbz	r0, .L374
 2570 0092 0023     		movs	r3, #0
 2571 0094 84F84030 		strb	r3, [r4, #64]
ARM GAS  /tmp/cckhjLjw.s 			page 45


 2572 0098 C7E7     		b	.L382
 2573              	.L378:
 2574 009a FF21     		movs	r1, #255
 2575 009c 4FF08077 		mov	r7, #16777216
 2576 00a0 EBE7     		b	.L373
 2577              	.L374:
 2578 00a2 0B4B     		ldr	r3, .L383+8
 2579 00a4 3146     		mov	r1, r6
 2580 00a6 2046     		mov	r0, r4
 2581 00a8 94F82820 		ldrb	r2, [r4, #40]	@ zero_extendqisi2
 2582 00ac 0093     		str	r3, [sp]
 2583 00ae 3B46     		mov	r3, r7
 2584 00b0 FFF7FEFF 		bl	I2C_TransferConfig
 2585 00b4 84F84050 		strb	r5, [r4, #64]
 2586 00b8 0221     		movs	r1, #2
 2587 00ba 2046     		mov	r0, r4
 2588 00bc FFF7FEFF 		bl	I2C_Enable_IRQ
 2589 00c0 B4E7     		b	.L370
 2590              	.L377:
 2591 00c2 0225     		movs	r5, #2
 2592 00c4 B2E7     		b	.L370
 2593              	.L384:
 2594 00c6 00BF     		.align	2
 2595              	.L383:
 2596 00c8 0000FFFF 		.word	-65536
 2597 00cc 00000000 		.word	I2C_Master_ISR_IT
 2598 00d0 00240080 		.word	-2147474432
 2600              		.section	.text.HAL_I2C_Mem_Write_DMA,"ax",%progbits
 2601              		.align	1
 2602              		.global	HAL_I2C_Mem_Write_DMA
 2603              		.syntax unified
 2604              		.thumb
 2605              		.thumb_func
 2606              		.fpu fpv5-sp-d16
 2608              	HAL_I2C_Mem_Write_DMA:
 2609              		@ args = 8, pretend = 0, frame = 0
 2610              		@ frame_needed = 0, uses_anonymous_args = 0
 2611 0000 2DE9F347 		push	{r0, r1, r4, r5, r6, r7, r8, r9, r10, lr}
 2612 0004 9A46     		mov	r10, r3
 2613 0006 90F84130 		ldrb	r3, [r0, #65]	@ zero_extendqisi2
 2614 000a 0446     		mov	r4, r0
 2615 000c 0F46     		mov	r7, r1
 2616 000e 202B     		cmp	r3, #32
 2617 0010 9146     		mov	r9, r2
 2618 0012 0A9D     		ldr	r5, [sp, #40]
 2619 0014 BDF82C80 		ldrh	r8, [sp, #44]
 2620 0018 40F08480 		bne	.L396
 2621 001c 15B1     		cbz	r5, .L387
 2622 001e B8F1000F 		cmp	r8, #0
 2623 0022 04D1     		bne	.L388
 2624              	.L387:
 2625 0024 4FF40073 		mov	r3, #512
 2626 0028 6364     		str	r3, [r4, #68]
 2627              	.L402:
 2628 002a 0125     		movs	r5, #1
 2629 002c 5EE0     		b	.L386
 2630              	.L388:
ARM GAS  /tmp/cckhjLjw.s 			page 46


 2631 002e 0368     		ldr	r3, [r0]
 2632 0030 9E69     		ldr	r6, [r3, #24]
 2633 0032 16F40046 		ands	r6, r6, #32768
 2634 0036 75D1     		bne	.L396
 2635 0038 90F84030 		ldrb	r3, [r0, #64]	@ zero_extendqisi2
 2636 003c 012B     		cmp	r3, #1
 2637 003e 71D0     		beq	.L396
 2638 0040 0123     		movs	r3, #1
 2639 0042 80F84030 		strb	r3, [r0, #64]
 2640 0046 FFF7FEFF 		bl	HAL_GetTick
 2641 004a 2123     		movs	r3, #33
 2642 004c 6562     		str	r5, [r4, #36]
 2643 004e 84F84130 		strb	r3, [r4, #65]
 2644 0052 4023     		movs	r3, #64
 2645 0054 84F84230 		strb	r3, [r4, #66]
 2646 0058 334B     		ldr	r3, .L403
 2647 005a 6664     		str	r6, [r4, #68]
 2648 005c A4F82A80 		strh	r8, [r4, #42]	@ movhi
 2649 0060 E362     		str	r3, [r4, #44]
 2650 0062 324B     		ldr	r3, .L403+4
 2651 0064 6363     		str	r3, [r4, #52]
 2652 0066 638D     		ldrh	r3, [r4, #42]
 2653 0068 FF2B     		cmp	r3, #255
 2654 006a 13D8     		bhi	.L397
 2655 006c 618D     		ldrh	r1, [r4, #42]
 2656 006e 4FF00078 		mov	r8, #33554432
 2657 0072 89B2     		uxth	r1, r1
 2658              	.L389:
 2659 0074 1923     		movs	r3, #25
 2660 0076 2185     		strh	r1, [r4, #40]	@ movhi
 2661 0078 0190     		str	r0, [sp, #4]
 2662 007a 4A46     		mov	r2, r9
 2663 007c 0093     		str	r3, [sp]
 2664 007e 3946     		mov	r1, r7
 2665 0080 5346     		mov	r3, r10
 2666 0082 2046     		mov	r0, r4
 2667 0084 FFF7FEFF 		bl	I2C_RequestMemoryWrite
 2668 0088 0646     		mov	r6, r0
 2669 008a 38B1     		cbz	r0, .L390
 2670 008c 0023     		movs	r3, #0
 2671 008e 84F84030 		strb	r3, [r4, #64]
 2672 0092 CAE7     		b	.L402
 2673              	.L397:
 2674 0094 FF21     		movs	r1, #255
 2675 0096 4FF08078 		mov	r8, #16777216
 2676 009a EBE7     		b	.L389
 2677              	.L390:
 2678 009c A06B     		ldr	r0, [r4, #56]
 2679 009e 48B3     		cbz	r0, .L391
 2680 00a0 234B     		ldr	r3, .L403+8
 2681 00a2 2946     		mov	r1, r5
 2682 00a4 2268     		ldr	r2, [r4]
 2683 00a6 C363     		str	r3, [r0, #60]
 2684 00a8 224B     		ldr	r3, .L403+12
 2685 00aa 2832     		adds	r2, r2, #40
 2686 00ac 0664     		str	r6, [r0, #64]
 2687 00ae C364     		str	r3, [r0, #76]
ARM GAS  /tmp/cckhjLjw.s 			page 47


 2688 00b0 0665     		str	r6, [r0, #80]
 2689 00b2 238D     		ldrh	r3, [r4, #40]
 2690 00b4 FFF7FEFF 		bl	HAL_DMA_Start_IT
 2691 00b8 0546     		mov	r5, r0
 2692 00ba 38BB     		cbnz	r0, .L401
 2693 00bc 0090     		str	r0, [sp]
 2694 00be 4346     		mov	r3, r8
 2695 00c0 94F82820 		ldrb	r2, [r4, #40]	@ zero_extendqisi2
 2696 00c4 3946     		mov	r1, r7
 2697 00c6 2046     		mov	r0, r4
 2698 00c8 FFF7FEFF 		bl	I2C_TransferConfig
 2699 00cc 638D     		ldrh	r3, [r4, #42]
 2700 00ce 228D     		ldrh	r2, [r4, #40]
 2701 00d0 1121     		movs	r1, #17
 2702 00d2 84F84050 		strb	r5, [r4, #64]
 2703 00d6 2046     		mov	r0, r4
 2704 00d8 9B1A     		subs	r3, r3, r2
 2705 00da 9BB2     		uxth	r3, r3
 2706 00dc 6385     		strh	r3, [r4, #42]	@ movhi
 2707 00de FFF7FEFF 		bl	I2C_Enable_IRQ
 2708 00e2 2268     		ldr	r2, [r4]
 2709 00e4 1368     		ldr	r3, [r2]
 2710 00e6 43F48043 		orr	r3, r3, #16384
 2711 00ea 1360     		str	r3, [r2]
 2712              	.L386:
 2713 00ec 2846     		mov	r0, r5
 2714 00ee 02B0     		add	sp, sp, #8
 2715              		@ sp needed
 2716 00f0 BDE8F087 		pop	{r4, r5, r6, r7, r8, r9, r10, pc}
 2717              	.L391:
 2718 00f4 2023     		movs	r3, #32
 2719 00f6 84F84000 		strb	r0, [r4, #64]
 2720 00fa 84F84130 		strb	r3, [r4, #65]
 2721 00fe 84F84200 		strb	r0, [r4, #66]
 2722 0102 636C     		ldr	r3, [r4, #68]
 2723 0104 43F08003 		orr	r3, r3, #128
 2724 0108 6364     		str	r3, [r4, #68]
 2725 010a 8EE7     		b	.L402
 2726              	.L401:
 2727 010c 2023     		movs	r3, #32
 2728 010e 84F84060 		strb	r6, [r4, #64]
 2729 0112 84F84130 		strb	r3, [r4, #65]
 2730 0116 84F84260 		strb	r6, [r4, #66]
 2731 011a 636C     		ldr	r3, [r4, #68]
 2732 011c 43F01003 		orr	r3, r3, #16
 2733 0120 6364     		str	r3, [r4, #68]
 2734 0122 82E7     		b	.L402
 2735              	.L396:
 2736 0124 0225     		movs	r5, #2
 2737 0126 E1E7     		b	.L386
 2738              	.L404:
 2739              		.align	2
 2740              	.L403:
 2741 0128 0000FFFF 		.word	-65536
 2742 012c 00000000 		.word	I2C_Master_ISR_DMA
 2743 0130 00000000 		.word	I2C_DMAMasterTransmitCplt
 2744 0134 00000000 		.word	I2C_DMAError
ARM GAS  /tmp/cckhjLjw.s 			page 48


 2746              		.section	.text.HAL_I2C_Mem_Read_DMA,"ax",%progbits
 2747              		.align	1
 2748              		.global	HAL_I2C_Mem_Read_DMA
 2749              		.syntax unified
 2750              		.thumb
 2751              		.thumb_func
 2752              		.fpu fpv5-sp-d16
 2754              	HAL_I2C_Mem_Read_DMA:
 2755              		@ args = 8, pretend = 0, frame = 0
 2756              		@ frame_needed = 0, uses_anonymous_args = 0
 2757 0000 2DE9F347 		push	{r0, r1, r4, r5, r6, r7, r8, r9, r10, lr}
 2758 0004 9A46     		mov	r10, r3
 2759 0006 90F84130 		ldrb	r3, [r0, #65]	@ zero_extendqisi2
 2760 000a 0446     		mov	r4, r0
 2761 000c 0F46     		mov	r7, r1
 2762 000e 202B     		cmp	r3, #32
 2763 0010 9146     		mov	r9, r2
 2764 0012 0A9D     		ldr	r5, [sp, #40]
 2765 0014 BDF82C80 		ldrh	r8, [sp, #44]
 2766 0018 40F08580 		bne	.L416
 2767 001c 15B1     		cbz	r5, .L407
 2768 001e B8F1000F 		cmp	r8, #0
 2769 0022 04D1     		bne	.L408
 2770              	.L407:
 2771 0024 4FF40073 		mov	r3, #512
 2772 0028 6364     		str	r3, [r4, #68]
 2773              	.L422:
 2774 002a 0125     		movs	r5, #1
 2775 002c 5FE0     		b	.L406
 2776              	.L408:
 2777 002e 0368     		ldr	r3, [r0]
 2778 0030 9E69     		ldr	r6, [r3, #24]
 2779 0032 16F40046 		ands	r6, r6, #32768
 2780 0036 76D1     		bne	.L416
 2781 0038 90F84030 		ldrb	r3, [r0, #64]	@ zero_extendqisi2
 2782 003c 012B     		cmp	r3, #1
 2783 003e 72D0     		beq	.L416
 2784 0040 0123     		movs	r3, #1
 2785 0042 80F84030 		strb	r3, [r0, #64]
 2786 0046 FFF7FEFF 		bl	HAL_GetTick
 2787 004a 2223     		movs	r3, #34
 2788 004c 6562     		str	r5, [r4, #36]
 2789 004e 84F84130 		strb	r3, [r4, #65]
 2790 0052 4023     		movs	r3, #64
 2791 0054 84F84230 		strb	r3, [r4, #66]
 2792 0058 344B     		ldr	r3, .L423
 2793 005a 6664     		str	r6, [r4, #68]
 2794 005c A4F82A80 		strh	r8, [r4, #42]	@ movhi
 2795 0060 E362     		str	r3, [r4, #44]
 2796 0062 334B     		ldr	r3, .L423+4
 2797 0064 6363     		str	r3, [r4, #52]
 2798 0066 638D     		ldrh	r3, [r4, #42]
 2799 0068 FF2B     		cmp	r3, #255
 2800 006a 13D8     		bhi	.L417
 2801 006c 618D     		ldrh	r1, [r4, #42]
 2802 006e 4FF00078 		mov	r8, #33554432
 2803 0072 89B2     		uxth	r1, r1
ARM GAS  /tmp/cckhjLjw.s 			page 49


 2804              	.L409:
 2805 0074 1923     		movs	r3, #25
 2806 0076 2185     		strh	r1, [r4, #40]	@ movhi
 2807 0078 0190     		str	r0, [sp, #4]
 2808 007a 4A46     		mov	r2, r9
 2809 007c 0093     		str	r3, [sp]
 2810 007e 3946     		mov	r1, r7
 2811 0080 5346     		mov	r3, r10
 2812 0082 2046     		mov	r0, r4
 2813 0084 FFF7FEFF 		bl	I2C_RequestMemoryRead
 2814 0088 0646     		mov	r6, r0
 2815 008a 38B1     		cbz	r0, .L410
 2816 008c 0023     		movs	r3, #0
 2817 008e 84F84030 		strb	r3, [r4, #64]
 2818 0092 CAE7     		b	.L422
 2819              	.L417:
 2820 0094 FF21     		movs	r1, #255
 2821 0096 4FF08078 		mov	r8, #16777216
 2822 009a EBE7     		b	.L409
 2823              	.L410:
 2824 009c E06B     		ldr	r0, [r4, #60]
 2825 009e 50B3     		cbz	r0, .L411
 2826 00a0 244B     		ldr	r3, .L423+8
 2827 00a2 2A46     		mov	r2, r5
 2828 00a4 2168     		ldr	r1, [r4]
 2829 00a6 C363     		str	r3, [r0, #60]
 2830 00a8 234B     		ldr	r3, .L423+12
 2831 00aa 2431     		adds	r1, r1, #36
 2832 00ac 0664     		str	r6, [r0, #64]
 2833 00ae C364     		str	r3, [r0, #76]
 2834 00b0 0665     		str	r6, [r0, #80]
 2835 00b2 238D     		ldrh	r3, [r4, #40]
 2836 00b4 FFF7FEFF 		bl	HAL_DMA_Start_IT
 2837 00b8 0546     		mov	r5, r0
 2838 00ba 40BB     		cbnz	r0, .L421
 2839 00bc 1F4B     		ldr	r3, .L423+16
 2840 00be 3946     		mov	r1, r7
 2841 00c0 94F82820 		ldrb	r2, [r4, #40]	@ zero_extendqisi2
 2842 00c4 2046     		mov	r0, r4
 2843 00c6 0093     		str	r3, [sp]
 2844 00c8 4346     		mov	r3, r8
 2845 00ca FFF7FEFF 		bl	I2C_TransferConfig
 2846 00ce 638D     		ldrh	r3, [r4, #42]
 2847 00d0 228D     		ldrh	r2, [r4, #40]
 2848 00d2 1121     		movs	r1, #17
 2849 00d4 84F84050 		strb	r5, [r4, #64]
 2850 00d8 2046     		mov	r0, r4
 2851 00da 9B1A     		subs	r3, r3, r2
 2852 00dc 9BB2     		uxth	r3, r3
 2853 00de 6385     		strh	r3, [r4, #42]	@ movhi
 2854 00e0 FFF7FEFF 		bl	I2C_Enable_IRQ
 2855 00e4 2268     		ldr	r2, [r4]
 2856 00e6 1368     		ldr	r3, [r2]
 2857 00e8 43F40043 		orr	r3, r3, #32768
 2858 00ec 1360     		str	r3, [r2]
 2859              	.L406:
 2860 00ee 2846     		mov	r0, r5
ARM GAS  /tmp/cckhjLjw.s 			page 50


 2861 00f0 02B0     		add	sp, sp, #8
 2862              		@ sp needed
 2863 00f2 BDE8F087 		pop	{r4, r5, r6, r7, r8, r9, r10, pc}
 2864              	.L411:
 2865 00f6 2023     		movs	r3, #32
 2866 00f8 84F84000 		strb	r0, [r4, #64]
 2867 00fc 84F84130 		strb	r3, [r4, #65]
 2868 0100 84F84200 		strb	r0, [r4, #66]
 2869 0104 636C     		ldr	r3, [r4, #68]
 2870 0106 43F08003 		orr	r3, r3, #128
 2871 010a 6364     		str	r3, [r4, #68]
 2872 010c 8DE7     		b	.L422
 2873              	.L421:
 2874 010e 2023     		movs	r3, #32
 2875 0110 84F84060 		strb	r6, [r4, #64]
 2876 0114 84F84130 		strb	r3, [r4, #65]
 2877 0118 84F84260 		strb	r6, [r4, #66]
 2878 011c 636C     		ldr	r3, [r4, #68]
 2879 011e 43F01003 		orr	r3, r3, #16
 2880 0122 6364     		str	r3, [r4, #68]
 2881 0124 81E7     		b	.L422
 2882              	.L416:
 2883 0126 0225     		movs	r5, #2
 2884 0128 E1E7     		b	.L406
 2885              	.L424:
 2886 012a 00BF     		.align	2
 2887              	.L423:
 2888 012c 0000FFFF 		.word	-65536
 2889 0130 00000000 		.word	I2C_Master_ISR_DMA
 2890 0134 00000000 		.word	I2C_DMAMasterReceiveCplt
 2891 0138 00000000 		.word	I2C_DMAError
 2892 013c 00240080 		.word	-2147474432
 2894              		.section	.text.HAL_I2C_IsDeviceReady,"ax",%progbits
 2895              		.align	1
 2896              		.global	HAL_I2C_IsDeviceReady
 2897              		.syntax unified
 2898              		.thumb
 2899              		.thumb_func
 2900              		.fpu fpv5-sp-d16
 2902              	HAL_I2C_IsDeviceReady:
 2903              		@ args = 0, pretend = 0, frame = 8
 2904              		@ frame_needed = 0, uses_anonymous_args = 0
 2905 0000 2DE9FF47 		push	{r0, r1, r2, r3, r4, r5, r6, r7, r8, r9, r10, lr}
 2906 0004 1D46     		mov	r5, r3
 2907 0006 0023     		movs	r3, #0
 2908 0008 0446     		mov	r4, r0
 2909 000a 9146     		mov	r9, r2
 2910 000c 0393     		str	r3, [sp, #12]
 2911 000e 90F84130 		ldrb	r3, [r0, #65]	@ zero_extendqisi2
 2912 0012 202B     		cmp	r3, #32
 2913 0014 7DD1     		bne	.L440
 2914 0016 0368     		ldr	r3, [r0]
 2915 0018 9B69     		ldr	r3, [r3, #24]
 2916 001a 13F40043 		ands	r3, r3, #32768
 2917 001e 78D1     		bne	.L440
 2918 0020 90F84020 		ldrb	r2, [r0, #64]	@ zero_extendqisi2
 2919 0024 012A     		cmp	r2, #1
ARM GAS  /tmp/cckhjLjw.s 			page 51


 2920 0026 74D0     		beq	.L440
 2921 0028 C1F30906 		ubfx	r6, r1, #0, #10
 2922 002c 0122     		movs	r2, #1
 2923 002e 46F00078 		orr	r8, r6, #33554432
 2924 0032 80F84020 		strb	r2, [r0, #64]
 2925 0036 2422     		movs	r2, #36
 2926 0038 48F40058 		orr	r8, r8, #8192
 2927 003c 80F84120 		strb	r2, [r0, #65]
 2928 0040 4364     		str	r3, [r0, #68]
 2929              	.L437:
 2930 0042 E368     		ldr	r3, [r4, #12]
 2931 0044 2268     		ldr	r2, [r4]
 2932 0046 012B     		cmp	r3, #1
 2933 0048 0CBF     		ite	eq
 2934 004a 4346     		moveq	r3, r8
 2935 004c 46F42053 		orrne	r3, r6, #10240
 2936 0050 5360     		str	r3, [r2, #4]
 2937 0052 FFF7FEFF 		bl	HAL_GetTick
 2938 0056 0746     		mov	r7, r0
 2939              	.L430:
 2940 0058 2368     		ldr	r3, [r4]
 2941 005a 9A69     		ldr	r2, [r3, #24]
 2942 005c 9B69     		ldr	r3, [r3, #24]
 2943 005e C2F34012 		ubfx	r2, r2, #5, #1
 2944 0062 C3F30013 		ubfx	r3, r3, #4, #1
 2945 0066 1343     		orrs	r3, r2, r3
 2946 0068 0DD0     		beq	.L432
 2947 006a 2368     		ldr	r3, [r4]
 2948 006c 9A69     		ldr	r2, [r3, #24]
 2949 006e 2B46     		mov	r3, r5
 2950 0070 0097     		str	r7, [sp]
 2951 0072 12F01002 		ands	r2, r2, #16
 2952 0076 24D1     		bne	.L433
 2953 0078 2021     		movs	r1, #32
 2954 007a 2046     		mov	r0, r4
 2955 007c FFF7FEFF 		bl	I2C_WaitOnFlagUntilTimeout
 2956 0080 A8B1     		cbz	r0, .L434
 2957              	.L446:
 2958 0082 0120     		movs	r0, #1
 2959 0084 1AE0     		b	.L426
 2960              	.L432:
 2961 0086 6B1C     		adds	r3, r5, #1
 2962 0088 E6D0     		beq	.L430
 2963 008a FFF7FEFF 		bl	HAL_GetTick
 2964 008e C01B     		subs	r0, r0, r7
 2965 0090 A842     		cmp	r0, r5
 2966 0092 01D8     		bhi	.L445
 2967 0094 002D     		cmp	r5, #0
 2968 0096 DFD1     		bne	.L430
 2969              	.L445:
 2970 0098 2023     		movs	r3, #32
 2971 009a 84F84130 		strb	r3, [r4, #65]
 2972 009e 636C     		ldr	r3, [r4, #68]
 2973 00a0 43F02003 		orr	r3, r3, #32
 2974 00a4 6364     		str	r3, [r4, #68]
 2975 00a6 0023     		movs	r3, #0
 2976 00a8 84F84030 		strb	r3, [r4, #64]
ARM GAS  /tmp/cckhjLjw.s 			page 52


 2977 00ac E9E7     		b	.L446
 2978              	.L434:
 2979 00ae 2023     		movs	r3, #32
 2980 00b0 2268     		ldr	r2, [r4]
 2981 00b2 D361     		str	r3, [r2, #28]
 2982 00b4 84F84130 		strb	r3, [r4, #65]
 2983 00b8 84F84000 		strb	r0, [r4, #64]
 2984              	.L426:
 2985 00bc 04B0     		add	sp, sp, #16
 2986              		@ sp needed
 2987 00be BDE8F087 		pop	{r4, r5, r6, r7, r8, r9, r10, pc}
 2988              	.L433:
 2989 00c2 0022     		movs	r2, #0
 2990 00c4 2021     		movs	r1, #32
 2991 00c6 2046     		mov	r0, r4
 2992 00c8 FFF7FEFF 		bl	I2C_WaitOnFlagUntilTimeout
 2993 00cc 0246     		mov	r2, r0
 2994 00ce 0028     		cmp	r0, #0
 2995 00d0 D7D1     		bne	.L446
 2996 00d2 2368     		ldr	r3, [r4]
 2997 00d4 1021     		movs	r1, #16
 2998 00d6 4FF0200A 		mov	r10, #32
 2999 00da D961     		str	r1, [r3, #28]
 3000 00dc C3F81CA0 		str	r10, [r3, #28]
 3001 00e0 0399     		ldr	r1, [sp, #12]
 3002 00e2 4945     		cmp	r1, r9
 3003 00e4 0ED1     		bne	.L436
 3004 00e6 5968     		ldr	r1, [r3, #4]
 3005 00e8 2046     		mov	r0, r4
 3006 00ea 41F48041 		orr	r1, r1, #16384
 3007 00ee 5960     		str	r1, [r3, #4]
 3008 00f0 2B46     		mov	r3, r5
 3009 00f2 0097     		str	r7, [sp]
 3010 00f4 5146     		mov	r1, r10
 3011 00f6 FFF7FEFF 		bl	I2C_WaitOnFlagUntilTimeout
 3012 00fa 0028     		cmp	r0, #0
 3013 00fc C1D1     		bne	.L446
 3014 00fe 2368     		ldr	r3, [r4]
 3015 0100 C3F81CA0 		str	r10, [r3, #28]
 3016              	.L436:
 3017 0104 039B     		ldr	r3, [sp, #12]
 3018 0106 0133     		adds	r3, r3, #1
 3019 0108 0393     		str	r3, [sp, #12]
 3020 010a 039B     		ldr	r3, [sp, #12]
 3021 010c 4B45     		cmp	r3, r9
 3022 010e 98D3     		bcc	.L437
 3023 0110 C2E7     		b	.L445
 3024              	.L440:
 3025 0112 0220     		movs	r0, #2
 3026 0114 D2E7     		b	.L426
 3028              		.section	.text.HAL_I2C_Master_Seq_Transmit_IT,"ax",%progbits
 3029              		.align	1
 3030              		.global	HAL_I2C_Master_Seq_Transmit_IT
 3031              		.syntax unified
 3032              		.thumb
 3033              		.thumb_func
 3034              		.fpu fpv5-sp-d16
ARM GAS  /tmp/cckhjLjw.s 			page 53


 3036              	HAL_I2C_Master_Seq_Transmit_IT:
 3037              		@ args = 4, pretend = 0, frame = 0
 3038              		@ frame_needed = 0, uses_anonymous_args = 0
 3039 0000 37B5     		push	{r0, r1, r2, r4, r5, lr}
 3040 0002 0446     		mov	r4, r0
 3041 0004 0698     		ldr	r0, [sp, #24]
 3042 0006 94F84150 		ldrb	r5, [r4, #65]	@ zero_extendqisi2
 3043 000a 202D     		cmp	r5, #32
 3044 000c 41D1     		bne	.L454
 3045 000e 94F84050 		ldrb	r5, [r4, #64]	@ zero_extendqisi2
 3046 0012 012D     		cmp	r5, #1
 3047 0014 3DD0     		beq	.L454
 3048 0016 0125     		movs	r5, #1
 3049 0018 6262     		str	r2, [r4, #36]
 3050 001a 84F84050 		strb	r5, [r4, #64]
 3051 001e 2125     		movs	r5, #33
 3052 0020 84F84150 		strb	r5, [r4, #65]
 3053 0024 1025     		movs	r5, #16
 3054 0026 84F84250 		strb	r5, [r4, #66]
 3055 002a 0025     		movs	r5, #0
 3056 002c 6564     		str	r5, [r4, #68]
 3057 002e 6385     		strh	r3, [r4, #42]	@ movhi
 3058 0030 194B     		ldr	r3, .L460
 3059 0032 E062     		str	r0, [r4, #44]
 3060 0034 6363     		str	r3, [r4, #52]
 3061 0036 638D     		ldrh	r3, [r4, #42]
 3062 0038 FF2B     		cmp	r3, #255
 3063 003a 14D9     		bls	.L449
 3064 003c FF23     		movs	r3, #255
 3065 003e 4FF08072 		mov	r2, #16777216
 3066 0042 2385     		strh	r3, [r4, #40]	@ movhi
 3067              	.L450:
 3068 0044 236B     		ldr	r3, [r4, #48]
 3069 0046 112B     		cmp	r3, #17
 3070 0048 04D1     		bne	.L451
 3071 004a AA28     		cmp	r0, #170
 3072 004c 02D0     		beq	.L451
 3073 004e B0F52A4F 		cmp	r0, #43520
 3074 0052 0CD1     		bne	.L455
 3075              	.L451:
 3076 0054 2046     		mov	r0, r4
 3077 0056 FFF7FEFF 		bl	I2C_ConvertOtherXferOptions
 3078 005a 638D     		ldrh	r3, [r4, #42]
 3079 005c FE2B     		cmp	r3, #254
 3080 005e 00D8     		bhi	.L456
 3081 0060 E26A     		ldr	r2, [r4, #44]
 3082              	.L456:
 3083 0062 0E4B     		ldr	r3, .L460+4
 3084 0064 04E0     		b	.L452
 3085              	.L449:
 3086 0066 638D     		ldrh	r3, [r4, #42]
 3087 0068 E26A     		ldr	r2, [r4, #44]
 3088 006a 2385     		strh	r3, [r4, #40]	@ movhi
 3089 006c EAE7     		b	.L450
 3090              	.L455:
 3091 006e 0023     		movs	r3, #0
 3092              	.L452:
ARM GAS  /tmp/cckhjLjw.s 			page 54


 3093 0070 0025     		movs	r5, #0
 3094 0072 0093     		str	r3, [sp]
 3095 0074 2046     		mov	r0, r4
 3096 0076 1346     		mov	r3, r2
 3097 0078 94F82820 		ldrb	r2, [r4, #40]	@ zero_extendqisi2
 3098 007c FFF7FEFF 		bl	I2C_TransferConfig
 3099 0080 2046     		mov	r0, r4
 3100 0082 84F84050 		strb	r5, [r4, #64]
 3101 0086 0121     		movs	r1, #1
 3102 0088 FFF7FEFF 		bl	I2C_Enable_IRQ
 3103 008c 2846     		mov	r0, r5
 3104              	.L448:
 3105 008e 03B0     		add	sp, sp, #12
 3106              		@ sp needed
 3107 0090 30BD     		pop	{r4, r5, pc}
 3108              	.L454:
 3109 0092 0220     		movs	r0, #2
 3110 0094 FBE7     		b	.L448
 3111              	.L461:
 3112 0096 00BF     		.align	2
 3113              	.L460:
 3114 0098 00000000 		.word	I2C_Master_ISR_IT
 3115 009c 00200080 		.word	-2147475456
 3117              		.section	.text.HAL_I2C_Master_Seq_Transmit_DMA,"ax",%progbits
 3118              		.align	1
 3119              		.global	HAL_I2C_Master_Seq_Transmit_DMA
 3120              		.syntax unified
 3121              		.thumb
 3122              		.thumb_func
 3123              		.fpu fpv5-sp-d16
 3125              	HAL_I2C_Master_Seq_Transmit_DMA:
 3126              		@ args = 4, pretend = 0, frame = 0
 3127              		@ frame_needed = 0, uses_anonymous_args = 0
 3128 0000 2DE9F743 		push	{r0, r1, r2, r4, r5, r6, r7, r8, r9, lr}
 3129 0004 0446     		mov	r4, r0
 3130 0006 90F84100 		ldrb	r0, [r0, #65]	@ zero_extendqisi2
 3131 000a 8946     		mov	r9, r1
 3132 000c 1146     		mov	r1, r2
 3133 000e 2028     		cmp	r0, #32
 3134 0010 0A9A     		ldr	r2, [sp, #40]
 3135 0012 40F08F80 		bne	.L473
 3136 0016 94F84000 		ldrb	r0, [r4, #64]	@ zero_extendqisi2
 3137 001a 0128     		cmp	r0, #1
 3138 001c 00F08A80 		beq	.L473
 3139 0020 0120     		movs	r0, #1
 3140 0022 6162     		str	r1, [r4, #36]
 3141 0024 84F84000 		strb	r0, [r4, #64]
 3142 0028 2120     		movs	r0, #33
 3143 002a 84F84100 		strb	r0, [r4, #65]
 3144 002e 1020     		movs	r0, #16
 3145 0030 84F84200 		strb	r0, [r4, #66]
 3146 0034 0020     		movs	r0, #0
 3147 0036 6064     		str	r0, [r4, #68]
 3148 0038 6385     		strh	r3, [r4, #42]	@ movhi
 3149 003a 3F4B     		ldr	r3, .L481
 3150 003c E262     		str	r2, [r4, #44]
 3151 003e 6363     		str	r3, [r4, #52]
ARM GAS  /tmp/cckhjLjw.s 			page 55


 3152 0040 638D     		ldrh	r3, [r4, #42]
 3153 0042 FF2B     		cmp	r3, #255
 3154 0044 15D9     		bls	.L464
 3155 0046 FF23     		movs	r3, #255
 3156 0048 4FF08077 		mov	r7, #16777216
 3157 004c 2385     		strh	r3, [r4, #40]	@ movhi
 3158              	.L465:
 3159 004e 236B     		ldr	r3, [r4, #48]
 3160 0050 112B     		cmp	r3, #17
 3161 0052 04D1     		bne	.L466
 3162 0054 AA2A     		cmp	r2, #170
 3163 0056 02D0     		beq	.L466
 3164 0058 B2F52A4F 		cmp	r2, #43520
 3165 005c 0DD1     		bne	.L474
 3166              	.L466:
 3167 005e 2046     		mov	r0, r4
 3168 0060 FFF7FEFF 		bl	I2C_ConvertOtherXferOptions
 3169 0064 638D     		ldrh	r3, [r4, #42]
 3170 0066 FE2B     		cmp	r3, #254
 3171 0068 00D8     		bhi	.L475
 3172 006a E76A     		ldr	r7, [r4, #44]
 3173              	.L475:
 3174 006c DFF8D880 		ldr	r8, .L481+16
 3175 0070 05E0     		b	.L467
 3176              	.L464:
 3177 0072 638D     		ldrh	r3, [r4, #42]
 3178 0074 E76A     		ldr	r7, [r4, #44]
 3179 0076 2385     		strh	r3, [r4, #40]	@ movhi
 3180 0078 E9E7     		b	.L465
 3181              	.L474:
 3182 007a 4FF00008 		mov	r8, #0
 3183              	.L467:
 3184 007e 258D     		ldrh	r5, [r4, #40]
 3185 0080 002D     		cmp	r5, #0
 3186 0082 45D0     		beq	.L468
 3187 0084 A06B     		ldr	r0, [r4, #56]
 3188 0086 50B3     		cbz	r0, .L469
 3189 0088 2C4B     		ldr	r3, .L481+4
 3190 008a 0026     		movs	r6, #0
 3191 008c 2268     		ldr	r2, [r4]
 3192 008e C363     		str	r3, [r0, #60]
 3193 0090 2B4B     		ldr	r3, .L481+8
 3194 0092 2832     		adds	r2, r2, #40
 3195 0094 0664     		str	r6, [r0, #64]
 3196 0096 C364     		str	r3, [r0, #76]
 3197 0098 2B46     		mov	r3, r5
 3198 009a 0665     		str	r6, [r0, #80]
 3199 009c FFF7FEFF 		bl	HAL_DMA_Start_IT
 3200 00a0 0546     		mov	r5, r0
 3201 00a2 48BB     		cbnz	r0, .L479
 3202 00a4 3B46     		mov	r3, r7
 3203 00a6 94F82820 		ldrb	r2, [r4, #40]	@ zero_extendqisi2
 3204 00aa 4946     		mov	r1, r9
 3205 00ac 2046     		mov	r0, r4
 3206 00ae CDF80080 		str	r8, [sp]
 3207 00b2 FFF7FEFF 		bl	I2C_TransferConfig
 3208 00b6 638D     		ldrh	r3, [r4, #42]
ARM GAS  /tmp/cckhjLjw.s 			page 56


 3209 00b8 228D     		ldrh	r2, [r4, #40]
 3210 00ba 1121     		movs	r1, #17
 3211 00bc 84F84050 		strb	r5, [r4, #64]
 3212 00c0 2046     		mov	r0, r4
 3213 00c2 9B1A     		subs	r3, r3, r2
 3214 00c4 9BB2     		uxth	r3, r3
 3215 00c6 6385     		strh	r3, [r4, #42]	@ movhi
 3216 00c8 FFF7FEFF 		bl	I2C_Enable_IRQ
 3217 00cc 2268     		ldr	r2, [r4]
 3218 00ce 1368     		ldr	r3, [r2]
 3219 00d0 43F48043 		orr	r3, r3, #16384
 3220 00d4 1360     		str	r3, [r2]
 3221              	.L463:
 3222 00d6 2846     		mov	r0, r5
 3223 00d8 03B0     		add	sp, sp, #12
 3224              		@ sp needed
 3225 00da BDE8F083 		pop	{r4, r5, r6, r7, r8, r9, pc}
 3226              	.L469:
 3227 00de 2023     		movs	r3, #32
 3228 00e0 84F84000 		strb	r0, [r4, #64]
 3229 00e4 84F84130 		strb	r3, [r4, #65]
 3230 00e8 84F84200 		strb	r0, [r4, #66]
 3231 00ec 636C     		ldr	r3, [r4, #68]
 3232 00ee 43F08003 		orr	r3, r3, #128
 3233 00f2 6364     		str	r3, [r4, #68]
 3234              	.L480:
 3235 00f4 0125     		movs	r5, #1
 3236 00f6 EEE7     		b	.L463
 3237              	.L479:
 3238 00f8 2023     		movs	r3, #32
 3239 00fa 84F84060 		strb	r6, [r4, #64]
 3240 00fe 84F84130 		strb	r3, [r4, #65]
 3241 0102 84F84260 		strb	r6, [r4, #66]
 3242 0106 636C     		ldr	r3, [r4, #68]
 3243 0108 43F01003 		orr	r3, r3, #16
 3244 010c 6364     		str	r3, [r4, #68]
 3245 010e F1E7     		b	.L480
 3246              	.L468:
 3247 0110 0C4B     		ldr	r3, .L481+12
 3248 0112 4946     		mov	r1, r9
 3249 0114 2046     		mov	r0, r4
 3250 0116 2A46     		mov	r2, r5
 3251 0118 6363     		str	r3, [r4, #52]
 3252 011a 0B4B     		ldr	r3, .L481+16
 3253 011c 0093     		str	r3, [sp]
 3254 011e 4FF00073 		mov	r3, #33554432
 3255 0122 FFF7FEFF 		bl	I2C_TransferConfig
 3256 0126 84F84050 		strb	r5, [r4, #64]
 3257 012a 0121     		movs	r1, #1
 3258 012c 2046     		mov	r0, r4
 3259 012e FFF7FEFF 		bl	I2C_Enable_IRQ
 3260 0132 D0E7     		b	.L463
 3261              	.L473:
 3262 0134 0225     		movs	r5, #2
 3263 0136 CEE7     		b	.L463
 3264              	.L482:
 3265              		.align	2
ARM GAS  /tmp/cckhjLjw.s 			page 57


 3266              	.L481:
 3267 0138 00000000 		.word	I2C_Master_ISR_DMA
 3268 013c 00000000 		.word	I2C_DMAMasterTransmitCplt
 3269 0140 00000000 		.word	I2C_DMAError
 3270 0144 00000000 		.word	I2C_Master_ISR_IT
 3271 0148 00200080 		.word	-2147475456
 3273              		.section	.text.HAL_I2C_Master_Seq_Receive_IT,"ax",%progbits
 3274              		.align	1
 3275              		.global	HAL_I2C_Master_Seq_Receive_IT
 3276              		.syntax unified
 3277              		.thumb
 3278              		.thumb_func
 3279              		.fpu fpv5-sp-d16
 3281              	HAL_I2C_Master_Seq_Receive_IT:
 3282              		@ args = 4, pretend = 0, frame = 0
 3283              		@ frame_needed = 0, uses_anonymous_args = 0
 3284 0000 37B5     		push	{r0, r1, r2, r4, r5, lr}
 3285 0002 0446     		mov	r4, r0
 3286 0004 0698     		ldr	r0, [sp, #24]
 3287 0006 94F84150 		ldrb	r5, [r4, #65]	@ zero_extendqisi2
 3288 000a 202D     		cmp	r5, #32
 3289 000c 41D1     		bne	.L490
 3290 000e 94F84050 		ldrb	r5, [r4, #64]	@ zero_extendqisi2
 3291 0012 012D     		cmp	r5, #1
 3292 0014 3DD0     		beq	.L490
 3293 0016 0125     		movs	r5, #1
 3294 0018 6262     		str	r2, [r4, #36]
 3295 001a 84F84050 		strb	r5, [r4, #64]
 3296 001e 2225     		movs	r5, #34
 3297 0020 84F84150 		strb	r5, [r4, #65]
 3298 0024 1025     		movs	r5, #16
 3299 0026 84F84250 		strb	r5, [r4, #66]
 3300 002a 0025     		movs	r5, #0
 3301 002c 6564     		str	r5, [r4, #68]
 3302 002e 6385     		strh	r3, [r4, #42]	@ movhi
 3303 0030 194B     		ldr	r3, .L496
 3304 0032 E062     		str	r0, [r4, #44]
 3305 0034 6363     		str	r3, [r4, #52]
 3306 0036 638D     		ldrh	r3, [r4, #42]
 3307 0038 FF2B     		cmp	r3, #255
 3308 003a 14D9     		bls	.L485
 3309 003c FF23     		movs	r3, #255
 3310 003e 4FF08072 		mov	r2, #16777216
 3311 0042 2385     		strh	r3, [r4, #40]	@ movhi
 3312              	.L486:
 3313 0044 236B     		ldr	r3, [r4, #48]
 3314 0046 122B     		cmp	r3, #18
 3315 0048 04D1     		bne	.L487
 3316 004a AA28     		cmp	r0, #170
 3317 004c 02D0     		beq	.L487
 3318 004e B0F52A4F 		cmp	r0, #43520
 3319 0052 0CD1     		bne	.L491
 3320              	.L487:
 3321 0054 2046     		mov	r0, r4
 3322 0056 FFF7FEFF 		bl	I2C_ConvertOtherXferOptions
 3323 005a 638D     		ldrh	r3, [r4, #42]
 3324 005c FE2B     		cmp	r3, #254
ARM GAS  /tmp/cckhjLjw.s 			page 58


 3325 005e 00D8     		bhi	.L492
 3326 0060 E26A     		ldr	r2, [r4, #44]
 3327              	.L492:
 3328 0062 0E4B     		ldr	r3, .L496+4
 3329 0064 04E0     		b	.L488
 3330              	.L485:
 3331 0066 638D     		ldrh	r3, [r4, #42]
 3332 0068 E26A     		ldr	r2, [r4, #44]
 3333 006a 2385     		strh	r3, [r4, #40]	@ movhi
 3334 006c EAE7     		b	.L486
 3335              	.L491:
 3336 006e 0023     		movs	r3, #0
 3337              	.L488:
 3338 0070 0025     		movs	r5, #0
 3339 0072 0093     		str	r3, [sp]
 3340 0074 2046     		mov	r0, r4
 3341 0076 1346     		mov	r3, r2
 3342 0078 94F82820 		ldrb	r2, [r4, #40]	@ zero_extendqisi2
 3343 007c FFF7FEFF 		bl	I2C_TransferConfig
 3344 0080 2046     		mov	r0, r4
 3345 0082 84F84050 		strb	r5, [r4, #64]
 3346 0086 0221     		movs	r1, #2
 3347 0088 FFF7FEFF 		bl	I2C_Enable_IRQ
 3348 008c 2846     		mov	r0, r5
 3349              	.L484:
 3350 008e 03B0     		add	sp, sp, #12
 3351              		@ sp needed
 3352 0090 30BD     		pop	{r4, r5, pc}
 3353              	.L490:
 3354 0092 0220     		movs	r0, #2
 3355 0094 FBE7     		b	.L484
 3356              	.L497:
 3357 0096 00BF     		.align	2
 3358              	.L496:
 3359 0098 00000000 		.word	I2C_Master_ISR_IT
 3360 009c 00240080 		.word	-2147474432
 3362              		.section	.text.HAL_I2C_Master_Seq_Receive_DMA,"ax",%progbits
 3363              		.align	1
 3364              		.global	HAL_I2C_Master_Seq_Receive_DMA
 3365              		.syntax unified
 3366              		.thumb
 3367              		.thumb_func
 3368              		.fpu fpv5-sp-d16
 3370              	HAL_I2C_Master_Seq_Receive_DMA:
 3371              		@ args = 4, pretend = 0, frame = 0
 3372              		@ frame_needed = 0, uses_anonymous_args = 0
 3373 0000 2DE9F743 		push	{r0, r1, r2, r4, r5, r6, r7, r8, r9, lr}
 3374 0004 0446     		mov	r4, r0
 3375 0006 90F84100 		ldrb	r0, [r0, #65]	@ zero_extendqisi2
 3376 000a 8946     		mov	r9, r1
 3377 000c 0A99     		ldr	r1, [sp, #40]
 3378 000e 2028     		cmp	r0, #32
 3379 0010 40F08F80 		bne	.L509
 3380 0014 94F84000 		ldrb	r0, [r4, #64]	@ zero_extendqisi2
 3381 0018 0128     		cmp	r0, #1
 3382 001a 00F08A80 		beq	.L509
 3383 001e 0120     		movs	r0, #1
ARM GAS  /tmp/cckhjLjw.s 			page 59


 3384 0020 6262     		str	r2, [r4, #36]
 3385 0022 84F84000 		strb	r0, [r4, #64]
 3386 0026 2220     		movs	r0, #34
 3387 0028 84F84100 		strb	r0, [r4, #65]
 3388 002c 1020     		movs	r0, #16
 3389 002e 84F84200 		strb	r0, [r4, #66]
 3390 0032 0020     		movs	r0, #0
 3391 0034 6064     		str	r0, [r4, #68]
 3392 0036 6385     		strh	r3, [r4, #42]	@ movhi
 3393 0038 3F4B     		ldr	r3, .L517
 3394 003a E162     		str	r1, [r4, #44]
 3395 003c 6363     		str	r3, [r4, #52]
 3396 003e 638D     		ldrh	r3, [r4, #42]
 3397 0040 FF2B     		cmp	r3, #255
 3398 0042 15D9     		bls	.L500
 3399 0044 FF23     		movs	r3, #255
 3400 0046 4FF08077 		mov	r7, #16777216
 3401 004a 2385     		strh	r3, [r4, #40]	@ movhi
 3402              	.L501:
 3403 004c 236B     		ldr	r3, [r4, #48]
 3404 004e 122B     		cmp	r3, #18
 3405 0050 04D1     		bne	.L502
 3406 0052 AA29     		cmp	r1, #170
 3407 0054 02D0     		beq	.L502
 3408 0056 B1F52A4F 		cmp	r1, #43520
 3409 005a 0DD1     		bne	.L510
 3410              	.L502:
 3411 005c 2046     		mov	r0, r4
 3412 005e FFF7FEFF 		bl	I2C_ConvertOtherXferOptions
 3413 0062 638D     		ldrh	r3, [r4, #42]
 3414 0064 FE2B     		cmp	r3, #254
 3415 0066 00D8     		bhi	.L511
 3416 0068 E76A     		ldr	r7, [r4, #44]
 3417              	.L511:
 3418 006a DFF8DC80 		ldr	r8, .L517+16
 3419 006e 05E0     		b	.L503
 3420              	.L500:
 3421 0070 638D     		ldrh	r3, [r4, #42]
 3422 0072 E76A     		ldr	r7, [r4, #44]
 3423 0074 2385     		strh	r3, [r4, #40]	@ movhi
 3424 0076 E9E7     		b	.L501
 3425              	.L510:
 3426 0078 4FF00008 		mov	r8, #0
 3427              	.L503:
 3428 007c 258D     		ldrh	r5, [r4, #40]
 3429 007e 002D     		cmp	r5, #0
 3430 0080 45D0     		beq	.L504
 3431 0082 E06B     		ldr	r0, [r4, #60]
 3432 0084 50B3     		cbz	r0, .L505
 3433 0086 2D4B     		ldr	r3, .L517+4
 3434 0088 0026     		movs	r6, #0
 3435 008a 2168     		ldr	r1, [r4]
 3436 008c C363     		str	r3, [r0, #60]
 3437 008e 2C4B     		ldr	r3, .L517+8
 3438 0090 2431     		adds	r1, r1, #36
 3439 0092 0664     		str	r6, [r0, #64]
 3440 0094 C364     		str	r3, [r0, #76]
ARM GAS  /tmp/cckhjLjw.s 			page 60


 3441 0096 2B46     		mov	r3, r5
 3442 0098 0665     		str	r6, [r0, #80]
 3443 009a FFF7FEFF 		bl	HAL_DMA_Start_IT
 3444 009e 0546     		mov	r5, r0
 3445 00a0 48BB     		cbnz	r0, .L515
 3446 00a2 3B46     		mov	r3, r7
 3447 00a4 94F82820 		ldrb	r2, [r4, #40]	@ zero_extendqisi2
 3448 00a8 4946     		mov	r1, r9
 3449 00aa 2046     		mov	r0, r4
 3450 00ac CDF80080 		str	r8, [sp]
 3451 00b0 FFF7FEFF 		bl	I2C_TransferConfig
 3452 00b4 638D     		ldrh	r3, [r4, #42]
 3453 00b6 228D     		ldrh	r2, [r4, #40]
 3454 00b8 1121     		movs	r1, #17
 3455 00ba 84F84050 		strb	r5, [r4, #64]
 3456 00be 2046     		mov	r0, r4
 3457 00c0 9B1A     		subs	r3, r3, r2
 3458 00c2 9BB2     		uxth	r3, r3
 3459 00c4 6385     		strh	r3, [r4, #42]	@ movhi
 3460 00c6 FFF7FEFF 		bl	I2C_Enable_IRQ
 3461 00ca 2268     		ldr	r2, [r4]
 3462 00cc 1368     		ldr	r3, [r2]
 3463 00ce 43F40043 		orr	r3, r3, #32768
 3464 00d2 1360     		str	r3, [r2]
 3465              	.L499:
 3466 00d4 2846     		mov	r0, r5
 3467 00d6 03B0     		add	sp, sp, #12
 3468              		@ sp needed
 3469 00d8 BDE8F083 		pop	{r4, r5, r6, r7, r8, r9, pc}
 3470              	.L505:
 3471 00dc 2023     		movs	r3, #32
 3472 00de 84F84000 		strb	r0, [r4, #64]
 3473 00e2 84F84130 		strb	r3, [r4, #65]
 3474 00e6 84F84200 		strb	r0, [r4, #66]
 3475 00ea 636C     		ldr	r3, [r4, #68]
 3476 00ec 43F08003 		orr	r3, r3, #128
 3477 00f0 6364     		str	r3, [r4, #68]
 3478              	.L516:
 3479 00f2 0125     		movs	r5, #1
 3480 00f4 EEE7     		b	.L499
 3481              	.L515:
 3482 00f6 2023     		movs	r3, #32
 3483 00f8 84F84060 		strb	r6, [r4, #64]
 3484 00fc 84F84130 		strb	r3, [r4, #65]
 3485 0100 84F84260 		strb	r6, [r4, #66]
 3486 0104 636C     		ldr	r3, [r4, #68]
 3487 0106 43F01003 		orr	r3, r3, #16
 3488 010a 6364     		str	r3, [r4, #68]
 3489 010c F1E7     		b	.L516
 3490              	.L504:
 3491 010e 0D4B     		ldr	r3, .L517+12
 3492 0110 4946     		mov	r1, r9
 3493 0112 2046     		mov	r0, r4
 3494 0114 2A46     		mov	r2, r5
 3495 0116 6363     		str	r3, [r4, #52]
 3496 0118 0B4B     		ldr	r3, .L517+16
 3497 011a 0093     		str	r3, [sp]
ARM GAS  /tmp/cckhjLjw.s 			page 61


 3498 011c 4FF00073 		mov	r3, #33554432
 3499 0120 FFF7FEFF 		bl	I2C_TransferConfig
 3500 0124 84F84050 		strb	r5, [r4, #64]
 3501 0128 0121     		movs	r1, #1
 3502 012a 2046     		mov	r0, r4
 3503 012c FFF7FEFF 		bl	I2C_Enable_IRQ
 3504 0130 D0E7     		b	.L499
 3505              	.L509:
 3506 0132 0225     		movs	r5, #2
 3507 0134 CEE7     		b	.L499
 3508              	.L518:
 3509 0136 00BF     		.align	2
 3510              	.L517:
 3511 0138 00000000 		.word	I2C_Master_ISR_DMA
 3512 013c 00000000 		.word	I2C_DMAMasterReceiveCplt
 3513 0140 00000000 		.word	I2C_DMAError
 3514 0144 00000000 		.word	I2C_Master_ISR_IT
 3515 0148 00240080 		.word	-2147474432
 3517              		.section	.text.HAL_I2C_Slave_Seq_Transmit_IT,"ax",%progbits
 3518              		.align	1
 3519              		.global	HAL_I2C_Slave_Seq_Transmit_IT
 3520              		.syntax unified
 3521              		.thumb
 3522              		.thumb_func
 3523              		.fpu fpv5-sp-d16
 3525              	HAL_I2C_Slave_Seq_Transmit_IT:
 3526              		@ args = 0, pretend = 0, frame = 0
 3527              		@ frame_needed = 0, uses_anonymous_args = 0
 3528 0000 F8B5     		push	{r3, r4, r5, r6, r7, lr}
 3529 0002 1F46     		mov	r7, r3
 3530 0004 90F84130 		ldrb	r3, [r0, #65]	@ zero_extendqisi2
 3531 0008 0446     		mov	r4, r0
 3532 000a 0E46     		mov	r6, r1
 3533 000c 03F02803 		and	r3, r3, #40
 3534 0010 1546     		mov	r5, r2
 3535 0012 282B     		cmp	r3, #40
 3536 0014 04D1     		bne	.L527
 3537 0016 01B1     		cbz	r1, .L521
 3538 0018 22B9     		cbnz	r2, .L522
 3539              	.L521:
 3540 001a 4FF40073 		mov	r3, #512
 3541 001e 6364     		str	r3, [r4, #68]
 3542              	.L527:
 3543 0020 0120     		movs	r0, #1
 3544 0022 42E0     		b	.L520
 3545              	.L522:
 3546 0024 0521     		movs	r1, #5
 3547 0026 FFF7FEFF 		bl	I2C_Disable_IRQ
 3548 002a 90F84030 		ldrb	r3, [r0, #64]	@ zero_extendqisi2
 3549 002e 012B     		cmp	r3, #1
 3550 0030 3CD0     		beq	.L528
 3551 0032 0123     		movs	r3, #1
 3552 0034 80F84030 		strb	r3, [r0, #64]
 3553 0038 90F84130 		ldrb	r3, [r0, #65]	@ zero_extendqisi2
 3554 003c 2A2B     		cmp	r3, #42
 3555 003e 14D1     		bne	.L524
 3556 0040 0221     		movs	r1, #2
ARM GAS  /tmp/cckhjLjw.s 			page 62


 3557 0042 FFF7FEFF 		bl	I2C_Disable_IRQ
 3558 0046 0368     		ldr	r3, [r0]
 3559 0048 1A68     		ldr	r2, [r3]
 3560 004a 1004     		lsls	r0, r2, #16
 3561 004c 0DD5     		bpl	.L524
 3562 004e 1A68     		ldr	r2, [r3]
 3563 0050 E06B     		ldr	r0, [r4, #60]
 3564 0052 22F40042 		bic	r2, r2, #32768
 3565 0056 1A60     		str	r2, [r3]
 3566 0058 38B1     		cbz	r0, .L524
 3567 005a 154B     		ldr	r3, .L544
 3568 005c 0365     		str	r3, [r0, #80]
 3569 005e FFF7FEFF 		bl	HAL_DMA_Abort_IT
 3570 0062 10B1     		cbz	r0, .L524
 3571 0064 E06B     		ldr	r0, [r4, #60]
 3572 0066 036D     		ldr	r3, [r0, #80]
 3573 0068 9847     		blx	r3
 3574              	.L524:
 3575 006a 2923     		movs	r3, #41
 3576 006c 2268     		ldr	r2, [r4]
 3577 006e 84F84130 		strb	r3, [r4, #65]
 3578 0072 2023     		movs	r3, #32
 3579 0074 84F84230 		strb	r3, [r4, #66]
 3580 0078 0023     		movs	r3, #0
 3581 007a 6364     		str	r3, [r4, #68]
 3582 007c 5168     		ldr	r1, [r2, #4]
 3583 007e 21F40041 		bic	r1, r1, #32768
 3584 0082 5160     		str	r1, [r2, #4]
 3585 0084 6585     		strh	r5, [r4, #42]	@ movhi
 3586 0086 618D     		ldrh	r1, [r4, #42]
 3587 0088 E762     		str	r7, [r4, #44]
 3588 008a 2185     		strh	r1, [r4, #40]	@ movhi
 3589 008c 0949     		ldr	r1, .L544+4
 3590 008e 6662     		str	r6, [r4, #36]
 3591 0090 6163     		str	r1, [r4, #52]
 3592 0092 9169     		ldr	r1, [r2, #24]
 3593 0094 C903     		lsls	r1, r1, #15
 3594 0096 01D5     		bpl	.L526
 3595 0098 0821     		movs	r1, #8
 3596 009a D161     		str	r1, [r2, #28]
 3597              	.L526:
 3598 009c 2046     		mov	r0, r4
 3599 009e 84F84030 		strb	r3, [r4, #64]
 3600 00a2 0521     		movs	r1, #5
 3601 00a4 FFF7FEFF 		bl	I2C_Enable_IRQ
 3602 00a8 0020     		movs	r0, #0
 3603              	.L520:
 3604 00aa F8BD     		pop	{r3, r4, r5, r6, r7, pc}
 3605              	.L528:
 3606 00ac 0220     		movs	r0, #2
 3607 00ae FCE7     		b	.L520
 3608              	.L545:
 3609              		.align	2
 3610              	.L544:
 3611 00b0 00000000 		.word	I2C_DMAAbort
 3612 00b4 00000000 		.word	I2C_Slave_ISR_IT
 3614              		.section	.text.HAL_I2C_Slave_Seq_Transmit_DMA,"ax",%progbits
ARM GAS  /tmp/cckhjLjw.s 			page 63


 3615              		.align	1
 3616              		.global	HAL_I2C_Slave_Seq_Transmit_DMA
 3617              		.syntax unified
 3618              		.thumb
 3619              		.thumb_func
 3620              		.fpu fpv5-sp-d16
 3622              	HAL_I2C_Slave_Seq_Transmit_DMA:
 3623              		@ args = 0, pretend = 0, frame = 0
 3624              		@ frame_needed = 0, uses_anonymous_args = 0
 3625 0000 2DE9F041 		push	{r4, r5, r6, r7, r8, lr}
 3626 0004 1F46     		mov	r7, r3
 3627 0006 90F84130 		ldrb	r3, [r0, #65]	@ zero_extendqisi2
 3628 000a 0446     		mov	r4, r0
 3629 000c 0D46     		mov	r5, r1
 3630 000e 03F02803 		and	r3, r3, #40
 3631 0012 9046     		mov	r8, r2
 3632 0014 282B     		cmp	r3, #40
 3633 0016 04D1     		bne	.L559
 3634 0018 01B1     		cbz	r1, .L548
 3635 001a 22B9     		cbnz	r2, .L549
 3636              	.L548:
 3637 001c 4FF40073 		mov	r3, #512
 3638 0020 6364     		str	r3, [r4, #68]
 3639              	.L559:
 3640 0022 0125     		movs	r5, #1
 3641 0024 8DE0     		b	.L547
 3642              	.L549:
 3643 0026 90F84030 		ldrb	r3, [r0, #64]	@ zero_extendqisi2
 3644 002a 012B     		cmp	r3, #1
 3645 002c 00F08F80 		beq	.L560
 3646 0030 0123     		movs	r3, #1
 3647 0032 0521     		movs	r1, #5
 3648 0034 80F84030 		strb	r3, [r0, #64]
 3649 0038 FFF7FEFF 		bl	I2C_Disable_IRQ
 3650 003c 90F84130 		ldrb	r3, [r0, #65]	@ zero_extendqisi2
 3651 0040 2A2B     		cmp	r3, #42
 3652 0042 45D1     		bne	.L550
 3653 0044 0221     		movs	r1, #2
 3654 0046 FFF7FEFF 		bl	I2C_Disable_IRQ
 3655 004a 0368     		ldr	r3, [r0]
 3656 004c 1A68     		ldr	r2, [r3]
 3657 004e 1004     		lsls	r0, r2, #16
 3658 0050 0DD5     		bpl	.L552
 3659 0052 E06B     		ldr	r0, [r4, #60]
 3660 0054 58B1     		cbz	r0, .L552
 3661 0056 1A68     		ldr	r2, [r3]
 3662 0058 22F40042 		bic	r2, r2, #32768
 3663 005c 1A60     		str	r2, [r3]
 3664 005e 3D4B     		ldr	r3, .L581
 3665 0060 0365     		str	r3, [r0, #80]
 3666 0062 FFF7FEFF 		bl	HAL_DMA_Abort_IT
 3667 0066 10B1     		cbz	r0, .L552
 3668 0068 E06B     		ldr	r0, [r4, #60]
 3669              	.L580:
 3670 006a 036D     		ldr	r3, [r0, #80]
 3671 006c 9847     		blx	r3
 3672              	.L552:
ARM GAS  /tmp/cckhjLjw.s 			page 64


 3673 006e 2923     		movs	r3, #41
 3674 0070 2268     		ldr	r2, [r4]
 3675 0072 0026     		movs	r6, #0
 3676 0074 3849     		ldr	r1, .L581+4
 3677 0076 84F84130 		strb	r3, [r4, #65]
 3678 007a 2023     		movs	r3, #32
 3679 007c A06B     		ldr	r0, [r4, #56]
 3680 007e 84F84230 		strb	r3, [r4, #66]
 3681 0082 6664     		str	r6, [r4, #68]
 3682 0084 5368     		ldr	r3, [r2, #4]
 3683 0086 23F40043 		bic	r3, r3, #32768
 3684 008a 5360     		str	r3, [r2, #4]
 3685 008c A4F82A80 		strh	r8, [r4, #42]	@ movhi
 3686 0090 638D     		ldrh	r3, [r4, #42]
 3687 0092 6562     		str	r5, [r4, #36]
 3688 0094 9BB2     		uxth	r3, r3
 3689 0096 E762     		str	r7, [r4, #44]
 3690 0098 6163     		str	r1, [r4, #52]
 3691 009a 2385     		strh	r3, [r4, #40]	@ movhi
 3692 009c 0028     		cmp	r0, #0
 3693 009e 2ED0     		beq	.L554
 3694 00a0 2E49     		ldr	r1, .L581+8
 3695 00a2 2832     		adds	r2, r2, #40
 3696 00a4 0664     		str	r6, [r0, #64]
 3697 00a6 C163     		str	r1, [r0, #60]
 3698 00a8 2D49     		ldr	r1, .L581+12
 3699 00aa 0665     		str	r6, [r0, #80]
 3700 00ac C164     		str	r1, [r0, #76]
 3701 00ae 2946     		mov	r1, r5
 3702 00b0 FFF7FEFF 		bl	HAL_DMA_Start_IT
 3703 00b4 0546     		mov	r5, r0
 3704 00b6 70B3     		cbz	r0, .L555
 3705 00b8 2823     		movs	r3, #40
 3706 00ba 84F84060 		strb	r6, [r4, #64]
 3707 00be 84F84130 		strb	r3, [r4, #65]
 3708 00c2 84F84260 		strb	r6, [r4, #66]
 3709 00c6 636C     		ldr	r3, [r4, #68]
 3710 00c8 43F01003 		orr	r3, r3, #16
 3711 00cc 6364     		str	r3, [r4, #68]
 3712 00ce A8E7     		b	.L559
 3713              	.L550:
 3714 00d0 90F84130 		ldrb	r3, [r0, #65]	@ zero_extendqisi2
 3715 00d4 292B     		cmp	r3, #41
 3716 00d6 CAD1     		bne	.L552
 3717 00d8 0368     		ldr	r3, [r0]
 3718 00da 1A68     		ldr	r2, [r3]
 3719 00dc 5104     		lsls	r1, r2, #17
 3720 00de C6D5     		bpl	.L552
 3721 00e0 1A68     		ldr	r2, [r3]
 3722 00e2 806B     		ldr	r0, [r0, #56]
 3723 00e4 22F48042 		bic	r2, r2, #16384
 3724 00e8 1A60     		str	r2, [r3]
 3725 00ea 0028     		cmp	r0, #0
 3726 00ec BFD0     		beq	.L552
 3727 00ee 194B     		ldr	r3, .L581
 3728 00f0 0365     		str	r3, [r0, #80]
 3729 00f2 FFF7FEFF 		bl	HAL_DMA_Abort_IT
ARM GAS  /tmp/cckhjLjw.s 			page 65


 3730 00f6 0028     		cmp	r0, #0
 3731 00f8 B9D0     		beq	.L552
 3732 00fa A06B     		ldr	r0, [r4, #56]
 3733 00fc B5E7     		b	.L580
 3734              	.L554:
 3735 00fe 2823     		movs	r3, #40
 3736 0100 84F84000 		strb	r0, [r4, #64]
 3737 0104 84F84130 		strb	r3, [r4, #65]
 3738 0108 84F84200 		strb	r0, [r4, #66]
 3739 010c 636C     		ldr	r3, [r4, #68]
 3740 010e 43F08003 		orr	r3, r3, #128
 3741 0112 6364     		str	r3, [r4, #68]
 3742 0114 85E7     		b	.L559
 3743              	.L555:
 3744 0116 638D     		ldrh	r3, [r4, #42]
 3745 0118 228D     		ldrh	r2, [r4, #40]
 3746 011a 2085     		strh	r0, [r4, #40]	@ movhi
 3747 011c 9B1A     		subs	r3, r3, r2
 3748 011e 9BB2     		uxth	r3, r3
 3749 0120 6385     		strh	r3, [r4, #42]	@ movhi
 3750 0122 2368     		ldr	r3, [r4]
 3751 0124 9A69     		ldr	r2, [r3, #24]
 3752 0126 D203     		lsls	r2, r2, #15
 3753 0128 0ED4     		bmi	.L557
 3754              	.L558:
 3755 012a 0023     		movs	r3, #0
 3756 012c 0421     		movs	r1, #4
 3757 012e 2046     		mov	r0, r4
 3758 0130 84F84030 		strb	r3, [r4, #64]
 3759 0134 FFF7FEFF 		bl	I2C_Enable_IRQ
 3760 0138 2268     		ldr	r2, [r4]
 3761 013a 1368     		ldr	r3, [r2]
 3762 013c 43F48043 		orr	r3, r3, #16384
 3763 0140 1360     		str	r3, [r2]
 3764              	.L547:
 3765 0142 2846     		mov	r0, r5
 3766 0144 BDE8F081 		pop	{r4, r5, r6, r7, r8, pc}
 3767              	.L557:
 3768 0148 0822     		movs	r2, #8
 3769 014a DA61     		str	r2, [r3, #28]
 3770 014c EDE7     		b	.L558
 3771              	.L560:
 3772 014e 0225     		movs	r5, #2
 3773 0150 F7E7     		b	.L547
 3774              	.L582:
 3775 0152 00BF     		.align	2
 3776              	.L581:
 3777 0154 00000000 		.word	I2C_DMAAbort
 3778 0158 00000000 		.word	I2C_Slave_ISR_DMA
 3779 015c 00000000 		.word	I2C_DMASlaveTransmitCplt
 3780 0160 00000000 		.word	I2C_DMAError
 3782              		.section	.text.HAL_I2C_Slave_Seq_Receive_IT,"ax",%progbits
 3783              		.align	1
 3784              		.global	HAL_I2C_Slave_Seq_Receive_IT
 3785              		.syntax unified
 3786              		.thumb
 3787              		.thumb_func
ARM GAS  /tmp/cckhjLjw.s 			page 66


 3788              		.fpu fpv5-sp-d16
 3790              	HAL_I2C_Slave_Seq_Receive_IT:
 3791              		@ args = 0, pretend = 0, frame = 0
 3792              		@ frame_needed = 0, uses_anonymous_args = 0
 3793 0000 F8B5     		push	{r3, r4, r5, r6, r7, lr}
 3794 0002 1F46     		mov	r7, r3
 3795 0004 90F84130 		ldrb	r3, [r0, #65]	@ zero_extendqisi2
 3796 0008 0446     		mov	r4, r0
 3797 000a 0E46     		mov	r6, r1
 3798 000c 03F02803 		and	r3, r3, #40
 3799 0010 1546     		mov	r5, r2
 3800 0012 282B     		cmp	r3, #40
 3801 0014 04D1     		bne	.L591
 3802 0016 01B1     		cbz	r1, .L585
 3803 0018 22B9     		cbnz	r2, .L586
 3804              	.L585:
 3805 001a 4FF40073 		mov	r3, #512
 3806 001e 6364     		str	r3, [r4, #68]
 3807              	.L591:
 3808 0020 0120     		movs	r0, #1
 3809 0022 41E0     		b	.L584
 3810              	.L586:
 3811 0024 0621     		movs	r1, #6
 3812 0026 FFF7FEFF 		bl	I2C_Disable_IRQ
 3813 002a 90F84030 		ldrb	r3, [r0, #64]	@ zero_extendqisi2
 3814 002e 012B     		cmp	r3, #1
 3815 0030 3BD0     		beq	.L592
 3816 0032 90F84130 		ldrb	r3, [r0, #65]	@ zero_extendqisi2
 3817 0036 0121     		movs	r1, #1
 3818 0038 292B     		cmp	r3, #41
 3819 003a 80F84010 		strb	r1, [r0, #64]
 3820 003e 13D1     		bne	.L588
 3821 0040 FFF7FEFF 		bl	I2C_Disable_IRQ
 3822 0044 0368     		ldr	r3, [r0]
 3823 0046 1A68     		ldr	r2, [r3]
 3824 0048 5004     		lsls	r0, r2, #17
 3825 004a 0DD5     		bpl	.L588
 3826 004c 1A68     		ldr	r2, [r3]
 3827 004e A06B     		ldr	r0, [r4, #56]
 3828 0050 22F48042 		bic	r2, r2, #16384
 3829 0054 1A60     		str	r2, [r3]
 3830 0056 38B1     		cbz	r0, .L588
 3831 0058 154B     		ldr	r3, .L605
 3832 005a 0365     		str	r3, [r0, #80]
 3833 005c FFF7FEFF 		bl	HAL_DMA_Abort_IT
 3834 0060 10B1     		cbz	r0, .L588
 3835 0062 A06B     		ldr	r0, [r4, #56]
 3836 0064 036D     		ldr	r3, [r0, #80]
 3837 0066 9847     		blx	r3
 3838              	.L588:
 3839 0068 2A23     		movs	r3, #42
 3840 006a 2268     		ldr	r2, [r4]
 3841 006c 84F84130 		strb	r3, [r4, #65]
 3842 0070 2023     		movs	r3, #32
 3843 0072 84F84230 		strb	r3, [r4, #66]
 3844 0076 0023     		movs	r3, #0
 3845 0078 6364     		str	r3, [r4, #68]
ARM GAS  /tmp/cckhjLjw.s 			page 67


 3846 007a 5168     		ldr	r1, [r2, #4]
 3847 007c 21F40041 		bic	r1, r1, #32768
 3848 0080 5160     		str	r1, [r2, #4]
 3849 0082 6585     		strh	r5, [r4, #42]	@ movhi
 3850 0084 618D     		ldrh	r1, [r4, #42]
 3851 0086 E762     		str	r7, [r4, #44]
 3852 0088 2185     		strh	r1, [r4, #40]	@ movhi
 3853 008a 0A49     		ldr	r1, .L605+4
 3854 008c 6662     		str	r6, [r4, #36]
 3855 008e 6163     		str	r1, [r4, #52]
 3856 0090 9169     		ldr	r1, [r2, #24]
 3857 0092 C903     		lsls	r1, r1, #15
 3858 0094 01D4     		bmi	.L590
 3859 0096 0821     		movs	r1, #8
 3860 0098 D161     		str	r1, [r2, #28]
 3861              	.L590:
 3862 009a 2046     		mov	r0, r4
 3863 009c 84F84030 		strb	r3, [r4, #64]
 3864 00a0 0621     		movs	r1, #6
 3865 00a2 FFF7FEFF 		bl	I2C_Enable_IRQ
 3866 00a6 0020     		movs	r0, #0
 3867              	.L584:
 3868 00a8 F8BD     		pop	{r3, r4, r5, r6, r7, pc}
 3869              	.L592:
 3870 00aa 0220     		movs	r0, #2
 3871 00ac FCE7     		b	.L584
 3872              	.L606:
 3873 00ae 00BF     		.align	2
 3874              	.L605:
 3875 00b0 00000000 		.word	I2C_DMAAbort
 3876 00b4 00000000 		.word	I2C_Slave_ISR_IT
 3878              		.section	.text.HAL_I2C_Slave_Seq_Receive_DMA,"ax",%progbits
 3879              		.align	1
 3880              		.global	HAL_I2C_Slave_Seq_Receive_DMA
 3881              		.syntax unified
 3882              		.thumb
 3883              		.thumb_func
 3884              		.fpu fpv5-sp-d16
 3886              	HAL_I2C_Slave_Seq_Receive_DMA:
 3887              		@ args = 0, pretend = 0, frame = 0
 3888              		@ frame_needed = 0, uses_anonymous_args = 0
 3889 0000 2DE9F041 		push	{r4, r5, r6, r7, r8, lr}
 3890 0004 1F46     		mov	r7, r3
 3891 0006 90F84130 		ldrb	r3, [r0, #65]	@ zero_extendqisi2
 3892 000a 0446     		mov	r4, r0
 3893 000c 0D46     		mov	r5, r1
 3894 000e 03F02803 		and	r3, r3, #40
 3895 0012 9046     		mov	r8, r2
 3896 0014 282B     		cmp	r3, #40
 3897 0016 04D1     		bne	.L620
 3898 0018 01B1     		cbz	r1, .L609
 3899 001a 22B9     		cbnz	r2, .L610
 3900              	.L609:
 3901 001c 4FF40073 		mov	r3, #512
 3902 0020 6364     		str	r3, [r4, #68]
 3903              	.L620:
 3904 0022 0125     		movs	r5, #1
ARM GAS  /tmp/cckhjLjw.s 			page 68


 3905 0024 8CE0     		b	.L608
 3906              	.L610:
 3907 0026 0621     		movs	r1, #6
 3908 0028 FFF7FEFF 		bl	I2C_Disable_IRQ
 3909 002c 90F84030 		ldrb	r3, [r0, #64]	@ zero_extendqisi2
 3910 0030 012B     		cmp	r3, #1
 3911 0032 00F08B80 		beq	.L621
 3912 0036 90F84130 		ldrb	r3, [r0, #65]	@ zero_extendqisi2
 3913 003a 0121     		movs	r1, #1
 3914 003c 292B     		cmp	r3, #41
 3915 003e 80F84010 		strb	r1, [r0, #64]
 3916 0042 44D1     		bne	.L611
 3917 0044 FFF7FEFF 		bl	I2C_Disable_IRQ
 3918 0048 0368     		ldr	r3, [r0]
 3919 004a 1A68     		ldr	r2, [r3]
 3920 004c 5004     		lsls	r0, r2, #17
 3921 004e 0DD5     		bpl	.L613
 3922 0050 A06B     		ldr	r0, [r4, #56]
 3923 0052 58B1     		cbz	r0, .L613
 3924 0054 1A68     		ldr	r2, [r3]
 3925 0056 22F48042 		bic	r2, r2, #16384
 3926 005a 1A60     		str	r2, [r3]
 3927 005c 3C4B     		ldr	r3, .L642
 3928 005e 0365     		str	r3, [r0, #80]
 3929 0060 FFF7FEFF 		bl	HAL_DMA_Abort_IT
 3930 0064 10B1     		cbz	r0, .L613
 3931 0066 A06B     		ldr	r0, [r4, #56]
 3932              	.L641:
 3933 0068 036D     		ldr	r3, [r0, #80]
 3934 006a 9847     		blx	r3
 3935              	.L613:
 3936 006c 2A23     		movs	r3, #42
 3937 006e 2168     		ldr	r1, [r4]
 3938 0070 0026     		movs	r6, #0
 3939 0072 384A     		ldr	r2, .L642+4
 3940 0074 84F84130 		strb	r3, [r4, #65]
 3941 0078 2023     		movs	r3, #32
 3942 007a E06B     		ldr	r0, [r4, #60]
 3943 007c 84F84230 		strb	r3, [r4, #66]
 3944 0080 6664     		str	r6, [r4, #68]
 3945 0082 4B68     		ldr	r3, [r1, #4]
 3946 0084 23F40043 		bic	r3, r3, #32768
 3947 0088 4B60     		str	r3, [r1, #4]
 3948 008a A4F82A80 		strh	r8, [r4, #42]	@ movhi
 3949 008e 638D     		ldrh	r3, [r4, #42]
 3950 0090 6562     		str	r5, [r4, #36]
 3951 0092 9BB2     		uxth	r3, r3
 3952 0094 E762     		str	r7, [r4, #44]
 3953 0096 6263     		str	r2, [r4, #52]
 3954 0098 2385     		strh	r3, [r4, #40]	@ movhi
 3955 009a 0028     		cmp	r0, #0
 3956 009c 2ED0     		beq	.L615
 3957 009e 2E4A     		ldr	r2, .L642+8
 3958 00a0 2431     		adds	r1, r1, #36
 3959 00a2 0664     		str	r6, [r0, #64]
 3960 00a4 C263     		str	r2, [r0, #60]
 3961 00a6 2D4A     		ldr	r2, .L642+12
ARM GAS  /tmp/cckhjLjw.s 			page 69


 3962 00a8 0665     		str	r6, [r0, #80]
 3963 00aa C264     		str	r2, [r0, #76]
 3964 00ac 2A46     		mov	r2, r5
 3965 00ae FFF7FEFF 		bl	HAL_DMA_Start_IT
 3966 00b2 0546     		mov	r5, r0
 3967 00b4 70B3     		cbz	r0, .L616
 3968 00b6 2823     		movs	r3, #40
 3969 00b8 84F84060 		strb	r6, [r4, #64]
 3970 00bc 84F84130 		strb	r3, [r4, #65]
 3971 00c0 84F84260 		strb	r6, [r4, #66]
 3972 00c4 636C     		ldr	r3, [r4, #68]
 3973 00c6 43F01003 		orr	r3, r3, #16
 3974 00ca 6364     		str	r3, [r4, #68]
 3975 00cc A9E7     		b	.L620
 3976              	.L611:
 3977 00ce 90F84130 		ldrb	r3, [r0, #65]	@ zero_extendqisi2
 3978 00d2 2A2B     		cmp	r3, #42
 3979 00d4 CAD1     		bne	.L613
 3980 00d6 0368     		ldr	r3, [r0]
 3981 00d8 1A68     		ldr	r2, [r3]
 3982 00da 1104     		lsls	r1, r2, #16
 3983 00dc C6D5     		bpl	.L613
 3984 00de 1A68     		ldr	r2, [r3]
 3985 00e0 C06B     		ldr	r0, [r0, #60]
 3986 00e2 22F40042 		bic	r2, r2, #32768
 3987 00e6 1A60     		str	r2, [r3]
 3988 00e8 0028     		cmp	r0, #0
 3989 00ea BFD0     		beq	.L613
 3990 00ec 184B     		ldr	r3, .L642
 3991 00ee 0365     		str	r3, [r0, #80]
 3992 00f0 FFF7FEFF 		bl	HAL_DMA_Abort_IT
 3993 00f4 0028     		cmp	r0, #0
 3994 00f6 B9D0     		beq	.L613
 3995 00f8 E06B     		ldr	r0, [r4, #60]
 3996 00fa B5E7     		b	.L641
 3997              	.L615:
 3998 00fc 2823     		movs	r3, #40
 3999 00fe 84F84000 		strb	r0, [r4, #64]
 4000 0102 84F84130 		strb	r3, [r4, #65]
 4001 0106 84F84200 		strb	r0, [r4, #66]
 4002 010a 636C     		ldr	r3, [r4, #68]
 4003 010c 43F08003 		orr	r3, r3, #128
 4004 0110 6364     		str	r3, [r4, #68]
 4005 0112 86E7     		b	.L620
 4006              	.L616:
 4007 0114 638D     		ldrh	r3, [r4, #42]
 4008 0116 228D     		ldrh	r2, [r4, #40]
 4009 0118 2085     		strh	r0, [r4, #40]	@ movhi
 4010 011a 9B1A     		subs	r3, r3, r2
 4011 011c 9BB2     		uxth	r3, r3
 4012 011e 6385     		strh	r3, [r4, #42]	@ movhi
 4013 0120 2368     		ldr	r3, [r4]
 4014 0122 9A69     		ldr	r2, [r3, #24]
 4015 0124 D203     		lsls	r2, r2, #15
 4016 0126 0ED5     		bpl	.L618
 4017              	.L619:
 4018 0128 0023     		movs	r3, #0
ARM GAS  /tmp/cckhjLjw.s 			page 70


 4019 012a 0621     		movs	r1, #6
 4020 012c 2046     		mov	r0, r4
 4021 012e 84F84030 		strb	r3, [r4, #64]
 4022 0132 FFF7FEFF 		bl	I2C_Enable_IRQ
 4023 0136 2268     		ldr	r2, [r4]
 4024 0138 1368     		ldr	r3, [r2]
 4025 013a 43F40043 		orr	r3, r3, #32768
 4026 013e 1360     		str	r3, [r2]
 4027              	.L608:
 4028 0140 2846     		mov	r0, r5
 4029 0142 BDE8F081 		pop	{r4, r5, r6, r7, r8, pc}
 4030              	.L618:
 4031 0146 0822     		movs	r2, #8
 4032 0148 DA61     		str	r2, [r3, #28]
 4033 014a EDE7     		b	.L619
 4034              	.L621:
 4035 014c 0225     		movs	r5, #2
 4036 014e F7E7     		b	.L608
 4037              	.L643:
 4038              		.align	2
 4039              	.L642:
 4040 0150 00000000 		.word	I2C_DMAAbort
 4041 0154 00000000 		.word	I2C_Slave_ISR_DMA
 4042 0158 00000000 		.word	I2C_DMASlaveReceiveCplt
 4043 015c 00000000 		.word	I2C_DMAError
 4045              		.section	.text.HAL_I2C_EnableListen_IT,"ax",%progbits
 4046              		.align	1
 4047              		.global	HAL_I2C_EnableListen_IT
 4048              		.syntax unified
 4049              		.thumb
 4050              		.thumb_func
 4051              		.fpu fpv5-sp-d16
 4053              	HAL_I2C_EnableListen_IT:
 4054              		@ args = 0, pretend = 0, frame = 0
 4055              		@ frame_needed = 0, uses_anonymous_args = 0
 4056 0000 90F84120 		ldrb	r2, [r0, #65]	@ zero_extendqisi2
 4057 0004 202A     		cmp	r2, #32
 4058 0006 08B5     		push	{r3, lr}
 4059 0008 09D1     		bne	.L646
 4060 000a 2822     		movs	r2, #40
 4061 000c 0421     		movs	r1, #4
 4062 000e 80F84120 		strb	r2, [r0, #65]
 4063 0012 044A     		ldr	r2, .L647
 4064 0014 4263     		str	r2, [r0, #52]
 4065 0016 FFF7FEFF 		bl	I2C_Enable_IRQ
 4066 001a 0020     		movs	r0, #0
 4067              	.L645:
 4068 001c 08BD     		pop	{r3, pc}
 4069              	.L646:
 4070 001e 0220     		movs	r0, #2
 4071 0020 FCE7     		b	.L645
 4072              	.L648:
 4073 0022 00BF     		.align	2
 4074              	.L647:
 4075 0024 00000000 		.word	I2C_Slave_ISR_IT
 4077              		.section	.text.HAL_I2C_DisableListen_IT,"ax",%progbits
 4078              		.align	1
ARM GAS  /tmp/cckhjLjw.s 			page 71


 4079              		.global	HAL_I2C_DisableListen_IT
 4080              		.syntax unified
 4081              		.thumb
 4082              		.thumb_func
 4083              		.fpu fpv5-sp-d16
 4085              	HAL_I2C_DisableListen_IT:
 4086              		@ args = 0, pretend = 0, frame = 0
 4087              		@ frame_needed = 0, uses_anonymous_args = 0
 4088 0000 90F84120 		ldrb	r2, [r0, #65]	@ zero_extendqisi2
 4089 0004 282A     		cmp	r2, #40
 4090 0006 10B5     		push	{r4, lr}
 4091 0008 13D1     		bne	.L651
 4092 000a 90F84110 		ldrb	r1, [r0, #65]	@ zero_extendqisi2
 4093 000e 0024     		movs	r4, #0
 4094 0010 90F84220 		ldrb	r2, [r0, #66]	@ zero_extendqisi2
 4095 0014 01F00301 		and	r1, r1, #3
 4096 0018 4463     		str	r4, [r0, #52]
 4097 001a 0A43     		orrs	r2, r2, r1
 4098 001c 0421     		movs	r1, #4
 4099 001e 0263     		str	r2, [r0, #48]
 4100 0020 2022     		movs	r2, #32
 4101 0022 80F84120 		strb	r2, [r0, #65]
 4102 0026 80F84240 		strb	r4, [r0, #66]
 4103 002a FFF7FEFF 		bl	I2C_Disable_IRQ
 4104 002e 2046     		mov	r0, r4
 4105              	.L650:
 4106 0030 10BD     		pop	{r4, pc}
 4107              	.L651:
 4108 0032 0220     		movs	r0, #2
 4109 0034 FCE7     		b	.L650
 4111              		.section	.text.HAL_I2C_Master_Abort_IT,"ax",%progbits
 4112              		.align	1
 4113              		.global	HAL_I2C_Master_Abort_IT
 4114              		.syntax unified
 4115              		.thumb
 4116              		.thumb_func
 4117              		.fpu fpv5-sp-d16
 4119              	HAL_I2C_Master_Abort_IT:
 4120              		@ args = 0, pretend = 0, frame = 0
 4121              		@ frame_needed = 0, uses_anonymous_args = 0
 4122 0000 90F84230 		ldrb	r3, [r0, #66]	@ zero_extendqisi2
 4123 0004 102B     		cmp	r3, #16
 4124 0006 73B5     		push	{r0, r1, r4, r5, r6, lr}
 4125 0008 0446     		mov	r4, r0
 4126 000a 0E46     		mov	r6, r1
 4127 000c 21D1     		bne	.L654
 4128 000e 90F84030 		ldrb	r3, [r0, #64]	@ zero_extendqisi2
 4129 0012 012B     		cmp	r3, #1
 4130 0014 1FD0     		beq	.L655
 4131 0016 0125     		movs	r5, #1
 4132 0018 0221     		movs	r1, #2
 4133 001a 80F84050 		strb	r5, [r0, #64]
 4134 001e FFF7FEFF 		bl	I2C_Disable_IRQ
 4135 0022 2946     		mov	r1, r5
 4136 0024 FFF7FEFF 		bl	I2C_Disable_IRQ
 4137 0028 6023     		movs	r3, #96
 4138 002a 2A46     		mov	r2, r5
ARM GAS  /tmp/cckhjLjw.s 			page 72


 4139 002c 0025     		movs	r5, #0
 4140 002e 80F84130 		strb	r3, [r0, #65]
 4141 0032 3146     		mov	r1, r6
 4142 0034 094B     		ldr	r3, .L656
 4143 0036 0093     		str	r3, [sp]
 4144 0038 4FF00073 		mov	r3, #33554432
 4145 003c FFF7FEFF 		bl	I2C_TransferConfig
 4146 0040 2046     		mov	r0, r4
 4147 0042 84F84050 		strb	r5, [r4, #64]
 4148 0046 1221     		movs	r1, #18
 4149 0048 FFF7FEFF 		bl	I2C_Enable_IRQ
 4150 004c 2846     		mov	r0, r5
 4151              	.L653:
 4152 004e 02B0     		add	sp, sp, #8
 4153              		@ sp needed
 4154 0050 70BD     		pop	{r4, r5, r6, pc}
 4155              	.L654:
 4156 0052 0120     		movs	r0, #1
 4157 0054 FBE7     		b	.L653
 4158              	.L655:
 4159 0056 0220     		movs	r0, #2
 4160 0058 F9E7     		b	.L653
 4161              	.L657:
 4162 005a 00BF     		.align	2
 4163              	.L656:
 4164 005c 00400080 		.word	-2147467264
 4166              		.section	.text.HAL_I2C_EV_IRQHandler,"ax",%progbits
 4167              		.align	1
 4168              		.global	HAL_I2C_EV_IRQHandler
 4169              		.syntax unified
 4170              		.thumb
 4171              		.thumb_func
 4172              		.fpu fpv5-sp-d16
 4174              	HAL_I2C_EV_IRQHandler:
 4175              		@ args = 0, pretend = 0, frame = 0
 4176              		@ frame_needed = 0, uses_anonymous_args = 0
 4177              		@ link register save eliminated.
 4178 0000 0268     		ldr	r2, [r0]
 4179 0002 436B     		ldr	r3, [r0, #52]
 4180 0004 9169     		ldr	r1, [r2, #24]
 4181 0006 1268     		ldr	r2, [r2]
 4182 0008 03B1     		cbz	r3, .L658
 4183 000a 1847     		bx	r3
 4184              	.L658:
 4185 000c 7047     		bx	lr
 4187              		.section	.text.HAL_I2C_MasterTxCpltCallback,"ax",%progbits
 4188              		.align	1
 4189              		.weak	HAL_I2C_MasterTxCpltCallback
 4190              		.syntax unified
 4191              		.thumb
 4192              		.thumb_func
 4193              		.fpu fpv5-sp-d16
 4195              	HAL_I2C_MasterTxCpltCallback:
 4196              		@ args = 0, pretend = 0, frame = 0
 4197              		@ frame_needed = 0, uses_anonymous_args = 0
 4198              		@ link register save eliminated.
 4199 0000 7047     		bx	lr
ARM GAS  /tmp/cckhjLjw.s 			page 73


 4201              		.section	.text.HAL_I2C_MasterRxCpltCallback,"ax",%progbits
 4202              		.align	1
 4203              		.weak	HAL_I2C_MasterRxCpltCallback
 4204              		.syntax unified
 4205              		.thumb
 4206              		.thumb_func
 4207              		.fpu fpv5-sp-d16
 4209              	HAL_I2C_MasterRxCpltCallback:
 4210              		@ args = 0, pretend = 0, frame = 0
 4211              		@ frame_needed = 0, uses_anonymous_args = 0
 4212              		@ link register save eliminated.
 4213 0000 7047     		bx	lr
 4215              		.section	.text.I2C_ITMasterSeqCplt,"ax",%progbits
 4216              		.align	1
 4217              		.syntax unified
 4218              		.thumb
 4219              		.thumb_func
 4220              		.fpu fpv5-sp-d16
 4222              	I2C_ITMasterSeqCplt:
 4223              		@ args = 0, pretend = 0, frame = 0
 4224              		@ frame_needed = 0, uses_anonymous_args = 0
 4225 0000 38B5     		push	{r3, r4, r5, lr}
 4226 0002 0025     		movs	r5, #0
 4227 0004 80F84250 		strb	r5, [r0, #66]
 4228 0008 90F84130 		ldrb	r3, [r0, #65]	@ zero_extendqisi2
 4229 000c 212B     		cmp	r3, #33
 4230 000e 4FF02003 		mov	r3, #32
 4231 0012 80F84130 		strb	r3, [r0, #65]
 4232 0016 0AD1     		bne	.L663
 4233 0018 1123     		movs	r3, #17
 4234 001a 4563     		str	r5, [r0, #52]
 4235 001c 0121     		movs	r1, #1
 4236 001e 0363     		str	r3, [r0, #48]
 4237 0020 FFF7FEFF 		bl	I2C_Disable_IRQ
 4238 0024 80F84050 		strb	r5, [r0, #64]
 4239 0028 FFF7FEFF 		bl	HAL_I2C_MasterTxCpltCallback
 4240              	.L662:
 4241 002c 38BD     		pop	{r3, r4, r5, pc}
 4242              	.L663:
 4243 002e 1223     		movs	r3, #18
 4244 0030 4563     		str	r5, [r0, #52]
 4245 0032 0221     		movs	r1, #2
 4246 0034 0363     		str	r3, [r0, #48]
 4247 0036 FFF7FEFF 		bl	I2C_Disable_IRQ
 4248 003a 80F84050 		strb	r5, [r0, #64]
 4249 003e FFF7FEFF 		bl	HAL_I2C_MasterRxCpltCallback
 4250 0042 F3E7     		b	.L662
 4252              		.section	.text.HAL_I2C_SlaveTxCpltCallback,"ax",%progbits
 4253              		.align	1
 4254              		.weak	HAL_I2C_SlaveTxCpltCallback
 4255              		.syntax unified
 4256              		.thumb
 4257              		.thumb_func
 4258              		.fpu fpv5-sp-d16
 4260              	HAL_I2C_SlaveTxCpltCallback:
 4261              		@ args = 0, pretend = 0, frame = 0
 4262              		@ frame_needed = 0, uses_anonymous_args = 0
ARM GAS  /tmp/cckhjLjw.s 			page 74


 4263              		@ link register save eliminated.
 4264 0000 7047     		bx	lr
 4266              		.section	.text.HAL_I2C_SlaveRxCpltCallback,"ax",%progbits
 4267              		.align	1
 4268              		.weak	HAL_I2C_SlaveRxCpltCallback
 4269              		.syntax unified
 4270              		.thumb
 4271              		.thumb_func
 4272              		.fpu fpv5-sp-d16
 4274              	HAL_I2C_SlaveRxCpltCallback:
 4275              		@ args = 0, pretend = 0, frame = 0
 4276              		@ frame_needed = 0, uses_anonymous_args = 0
 4277              		@ link register save eliminated.
 4278 0000 7047     		bx	lr
 4280              		.section	.text.I2C_ITSlaveSeqCplt,"ax",%progbits
 4281              		.align	1
 4282              		.syntax unified
 4283              		.thumb
 4284              		.thumb_func
 4285              		.fpu fpv5-sp-d16
 4287              	I2C_ITSlaveSeqCplt:
 4288              		@ args = 0, pretend = 0, frame = 0
 4289              		@ frame_needed = 0, uses_anonymous_args = 0
 4290 0000 38B5     		push	{r3, r4, r5, lr}
 4291 0002 0025     		movs	r5, #0
 4292 0004 80F84250 		strb	r5, [r0, #66]
 4293 0008 90F84130 		ldrb	r3, [r0, #65]	@ zero_extendqisi2
 4294 000c 292B     		cmp	r3, #41
 4295 000e 0CD1     		bne	.L668
 4296 0010 2823     		movs	r3, #40
 4297 0012 0121     		movs	r1, #1
 4298 0014 80F84130 		strb	r3, [r0, #65]
 4299 0018 2123     		movs	r3, #33
 4300 001a 0363     		str	r3, [r0, #48]
 4301 001c FFF7FEFF 		bl	I2C_Disable_IRQ
 4302 0020 80F84050 		strb	r5, [r0, #64]
 4303 0024 FFF7FEFF 		bl	HAL_I2C_SlaveTxCpltCallback
 4304              	.L667:
 4305 0028 38BD     		pop	{r3, r4, r5, pc}
 4306              	.L668:
 4307 002a 90F84130 		ldrb	r3, [r0, #65]	@ zero_extendqisi2
 4308 002e 2A2B     		cmp	r3, #42
 4309 0030 FAD1     		bne	.L667
 4310 0032 2823     		movs	r3, #40
 4311 0034 0221     		movs	r1, #2
 4312 0036 80F84130 		strb	r3, [r0, #65]
 4313 003a 2223     		movs	r3, #34
 4314 003c 0363     		str	r3, [r0, #48]
 4315 003e FFF7FEFF 		bl	I2C_Disable_IRQ
 4316 0042 80F84050 		strb	r5, [r0, #64]
 4317 0046 FFF7FEFF 		bl	HAL_I2C_SlaveRxCpltCallback
 4318 004a EDE7     		b	.L667
 4320              		.section	.text.I2C_DMASlaveTransmitCplt,"ax",%progbits
 4321              		.align	1
 4322              		.syntax unified
 4323              		.thumb
 4324              		.thumb_func
ARM GAS  /tmp/cckhjLjw.s 			page 75


 4325              		.fpu fpv5-sp-d16
 4327              	I2C_DMASlaveTransmitCplt:
 4328              		@ args = 0, pretend = 0, frame = 0
 4329              		@ frame_needed = 0, uses_anonymous_args = 0
 4330              		@ link register save eliminated.
 4331 0000 806B     		ldr	r0, [r0, #56]
 4332 0002 C36A     		ldr	r3, [r0, #44]
 4333 0004 33F08073 		bics	r3, r3, #16777216
 4334 0008 06D1     		bne	.L670
 4335 000a 0268     		ldr	r2, [r0]
 4336 000c 1368     		ldr	r3, [r2]
 4337 000e 23F48043 		bic	r3, r3, #16384
 4338 0012 1360     		str	r3, [r2]
 4339 0014 FFF7FEBF 		b	I2C_ITSlaveSeqCplt
 4340              	.L670:
 4341 0018 7047     		bx	lr
 4343              		.section	.text.I2C_DMASlaveReceiveCplt,"ax",%progbits
 4344              		.align	1
 4345              		.syntax unified
 4346              		.thumb
 4347              		.thumb_func
 4348              		.fpu fpv5-sp-d16
 4350              	I2C_DMASlaveReceiveCplt:
 4351              		@ args = 0, pretend = 0, frame = 0
 4352              		@ frame_needed = 0, uses_anonymous_args = 0
 4353              		@ link register save eliminated.
 4354 0000 806B     		ldr	r0, [r0, #56]
 4355 0002 C26B     		ldr	r2, [r0, #60]
 4356 0004 C36A     		ldr	r3, [r0, #44]
 4357 0006 1268     		ldr	r2, [r2]
 4358 0008 5268     		ldr	r2, [r2, #4]
 4359 000a 4AB9     		cbnz	r2, .L672
 4360 000c 13F5803F 		cmn	r3, #65536
 4361 0010 06D0     		beq	.L672
 4362 0012 0268     		ldr	r2, [r0]
 4363 0014 1368     		ldr	r3, [r2]
 4364 0016 23F40043 		bic	r3, r3, #32768
 4365 001a 1360     		str	r3, [r2]
 4366 001c FFF7FEBF 		b	I2C_ITSlaveSeqCplt
 4367              	.L672:
 4368 0020 7047     		bx	lr
 4370              		.section	.text.HAL_I2C_AddrCallback,"ax",%progbits
 4371              		.align	1
 4372              		.weak	HAL_I2C_AddrCallback
 4373              		.syntax unified
 4374              		.thumb
 4375              		.thumb_func
 4376              		.fpu fpv5-sp-d16
 4378              	HAL_I2C_AddrCallback:
 4379              		@ args = 0, pretend = 0, frame = 0
 4380              		@ frame_needed = 0, uses_anonymous_args = 0
 4381              		@ link register save eliminated.
 4382 0000 7047     		bx	lr
 4384              		.section	.text.I2C_ITAddrCplt.isra.9,"ax",%progbits
 4385              		.align	1
 4386              		.syntax unified
 4387              		.thumb
ARM GAS  /tmp/cckhjLjw.s 			page 76


 4388              		.thumb_func
 4389              		.fpu fpv5-sp-d16
 4391              	I2C_ITAddrCplt.isra.9:
 4392              		@ args = 0, pretend = 0, frame = 0
 4393              		@ frame_needed = 0, uses_anonymous_args = 0
 4394 0000 90F84120 		ldrb	r2, [r0, #65]	@ zero_extendqisi2
 4395 0004 02F02802 		and	r2, r2, #40
 4396 0008 282A     		cmp	r2, #40
 4397 000a F8B5     		push	{r3, r4, r5, r6, r7, lr}
 4398 000c 0446     		mov	r4, r0
 4399 000e 0368     		ldr	r3, [r0]
 4400 0010 35D1     		bne	.L679
 4401 0012 9E69     		ldr	r6, [r3, #24]
 4402 0014 C168     		ldr	r1, [r0, #12]
 4403 0016 9D69     		ldr	r5, [r3, #24]
 4404 0018 C6F30046 		ubfx	r6, r6, #16, #1
 4405 001c 0229     		cmp	r1, #2
 4406 001e 9A68     		ldr	r2, [r3, #8]
 4407 0020 4FEA1545 		lsr	r5, r5, #16
 4408 0024 DF68     		ldr	r7, [r3, #12]
 4409 0026 05F0FE05 		and	r5, r5, #254
 4410 002a 20D1     		bne	.L680
 4411 002c C2F30902 		ubfx	r2, r2, #0, #10
 4412 0030 85EAD215 		eor	r5, r5, r2, lsr #7
 4413 0034 15F00605 		ands	r5, r5, #6
 4414 0038 0ED1     		bne	.L681
 4415 003a 816C     		ldr	r1, [r0, #72]
 4416 003c 0131     		adds	r1, r1, #1
 4417 003e 8164     		str	r1, [r0, #72]
 4418 0040 816C     		ldr	r1, [r0, #72]
 4419 0042 0229     		cmp	r1, #2
 4420 0044 07D1     		bne	.L678
 4421 0046 0821     		movs	r1, #8
 4422 0048 8564     		str	r5, [r0, #72]
 4423 004a D961     		str	r1, [r3, #28]
 4424 004c 3146     		mov	r1, r6
 4425 004e 80F84050 		strb	r5, [r0, #64]
 4426              	.L684:
 4427 0052 FFF7FEFF 		bl	HAL_I2C_AddrCallback
 4428              	.L678:
 4429 0056 F8BD     		pop	{r3, r4, r5, r6, r7, pc}
 4430              	.L681:
 4431 0058 0421     		movs	r1, #4
 4432 005a FFF7FEFF 		bl	I2C_Disable_IRQ
 4433 005e 0023     		movs	r3, #0
 4434 0060 07F0FE02 		and	r2, r7, #254
 4435 0064 80F84030 		strb	r3, [r0, #64]
 4436              	.L683:
 4437 0068 3146     		mov	r1, r6
 4438 006a 2046     		mov	r0, r4
 4439 006c F1E7     		b	.L684
 4440              	.L680:
 4441 006e 0421     		movs	r1, #4
 4442 0070 FFF7FEFF 		bl	I2C_Disable_IRQ
 4443 0074 0023     		movs	r3, #0
 4444 0076 2A46     		mov	r2, r5
 4445 0078 80F84030 		strb	r3, [r0, #64]
ARM GAS  /tmp/cckhjLjw.s 			page 77


 4446 007c F4E7     		b	.L683
 4447              	.L679:
 4448 007e 0822     		movs	r2, #8
 4449 0080 DA61     		str	r2, [r3, #28]
 4450 0082 0023     		movs	r3, #0
 4451 0084 80F84030 		strb	r3, [r0, #64]
 4452 0088 E5E7     		b	.L678
 4454              		.section	.text.HAL_I2C_ListenCpltCallback,"ax",%progbits
 4455              		.align	1
 4456              		.weak	HAL_I2C_ListenCpltCallback
 4457              		.syntax unified
 4458              		.thumb
 4459              		.thumb_func
 4460              		.fpu fpv5-sp-d16
 4462              	HAL_I2C_ListenCpltCallback:
 4463              		@ args = 0, pretend = 0, frame = 0
 4464              		@ frame_needed = 0, uses_anonymous_args = 0
 4465              		@ link register save eliminated.
 4466 0000 7047     		bx	lr
 4468              		.section	.text.I2C_ITListenCplt,"ax",%progbits
 4469              		.align	1
 4470              		.syntax unified
 4471              		.thumb
 4472              		.thumb_func
 4473              		.fpu fpv5-sp-d16
 4475              	I2C_ITListenCplt:
 4476              		@ args = 0, pretend = 0, frame = 0
 4477              		@ frame_needed = 0, uses_anonymous_args = 0
 4478 0000 164B     		ldr	r3, .L693
 4479 0002 2022     		movs	r2, #32
 4480 0004 10B5     		push	{r4, lr}
 4481 0006 C362     		str	r3, [r0, #44]
 4482 0008 0023     		movs	r3, #0
 4483 000a 0446     		mov	r4, r0
 4484 000c 0363     		str	r3, [r0, #48]
 4485 000e 4363     		str	r3, [r0, #52]
 4486 0010 80F84120 		strb	r2, [r0, #65]
 4487 0014 80F84230 		strb	r3, [r0, #66]
 4488 0018 4B07     		lsls	r3, r1, #29
 4489 001a 12D5     		bpl	.L688
 4490 001c 0368     		ldr	r3, [r0]
 4491 001e 5A6A     		ldr	r2, [r3, #36]
 4492 0020 436A     		ldr	r3, [r0, #36]
 4493 0022 1A70     		strb	r2, [r3]
 4494 0024 436A     		ldr	r3, [r0, #36]
 4495 0026 0133     		adds	r3, r3, #1
 4496 0028 4362     		str	r3, [r0, #36]
 4497 002a 038D     		ldrh	r3, [r0, #40]
 4498 002c 4BB1     		cbz	r3, .L688
 4499 002e 013B     		subs	r3, r3, #1
 4500 0030 0385     		strh	r3, [r0, #40]	@ movhi
 4501 0032 438D     		ldrh	r3, [r0, #42]
 4502 0034 013B     		subs	r3, r3, #1
 4503 0036 9BB2     		uxth	r3, r3
 4504 0038 4385     		strh	r3, [r0, #42]	@ movhi
 4505 003a 436C     		ldr	r3, [r0, #68]
 4506 003c 43F00403 		orr	r3, r3, #4
ARM GAS  /tmp/cckhjLjw.s 			page 78


 4507 0040 4364     		str	r3, [r0, #68]
 4508              	.L688:
 4509 0042 0721     		movs	r1, #7
 4510 0044 2046     		mov	r0, r4
 4511 0046 FFF7FEFF 		bl	I2C_Disable_IRQ
 4512 004a 2368     		ldr	r3, [r4]
 4513 004c 1022     		movs	r2, #16
 4514 004e DA61     		str	r2, [r3, #28]
 4515 0050 0023     		movs	r3, #0
 4516 0052 84F84030 		strb	r3, [r4, #64]
 4517 0056 FFF7FEFF 		bl	HAL_I2C_ListenCpltCallback
 4518 005a 10BD     		pop	{r4, pc}
 4519              	.L694:
 4520              		.align	2
 4521              	.L693:
 4522 005c 0000FFFF 		.word	-65536
 4524              		.section	.text.HAL_I2C_MemTxCpltCallback,"ax",%progbits
 4525              		.align	1
 4526              		.weak	HAL_I2C_MemTxCpltCallback
 4527              		.syntax unified
 4528              		.thumb
 4529              		.thumb_func
 4530              		.fpu fpv5-sp-d16
 4532              	HAL_I2C_MemTxCpltCallback:
 4533              		@ args = 0, pretend = 0, frame = 0
 4534              		@ frame_needed = 0, uses_anonymous_args = 0
 4535              		@ link register save eliminated.
 4536 0000 7047     		bx	lr
 4538              		.section	.text.HAL_I2C_MemRxCpltCallback,"ax",%progbits
 4539              		.align	1
 4540              		.weak	HAL_I2C_MemRxCpltCallback
 4541              		.syntax unified
 4542              		.thumb
 4543              		.thumb_func
 4544              		.fpu fpv5-sp-d16
 4546              	HAL_I2C_MemRxCpltCallback:
 4547              		@ args = 0, pretend = 0, frame = 0
 4548              		@ frame_needed = 0, uses_anonymous_args = 0
 4549              		@ link register save eliminated.
 4550 0000 7047     		bx	lr
 4552              		.section	.text.HAL_I2C_ErrorCallback,"ax",%progbits
 4553              		.align	1
 4554              		.weak	HAL_I2C_ErrorCallback
 4555              		.syntax unified
 4556              		.thumb
 4557              		.thumb_func
 4558              		.fpu fpv5-sp-d16
 4560              	HAL_I2C_ErrorCallback:
 4561              		@ args = 0, pretend = 0, frame = 0
 4562              		@ frame_needed = 0, uses_anonymous_args = 0
 4563              		@ link register save eliminated.
 4564 0000 7047     		bx	lr
 4566              		.section	.text.HAL_I2C_AbortCpltCallback,"ax",%progbits
 4567              		.align	1
 4568              		.weak	HAL_I2C_AbortCpltCallback
 4569              		.syntax unified
 4570              		.thumb
ARM GAS  /tmp/cckhjLjw.s 			page 79


 4571              		.thumb_func
 4572              		.fpu fpv5-sp-d16
 4574              	HAL_I2C_AbortCpltCallback:
 4575              		@ args = 0, pretend = 0, frame = 0
 4576              		@ frame_needed = 0, uses_anonymous_args = 0
 4577              		@ link register save eliminated.
 4578 0000 7047     		bx	lr
 4580              		.section	.text.I2C_ITError,"ax",%progbits
 4581              		.align	1
 4582              		.syntax unified
 4583              		.thumb
 4584              		.thumb_func
 4585              		.fpu fpv5-sp-d16
 4587              	I2C_ITError:
 4588              		@ args = 0, pretend = 0, frame = 0
 4589              		@ frame_needed = 0, uses_anonymous_args = 0
 4590 0000 70B5     		push	{r4, r5, r6, lr}
 4591 0002 90F84130 		ldrb	r3, [r0, #65]	@ zero_extendqisi2
 4592 0006 0025     		movs	r5, #0
 4593 0008 304A     		ldr	r2, .L723
 4594 000a 0446     		mov	r4, r0
 4595 000c 80F84250 		strb	r5, [r0, #66]
 4596 0010 283B     		subs	r3, r3, #40
 4597 0012 C262     		str	r2, [r0, #44]
 4598 0014 4585     		strh	r5, [r0, #42]	@ movhi
 4599 0016 022B     		cmp	r3, #2
 4600 0018 426C     		ldr	r2, [r0, #68]
 4601 001a 41EA0201 		orr	r1, r1, r2
 4602 001e 4164     		str	r1, [r0, #68]
 4603 0020 21D8     		bhi	.L700
 4604 0022 0321     		movs	r1, #3
 4605 0024 FFF7FEFF 		bl	I2C_Disable_IRQ
 4606 0028 2823     		movs	r3, #40
 4607 002a 80F84130 		strb	r3, [r0, #65]
 4608 002e 284B     		ldr	r3, .L723+4
 4609 0030 0563     		str	r5, [r0, #48]
 4610              	.L721:
 4611 0032 6363     		str	r3, [r4, #52]
 4612 0034 2368     		ldr	r3, [r4]
 4613 0036 1968     		ldr	r1, [r3]
 4614 0038 1A68     		ldr	r2, [r3]
 4615 003a 11F48041 		ands	r1, r1, #16384
 4616 003e 1FD0     		beq	.L703
 4617 0040 22F48042 		bic	r2, r2, #16384
 4618 0044 A06B     		ldr	r0, [r4, #56]
 4619 0046 1A60     		str	r2, [r3]
 4620 0048 0028     		cmp	r0, #0
 4621 004a 37D0     		beq	.L699
 4622 004c 214B     		ldr	r3, .L723+8
 4623 004e 0365     		str	r3, [r0, #80]
 4624 0050 0023     		movs	r3, #0
 4625 0052 84F84030 		strb	r3, [r4, #64]
 4626 0056 FFF7FEFF 		bl	HAL_DMA_Abort_IT
 4627 005a 78B3     		cbz	r0, .L699
 4628 005c A06B     		ldr	r0, [r4, #56]
 4629              	.L722:
 4630 005e 036D     		ldr	r3, [r0, #80]
ARM GAS  /tmp/cckhjLjw.s 			page 80


 4631 0060 BDE87040 		pop	{r4, r5, r6, lr}
 4632 0064 1847     		bx	r3	@ indirect register sibling call
 4633              	.L700:
 4634 0066 0721     		movs	r1, #7
 4635 0068 FFF7FEFF 		bl	I2C_Disable_IRQ
 4636 006c 90F84130 		ldrb	r3, [r0, #65]	@ zero_extendqisi2
 4637 0070 602B     		cmp	r3, #96
 4638 0072 02D0     		beq	.L702
 4639 0074 2023     		movs	r3, #32
 4640 0076 80F84130 		strb	r3, [r0, #65]
 4641              	.L702:
 4642 007a 0023     		movs	r3, #0
 4643 007c 2363     		str	r3, [r4, #48]
 4644 007e D8E7     		b	.L721
 4645              	.L703:
 4646 0080 12F40042 		ands	r2, r2, #32768
 4647 0084 0ED0     		beq	.L707
 4648 0086 1A68     		ldr	r2, [r3]
 4649 0088 E06B     		ldr	r0, [r4, #60]
 4650 008a 22F40042 		bic	r2, r2, #32768
 4651 008e 1A60     		str	r2, [r3]
 4652 0090 A0B1     		cbz	r0, .L699
 4653 0092 104B     		ldr	r3, .L723+8
 4654 0094 0365     		str	r3, [r0, #80]
 4655 0096 84F84010 		strb	r1, [r4, #64]
 4656 009a FFF7FEFF 		bl	HAL_DMA_Abort_IT
 4657 009e 68B1     		cbz	r0, .L699
 4658 00a0 E06B     		ldr	r0, [r4, #60]
 4659 00a2 DCE7     		b	.L722
 4660              	.L707:
 4661 00a4 94F84130 		ldrb	r3, [r4, #65]	@ zero_extendqisi2
 4662 00a8 602B     		cmp	r3, #96
 4663 00aa 08D1     		bne	.L708
 4664 00ac 2023     		movs	r3, #32
 4665 00ae 84F84020 		strb	r2, [r4, #64]
 4666 00b2 2046     		mov	r0, r4
 4667 00b4 84F84130 		strb	r3, [r4, #65]
 4668 00b8 FFF7FEFF 		bl	HAL_I2C_AbortCpltCallback
 4669              	.L699:
 4670 00bc 70BD     		pop	{r4, r5, r6, pc}
 4671              	.L708:
 4672 00be 84F84020 		strb	r2, [r4, #64]
 4673 00c2 2046     		mov	r0, r4
 4674 00c4 FFF7FEFF 		bl	HAL_I2C_ErrorCallback
 4675 00c8 F8E7     		b	.L699
 4676              	.L724:
 4677 00ca 00BF     		.align	2
 4678              	.L723:
 4679 00cc 0000FFFF 		.word	-65536
 4680 00d0 00000000 		.word	I2C_Slave_ISR_IT
 4681 00d4 00000000 		.word	I2C_DMAAbort
 4683              		.section	.text.I2C_ITSlaveCplt,"ax",%progbits
 4684              		.align	1
 4685              		.syntax unified
 4686              		.thumb
 4687              		.thumb_func
 4688              		.fpu fpv5-sp-d16
ARM GAS  /tmp/cckhjLjw.s 			page 81


 4690              	I2C_ITSlaveCplt:
 4691              		@ args = 0, pretend = 0, frame = 0
 4692              		@ frame_needed = 0, uses_anonymous_args = 0
 4693 0000 0368     		ldr	r3, [r0]
 4694 0002 2022     		movs	r2, #32
 4695 0004 70B5     		push	{r4, r5, r6, lr}
 4696 0006 1D68     		ldr	r5, [r3]
 4697 0008 0E46     		mov	r6, r1
 4698 000a DA61     		str	r2, [r3, #28]
 4699 000c 0721     		movs	r1, #7
 4700 000e 0446     		mov	r4, r0
 4701 0010 FFF7FEFF 		bl	I2C_Disable_IRQ
 4702 0014 0368     		ldr	r3, [r0]
 4703 0016 5A68     		ldr	r2, [r3, #4]
 4704 0018 42F40042 		orr	r2, r2, #32768
 4705 001c 5A60     		str	r2, [r3, #4]
 4706 001e 5A68     		ldr	r2, [r3, #4]
 4707 0020 22F0FF72 		bic	r2, r2, #33423360
 4708 0024 22F48B32 		bic	r2, r2, #71168
 4709 0028 22F4FF72 		bic	r2, r2, #510
 4710 002c 22F00102 		bic	r2, r2, #1
 4711 0030 5A60     		str	r2, [r3, #4]
 4712 0032 FFF7FEFF 		bl	I2C_Flush_TXDR
 4713 0036 6904     		lsls	r1, r5, #17
 4714 0038 34D5     		bpl	.L726
 4715 003a 836B     		ldr	r3, [r0, #56]
 4716              	.L754:
 4717 003c 1BB1     		cbz	r3, .L727
 4718 003e 1B68     		ldr	r3, [r3]
 4719 0040 5B68     		ldr	r3, [r3, #4]
 4720 0042 9BB2     		uxth	r3, r3
 4721 0044 6385     		strh	r3, [r4, #42]	@ movhi
 4722              	.L727:
 4723 0046 7307     		lsls	r3, r6, #29
 4724 0048 10D5     		bpl	.L728
 4725 004a 2368     		ldr	r3, [r4]
 4726 004c 26F00406 		bic	r6, r6, #4
 4727 0050 5A6A     		ldr	r2, [r3, #36]
 4728 0052 636A     		ldr	r3, [r4, #36]
 4729 0054 1A70     		strb	r2, [r3]
 4730 0056 636A     		ldr	r3, [r4, #36]
 4731 0058 0133     		adds	r3, r3, #1
 4732 005a 6362     		str	r3, [r4, #36]
 4733 005c 238D     		ldrh	r3, [r4, #40]
 4734 005e 2BB1     		cbz	r3, .L728
 4735 0060 013B     		subs	r3, r3, #1
 4736 0062 2385     		strh	r3, [r4, #40]	@ movhi
 4737 0064 638D     		ldrh	r3, [r4, #42]
 4738 0066 013B     		subs	r3, r3, #1
 4739 0068 9BB2     		uxth	r3, r3
 4740 006a 6385     		strh	r3, [r4, #42]	@ movhi
 4741              	.L728:
 4742 006c 638D     		ldrh	r3, [r4, #42]
 4743 006e 9BB2     		uxth	r3, r3
 4744 0070 1BB1     		cbz	r3, .L729
 4745 0072 636C     		ldr	r3, [r4, #68]
 4746 0074 43F00403 		orr	r3, r3, #4
ARM GAS  /tmp/cckhjLjw.s 			page 82


 4747 0078 6364     		str	r3, [r4, #68]
 4748              	.L729:
 4749 007a 0023     		movs	r3, #0
 4750 007c 2363     		str	r3, [r4, #48]
 4751 007e 84F84230 		strb	r3, [r4, #66]
 4752 0082 656C     		ldr	r5, [r4, #68]
 4753 0084 6363     		str	r3, [r4, #52]
 4754 0086 8DB1     		cbz	r5, .L730
 4755 0088 616C     		ldr	r1, [r4, #68]
 4756 008a 2046     		mov	r0, r4
 4757 008c FFF7FEFF 		bl	I2C_ITError
 4758 0090 94F84130 		ldrb	r3, [r4, #65]	@ zero_extendqisi2
 4759 0094 282B     		cmp	r3, #40
 4760 0096 1AD1     		bne	.L725
 4761 0098 3146     		mov	r1, r6
 4762 009a 2046     		mov	r0, r4
 4763 009c BDE87040 		pop	{r4, r5, r6, lr}
 4764 00a0 FFF7FEBF 		b	I2C_ITListenCplt
 4765              	.L726:
 4766 00a4 2A04     		lsls	r2, r5, #16
 4767 00a6 CED5     		bpl	.L727
 4768 00a8 C36B     		ldr	r3, [r0, #60]
 4769 00aa C7E7     		b	.L754
 4770              	.L730:
 4771 00ac E36A     		ldr	r3, [r4, #44]
 4772 00ae 13F5803F 		cmn	r3, #65536
 4773 00b2 0DD0     		beq	.L732
 4774 00b4 2046     		mov	r0, r4
 4775 00b6 FFF7FEFF 		bl	I2C_ITSlaveSeqCplt
 4776 00ba 0E4B     		ldr	r3, .L755
 4777 00bc 84F84050 		strb	r5, [r4, #64]
 4778 00c0 2046     		mov	r0, r4
 4779 00c2 E362     		str	r3, [r4, #44]
 4780 00c4 2023     		movs	r3, #32
 4781 00c6 84F84130 		strb	r3, [r4, #65]
 4782 00ca FFF7FEFF 		bl	HAL_I2C_ListenCpltCallback
 4783              	.L725:
 4784 00ce 70BD     		pop	{r4, r5, r6, pc}
 4785              	.L732:
 4786 00d0 94F84130 		ldrb	r3, [r4, #65]	@ zero_extendqisi2
 4787 00d4 2046     		mov	r0, r4
 4788 00d6 84F84050 		strb	r5, [r4, #64]
 4789 00da 222B     		cmp	r3, #34
 4790 00dc 4FF02003 		mov	r3, #32
 4791 00e0 84F84130 		strb	r3, [r4, #65]
 4792 00e4 02D1     		bne	.L733
 4793 00e6 FFF7FEFF 		bl	HAL_I2C_SlaveRxCpltCallback
 4794 00ea F0E7     		b	.L725
 4795              	.L733:
 4796 00ec FFF7FEFF 		bl	HAL_I2C_SlaveTxCpltCallback
 4797 00f0 EDE7     		b	.L725
 4798              	.L756:
 4799 00f2 00BF     		.align	2
 4800              	.L755:
 4801 00f4 0000FFFF 		.word	-65536
 4803              		.section	.text.I2C_Slave_ISR_IT,"ax",%progbits
 4804              		.align	1
ARM GAS  /tmp/cckhjLjw.s 			page 83


 4805              		.syntax unified
 4806              		.thumb
 4807              		.thumb_func
 4808              		.fpu fpv5-sp-d16
 4810              	I2C_Slave_ISR_IT:
 4811              		@ args = 0, pretend = 0, frame = 0
 4812              		@ frame_needed = 0, uses_anonymous_args = 0
 4813 0000 F8B5     		push	{r3, r4, r5, r6, r7, lr}
 4814 0002 90F84030 		ldrb	r3, [r0, #64]	@ zero_extendqisi2
 4815 0006 0446     		mov	r4, r0
 4816 0008 0D46     		mov	r5, r1
 4817 000a 1746     		mov	r7, r2
 4818 000c 012B     		cmp	r3, #1
 4819 000e C66A     		ldr	r6, [r0, #44]
 4820 0010 7DD0     		beq	.L772
 4821 0012 0123     		movs	r3, #1
 4822 0014 8A06     		lsls	r2, r1, #26
 4823 0016 80F84030 		strb	r3, [r0, #64]
 4824 001a 03D5     		bpl	.L759
 4825 001c BB06     		lsls	r3, r7, #26
 4826 001e 01D5     		bpl	.L759
 4827 0020 FFF7FEFF 		bl	I2C_ITSlaveCplt
 4828              	.L759:
 4829 0024 E806     		lsls	r0, r5, #27
 4830 0026 34D5     		bpl	.L760
 4831 0028 F906     		lsls	r1, r7, #27
 4832 002a 32D5     		bpl	.L760
 4833 002c 638D     		ldrh	r3, [r4, #42]
 4834 002e 9BB2     		uxth	r3, r3
 4835 0030 03BB     		cbnz	r3, .L761
 4836 0032 94F84130 		ldrb	r3, [r4, #65]	@ zero_extendqisi2
 4837 0036 282B     		cmp	r3, #40
 4838 0038 0AD1     		bne	.L762
 4839 003a B6F1007F 		cmp	r6, #33554432
 4840 003e 07D1     		bne	.L762
 4841 0040 2946     		mov	r1, r5
 4842 0042 2046     		mov	r0, r4
 4843 0044 FFF7FEFF 		bl	I2C_ITListenCplt
 4844              	.L763:
 4845 0048 0020     		movs	r0, #0
 4846 004a 84F84000 		strb	r0, [r4, #64]
 4847              	.L758:
 4848 004e F8BD     		pop	{r3, r4, r5, r6, r7, pc}
 4849              	.L762:
 4850 0050 94F84120 		ldrb	r2, [r4, #65]	@ zero_extendqisi2
 4851 0054 2368     		ldr	r3, [r4]
 4852 0056 292A     		cmp	r2, #41
 4853 0058 4FF01002 		mov	r2, #16
 4854 005c DA61     		str	r2, [r3, #28]
 4855 005e F3D1     		bne	.L763
 4856 0060 16F5803F 		cmn	r6, #65536
 4857 0064 F0D0     		beq	.L763
 4858 0066 2046     		mov	r0, r4
 4859 0068 FFF7FEFF 		bl	I2C_Flush_TXDR
 4860              	.L771:
 4861 006c 2046     		mov	r0, r4
 4862 006e FFF7FEFF 		bl	I2C_ITSlaveSeqCplt
ARM GAS  /tmp/cckhjLjw.s 			page 84


 4863 0072 E9E7     		b	.L763
 4864              	.L761:
 4865 0074 2368     		ldr	r3, [r4]
 4866 0076 1022     		movs	r2, #16
 4867 0078 DA61     		str	r2, [r3, #28]
 4868 007a 636C     		ldr	r3, [r4, #68]
 4869 007c 43F00403 		orr	r3, r3, #4
 4870 0080 6364     		str	r3, [r4, #68]
 4871 0082 36F08073 		bics	r3, r6, #16777216
 4872 0086 DFD1     		bne	.L763
 4873 0088 616C     		ldr	r1, [r4, #68]
 4874 008a 2046     		mov	r0, r4
 4875 008c FFF7FEFF 		bl	I2C_ITError
 4876 0090 DAE7     		b	.L763
 4877              	.L760:
 4878 0092 6A07     		lsls	r2, r5, #29
 4879 0094 1AD5     		bpl	.L766
 4880 0096 7B07     		lsls	r3, r7, #29
 4881 0098 18D5     		bpl	.L766
 4882 009a 638D     		ldrh	r3, [r4, #42]
 4883 009c 9BB2     		uxth	r3, r3
 4884 009e 6BB1     		cbz	r3, .L767
 4885 00a0 2368     		ldr	r3, [r4]
 4886 00a2 5A6A     		ldr	r2, [r3, #36]
 4887 00a4 636A     		ldr	r3, [r4, #36]
 4888 00a6 1A70     		strb	r2, [r3]
 4889 00a8 636A     		ldr	r3, [r4, #36]
 4890 00aa 0133     		adds	r3, r3, #1
 4891 00ac 6362     		str	r3, [r4, #36]
 4892 00ae 238D     		ldrh	r3, [r4, #40]
 4893 00b0 013B     		subs	r3, r3, #1
 4894 00b2 2385     		strh	r3, [r4, #40]	@ movhi
 4895 00b4 638D     		ldrh	r3, [r4, #42]
 4896 00b6 013B     		subs	r3, r3, #1
 4897 00b8 9BB2     		uxth	r3, r3
 4898 00ba 6385     		strh	r3, [r4, #42]	@ movhi
 4899              	.L767:
 4900 00bc 638D     		ldrh	r3, [r4, #42]
 4901 00be 9BB2     		uxth	r3, r3
 4902 00c0 002B     		cmp	r3, #0
 4903 00c2 C1D1     		bne	.L763
 4904 00c4 16F5803F 		cmn	r6, #65536
 4905 00c8 BED0     		beq	.L763
 4906 00ca CFE7     		b	.L771
 4907              	.L766:
 4908 00cc 2807     		lsls	r0, r5, #28
 4909 00ce 05D5     		bpl	.L769
 4910 00d0 3907     		lsls	r1, r7, #28
 4911 00d2 03D5     		bpl	.L769
 4912 00d4 2046     		mov	r0, r4
 4913 00d6 FFF7FEFF 		bl	I2C_ITAddrCplt.isra.9
 4914 00da B5E7     		b	.L763
 4915              	.L769:
 4916 00dc AA07     		lsls	r2, r5, #30
 4917 00de B3D5     		bpl	.L763
 4918 00e0 BB07     		lsls	r3, r7, #30
 4919 00e2 B1D5     		bpl	.L763
ARM GAS  /tmp/cckhjLjw.s 			page 85


 4920 00e4 638D     		ldrh	r3, [r4, #42]
 4921 00e6 9BB2     		uxth	r3, r3
 4922 00e8 6BB1     		cbz	r3, .L770
 4923 00ea 636A     		ldr	r3, [r4, #36]
 4924 00ec 2268     		ldr	r2, [r4]
 4925 00ee 13F8011B 		ldrb	r1, [r3], #1	@ zero_extendqisi2
 4926 00f2 9162     		str	r1, [r2, #40]
 4927 00f4 6362     		str	r3, [r4, #36]
 4928 00f6 638D     		ldrh	r3, [r4, #42]
 4929 00f8 013B     		subs	r3, r3, #1
 4930 00fa 9BB2     		uxth	r3, r3
 4931 00fc 6385     		strh	r3, [r4, #42]	@ movhi
 4932 00fe 238D     		ldrh	r3, [r4, #40]
 4933 0100 013B     		subs	r3, r3, #1
 4934 0102 2385     		strh	r3, [r4, #40]	@ movhi
 4935 0104 A0E7     		b	.L763
 4936              	.L770:
 4937 0106 36F08073 		bics	r3, r6, #16777216
 4938 010a AFD0     		beq	.L771
 4939 010c 9CE7     		b	.L763
 4940              	.L772:
 4941 010e 0220     		movs	r0, #2
 4942 0110 9DE7     		b	.L758
 4944              		.section	.text.I2C_ITMasterCplt,"ax",%progbits
 4945              		.align	1
 4946              		.syntax unified
 4947              		.thumb
 4948              		.thumb_func
 4949              		.fpu fpv5-sp-d16
 4951              	I2C_ITMasterCplt:
 4952              		@ args = 0, pretend = 0, frame = 0
 4953              		@ frame_needed = 0, uses_anonymous_args = 0
 4954 0000 0368     		ldr	r3, [r0]
 4955 0002 2022     		movs	r2, #32
 4956 0004 10B5     		push	{r4, lr}
 4957 0006 DA61     		str	r2, [r3, #28]
 4958 0008 0446     		mov	r4, r0
 4959 000a 5A68     		ldr	r2, [r3, #4]
 4960 000c 22F0FF72 		bic	r2, r2, #33423360
 4961 0010 22F48B32 		bic	r2, r2, #71168
 4962 0014 22F4FF72 		bic	r2, r2, #510
 4963 0018 22F00102 		bic	r2, r2, #1
 4964 001c 5A60     		str	r2, [r3, #4]
 4965 001e 0022     		movs	r2, #0
 4966 0020 0263     		str	r2, [r0, #48]
 4967 0022 4263     		str	r2, [r0, #52]
 4968 0024 A2F58032 		sub	r2, r2, #65536
 4969 0028 C262     		str	r2, [r0, #44]
 4970 002a CA06     		lsls	r2, r1, #27
 4971 002c 05D5     		bpl	.L816
 4972 002e 1022     		movs	r2, #16
 4973 0030 DA61     		str	r2, [r3, #28]
 4974 0032 436C     		ldr	r3, [r0, #68]
 4975 0034 43F00403 		orr	r3, r3, #4
 4976 0038 4364     		str	r3, [r0, #68]
 4977              	.L816:
 4978 003a 2046     		mov	r0, r4
ARM GAS  /tmp/cckhjLjw.s 			page 86


 4979 003c FFF7FEFF 		bl	I2C_Flush_TXDR
 4980 0040 0321     		movs	r1, #3
 4981 0042 FFF7FEFF 		bl	I2C_Disable_IRQ
 4982 0046 636C     		ldr	r3, [r4, #68]
 4983 0048 94F84120 		ldrb	r2, [r4, #65]	@ zero_extendqisi2
 4984 004c 602A     		cmp	r2, #96
 4985 004e 00D0     		beq	.L817
 4986 0050 2BB1     		cbz	r3, .L818
 4987              	.L817:
 4988 0052 616C     		ldr	r1, [r4, #68]
 4989 0054 2046     		mov	r0, r4
 4990 0056 BDE81040 		pop	{r4, lr}
 4991 005a FFF7FEBF 		b	I2C_ITError
 4992              	.L818:
 4993 005e 94F84120 		ldrb	r2, [r4, #65]	@ zero_extendqisi2
 4994 0062 212A     		cmp	r2, #33
 4995 0064 10D1     		bne	.L819
 4996 0066 2022     		movs	r2, #32
 4997 0068 84F84030 		strb	r3, [r4, #64]
 4998 006c 84F84120 		strb	r2, [r4, #65]
 4999 0070 94F84220 		ldrb	r2, [r4, #66]	@ zero_extendqisi2
 5000 0074 84F84230 		strb	r3, [r4, #66]
 5001 0078 402A     		cmp	r2, #64
 5002 007a 02D1     		bne	.L820
 5003 007c FFF7FEFF 		bl	HAL_I2C_MemTxCpltCallback
 5004              	.L815:
 5005 0080 10BD     		pop	{r4, pc}
 5006              	.L820:
 5007 0082 FFF7FEFF 		bl	HAL_I2C_MasterTxCpltCallback
 5008 0086 FBE7     		b	.L815
 5009              	.L819:
 5010 0088 94F84120 		ldrb	r2, [r4, #65]	@ zero_extendqisi2
 5011 008c 222A     		cmp	r2, #34
 5012 008e F7D1     		bne	.L815
 5013 0090 2022     		movs	r2, #32
 5014 0092 84F84030 		strb	r3, [r4, #64]
 5015 0096 84F84120 		strb	r2, [r4, #65]
 5016 009a 94F84220 		ldrb	r2, [r4, #66]	@ zero_extendqisi2
 5017 009e 84F84230 		strb	r3, [r4, #66]
 5018 00a2 402A     		cmp	r2, #64
 5019 00a4 02D1     		bne	.L822
 5020 00a6 FFF7FEFF 		bl	HAL_I2C_MemRxCpltCallback
 5021 00aa E9E7     		b	.L815
 5022              	.L822:
 5023 00ac FFF7FEFF 		bl	HAL_I2C_MasterRxCpltCallback
 5024 00b0 E6E7     		b	.L815
 5026              		.section	.text.I2C_Master_ISR_IT,"ax",%progbits
 5027              		.align	1
 5028              		.syntax unified
 5029              		.thumb
 5030              		.thumb_func
 5031              		.fpu fpv5-sp-d16
 5033              	I2C_Master_ISR_IT:
 5034              		@ args = 0, pretend = 0, frame = 0
 5035              		@ frame_needed = 0, uses_anonymous_args = 0
 5036 0000 90F84030 		ldrb	r3, [r0, #64]	@ zero_extendqisi2
 5037 0004 012B     		cmp	r3, #1
ARM GAS  /tmp/cckhjLjw.s 			page 87


 5038 0006 73B5     		push	{r0, r1, r4, r5, r6, lr}
 5039 0008 0446     		mov	r4, r0
 5040 000a 0D46     		mov	r5, r1
 5041 000c 1646     		mov	r6, r2
 5042 000e 00F08580 		beq	.L842
 5043 0012 0123     		movs	r3, #1
 5044 0014 CA06     		lsls	r2, r1, #27
 5045 0016 80F84030 		strb	r3, [r0, #64]
 5046 001a 17D5     		bpl	.L831
 5047 001c F306     		lsls	r3, r6, #27
 5048 001e 15D5     		bpl	.L831
 5049 0020 0368     		ldr	r3, [r0]
 5050 0022 1022     		movs	r2, #16
 5051 0024 DA61     		str	r2, [r3, #28]
 5052 0026 436C     		ldr	r3, [r0, #68]
 5053 0028 43F00403 		orr	r3, r3, #4
 5054 002c 4364     		str	r3, [r0, #68]
 5055 002e FFF7FEFF 		bl	I2C_Flush_TXDR
 5056              	.L832:
 5057 0032 AA06     		lsls	r2, r5, #26
 5058 0034 05D5     		bpl	.L841
 5059 0036 B306     		lsls	r3, r6, #26
 5060 0038 03D5     		bpl	.L841
 5061 003a 2946     		mov	r1, r5
 5062 003c 2046     		mov	r0, r4
 5063 003e FFF7FEFF 		bl	I2C_ITMasterCplt
 5064              	.L841:
 5065 0042 0020     		movs	r0, #0
 5066 0044 84F84000 		strb	r0, [r4, #64]
 5067              	.L830:
 5068 0048 02B0     		add	sp, sp, #8
 5069              		@ sp needed
 5070 004a 70BD     		pop	{r4, r5, r6, pc}
 5071              	.L831:
 5072 004c 6807     		lsls	r0, r5, #29
 5073 004e 12D5     		bpl	.L833
 5074 0050 7107     		lsls	r1, r6, #29
 5075 0052 10D5     		bpl	.L833
 5076 0054 2368     		ldr	r3, [r4]
 5077 0056 25F00405 		bic	r5, r5, #4
 5078 005a 5A6A     		ldr	r2, [r3, #36]
 5079 005c 636A     		ldr	r3, [r4, #36]
 5080 005e 1A70     		strb	r2, [r3]
 5081 0060 636A     		ldr	r3, [r4, #36]
 5082 0062 0133     		adds	r3, r3, #1
 5083              	.L882:
 5084 0064 6362     		str	r3, [r4, #36]
 5085 0066 238D     		ldrh	r3, [r4, #40]
 5086 0068 013B     		subs	r3, r3, #1
 5087 006a 2385     		strh	r3, [r4, #40]	@ movhi
 5088 006c 638D     		ldrh	r3, [r4, #42]
 5089 006e 013B     		subs	r3, r3, #1
 5090 0070 9BB2     		uxth	r3, r3
 5091 0072 6385     		strh	r3, [r4, #42]	@ movhi
 5092 0074 DDE7     		b	.L832
 5093              	.L833:
 5094 0076 AA07     		lsls	r2, r5, #30
ARM GAS  /tmp/cckhjLjw.s 			page 88


 5095 0078 07D5     		bpl	.L834
 5096 007a B307     		lsls	r3, r6, #30
 5097 007c 05D5     		bpl	.L834
 5098 007e 636A     		ldr	r3, [r4, #36]
 5099 0080 2268     		ldr	r2, [r4]
 5100 0082 13F8011B 		ldrb	r1, [r3], #1	@ zero_extendqisi2
 5101 0086 9162     		str	r1, [r2, #40]
 5102 0088 ECE7     		b	.L882
 5103              	.L834:
 5104 008a 2806     		lsls	r0, r5, #24
 5105 008c 31D5     		bpl	.L835
 5106 008e 7106     		lsls	r1, r6, #25
 5107 0090 2FD5     		bpl	.L835
 5108 0092 638D     		ldrh	r3, [r4, #42]
 5109 0094 2268     		ldr	r2, [r4]
 5110 0096 9BB2     		uxth	r3, r3
 5111 0098 FBB1     		cbz	r3, .L836
 5112 009a 208D     		ldrh	r0, [r4, #40]
 5113 009c E8B9     		cbnz	r0, .L836
 5114 009e 5168     		ldr	r1, [r2, #4]
 5115 00a0 638D     		ldrh	r3, [r4, #42]
 5116 00a2 C1F30901 		ubfx	r1, r1, #0, #10
 5117 00a6 FF2B     		cmp	r3, #255
 5118 00a8 08D9     		bls	.L837
 5119 00aa FF22     		movs	r2, #255
 5120 00ac 4FF08073 		mov	r3, #16777216
 5121 00b0 0090     		str	r0, [sp]
 5122 00b2 2285     		strh	r2, [r4, #40]	@ movhi
 5123              	.L883:
 5124 00b4 2046     		mov	r0, r4
 5125 00b6 FFF7FEFF 		bl	I2C_TransferConfig
 5126 00ba BAE7     		b	.L832
 5127              	.L837:
 5128 00bc 628D     		ldrh	r2, [r4, #42]
 5129 00be E36A     		ldr	r3, [r4, #44]
 5130 00c0 92B2     		uxth	r2, r2
 5131 00c2 13F5803F 		cmn	r3, #65536
 5132 00c6 2285     		strh	r2, [r4, #40]	@ movhi
 5133 00c8 D2B2     		uxtb	r2, r2
 5134 00ca 02D0     		beq	.L838
 5135 00cc E36A     		ldr	r3, [r4, #44]
 5136 00ce 0090     		str	r0, [sp]
 5137 00d0 F0E7     		b	.L883
 5138              	.L838:
 5139 00d2 0090     		str	r0, [sp]
 5140 00d4 4FF00073 		mov	r3, #33554432
 5141 00d8 ECE7     		b	.L883
 5142              	.L836:
 5143 00da 5368     		ldr	r3, [r2, #4]
 5144 00dc 9A01     		lsls	r2, r3, #6
 5145 00de 03D4     		bmi	.L839
 5146              	.L840:
 5147 00e0 2046     		mov	r0, r4
 5148 00e2 FFF7FEFF 		bl	I2C_ITMasterSeqCplt
 5149 00e6 A4E7     		b	.L832
 5150              	.L839:
 5151 00e8 4021     		movs	r1, #64
ARM GAS  /tmp/cckhjLjw.s 			page 89


 5152 00ea 2046     		mov	r0, r4
 5153 00ec FFF7FEFF 		bl	I2C_ITError
 5154 00f0 9FE7     		b	.L832
 5155              	.L835:
 5156 00f2 6B06     		lsls	r3, r5, #25
 5157 00f4 9DD5     		bpl	.L832
 5158 00f6 7006     		lsls	r0, r6, #25
 5159 00f8 9BD5     		bpl	.L832
 5160 00fa 638D     		ldrh	r3, [r4, #42]
 5161 00fc 9BB2     		uxth	r3, r3
 5162 00fe 002B     		cmp	r3, #0
 5163 0100 F2D1     		bne	.L839
 5164 0102 2368     		ldr	r3, [r4]
 5165 0104 5A68     		ldr	r2, [r3, #4]
 5166 0106 9101     		lsls	r1, r2, #6
 5167 0108 93D4     		bmi	.L832
 5168 010a E26A     		ldr	r2, [r4, #44]
 5169 010c 12F5803F 		cmn	r2, #65536
 5170 0110 E6D1     		bne	.L840
 5171 0112 5A68     		ldr	r2, [r3, #4]
 5172 0114 42F48042 		orr	r2, r2, #16384
 5173 0118 5A60     		str	r2, [r3, #4]
 5174 011a 8AE7     		b	.L832
 5175              	.L842:
 5176 011c 0220     		movs	r0, #2
 5177 011e 93E7     		b	.L830
 5179              		.section	.text.I2C_Slave_ISR_DMA,"ax",%progbits
 5180              		.align	1
 5181              		.syntax unified
 5182              		.thumb
 5183              		.thumb_func
 5184              		.fpu fpv5-sp-d16
 5186              	I2C_Slave_ISR_DMA:
 5187              		@ args = 0, pretend = 0, frame = 0
 5188              		@ frame_needed = 0, uses_anonymous_args = 0
 5189 0000 F8B5     		push	{r3, r4, r5, r6, r7, lr}
 5190 0002 90F84030 		ldrb	r3, [r0, #64]	@ zero_extendqisi2
 5191 0006 0446     		mov	r4, r0
 5192 0008 0E46     		mov	r6, r1
 5193 000a 1546     		mov	r5, r2
 5194 000c 012B     		cmp	r3, #1
 5195 000e C76A     		ldr	r7, [r0, #44]
 5196 0010 61D0     		beq	.L898
 5197 0012 0123     		movs	r3, #1
 5198 0014 8A06     		lsls	r2, r1, #26
 5199 0016 80F84030 		strb	r3, [r0, #64]
 5200 001a 03D5     		bpl	.L886
 5201 001c AB06     		lsls	r3, r5, #26
 5202 001e 01D5     		bpl	.L886
 5203 0020 FFF7FEFF 		bl	I2C_ITSlaveCplt
 5204              	.L886:
 5205 0024 F206     		lsls	r2, r6, #27
 5206 0026 4ED5     		bpl	.L887
 5207 0028 EB06     		lsls	r3, r5, #27
 5208 002a 4CD5     		bpl	.L887
 5209 002c A90B     		lsrs	r1, r5, #14
 5210 002e EA0B     		lsrs	r2, r5, #15
ARM GAS  /tmp/cckhjLjw.s 			page 90


 5211 0030 41EA0203 		orr	r3, r1, r2
 5212 0034 D807     		lsls	r0, r3, #31
 5213 0036 42D5     		bpl	.L888
 5214 0038 E36B     		ldr	r3, [r4, #60]
 5215 003a F3B1     		cbz	r3, .L899
 5216 003c 12F00105 		ands	r5, r2, #1
 5217 0040 04D0     		beq	.L889
 5218 0042 1B68     		ldr	r3, [r3]
 5219 0044 5D68     		ldr	r5, [r3, #4]
 5220 0046 B5FA85F5 		clz	r5, r5
 5221 004a 6D09     		lsrs	r5, r5, #5
 5222              	.L889:
 5223 004c A36B     		ldr	r3, [r4, #56]
 5224 004e 23B1     		cbz	r3, .L890
 5225 0050 C907     		lsls	r1, r1, #31
 5226 0052 02D5     		bpl	.L890
 5227 0054 1B68     		ldr	r3, [r3]
 5228 0056 5B68     		ldr	r3, [r3, #4]
 5229 0058 03B1     		cbz	r3, .L891
 5230              	.L890:
 5231 005a 0DB3     		cbz	r5, .L892
 5232              	.L891:
 5233 005c 94F84130 		ldrb	r3, [r4, #65]	@ zero_extendqisi2
 5234 0060 282B     		cmp	r3, #40
 5235 0062 0CD1     		bne	.L893
 5236 0064 B7F1007F 		cmp	r7, #33554432
 5237 0068 09D1     		bne	.L893
 5238 006a 3146     		mov	r1, r6
 5239 006c 2046     		mov	r0, r4
 5240 006e FFF7FEFF 		bl	I2C_ITListenCplt
 5241              	.L894:
 5242 0072 0020     		movs	r0, #0
 5243 0074 84F84000 		strb	r0, [r4, #64]
 5244              	.L885:
 5245 0078 F8BD     		pop	{r3, r4, r5, r6, r7, pc}
 5246              	.L899:
 5247 007a 1D46     		mov	r5, r3
 5248 007c E6E7     		b	.L889
 5249              	.L893:
 5250 007e 94F84120 		ldrb	r2, [r4, #65]	@ zero_extendqisi2
 5251 0082 2368     		ldr	r3, [r4]
 5252 0084 292A     		cmp	r2, #41
 5253 0086 4FF01002 		mov	r2, #16
 5254 008a DA61     		str	r2, [r3, #28]
 5255 008c F1D1     		bne	.L894
 5256 008e 17F5803F 		cmn	r7, #65536
 5257 0092 EED0     		beq	.L894
 5258 0094 2046     		mov	r0, r4
 5259 0096 FFF7FEFF 		bl	I2C_Flush_TXDR
 5260 009a FFF7FEFF 		bl	I2C_ITSlaveSeqCplt
 5261 009e E8E7     		b	.L894
 5262              	.L892:
 5263 00a0 2368     		ldr	r3, [r4]
 5264 00a2 1022     		movs	r2, #16
 5265 00a4 DA61     		str	r2, [r3, #28]
 5266 00a6 636C     		ldr	r3, [r4, #68]
 5267 00a8 43F00403 		orr	r3, r3, #4
ARM GAS  /tmp/cckhjLjw.s 			page 91


 5268 00ac 6364     		str	r3, [r4, #68]
 5269 00ae 37F08073 		bics	r3, r7, #16777216
 5270 00b2 DED1     		bne	.L894
 5271 00b4 616C     		ldr	r1, [r4, #68]
 5272 00b6 2046     		mov	r0, r4
 5273 00b8 FFF7FEFF 		bl	I2C_ITError
 5274 00bc D9E7     		b	.L894
 5275              	.L888:
 5276 00be 2368     		ldr	r3, [r4]
 5277 00c0 1022     		movs	r2, #16
 5278 00c2 DA61     		str	r2, [r3, #28]
 5279 00c4 D5E7     		b	.L894
 5280              	.L887:
 5281 00c6 3207     		lsls	r2, r6, #28
 5282 00c8 D3D5     		bpl	.L894
 5283 00ca 2B07     		lsls	r3, r5, #28
 5284 00cc D1D5     		bpl	.L894
 5285 00ce 2046     		mov	r0, r4
 5286 00d0 FFF7FEFF 		bl	I2C_ITAddrCplt.isra.9
 5287 00d4 CDE7     		b	.L894
 5288              	.L898:
 5289 00d6 0220     		movs	r0, #2
 5290 00d8 CEE7     		b	.L885
 5292              		.section	.text.I2C_Master_ISR_DMA,"ax",%progbits
 5293              		.align	1
 5294              		.syntax unified
 5295              		.thumb
 5296              		.thumb_func
 5297              		.fpu fpv5-sp-d16
 5299              	I2C_Master_ISR_DMA:
 5300              		@ args = 0, pretend = 0, frame = 0
 5301              		@ frame_needed = 0, uses_anonymous_args = 0
 5302 0000 90F84030 		ldrb	r3, [r0, #64]	@ zero_extendqisi2
 5303 0004 012B     		cmp	r3, #1
 5304 0006 13B5     		push	{r0, r1, r4, lr}
 5305 0008 0446     		mov	r4, r0
 5306 000a 79D0     		beq	.L943
 5307 000c 0123     		movs	r3, #1
 5308 000e 80F84030 		strb	r3, [r0, #64]
 5309 0012 CB06     		lsls	r3, r1, #27
 5310 0014 12D5     		bpl	.L933
 5311 0016 D306     		lsls	r3, r2, #27
 5312 0018 10D5     		bpl	.L933
 5313 001a 0368     		ldr	r3, [r0]
 5314 001c 1022     		movs	r2, #16
 5315 001e 1221     		movs	r1, #18
 5316 0020 DA61     		str	r2, [r3, #28]
 5317 0022 436C     		ldr	r3, [r0, #68]
 5318 0024 43F00403 		orr	r3, r3, #4
 5319 0028 4364     		str	r3, [r0, #68]
 5320 002a FFF7FEFF 		bl	I2C_Enable_IRQ
 5321 002e FFF7FEFF 		bl	I2C_Flush_TXDR
 5322              	.L934:
 5323 0032 0020     		movs	r0, #0
 5324 0034 84F84000 		strb	r0, [r4, #64]
 5325              	.L932:
 5326 0038 02B0     		add	sp, sp, #8
ARM GAS  /tmp/cckhjLjw.s 			page 92


 5327              		@ sp needed
 5328 003a 10BD     		pop	{r4, pc}
 5329              	.L933:
 5330 003c 0B06     		lsls	r3, r1, #24
 5331 003e 42D5     		bpl	.L935
 5332 0040 5006     		lsls	r0, r2, #25
 5333 0042 40D5     		bpl	.L935
 5334 0044 2368     		ldr	r3, [r4]
 5335 0046 1A68     		ldr	r2, [r3]
 5336 0048 22F04002 		bic	r2, r2, #64
 5337 004c 1A60     		str	r2, [r3]
 5338 004e 628D     		ldrh	r2, [r4, #42]
 5339 0050 92B2     		uxth	r2, r2
 5340 0052 62B3     		cbz	r2, .L936
 5341 0054 5968     		ldr	r1, [r3, #4]
 5342 0056 638D     		ldrh	r3, [r4, #42]
 5343 0058 C1F30901 		ubfx	r1, r1, #0, #10
 5344 005c FF2B     		cmp	r3, #255
 5345 005e 1BD9     		bls	.L937
 5346 0060 FF23     		movs	r3, #255
 5347 0062 2385     		strh	r3, [r4, #40]	@ movhi
 5348 0064 4FF08073 		mov	r3, #16777216
 5349              	.L938:
 5350 0068 0022     		movs	r2, #0
 5351 006a 2046     		mov	r0, r4
 5352 006c 0092     		str	r2, [sp]
 5353 006e 94F82820 		ldrb	r2, [r4, #40]	@ zero_extendqisi2
 5354 0072 FFF7FEFF 		bl	I2C_TransferConfig
 5355 0076 638D     		ldrh	r3, [r4, #42]
 5356 0078 228D     		ldrh	r2, [r4, #40]
 5357 007a 9B1A     		subs	r3, r3, r2
 5358 007c 9BB2     		uxth	r3, r3
 5359 007e 6385     		strh	r3, [r4, #42]	@ movhi
 5360 0080 94F84130 		ldrb	r3, [r4, #65]	@ zero_extendqisi2
 5361 0084 222B     		cmp	r3, #34
 5362 0086 2368     		ldr	r3, [r4]
 5363 0088 1A68     		ldr	r2, [r3]
 5364 008a 0CBF     		ite	eq
 5365 008c 42F40042 		orreq	r2, r2, #32768
 5366 0090 42F48042 		orrne	r2, r2, #16384
 5367 0094 1A60     		str	r2, [r3]
 5368 0096 CCE7     		b	.L934
 5369              	.L937:
 5370 0098 638D     		ldrh	r3, [r4, #42]
 5371 009a 2385     		strh	r3, [r4, #40]	@ movhi
 5372 009c E36A     		ldr	r3, [r4, #44]
 5373 009e 13F5803F 		cmn	r3, #65536
 5374 00a2 01D0     		beq	.L944
 5375 00a4 E36A     		ldr	r3, [r4, #44]
 5376 00a6 DFE7     		b	.L938
 5377              	.L944:
 5378 00a8 4FF00073 		mov	r3, #33554432
 5379 00ac DCE7     		b	.L938
 5380              	.L936:
 5381 00ae 5B68     		ldr	r3, [r3, #4]
 5382 00b0 9A01     		lsls	r2, r3, #6
 5383 00b2 03D4     		bmi	.L940
ARM GAS  /tmp/cckhjLjw.s 			page 93


 5384              	.L942:
 5385 00b4 2046     		mov	r0, r4
 5386 00b6 FFF7FEFF 		bl	I2C_ITMasterSeqCplt
 5387 00ba BAE7     		b	.L934
 5388              	.L940:
 5389 00bc 4021     		movs	r1, #64
 5390 00be 2046     		mov	r0, r4
 5391 00c0 FFF7FEFF 		bl	I2C_ITError
 5392 00c4 B5E7     		b	.L934
 5393              	.L935:
 5394 00c6 4B06     		lsls	r3, r1, #25
 5395 00c8 12D5     		bpl	.L941
 5396 00ca 5006     		lsls	r0, r2, #25
 5397 00cc 10D5     		bpl	.L941
 5398 00ce 638D     		ldrh	r3, [r4, #42]
 5399 00d0 9BB2     		uxth	r3, r3
 5400 00d2 002B     		cmp	r3, #0
 5401 00d4 F2D1     		bne	.L940
 5402 00d6 2368     		ldr	r3, [r4]
 5403 00d8 5A68     		ldr	r2, [r3, #4]
 5404 00da 9201     		lsls	r2, r2, #6
 5405 00dc A9D4     		bmi	.L934
 5406 00de E26A     		ldr	r2, [r4, #44]
 5407 00e0 12F5803F 		cmn	r2, #65536
 5408 00e4 E6D1     		bne	.L942
 5409 00e6 5A68     		ldr	r2, [r3, #4]
 5410 00e8 42F48042 		orr	r2, r2, #16384
 5411 00ec 5A60     		str	r2, [r3, #4]
 5412 00ee A0E7     		b	.L934
 5413              	.L941:
 5414 00f0 8806     		lsls	r0, r1, #26
 5415 00f2 9ED5     		bpl	.L934
 5416 00f4 9306     		lsls	r3, r2, #26
 5417 00f6 9CD5     		bpl	.L934
 5418 00f8 2046     		mov	r0, r4
 5419 00fa FFF7FEFF 		bl	I2C_ITMasterCplt
 5420 00fe 98E7     		b	.L934
 5421              	.L943:
 5422 0100 0220     		movs	r0, #2
 5423 0102 99E7     		b	.L932
 5425              		.section	.text.I2C_DMAError,"ax",%progbits
 5426              		.align	1
 5427              		.syntax unified
 5428              		.thumb
 5429              		.thumb_func
 5430              		.fpu fpv5-sp-d16
 5432              	I2C_DMAError:
 5433              		@ args = 0, pretend = 0, frame = 0
 5434              		@ frame_needed = 0, uses_anonymous_args = 0
 5435 0000 38B5     		push	{r3, r4, r5, lr}
 5436 0002 856B     		ldr	r5, [r0, #56]
 5437 0004 AC6B     		ldr	r4, [r5, #56]
 5438 0006 24B1     		cbz	r4, .L971
 5439 0008 2368     		ldr	r3, [r4]
 5440 000a 5C68     		ldr	r4, [r3, #4]
 5441 000c B4FA84F4 		clz	r4, r4
 5442 0010 6409     		lsrs	r4, r4, #5
ARM GAS  /tmp/cckhjLjw.s 			page 94


 5443              	.L971:
 5444 0012 EB6B     		ldr	r3, [r5, #60]
 5445 0014 23B1     		cbz	r3, .L972
 5446 0016 1B68     		ldr	r3, [r3]
 5447 0018 5B68     		ldr	r3, [r3, #4]
 5448 001a 002B     		cmp	r3, #0
 5449 001c 08BF     		it	eq
 5450 001e 0124     		moveq	r4, #1
 5451              	.L972:
 5452 0020 FFF7FEFF 		bl	HAL_DMA_GetError
 5453 0024 0228     		cmp	r0, #2
 5454 0026 0BD0     		beq	.L970
 5455 0028 54B1     		cbz	r4, .L970
 5456 002a 2A68     		ldr	r2, [r5]
 5457 002c 2846     		mov	r0, r5
 5458 002e 1021     		movs	r1, #16
 5459 0030 5368     		ldr	r3, [r2, #4]
 5460 0032 43F40043 		orr	r3, r3, #32768
 5461 0036 5360     		str	r3, [r2, #4]
 5462 0038 BDE83840 		pop	{r3, r4, r5, lr}
 5463 003c FFF7FEBF 		b	I2C_ITError
 5464              	.L970:
 5465 0040 38BD     		pop	{r3, r4, r5, pc}
 5467              		.section	.text.I2C_DMAMasterTransmitCplt,"ax",%progbits
 5468              		.align	1
 5469              		.syntax unified
 5470              		.thumb
 5471              		.thumb_func
 5472              		.fpu fpv5-sp-d16
 5474              	I2C_DMAMasterTransmitCplt:
 5475              		@ args = 0, pretend = 0, frame = 0
 5476              		@ frame_needed = 0, uses_anonymous_args = 0
 5477 0000 10B5     		push	{r4, lr}
 5478 0002 846B     		ldr	r4, [r0, #56]
 5479 0004 2268     		ldr	r2, [r4]
 5480 0006 1368     		ldr	r3, [r2]
 5481 0008 23F48043 		bic	r3, r3, #16384
 5482 000c 1360     		str	r3, [r2]
 5483 000e 638D     		ldrh	r3, [r4, #42]
 5484 0010 9BB2     		uxth	r3, r3
 5485 0012 2BB9     		cbnz	r3, .L985
 5486              	.L987:
 5487 0014 2046     		mov	r0, r4
 5488 0016 1221     		movs	r1, #18
 5489 0018 BDE81040 		pop	{r4, lr}
 5490 001c FFF7FEBF 		b	I2C_Enable_IRQ
 5491              	.L985:
 5492 0020 238D     		ldrh	r3, [r4, #40]
 5493 0022 616A     		ldr	r1, [r4, #36]
 5494 0024 1944     		add	r1, r1, r3
 5495 0026 638D     		ldrh	r3, [r4, #42]
 5496 0028 FF2B     		cmp	r3, #255
 5497 002a 6162     		str	r1, [r4, #36]
 5498 002c 0ED8     		bhi	.L988
 5499 002e 638D     		ldrh	r3, [r4, #42]
 5500 0030 9BB2     		uxth	r3, r3
 5501              	.L986:
ARM GAS  /tmp/cckhjLjw.s 			page 95


 5502 0032 2385     		strh	r3, [r4, #40]	@ movhi
 5503 0034 2832     		adds	r2, r2, #40
 5504 0036 A06B     		ldr	r0, [r4, #56]
 5505 0038 FFF7FEFF 		bl	HAL_DMA_Start_IT
 5506 003c 0028     		cmp	r0, #0
 5507 003e E9D0     		beq	.L987
 5508 0040 2046     		mov	r0, r4
 5509 0042 1021     		movs	r1, #16
 5510 0044 BDE81040 		pop	{r4, lr}
 5511 0048 FFF7FEBF 		b	I2C_ITError
 5512              	.L988:
 5513 004c FF23     		movs	r3, #255
 5514 004e F0E7     		b	.L986
 5516              		.section	.text.I2C_DMAMasterReceiveCplt,"ax",%progbits
 5517              		.align	1
 5518              		.syntax unified
 5519              		.thumb
 5520              		.thumb_func
 5521              		.fpu fpv5-sp-d16
 5523              	I2C_DMAMasterReceiveCplt:
 5524              		@ args = 0, pretend = 0, frame = 0
 5525              		@ frame_needed = 0, uses_anonymous_args = 0
 5526 0000 10B5     		push	{r4, lr}
 5527 0002 846B     		ldr	r4, [r0, #56]
 5528 0004 2168     		ldr	r1, [r4]
 5529 0006 0B68     		ldr	r3, [r1]
 5530 0008 23F40043 		bic	r3, r3, #32768
 5531 000c 0B60     		str	r3, [r1]
 5532 000e 638D     		ldrh	r3, [r4, #42]
 5533 0010 9BB2     		uxth	r3, r3
 5534 0012 2BB9     		cbnz	r3, .L990
 5535              	.L992:
 5536 0014 2046     		mov	r0, r4
 5537 0016 1221     		movs	r1, #18
 5538 0018 BDE81040 		pop	{r4, lr}
 5539 001c FFF7FEBF 		b	I2C_Enable_IRQ
 5540              	.L990:
 5541 0020 238D     		ldrh	r3, [r4, #40]
 5542 0022 626A     		ldr	r2, [r4, #36]
 5543 0024 1A44     		add	r2, r2, r3
 5544 0026 638D     		ldrh	r3, [r4, #42]
 5545 0028 FF2B     		cmp	r3, #255
 5546 002a 6262     		str	r2, [r4, #36]
 5547 002c 0ED8     		bhi	.L993
 5548 002e 638D     		ldrh	r3, [r4, #42]
 5549 0030 9BB2     		uxth	r3, r3
 5550              	.L991:
 5551 0032 2385     		strh	r3, [r4, #40]	@ movhi
 5552 0034 2431     		adds	r1, r1, #36
 5553 0036 E06B     		ldr	r0, [r4, #60]
 5554 0038 FFF7FEFF 		bl	HAL_DMA_Start_IT
 5555 003c 0028     		cmp	r0, #0
 5556 003e E9D0     		beq	.L992
 5557 0040 2046     		mov	r0, r4
 5558 0042 1021     		movs	r1, #16
 5559 0044 BDE81040 		pop	{r4, lr}
 5560 0048 FFF7FEBF 		b	I2C_ITError
ARM GAS  /tmp/cckhjLjw.s 			page 96


 5561              	.L993:
 5562 004c FF23     		movs	r3, #255
 5563 004e F0E7     		b	.L991
 5565              		.section	.text.HAL_I2C_ER_IRQHandler,"ax",%progbits
 5566              		.align	1
 5567              		.global	HAL_I2C_ER_IRQHandler
 5568              		.syntax unified
 5569              		.thumb
 5570              		.thumb_func
 5571              		.fpu fpv5-sp-d16
 5573              	HAL_I2C_ER_IRQHandler:
 5574              		@ args = 0, pretend = 0, frame = 0
 5575              		@ frame_needed = 0, uses_anonymous_args = 0
 5576              		@ link register save eliminated.
 5577 0000 0368     		ldr	r3, [r0]
 5578 0002 9969     		ldr	r1, [r3, #24]
 5579 0004 1A68     		ldr	r2, [r3]
 5580 0006 10B4     		push	{r4}
 5581 0008 CC05     		lsls	r4, r1, #23
 5582 000a 08D5     		bpl	.L995
 5583 000c 1406     		lsls	r4, r2, #24
 5584 000e 06D5     		bpl	.L995
 5585 0010 446C     		ldr	r4, [r0, #68]
 5586 0012 44F00104 		orr	r4, r4, #1
 5587 0016 4464     		str	r4, [r0, #68]
 5588 0018 4FF48074 		mov	r4, #256
 5589 001c DC61     		str	r4, [r3, #28]
 5590              	.L995:
 5591 001e 4C05     		lsls	r4, r1, #21
 5592 0020 08D5     		bpl	.L996
 5593 0022 1406     		lsls	r4, r2, #24
 5594 0024 06D5     		bpl	.L996
 5595 0026 446C     		ldr	r4, [r0, #68]
 5596 0028 44F00804 		orr	r4, r4, #8
 5597 002c 4464     		str	r4, [r0, #68]
 5598 002e 4FF48064 		mov	r4, #1024
 5599 0032 DC61     		str	r4, [r3, #28]
 5600              	.L996:
 5601 0034 8905     		lsls	r1, r1, #22
 5602 0036 08D5     		bpl	.L997
 5603 0038 1206     		lsls	r2, r2, #24
 5604 003a 06D5     		bpl	.L997
 5605 003c 426C     		ldr	r2, [r0, #68]
 5606 003e 42F00202 		orr	r2, r2, #2
 5607 0042 4264     		str	r2, [r0, #68]
 5608 0044 4FF40072 		mov	r2, #512
 5609 0048 DA61     		str	r2, [r3, #28]
 5610              	.L997:
 5611 004a 416C     		ldr	r1, [r0, #68]
 5612 004c 11F00B0F 		tst	r1, #11
 5613 0050 03D0     		beq	.L994
 5614 0052 5DF8044B 		ldr	r4, [sp], #4
 5615 0056 FFF7FEBF 		b	I2C_ITError
 5616              	.L994:
 5617 005a 5DF8044B 		ldr	r4, [sp], #4
 5618 005e 7047     		bx	lr
 5620              		.section	.text.I2C_DMAAbort,"ax",%progbits
ARM GAS  /tmp/cckhjLjw.s 			page 97


 5621              		.align	1
 5622              		.syntax unified
 5623              		.thumb
 5624              		.thumb_func
 5625              		.fpu fpv5-sp-d16
 5627              	I2C_DMAAbort:
 5628              		@ args = 0, pretend = 0, frame = 0
 5629              		@ frame_needed = 0, uses_anonymous_args = 0
 5630 0000 806B     		ldr	r0, [r0, #56]
 5631 0002 08B5     		push	{r3, lr}
 5632 0004 826B     		ldr	r2, [r0, #56]
 5633 0006 0023     		movs	r3, #0
 5634 0008 1365     		str	r3, [r2, #80]
 5635 000a C26B     		ldr	r2, [r0, #60]
 5636 000c 1365     		str	r3, [r2, #80]
 5637 000e 90F84130 		ldrb	r3, [r0, #65]	@ zero_extendqisi2
 5638 0012 602B     		cmp	r3, #96
 5639 0014 05D1     		bne	.L1018
 5640 0016 2023     		movs	r3, #32
 5641 0018 80F84130 		strb	r3, [r0, #65]
 5642 001c FFF7FEFF 		bl	HAL_I2C_AbortCpltCallback
 5643              	.L1017:
 5644 0020 08BD     		pop	{r3, pc}
 5645              	.L1018:
 5646 0022 FFF7FEFF 		bl	HAL_I2C_ErrorCallback
 5647 0026 FBE7     		b	.L1017
 5649              		.section	.text.HAL_I2C_GetState,"ax",%progbits
 5650              		.align	1
 5651              		.global	HAL_I2C_GetState
 5652              		.syntax unified
 5653              		.thumb
 5654              		.thumb_func
 5655              		.fpu fpv5-sp-d16
 5657              	HAL_I2C_GetState:
 5658              		@ args = 0, pretend = 0, frame = 0
 5659              		@ frame_needed = 0, uses_anonymous_args = 0
 5660              		@ link register save eliminated.
 5661 0000 90F84100 		ldrb	r0, [r0, #65]	@ zero_extendqisi2
 5662 0004 7047     		bx	lr
 5664              		.section	.text.HAL_I2C_GetMode,"ax",%progbits
 5665              		.align	1
 5666              		.global	HAL_I2C_GetMode
 5667              		.syntax unified
 5668              		.thumb
 5669              		.thumb_func
 5670              		.fpu fpv5-sp-d16
 5672              	HAL_I2C_GetMode:
 5673              		@ args = 0, pretend = 0, frame = 0
 5674              		@ frame_needed = 0, uses_anonymous_args = 0
 5675              		@ link register save eliminated.
 5676 0000 90F84200 		ldrb	r0, [r0, #66]	@ zero_extendqisi2
 5677 0004 7047     		bx	lr
 5679              		.section	.text.HAL_I2C_GetError,"ax",%progbits
 5680              		.align	1
 5681              		.global	HAL_I2C_GetError
 5682              		.syntax unified
 5683              		.thumb
ARM GAS  /tmp/cckhjLjw.s 			page 98


 5684              		.thumb_func
 5685              		.fpu fpv5-sp-d16
 5687              	HAL_I2C_GetError:
 5688              		@ args = 0, pretend = 0, frame = 0
 5689              		@ frame_needed = 0, uses_anonymous_args = 0
 5690              		@ link register save eliminated.
 5691 0000 406C     		ldr	r0, [r0, #68]
 5692 0002 7047     		bx	lr
 5694              		.ident	"GCC: (GNU Tools for Arm Embedded Processors 8-2018-q4-major) 8.2.1 20181213 (release) [gcc
ARM GAS  /tmp/cckhjLjw.s 			page 99

