ARM GAS  /tmp/ccina73P.s 			page 1


   1              		.cpu cortex-m7
   2              		.eabi_attribute 27, 1
   3              		.eabi_attribute 20, 1
   4              		.eabi_attribute 21, 1
   5              		.eabi_attribute 23, 3
   6              		.eabi_attribute 24, 1
   7              		.eabi_attribute 25, 1
   8              		.eabi_attribute 26, 1
   9              		.eabi_attribute 30, 4
  10              		.eabi_attribute 34, 1
  11              		.eabi_attribute 18, 4
  12              		.file	"stm32f7xx_hal_i2c.c"
  13              		.text
  14              		.section	.text.I2C_Flush_TXDR,"ax",%progbits
  15              		.align	1
  16              		.arch armv7e-m
  17              		.syntax unified
  18              		.thumb
  19              		.thumb_func
  20              		.fpu fpv5-sp-d16
  22              	I2C_Flush_TXDR:
  23              		@ args = 0, pretend = 0, frame = 0
  24              		@ frame_needed = 0, uses_anonymous_args = 0
  25              		@ link register save eliminated.
  26 0000 0368     		ldr	r3, [r0]
  27 0002 9A69     		ldr	r2, [r3, #24]
  28 0004 9107     		lsls	r1, r2, #30
  29 0006 01D5     		bpl	.L2
  30 0008 0022     		movs	r2, #0
  31 000a 9A62     		str	r2, [r3, #40]
  32              	.L2:
  33 000c 9A69     		ldr	r2, [r3, #24]
  34 000e D207     		lsls	r2, r2, #31
  35 0010 03D4     		bmi	.L1
  36 0012 9A69     		ldr	r2, [r3, #24]
  37 0014 42F00102 		orr	r2, r2, #1
  38 0018 9A61     		str	r2, [r3, #24]
  39              	.L1:
  40 001a 7047     		bx	lr
  42              		.section	.text.I2C_TransferConfig,"ax",%progbits
  43              		.align	1
  44              		.syntax unified
  45              		.thumb
  46              		.thumb_func
  47              		.fpu fpv5-sp-d16
  49              	I2C_TransferConfig:
  50              		@ args = 4, pretend = 0, frame = 0
  51              		@ frame_needed = 0, uses_anonymous_args = 0
  52 0000 30B5     		push	{r4, r5, lr}
  53 0002 039D     		ldr	r5, [sp, #12]
  54 0004 C1F30901 		ubfx	r1, r1, #0, #10
  55 0008 0468     		ldr	r4, [r0]
  56 000a 2B43     		orrs	r3, r3, r5
  57 000c 6068     		ldr	r0, [r4, #4]
  58 000e 43EA0243 		orr	r3, r3, r2, lsl #16
  59 0012 054A     		ldr	r2, .L8
  60 0014 0B43     		orrs	r3, r3, r1
ARM GAS  /tmp/ccina73P.s 			page 2


  61 0016 42EA5552 		orr	r2, r2, r5, lsr #21
  62 001a 23F00043 		bic	r3, r3, #-2147483648
  63 001e 20EA0200 		bic	r0, r0, r2
  64 0022 0343     		orrs	r3, r3, r0
  65 0024 6360     		str	r3, [r4, #4]
  66 0026 30BD     		pop	{r4, r5, pc}
  67              	.L9:
  68              		.align	2
  69              	.L8:
  70 0028 FF63FF03 		.word	67068927
  72              		.section	.text.I2C_Enable_IRQ,"ax",%progbits
  73              		.align	1
  74              		.syntax unified
  75              		.thumb
  76              		.thumb_func
  77              		.fpu fpv5-sp-d16
  79              	I2C_Enable_IRQ:
  80              		@ args = 0, pretend = 0, frame = 0
  81              		@ frame_needed = 0, uses_anonymous_args = 0
  82 0000 426B     		ldr	r2, [r0, #52]
  83 0002 0BB2     		sxth	r3, r1
  84 0004 10B5     		push	{r4, lr}
  85 0006 194C     		ldr	r4, .L29
  86 0008 A242     		cmp	r2, r4
  87 000a 02D0     		beq	.L11
  88 000c 184C     		ldr	r4, .L29+4
  89 000e A242     		cmp	r2, r4
  90 0010 11D1     		bne	.L12
  91              	.L11:
  92 0012 002B     		cmp	r3, #0
  93 0014 0DDB     		blt	.L19
  94 0016 1029     		cmp	r1, #16
  95 0018 23D0     		beq	.L20
  96 001a 2029     		cmp	r1, #32
  97 001c 23D0     		beq	.L21
  98 001e 0023     		movs	r3, #0
  99              	.L13:
 100 0020 4029     		cmp	r1, #64
 101 0022 01D1     		bne	.L14
 102 0024 43F04003 		orr	r3, r3, #64
 103              	.L14:
 104 0028 0168     		ldr	r1, [r0]
 105 002a 0A68     		ldr	r2, [r1]
 106 002c 1343     		orrs	r3, r3, r2
 107 002e 0B60     		str	r3, [r1]
 108 0030 10BD     		pop	{r4, pc}
 109              	.L19:
 110 0032 B823     		movs	r3, #184
 111 0034 F4E7     		b	.L13
 112              	.L12:
 113 0036 002B     		cmp	r3, #0
 114 0038 ACBF     		ite	ge
 115 003a 0023     		movge	r3, #0
 116 003c B823     		movlt	r3, #184
 117 003e CC07     		lsls	r4, r1, #31
 118 0040 48BF     		it	mi
 119 0042 43F0F203 		orrmi	r3, r3, #242
ARM GAS  /tmp/ccina73P.s 			page 3


 120 0046 8A07     		lsls	r2, r1, #30
 121 0048 48BF     		it	mi
 122 004a 43F0F403 		orrmi	r3, r3, #244
 123 004e 1029     		cmp	r1, #16
 124 0050 02D1     		bne	.L18
 125 0052 43F09003 		orr	r3, r3, #144
 126 0056 E7E7     		b	.L14
 127              	.L18:
 128 0058 2029     		cmp	r1, #32
 129 005a E5D1     		bne	.L14
 130 005c 43F02003 		orr	r3, r3, #32
 131 0060 E2E7     		b	.L14
 132              	.L20:
 133 0062 9023     		movs	r3, #144
 134 0064 E0E7     		b	.L14
 135              	.L21:
 136 0066 6023     		movs	r3, #96
 137 0068 DEE7     		b	.L14
 138              	.L30:
 139 006a 00BF     		.align	2
 140              	.L29:
 141 006c 00000000 		.word	I2C_Master_ISR_DMA
 142 0070 00000000 		.word	I2C_Slave_ISR_DMA
 144              		.section	.text.I2C_Disable_IRQ,"ax",%progbits
 145              		.align	1
 146              		.syntax unified
 147              		.thumb
 148              		.thumb_func
 149              		.fpu fpv5-sp-d16
 151              	I2C_Disable_IRQ:
 152              		@ args = 0, pretend = 0, frame = 0
 153              		@ frame_needed = 0, uses_anonymous_args = 0
 154              		@ link register save eliminated.
 155 0000 11F00103 		ands	r3, r1, #1
 156 0004 07D0     		beq	.L32
 157 0006 90F84130 		ldrb	r3, [r0, #65]	@ zero_extendqisi2
 158 000a 03F02803 		and	r3, r3, #40
 159 000e 282B     		cmp	r3, #40
 160 0010 0CBF     		ite	eq
 161 0012 4223     		moveq	r3, #66
 162 0014 F223     		movne	r3, #242
 163              	.L32:
 164 0016 8A07     		lsls	r2, r1, #30
 165 0018 09D5     		bpl	.L33
 166 001a 90F84120 		ldrb	r2, [r0, #65]	@ zero_extendqisi2
 167 001e 02F02802 		and	r2, r2, #40
 168 0022 282A     		cmp	r2, #40
 169 0024 0CBF     		ite	eq
 170 0026 43F04403 		orreq	r3, r3, #68
 171 002a 43F0F403 		orrne	r3, r3, #244
 172              	.L33:
 173 002e 0A04     		lsls	r2, r1, #16
 174 0030 0168     		ldr	r1, [r0]
 175 0032 48BF     		it	mi
 176 0034 43F0B803 		orrmi	r3, r3, #184
 177 0038 0A68     		ldr	r2, [r1]
 178 003a 22EA0303 		bic	r3, r2, r3
ARM GAS  /tmp/ccina73P.s 			page 4


 179 003e 0B60     		str	r3, [r1]
 180 0040 7047     		bx	lr
 182              		.section	.text.I2C_IsErrorOccurred,"ax",%progbits
 183              		.align	1
 184              		.syntax unified
 185              		.thumb
 186              		.thumb_func
 187              		.fpu fpv5-sp-d16
 189              	I2C_IsErrorOccurred:
 190              		@ args = 0, pretend = 0, frame = 0
 191              		@ frame_needed = 0, uses_anonymous_args = 0
 192 0000 0368     		ldr	r3, [r0]
 193 0002 2DE9F041 		push	{r4, r5, r6, r7, r8, lr}
 194 0006 9C69     		ldr	r4, [r3, #24]
 195 0008 0546     		mov	r5, r0
 196 000a 0F46     		mov	r7, r1
 197 000c 1646     		mov	r6, r2
 198 000e 14F01004 		ands	r4, r4, #16
 199 0012 70D0     		beq	.L58
 200 0014 0024     		movs	r4, #0
 201 0016 1022     		movs	r2, #16
 202 0018 A046     		mov	r8, r4
 203 001a DA61     		str	r2, [r3, #28]
 204              	.L43:
 205 001c 2B68     		ldr	r3, [r5]
 206              	.L44:
 207 001e 9A69     		ldr	r2, [r3, #24]
 208 0020 9206     		lsls	r2, r2, #26
 209 0022 62D4     		bmi	.L50
 210 0024 B8F1000F 		cmp	r8, #0
 211 0028 36D0     		beq	.L51
 212              	.L52:
 213 002a 44F00404 		orr	r4, r4, #4
 214 002e 0120     		movs	r0, #1
 215              	.L42:
 216 0030 2B68     		ldr	r3, [r5]
 217 0032 9A69     		ldr	r2, [r3, #24]
 218 0034 D605     		lsls	r6, r2, #23
 219 0036 05D5     		bpl	.L53
 220 0038 4FF48071 		mov	r1, #256
 221 003c 44F00104 		orr	r4, r4, #1
 222 0040 0120     		movs	r0, #1
 223 0042 D961     		str	r1, [r3, #28]
 224              	.L53:
 225 0044 5105     		lsls	r1, r2, #21
 226 0046 05D5     		bpl	.L54
 227 0048 4FF48061 		mov	r1, #1024
 228 004c 44F00804 		orr	r4, r4, #8
 229 0050 0120     		movs	r0, #1
 230 0052 D961     		str	r1, [r3, #28]
 231              	.L54:
 232 0054 9205     		lsls	r2, r2, #22
 233 0056 50D5     		bpl	.L55
 234 0058 4FF40072 		mov	r2, #512
 235 005c 44F00204 		orr	r4, r4, #2
 236 0060 DA61     		str	r2, [r3, #28]
 237              	.L56:
ARM GAS  /tmp/ccina73P.s 			page 5


 238 0062 2846     		mov	r0, r5
 239 0064 FFF7FEFF 		bl	I2C_Flush_TXDR
 240 0068 2A68     		ldr	r2, [r5]
 241 006a 0120     		movs	r0, #1
 242 006c 5368     		ldr	r3, [r2, #4]
 243 006e 23F0FF73 		bic	r3, r3, #33423360
 244 0072 23F48B33 		bic	r3, r3, #71168
 245 0076 23F4FF73 		bic	r3, r3, #510
 246 007a 23F00103 		bic	r3, r3, #1
 247 007e 5360     		str	r3, [r2, #4]
 248 0080 6B6C     		ldr	r3, [r5, #68]
 249 0082 1C43     		orrs	r4, r4, r3
 250 0084 2023     		movs	r3, #32
 251 0086 6C64     		str	r4, [r5, #68]
 252 0088 85F84130 		strb	r3, [r5, #65]
 253 008c 0023     		movs	r3, #0
 254 008e 85F84230 		strb	r3, [r5, #66]
 255 0092 85F84030 		strb	r3, [r5, #64]
 256 0096 32E0     		b	.L57
 257              	.L51:
 258 0098 7A1C     		adds	r2, r7, #1
 259 009a C0D0     		beq	.L44
 260 009c FFF7FEFF 		bl	HAL_GetTick
 261 00a0 801B     		subs	r0, r0, r6
 262 00a2 B842     		cmp	r0, r7
 263 00a4 01D8     		bhi	.L45
 264 00a6 002F     		cmp	r7, #0
 265 00a8 B8D1     		bne	.L43
 266              	.L45:
 267 00aa 2B68     		ldr	r3, [r5]
 268 00ac 5968     		ldr	r1, [r3, #4]
 269 00ae 95F84220 		ldrb	r2, [r5, #66]	@ zero_extendqisi2
 270 00b2 9869     		ldr	r0, [r3, #24]
 271 00b4 D2B2     		uxtb	r2, r2
 272 00b6 0004     		lsls	r0, r0, #16
 273 00b8 0AD5     		bpl	.L48
 274 00ba 4804     		lsls	r0, r1, #17
 275 00bc 08D4     		bmi	.L48
 276 00be 202A     		cmp	r2, #32
 277 00c0 06D0     		beq	.L48
 278 00c2 5A68     		ldr	r2, [r3, #4]
 279 00c4 42F48042 		orr	r2, r2, #16384
 280 00c8 5A60     		str	r2, [r3, #4]
 281 00ca FFF7FEFF 		bl	HAL_GetTick
 282 00ce 0646     		mov	r6, r0
 283              	.L48:
 284 00d0 2B68     		ldr	r3, [r5]
 285 00d2 9B69     		ldr	r3, [r3, #24]
 286 00d4 9906     		lsls	r1, r3, #26
 287 00d6 A1D4     		bmi	.L43
 288 00d8 FFF7FEFF 		bl	HAL_GetTick
 289 00dc 801B     		subs	r0, r0, r6
 290 00de 1928     		cmp	r0, #25
 291 00e0 F6D9     		bls	.L48
 292 00e2 2024     		movs	r4, #32
 293 00e4 4FF00108 		mov	r8, #1
 294 00e8 98E7     		b	.L43
ARM GAS  /tmp/ccina73P.s 			page 6


 295              	.L50:
 296 00ea B8F1000F 		cmp	r8, #0
 297 00ee 9CD1     		bne	.L52
 298 00f0 2022     		movs	r2, #32
 299 00f2 DA61     		str	r2, [r3, #28]
 300 00f4 99E7     		b	.L52
 301              	.L58:
 302 00f6 2046     		mov	r0, r4
 303 00f8 9AE7     		b	.L42
 304              	.L55:
 305 00fa 0028     		cmp	r0, #0
 306 00fc B1D1     		bne	.L56
 307              	.L57:
 308 00fe BDE8F081 		pop	{r4, r5, r6, r7, r8, pc}
 310              		.section	.text.I2C_WaitOnTXISFlagUntilTimeout,"ax",%progbits
 311              		.align	1
 312              		.syntax unified
 313              		.thumb
 314              		.thumb_func
 315              		.fpu fpv5-sp-d16
 317              	I2C_WaitOnTXISFlagUntilTimeout:
 318              		@ args = 0, pretend = 0, frame = 0
 319              		@ frame_needed = 0, uses_anonymous_args = 0
 320 0000 70B5     		push	{r4, r5, r6, lr}
 321 0002 0446     		mov	r4, r0
 322 0004 0D46     		mov	r5, r1
 323 0006 1646     		mov	r6, r2
 324              	.L80:
 325 0008 2368     		ldr	r3, [r4]
 326 000a 9B69     		ldr	r3, [r3, #24]
 327 000c 9B07     		lsls	r3, r3, #30
 328 000e 01D5     		bpl	.L82
 329 0010 0020     		movs	r0, #0
 330              	.L79:
 331 0012 70BD     		pop	{r4, r5, r6, pc}
 332              	.L82:
 333 0014 3246     		mov	r2, r6
 334 0016 2946     		mov	r1, r5
 335 0018 2046     		mov	r0, r4
 336 001a FFF7FEFF 		bl	I2C_IsErrorOccurred
 337 001e A0B9     		cbnz	r0, .L83
 338 0020 6A1C     		adds	r2, r5, #1
 339 0022 F1D0     		beq	.L80
 340 0024 FFF7FEFF 		bl	HAL_GetTick
 341 0028 801B     		subs	r0, r0, r6
 342 002a A842     		cmp	r0, r5
 343 002c 01D8     		bhi	.L81
 344 002e 002D     		cmp	r5, #0
 345 0030 EAD1     		bne	.L80
 346              	.L81:
 347 0032 636C     		ldr	r3, [r4, #68]
 348 0034 43F02003 		orr	r3, r3, #32
 349 0038 6364     		str	r3, [r4, #68]
 350 003a 2023     		movs	r3, #32
 351 003c 84F84130 		strb	r3, [r4, #65]
 352 0040 0023     		movs	r3, #0
 353 0042 84F84230 		strb	r3, [r4, #66]
ARM GAS  /tmp/ccina73P.s 			page 7


 354 0046 84F84030 		strb	r3, [r4, #64]
 355              	.L83:
 356 004a 0120     		movs	r0, #1
 357 004c E1E7     		b	.L79
 359              		.section	.text.I2C_WaitOnRXNEFlagUntilTimeout,"ax",%progbits
 360              		.align	1
 361              		.syntax unified
 362              		.thumb
 363              		.thumb_func
 364              		.fpu fpv5-sp-d16
 366              	I2C_WaitOnRXNEFlagUntilTimeout:
 367              		@ args = 0, pretend = 0, frame = 0
 368              		@ frame_needed = 0, uses_anonymous_args = 0
 369 0000 70B5     		push	{r4, r5, r6, lr}
 370 0002 0446     		mov	r4, r0
 371 0004 0D46     		mov	r5, r1
 372 0006 1646     		mov	r6, r2
 373              	.L88:
 374 0008 2368     		ldr	r3, [r4]
 375 000a 9B69     		ldr	r3, [r3, #24]
 376 000c 5B07     		lsls	r3, r3, #29
 377 000e 0ED4     		bmi	.L96
 378 0010 3246     		mov	r2, r6
 379 0012 2946     		mov	r1, r5
 380 0014 2046     		mov	r0, r4
 381 0016 FFF7FEFF 		bl	I2C_IsErrorOccurred
 382 001a 28BB     		cbnz	r0, .L97
 383 001c 2368     		ldr	r3, [r4]
 384 001e 9A69     		ldr	r2, [r3, #24]
 385 0020 9106     		lsls	r1, r2, #26
 386 0022 23D5     		bpl	.L90
 387 0024 9A69     		ldr	r2, [r3, #24]
 388 0026 5207     		lsls	r2, r2, #29
 389 0028 03D5     		bpl	.L91
 390 002a 228D     		ldrh	r2, [r4, #40]
 391 002c 0AB1     		cbz	r2, .L91
 392              	.L96:
 393 002e 0020     		movs	r0, #0
 394              	.L89:
 395 0030 70BD     		pop	{r4, r5, r6, pc}
 396              	.L91:
 397 0032 9A69     		ldr	r2, [r3, #24]
 398 0034 12F01002 		ands	r2, r2, #16
 399 0038 02D0     		beq	.L92
 400 003a 1022     		movs	r2, #16
 401 003c DA61     		str	r2, [r3, #28]
 402 003e 0422     		movs	r2, #4
 403              	.L92:
 404 0040 2021     		movs	r1, #32
 405 0042 6264     		str	r2, [r4, #68]
 406 0044 D961     		str	r1, [r3, #28]
 407 0046 5A68     		ldr	r2, [r3, #4]
 408 0048 22F0FF72 		bic	r2, r2, #33423360
 409 004c 22F48B32 		bic	r2, r2, #71168
 410 0050 22F4FF72 		bic	r2, r2, #510
 411 0054 22F00102 		bic	r2, r2, #1
 412 0058 5A60     		str	r2, [r3, #4]
ARM GAS  /tmp/ccina73P.s 			page 8


 413 005a 0023     		movs	r3, #0
 414 005c 84F84110 		strb	r1, [r4, #65]
 415 0060 84F84230 		strb	r3, [r4, #66]
 416              	.L105:
 417 0064 84F84030 		strb	r3, [r4, #64]
 418              	.L97:
 419 0068 0120     		movs	r0, #1
 420 006a E1E7     		b	.L89
 421              	.L90:
 422 006c FFF7FEFF 		bl	HAL_GetTick
 423 0070 801B     		subs	r0, r0, r6
 424 0072 A842     		cmp	r0, r5
 425 0074 01D8     		bhi	.L94
 426 0076 002D     		cmp	r5, #0
 427 0078 C6D1     		bne	.L88
 428              	.L94:
 429 007a 636C     		ldr	r3, [r4, #68]
 430 007c 43F02003 		orr	r3, r3, #32
 431 0080 6364     		str	r3, [r4, #68]
 432 0082 2023     		movs	r3, #32
 433 0084 84F84130 		strb	r3, [r4, #65]
 434 0088 0023     		movs	r3, #0
 435 008a EBE7     		b	.L105
 437              		.section	.text.I2C_ConvertOtherXferOptions,"ax",%progbits
 438              		.align	1
 439              		.syntax unified
 440              		.thumb
 441              		.thumb_func
 442              		.fpu fpv5-sp-d16
 444              	I2C_ConvertOtherXferOptions:
 445              		@ args = 0, pretend = 0, frame = 0
 446              		@ frame_needed = 0, uses_anonymous_args = 0
 447              		@ link register save eliminated.
 448 0000 C36A     		ldr	r3, [r0, #44]
 449 0002 AA2B     		cmp	r3, #170
 450 0004 02D1     		bne	.L107
 451 0006 0023     		movs	r3, #0
 452              	.L109:
 453 0008 C362     		str	r3, [r0, #44]
 454              	.L106:
 455 000a 7047     		bx	lr
 456              	.L107:
 457 000c C36A     		ldr	r3, [r0, #44]
 458 000e B3F52A4F 		cmp	r3, #43520
 459 0012 FAD1     		bne	.L106
 460 0014 4FF00073 		mov	r3, #33554432
 461 0018 F6E7     		b	.L109
 463              		.section	.text.I2C_WaitOnFlagUntilTimeout,"ax",%progbits
 464              		.align	1
 465              		.syntax unified
 466              		.thumb
 467              		.thumb_func
 468              		.fpu fpv5-sp-d16
 470              	I2C_WaitOnFlagUntilTimeout:
 471              		@ args = 4, pretend = 0, frame = 0
 472              		@ frame_needed = 0, uses_anonymous_args = 0
 473 0000 2DE9F041 		push	{r4, r5, r6, r7, r8, lr}
ARM GAS  /tmp/ccina73P.s 			page 9


 474 0004 069F     		ldr	r7, [sp, #24]
 475 0006 0446     		mov	r4, r0
 476 0008 8846     		mov	r8, r1
 477 000a 1646     		mov	r6, r2
 478 000c 1D46     		mov	r5, r3
 479              	.L111:
 480 000e 2268     		ldr	r2, [r4]
 481              	.L112:
 482 0010 9369     		ldr	r3, [r2, #24]
 483 0012 38EA0303 		bics	r3, r8, r3
 484 0016 0CBF     		ite	eq
 485 0018 0123     		moveq	r3, #1
 486 001a 0023     		movne	r3, #0
 487 001c B342     		cmp	r3, r6
 488 001e 01D0     		beq	.L115
 489 0020 0020     		movs	r0, #0
 490 0022 15E0     		b	.L114
 491              	.L115:
 492 0024 6B1C     		adds	r3, r5, #1
 493 0026 F3D0     		beq	.L112
 494 0028 FFF7FEFF 		bl	HAL_GetTick
 495 002c C01B     		subs	r0, r0, r7
 496 002e A842     		cmp	r0, r5
 497 0030 01D8     		bhi	.L113
 498 0032 002D     		cmp	r5, #0
 499 0034 EBD1     		bne	.L111
 500              	.L113:
 501 0036 636C     		ldr	r3, [r4, #68]
 502 0038 0120     		movs	r0, #1
 503 003a 43F02003 		orr	r3, r3, #32
 504 003e 6364     		str	r3, [r4, #68]
 505 0040 2023     		movs	r3, #32
 506 0042 84F84130 		strb	r3, [r4, #65]
 507 0046 0023     		movs	r3, #0
 508 0048 84F84230 		strb	r3, [r4, #66]
 509 004c 84F84030 		strb	r3, [r4, #64]
 510              	.L114:
 511 0050 BDE8F081 		pop	{r4, r5, r6, r7, r8, pc}
 513              		.section	.text.I2C_WaitOnSTOPFlagUntilTimeout,"ax",%progbits
 514              		.align	1
 515              		.syntax unified
 516              		.thumb
 517              		.thumb_func
 518              		.fpu fpv5-sp-d16
 520              	I2C_WaitOnSTOPFlagUntilTimeout:
 521              		@ args = 0, pretend = 0, frame = 0
 522              		@ frame_needed = 0, uses_anonymous_args = 0
 523 0000 70B5     		push	{r4, r5, r6, lr}
 524 0002 0446     		mov	r4, r0
 525 0004 0D46     		mov	r5, r1
 526 0006 1646     		mov	r6, r2
 527              	.L120:
 528 0008 2368     		ldr	r3, [r4]
 529 000a 9B69     		ldr	r3, [r3, #24]
 530 000c 9B06     		lsls	r3, r3, #26
 531 000e 01D5     		bpl	.L123
 532 0010 0020     		movs	r0, #0
ARM GAS  /tmp/ccina73P.s 			page 10


 533              	.L121:
 534 0012 70BD     		pop	{r4, r5, r6, pc}
 535              	.L123:
 536 0014 3246     		mov	r2, r6
 537 0016 2946     		mov	r1, r5
 538 0018 2046     		mov	r0, r4
 539 001a FFF7FEFF 		bl	I2C_IsErrorOccurred
 540 001e 90B9     		cbnz	r0, .L124
 541 0020 FFF7FEFF 		bl	HAL_GetTick
 542 0024 801B     		subs	r0, r0, r6
 543 0026 A842     		cmp	r0, r5
 544 0028 01D8     		bhi	.L122
 545 002a 002D     		cmp	r5, #0
 546 002c ECD1     		bne	.L120
 547              	.L122:
 548 002e 636C     		ldr	r3, [r4, #68]
 549 0030 43F02003 		orr	r3, r3, #32
 550 0034 6364     		str	r3, [r4, #68]
 551 0036 2023     		movs	r3, #32
 552 0038 84F84130 		strb	r3, [r4, #65]
 553 003c 0023     		movs	r3, #0
 554 003e 84F84230 		strb	r3, [r4, #66]
 555 0042 84F84030 		strb	r3, [r4, #64]
 556              	.L124:
 557 0046 0120     		movs	r0, #1
 558 0048 E3E7     		b	.L121
 560              		.section	.text.HAL_I2C_MspInit,"ax",%progbits
 561              		.align	1
 562              		.weak	HAL_I2C_MspInit
 563              		.syntax unified
 564              		.thumb
 565              		.thumb_func
 566              		.fpu fpv5-sp-d16
 568              	HAL_I2C_MspInit:
 569              		@ args = 0, pretend = 0, frame = 0
 570              		@ frame_needed = 0, uses_anonymous_args = 0
 571              		@ link register save eliminated.
 572 0000 7047     		bx	lr
 574              		.section	.text.HAL_I2C_Init,"ax",%progbits
 575              		.align	1
 576              		.global	HAL_I2C_Init
 577              		.syntax unified
 578              		.thumb
 579              		.thumb_func
 580              		.fpu fpv5-sp-d16
 582              	HAL_I2C_Init:
 583              		@ args = 0, pretend = 0, frame = 0
 584              		@ frame_needed = 0, uses_anonymous_args = 0
 585 0000 10B5     		push	{r4, lr}
 586 0002 0446     		mov	r4, r0
 587 0004 0028     		cmp	r0, #0
 588 0006 4AD0     		beq	.L132
 589 0008 90F84130 		ldrb	r3, [r0, #65]	@ zero_extendqisi2
 590 000c 03F0FF02 		and	r2, r3, #255
 591 0010 1BB9     		cbnz	r3, .L129
 592 0012 80F84020 		strb	r2, [r0, #64]
 593 0016 FFF7FEFF 		bl	HAL_I2C_MspInit
ARM GAS  /tmp/ccina73P.s 			page 11


 594              	.L129:
 595 001a 2423     		movs	r3, #36
 596 001c 84F84130 		strb	r3, [r4, #65]
 597 0020 2368     		ldr	r3, [r4]
 598 0022 1A68     		ldr	r2, [r3]
 599 0024 22F00102 		bic	r2, r2, #1
 600 0028 1A60     		str	r2, [r3]
 601 002a 6268     		ldr	r2, [r4, #4]
 602 002c 22F07062 		bic	r2, r2, #251658240
 603 0030 1A61     		str	r2, [r3, #16]
 604 0032 9A68     		ldr	r2, [r3, #8]
 605 0034 22F40042 		bic	r2, r2, #32768
 606 0038 9A60     		str	r2, [r3, #8]
 607 003a D4E90221 		ldrd	r2, r1, [r4, #8]
 608 003e 0129     		cmp	r1, #1
 609 0040 24D1     		bne	.L130
 610 0042 42F40042 		orr	r2, r2, #32768
 611 0046 9A60     		str	r2, [r3, #8]
 612              	.L131:
 613 0048 5A68     		ldr	r2, [r3, #4]
 614 004a 0020     		movs	r0, #0
 615 004c 42F00072 		orr	r2, r2, #33554432
 616 0050 42F40042 		orr	r2, r2, #32768
 617 0054 5A60     		str	r2, [r3, #4]
 618 0056 DA68     		ldr	r2, [r3, #12]
 619 0058 22F40042 		bic	r2, r2, #32768
 620 005c DA60     		str	r2, [r3, #12]
 621 005e D4E90421 		ldrd	r2, r1, [r4, #16]
 622 0062 0A43     		orrs	r2, r2, r1
 623 0064 A169     		ldr	r1, [r4, #24]
 624 0066 42EA0122 		orr	r2, r2, r1, lsl #8
 625 006a DA60     		str	r2, [r3, #12]
 626 006c D4E90721 		ldrd	r2, r1, [r4, #28]
 627 0070 0A43     		orrs	r2, r2, r1
 628 0072 1A60     		str	r2, [r3]
 629 0074 1A68     		ldr	r2, [r3]
 630 0076 42F00102 		orr	r2, r2, #1
 631 007a 1A60     		str	r2, [r3]
 632 007c 2023     		movs	r3, #32
 633 007e 6064     		str	r0, [r4, #68]
 634 0080 84F84130 		strb	r3, [r4, #65]
 635 0084 2063     		str	r0, [r4, #48]
 636 0086 84F84200 		strb	r0, [r4, #66]
 637              	.L128:
 638 008a 10BD     		pop	{r4, pc}
 639              	.L130:
 640 008c 42F40442 		orr	r2, r2, #33792
 641 0090 0229     		cmp	r1, #2
 642 0092 9A60     		str	r2, [r3, #8]
 643 0094 D8D1     		bne	.L131
 644 0096 4FF40062 		mov	r2, #2048
 645 009a 5A60     		str	r2, [r3, #4]
 646 009c D4E7     		b	.L131
 647              	.L132:
 648 009e 0120     		movs	r0, #1
 649 00a0 F3E7     		b	.L128
 651              		.section	.text.HAL_I2C_MspDeInit,"ax",%progbits
ARM GAS  /tmp/ccina73P.s 			page 12


 652              		.align	1
 653              		.weak	HAL_I2C_MspDeInit
 654              		.syntax unified
 655              		.thumb
 656              		.thumb_func
 657              		.fpu fpv5-sp-d16
 659              	HAL_I2C_MspDeInit:
 660              		@ args = 0, pretend = 0, frame = 0
 661              		@ frame_needed = 0, uses_anonymous_args = 0
 662              		@ link register save eliminated.
 663 0000 7047     		bx	lr
 665              		.section	.text.HAL_I2C_DeInit,"ax",%progbits
 666              		.align	1
 667              		.global	HAL_I2C_DeInit
 668              		.syntax unified
 669              		.thumb
 670              		.thumb_func
 671              		.fpu fpv5-sp-d16
 673              	HAL_I2C_DeInit:
 674              		@ args = 0, pretend = 0, frame = 0
 675              		@ frame_needed = 0, uses_anonymous_args = 0
 676 0000 10B5     		push	{r4, lr}
 677 0002 0446     		mov	r4, r0
 678 0004 98B1     		cbz	r0, .L136
 679 0006 0268     		ldr	r2, [r0]
 680 0008 2423     		movs	r3, #36
 681 000a 80F84130 		strb	r3, [r0, #65]
 682 000e 1368     		ldr	r3, [r2]
 683 0010 23F00103 		bic	r3, r3, #1
 684 0014 1360     		str	r3, [r2]
 685 0016 FFF7FEFF 		bl	HAL_I2C_MspDeInit
 686 001a 0020     		movs	r0, #0
 687 001c 6064     		str	r0, [r4, #68]
 688 001e 84F84000 		strb	r0, [r4, #64]
 689 0022 84F84100 		strb	r0, [r4, #65]
 690 0026 2063     		str	r0, [r4, #48]
 691 0028 84F84200 		strb	r0, [r4, #66]
 692              	.L135:
 693 002c 10BD     		pop	{r4, pc}
 694              	.L136:
 695 002e 0120     		movs	r0, #1
 696 0030 FCE7     		b	.L135
 698              		.section	.text.HAL_I2C_Master_Transmit,"ax",%progbits
 699              		.align	1
 700              		.global	HAL_I2C_Master_Transmit
 701              		.syntax unified
 702              		.thumb
 703              		.thumb_func
 704              		.fpu fpv5-sp-d16
 706              	HAL_I2C_Master_Transmit:
 707              		@ args = 4, pretend = 0, frame = 0
 708              		@ frame_needed = 0, uses_anonymous_args = 0
 709 0000 2DE9F347 		push	{r0, r1, r4, r5, r6, r7, r8, r9, r10, lr}
 710 0004 9846     		mov	r8, r3
 711 0006 90F84130 		ldrb	r3, [r0, #65]	@ zero_extendqisi2
 712 000a 0446     		mov	r4, r0
 713 000c 0E46     		mov	r6, r1
ARM GAS  /tmp/ccina73P.s 			page 13


 714 000e 202B     		cmp	r3, #32
 715 0010 9146     		mov	r9, r2
 716 0012 0A9F     		ldr	r7, [sp, #40]
 717 0014 40F08680 		bne	.L148
 718 0018 90F84030 		ldrb	r3, [r0, #64]	@ zero_extendqisi2
 719 001c 012B     		cmp	r3, #1
 720 001e 00F08180 		beq	.L148
 721 0022 4FF0010A 		mov	r10, #1
 722 0026 80F840A0 		strb	r10, [r0, #64]
 723 002a FFF7FEFF 		bl	HAL_GetTick
 724 002e 1923     		movs	r3, #25
 725 0030 0546     		mov	r5, r0
 726 0032 0090     		str	r0, [sp]
 727 0034 5246     		mov	r2, r10
 728 0036 4FF40041 		mov	r1, #32768
 729 003a 2046     		mov	r0, r4
 730 003c FFF7FEFF 		bl	I2C_WaitOnFlagUntilTimeout
 731 0040 18B1     		cbz	r0, .L139
 732              	.L143:
 733 0042 0120     		movs	r0, #1
 734              	.L138:
 735 0044 02B0     		add	sp, sp, #8
 736              		@ sp needed
 737 0046 BDE8F087 		pop	{r4, r5, r6, r7, r8, r9, r10, pc}
 738              	.L139:
 739 004a 2123     		movs	r3, #33
 740 004c C4F82490 		str	r9, [r4, #36]
 741 0050 6063     		str	r0, [r4, #52]
 742 0052 84F84130 		strb	r3, [r4, #65]
 743 0056 1023     		movs	r3, #16
 744 0058 84F84230 		strb	r3, [r4, #66]
 745 005c 6064     		str	r0, [r4, #68]
 746 005e A4F82A80 		strh	r8, [r4, #42]	@ movhi
 747 0062 638D     		ldrh	r3, [r4, #42]
 748 0064 9BB2     		uxth	r3, r3
 749 0066 FF2B     		cmp	r3, #255
 750 0068 2F4B     		ldr	r3, .L155
 751 006a 26D9     		bls	.L140
 752 006c FF22     		movs	r2, #255
 753 006e 0093     		str	r3, [sp]
 754 0070 2285     		strh	r2, [r4, #40]	@ movhi
 755              	.L154:
 756 0072 4FF08073 		mov	r3, #16777216
 757              	.L152:
 758 0076 3146     		mov	r1, r6
 759 0078 2046     		mov	r0, r4
 760 007a FFF7FEFF 		bl	I2C_TransferConfig
 761              	.L142:
 762 007e 638D     		ldrh	r3, [r4, #42]
 763 0080 2A46     		mov	r2, r5
 764 0082 3946     		mov	r1, r7
 765 0084 2046     		mov	r0, r4
 766 0086 9BB2     		uxth	r3, r3
 767 0088 FBB9     		cbnz	r3, .L146
 768 008a FFF7FEFF 		bl	I2C_WaitOnSTOPFlagUntilTimeout
 769 008e 0028     		cmp	r0, #0
 770 0090 D7D1     		bne	.L143
ARM GAS  /tmp/ccina73P.s 			page 14


 771 0092 2368     		ldr	r3, [r4]
 772 0094 2021     		movs	r1, #32
 773 0096 D961     		str	r1, [r3, #28]
 774 0098 5A68     		ldr	r2, [r3, #4]
 775 009a 22F0FF72 		bic	r2, r2, #33423360
 776 009e 22F48B32 		bic	r2, r2, #71168
 777 00a2 22F4FF72 		bic	r2, r2, #510
 778 00a6 22F00102 		bic	r2, r2, #1
 779 00aa 5A60     		str	r2, [r3, #4]
 780 00ac 84F84110 		strb	r1, [r4, #65]
 781 00b0 84F84000 		strb	r0, [r4, #64]
 782 00b4 84F84200 		strb	r0, [r4, #66]
 783 00b8 C4E7     		b	.L138
 784              	.L140:
 785 00ba 628D     		ldrh	r2, [r4, #42]
 786 00bc 0093     		str	r3, [sp]
 787 00be 92B2     		uxth	r2, r2
 788 00c0 2285     		strh	r2, [r4, #40]	@ movhi
 789              	.L153:
 790 00c2 4FF00073 		mov	r3, #33554432
 791 00c6 D2B2     		uxtb	r2, r2
 792 00c8 D5E7     		b	.L152
 793              	.L146:
 794 00ca FFF7FEFF 		bl	I2C_WaitOnTXISFlagUntilTimeout
 795 00ce 0028     		cmp	r0, #0
 796 00d0 B7D1     		bne	.L143
 797 00d2 636A     		ldr	r3, [r4, #36]
 798 00d4 2268     		ldr	r2, [r4]
 799 00d6 13F8011B 		ldrb	r1, [r3], #1	@ zero_extendqisi2
 800 00da 9162     		str	r1, [r2, #40]
 801 00dc 6362     		str	r3, [r4, #36]
 802 00de 638D     		ldrh	r3, [r4, #42]
 803 00e0 228D     		ldrh	r2, [r4, #40]
 804 00e2 013B     		subs	r3, r3, #1
 805 00e4 013A     		subs	r2, r2, #1
 806 00e6 9BB2     		uxth	r3, r3
 807 00e8 92B2     		uxth	r2, r2
 808 00ea 6385     		strh	r3, [r4, #42]	@ movhi
 809 00ec 638D     		ldrh	r3, [r4, #42]
 810 00ee 2285     		strh	r2, [r4, #40]	@ movhi
 811 00f0 9BB2     		uxth	r3, r3
 812 00f2 002B     		cmp	r3, #0
 813 00f4 C3D0     		beq	.L142
 814 00f6 002A     		cmp	r2, #0
 815 00f8 C1D1     		bne	.L142
 816 00fa 3B46     		mov	r3, r7
 817 00fc 8021     		movs	r1, #128
 818 00fe 2046     		mov	r0, r4
 819 0100 0095     		str	r5, [sp]
 820 0102 FFF7FEFF 		bl	I2C_WaitOnFlagUntilTimeout
 821 0106 0028     		cmp	r0, #0
 822 0108 9BD1     		bne	.L143
 823 010a 638D     		ldrh	r3, [r4, #42]
 824 010c 9BB2     		uxth	r3, r3
 825 010e FF2B     		cmp	r3, #255
 826 0110 03D9     		bls	.L145
 827 0112 FF22     		movs	r2, #255
ARM GAS  /tmp/ccina73P.s 			page 15


 828 0114 0090     		str	r0, [sp]
 829 0116 2285     		strh	r2, [r4, #40]	@ movhi
 830 0118 ABE7     		b	.L154
 831              	.L145:
 832 011a 628D     		ldrh	r2, [r4, #42]
 833 011c 0090     		str	r0, [sp]
 834 011e 92B2     		uxth	r2, r2
 835 0120 2285     		strh	r2, [r4, #40]	@ movhi
 836 0122 CEE7     		b	.L153
 837              	.L148:
 838 0124 0220     		movs	r0, #2
 839 0126 8DE7     		b	.L138
 840              	.L156:
 841              		.align	2
 842              	.L155:
 843 0128 00200080 		.word	-2147475456
 845              		.section	.text.HAL_I2C_Master_Receive,"ax",%progbits
 846              		.align	1
 847              		.global	HAL_I2C_Master_Receive
 848              		.syntax unified
 849              		.thumb
 850              		.thumb_func
 851              		.fpu fpv5-sp-d16
 853              	HAL_I2C_Master_Receive:
 854              		@ args = 4, pretend = 0, frame = 0
 855              		@ frame_needed = 0, uses_anonymous_args = 0
 856 0000 2DE9F347 		push	{r0, r1, r4, r5, r6, r7, r8, r9, r10, lr}
 857 0004 9846     		mov	r8, r3
 858 0006 90F84130 		ldrb	r3, [r0, #65]	@ zero_extendqisi2
 859 000a 0446     		mov	r4, r0
 860 000c 0E46     		mov	r6, r1
 861 000e 202B     		cmp	r3, #32
 862 0010 9146     		mov	r9, r2
 863 0012 0A9F     		ldr	r7, [sp, #40]
 864 0014 40F08780 		bne	.L168
 865 0018 90F84030 		ldrb	r3, [r0, #64]	@ zero_extendqisi2
 866 001c 012B     		cmp	r3, #1
 867 001e 00F08280 		beq	.L168
 868 0022 4FF0010A 		mov	r10, #1
 869 0026 80F840A0 		strb	r10, [r0, #64]
 870 002a FFF7FEFF 		bl	HAL_GetTick
 871 002e 1923     		movs	r3, #25
 872 0030 0546     		mov	r5, r0
 873 0032 0090     		str	r0, [sp]
 874 0034 5246     		mov	r2, r10
 875 0036 4FF40041 		mov	r1, #32768
 876 003a 2046     		mov	r0, r4
 877 003c FFF7FEFF 		bl	I2C_WaitOnFlagUntilTimeout
 878 0040 18B1     		cbz	r0, .L159
 879              	.L163:
 880 0042 0120     		movs	r0, #1
 881              	.L158:
 882 0044 02B0     		add	sp, sp, #8
 883              		@ sp needed
 884 0046 BDE8F087 		pop	{r4, r5, r6, r7, r8, r9, r10, pc}
 885              	.L159:
 886 004a 2223     		movs	r3, #34
ARM GAS  /tmp/ccina73P.s 			page 16


 887 004c C4F82490 		str	r9, [r4, #36]
 888 0050 6063     		str	r0, [r4, #52]
 889 0052 84F84130 		strb	r3, [r4, #65]
 890 0056 1023     		movs	r3, #16
 891 0058 84F84230 		strb	r3, [r4, #66]
 892 005c 6064     		str	r0, [r4, #68]
 893 005e A4F82A80 		strh	r8, [r4, #42]	@ movhi
 894 0062 638D     		ldrh	r3, [r4, #42]
 895 0064 9BB2     		uxth	r3, r3
 896 0066 FF2B     		cmp	r3, #255
 897 0068 304B     		ldr	r3, .L175
 898 006a 26D9     		bls	.L160
 899 006c FF22     		movs	r2, #255
 900 006e 0093     		str	r3, [sp]
 901 0070 2285     		strh	r2, [r4, #40]	@ movhi
 902              	.L174:
 903 0072 4FF08073 		mov	r3, #16777216
 904              	.L172:
 905 0076 3146     		mov	r1, r6
 906 0078 2046     		mov	r0, r4
 907 007a FFF7FEFF 		bl	I2C_TransferConfig
 908              	.L162:
 909 007e 638D     		ldrh	r3, [r4, #42]
 910 0080 2A46     		mov	r2, r5
 911 0082 3946     		mov	r1, r7
 912 0084 2046     		mov	r0, r4
 913 0086 9BB2     		uxth	r3, r3
 914 0088 FBB9     		cbnz	r3, .L166
 915 008a FFF7FEFF 		bl	I2C_WaitOnSTOPFlagUntilTimeout
 916 008e 0028     		cmp	r0, #0
 917 0090 D7D1     		bne	.L163
 918 0092 2368     		ldr	r3, [r4]
 919 0094 2021     		movs	r1, #32
 920 0096 D961     		str	r1, [r3, #28]
 921 0098 5A68     		ldr	r2, [r3, #4]
 922 009a 22F0FF72 		bic	r2, r2, #33423360
 923 009e 22F48B32 		bic	r2, r2, #71168
 924 00a2 22F4FF72 		bic	r2, r2, #510
 925 00a6 22F00102 		bic	r2, r2, #1
 926 00aa 5A60     		str	r2, [r3, #4]
 927 00ac 84F84110 		strb	r1, [r4, #65]
 928 00b0 84F84000 		strb	r0, [r4, #64]
 929 00b4 84F84200 		strb	r0, [r4, #66]
 930 00b8 C4E7     		b	.L158
 931              	.L160:
 932 00ba 628D     		ldrh	r2, [r4, #42]
 933 00bc 0093     		str	r3, [sp]
 934 00be 92B2     		uxth	r2, r2
 935 00c0 2285     		strh	r2, [r4, #40]	@ movhi
 936              	.L173:
 937 00c2 4FF00073 		mov	r3, #33554432
 938 00c6 D2B2     		uxtb	r2, r2
 939 00c8 D5E7     		b	.L172
 940              	.L166:
 941 00ca FFF7FEFF 		bl	I2C_WaitOnRXNEFlagUntilTimeout
 942 00ce 0028     		cmp	r0, #0
 943 00d0 B7D1     		bne	.L163
ARM GAS  /tmp/ccina73P.s 			page 17


 944 00d2 2368     		ldr	r3, [r4]
 945 00d4 5A6A     		ldr	r2, [r3, #36]
 946 00d6 636A     		ldr	r3, [r4, #36]
 947 00d8 1A70     		strb	r2, [r3]
 948 00da 636A     		ldr	r3, [r4, #36]
 949 00dc 228D     		ldrh	r2, [r4, #40]
 950 00de 0133     		adds	r3, r3, #1
 951 00e0 013A     		subs	r2, r2, #1
 952 00e2 6362     		str	r3, [r4, #36]
 953 00e4 638D     		ldrh	r3, [r4, #42]
 954 00e6 92B2     		uxth	r2, r2
 955 00e8 013B     		subs	r3, r3, #1
 956 00ea 2285     		strh	r2, [r4, #40]	@ movhi
 957 00ec 9BB2     		uxth	r3, r3
 958 00ee 6385     		strh	r3, [r4, #42]	@ movhi
 959 00f0 638D     		ldrh	r3, [r4, #42]
 960 00f2 9BB2     		uxth	r3, r3
 961 00f4 002B     		cmp	r3, #0
 962 00f6 C2D0     		beq	.L162
 963 00f8 002A     		cmp	r2, #0
 964 00fa C0D1     		bne	.L162
 965 00fc 3B46     		mov	r3, r7
 966 00fe 8021     		movs	r1, #128
 967 0100 2046     		mov	r0, r4
 968 0102 0095     		str	r5, [sp]
 969 0104 FFF7FEFF 		bl	I2C_WaitOnFlagUntilTimeout
 970 0108 0028     		cmp	r0, #0
 971 010a 9AD1     		bne	.L163
 972 010c 638D     		ldrh	r3, [r4, #42]
 973 010e 9BB2     		uxth	r3, r3
 974 0110 FF2B     		cmp	r3, #255
 975 0112 03D9     		bls	.L165
 976 0114 FF22     		movs	r2, #255
 977 0116 0090     		str	r0, [sp]
 978 0118 2285     		strh	r2, [r4, #40]	@ movhi
 979 011a AAE7     		b	.L174
 980              	.L165:
 981 011c 628D     		ldrh	r2, [r4, #42]
 982 011e 0090     		str	r0, [sp]
 983 0120 92B2     		uxth	r2, r2
 984 0122 2285     		strh	r2, [r4, #40]	@ movhi
 985 0124 CDE7     		b	.L173
 986              	.L168:
 987 0126 0220     		movs	r0, #2
 988 0128 8CE7     		b	.L158
 989              	.L176:
 990 012a 00BF     		.align	2
 991              	.L175:
 992 012c 00240080 		.word	-2147474432
 994              		.section	.text.HAL_I2C_Slave_Transmit,"ax",%progbits
 995              		.align	1
 996              		.global	HAL_I2C_Slave_Transmit
 997              		.syntax unified
 998              		.thumb
 999              		.thumb_func
 1000              		.fpu fpv5-sp-d16
 1002              	HAL_I2C_Slave_Transmit:
ARM GAS  /tmp/ccina73P.s 			page 18


 1003              		@ args = 0, pretend = 0, frame = 0
 1004              		@ frame_needed = 0, uses_anonymous_args = 0
 1005 0000 2DE9F347 		push	{r0, r1, r4, r5, r6, r7, r8, r9, r10, lr}
 1006 0004 1E46     		mov	r6, r3
 1007 0006 90F84130 		ldrb	r3, [r0, #65]	@ zero_extendqisi2
 1008 000a 0446     		mov	r4, r0
 1009 000c 8946     		mov	r9, r1
 1010 000e 202B     		cmp	r3, #32
 1011 0010 9046     		mov	r8, r2
 1012 0012 5FFA83FA 		uxtb	r10, r3
 1013 0016 40F09780 		bne	.L191
 1014 001a 01B1     		cbz	r1, .L179
 1015 001c 32B9     		cbnz	r2, .L180
 1016              	.L179:
 1017 001e 4FF40073 		mov	r3, #512
 1018 0022 6364     		str	r3, [r4, #68]
 1019              	.L197:
 1020 0024 0120     		movs	r0, #1
 1021              	.L178:
 1022 0026 02B0     		add	sp, sp, #8
 1023              		@ sp needed
 1024 0028 BDE8F087 		pop	{r4, r5, r6, r7, r8, r9, r10, pc}
 1025              	.L180:
 1026 002c 90F84030 		ldrb	r3, [r0, #64]	@ zero_extendqisi2
 1027 0030 012B     		cmp	r3, #1
 1028 0032 00F08980 		beq	.L191
 1029 0036 0125     		movs	r5, #1
 1030 0038 80F84050 		strb	r5, [r0, #64]
 1031 003c FFF7FEFF 		bl	HAL_GetTick
 1032 0040 0022     		movs	r2, #0
 1033 0042 2168     		ldr	r1, [r4]
 1034 0044 2123     		movs	r3, #33
 1035 0046 6263     		str	r2, [r4, #52]
 1036 0048 0746     		mov	r7, r0
 1037 004a 84F84130 		strb	r3, [r4, #65]
 1038 004e 84F842A0 		strb	r10, [r4, #66]
 1039 0052 6264     		str	r2, [r4, #68]
 1040 0054 A4F82A80 		strh	r8, [r4, #42]	@ movhi
 1041 0058 4B68     		ldr	r3, [r1, #4]
 1042 005a C4F82490 		str	r9, [r4, #36]
 1043 005e 23F40043 		bic	r3, r3, #32768
 1044 0062 4B60     		str	r3, [r1, #4]
 1045 0064 3346     		mov	r3, r6
 1046 0066 0090     		str	r0, [sp]
 1047 0068 0821     		movs	r1, #8
 1048 006a 2046     		mov	r0, r4
 1049 006c FFF7FEFF 		bl	I2C_WaitOnFlagUntilTimeout
 1050 0070 2368     		ldr	r3, [r4]
 1051 0072 0246     		mov	r2, r0
 1052 0074 20B1     		cbz	r0, .L181
 1053              	.L198:
 1054 0076 5A68     		ldr	r2, [r3, #4]
 1055 0078 42F40042 		orr	r2, r2, #32768
 1056 007c 5A60     		str	r2, [r3, #4]
 1057 007e D1E7     		b	.L197
 1058              	.L181:
 1059 0080 4FF00808 		mov	r8, #8
ARM GAS  /tmp/ccina73P.s 			page 19


 1060 0084 C3F81C80 		str	r8, [r3, #28]
 1061 0088 E368     		ldr	r3, [r4, #12]
 1062 008a 022B     		cmp	r3, #2
 1063 008c 0AD1     		bne	.L182
 1064 008e 3346     		mov	r3, r6
 1065 0090 4146     		mov	r1, r8
 1066 0092 2046     		mov	r0, r4
 1067 0094 0097     		str	r7, [sp]
 1068 0096 FFF7FEFF 		bl	I2C_WaitOnFlagUntilTimeout
 1069 009a 2368     		ldr	r3, [r4]
 1070 009c 0028     		cmp	r0, #0
 1071 009e EAD1     		bne	.L198
 1072 00a0 C3F81C80 		str	r8, [r3, #28]
 1073              	.L182:
 1074 00a4 3346     		mov	r3, r6
 1075 00a6 0022     		movs	r2, #0
 1076 00a8 4FF48031 		mov	r1, #65536
 1077 00ac 2046     		mov	r0, r4
 1078 00ae 0097     		str	r7, [sp]
 1079 00b0 FFF7FEFF 		bl	I2C_WaitOnFlagUntilTimeout
 1080 00b4 B0B1     		cbz	r0, .L184
 1081              	.L199:
 1082 00b6 2268     		ldr	r2, [r4]
 1083 00b8 06E0     		b	.L200
 1084              	.L186:
 1085 00ba 3A46     		mov	r2, r7
 1086 00bc 3146     		mov	r1, r6
 1087 00be 2046     		mov	r0, r4
 1088 00c0 FFF7FEFF 		bl	I2C_WaitOnTXISFlagUntilTimeout
 1089 00c4 2268     		ldr	r2, [r4]
 1090 00c6 20B1     		cbz	r0, .L185
 1091              	.L200:
 1092 00c8 5368     		ldr	r3, [r2, #4]
 1093 00ca 43F40043 		orr	r3, r3, #32768
 1094 00ce 5360     		str	r3, [r2, #4]
 1095 00d0 A8E7     		b	.L197
 1096              	.L185:
 1097 00d2 636A     		ldr	r3, [r4, #36]
 1098 00d4 13F8011B 		ldrb	r1, [r3], #1	@ zero_extendqisi2
 1099 00d8 9162     		str	r1, [r2, #40]
 1100 00da 6362     		str	r3, [r4, #36]
 1101 00dc 638D     		ldrh	r3, [r4, #42]
 1102 00de 013B     		subs	r3, r3, #1
 1103 00e0 9BB2     		uxth	r3, r3
 1104 00e2 6385     		strh	r3, [r4, #42]	@ movhi
 1105              	.L184:
 1106 00e4 628D     		ldrh	r2, [r4, #42]
 1107 00e6 92B2     		uxth	r2, r2
 1108 00e8 002A     		cmp	r2, #0
 1109 00ea E6D1     		bne	.L186
 1110 00ec 3346     		mov	r3, r6
 1111 00ee 1021     		movs	r1, #16
 1112 00f0 2046     		mov	r0, r4
 1113 00f2 0097     		str	r7, [sp]
 1114 00f4 FFF7FEFF 		bl	I2C_WaitOnFlagUntilTimeout
 1115 00f8 0028     		cmp	r0, #0
 1116 00fa DCD1     		bne	.L199
ARM GAS  /tmp/ccina73P.s 			page 20


 1117 00fc 2046     		mov	r0, r4
 1118 00fe FFF7FEFF 		bl	I2C_Flush_TXDR
 1119 0102 2368     		ldr	r3, [r4]
 1120 0104 1022     		movs	r2, #16
 1121 0106 3146     		mov	r1, r6
 1122 0108 DA61     		str	r2, [r3, #28]
 1123 010a 3A46     		mov	r2, r7
 1124 010c FFF7FEFF 		bl	I2C_WaitOnSTOPFlagUntilTimeout
 1125 0110 2368     		ldr	r3, [r4]
 1126 0112 0028     		cmp	r0, #0
 1127 0114 AFD1     		bne	.L198
 1128 0116 2025     		movs	r5, #32
 1129 0118 0122     		movs	r2, #1
 1130 011a 4FF40041 		mov	r1, #32768
 1131 011e 2046     		mov	r0, r4
 1132 0120 DD61     		str	r5, [r3, #28]
 1133 0122 3346     		mov	r3, r6
 1134 0124 0097     		str	r7, [sp]
 1135 0126 FFF7FEFF 		bl	I2C_WaitOnFlagUntilTimeout
 1136 012a 2368     		ldr	r3, [r4]
 1137 012c 5A68     		ldr	r2, [r3, #4]
 1138 012e 42F40042 		orr	r2, r2, #32768
 1139 0132 5A60     		str	r2, [r3, #4]
 1140 0134 0028     		cmp	r0, #0
 1141 0136 7FF475AF 		bne	.L197
 1142 013a 84F84150 		strb	r5, [r4, #65]
 1143 013e 84F84000 		strb	r0, [r4, #64]
 1144 0142 84F84200 		strb	r0, [r4, #66]
 1145 0146 6EE7     		b	.L178
 1146              	.L191:
 1147 0148 0220     		movs	r0, #2
 1148 014a 6CE7     		b	.L178
 1150              		.section	.text.HAL_I2C_Slave_Receive,"ax",%progbits
 1151              		.align	1
 1152              		.global	HAL_I2C_Slave_Receive
 1153              		.syntax unified
 1154              		.thumb
 1155              		.thumb_func
 1156              		.fpu fpv5-sp-d16
 1158              	HAL_I2C_Slave_Receive:
 1159              		@ args = 0, pretend = 0, frame = 0
 1160              		@ frame_needed = 0, uses_anonymous_args = 0
 1161 0000 2DE9F347 		push	{r0, r1, r4, r5, r6, r7, r8, r9, r10, lr}
 1162 0004 1E46     		mov	r6, r3
 1163 0006 90F84130 		ldrb	r3, [r0, #65]	@ zero_extendqisi2
 1164 000a 0446     		mov	r4, r0
 1165 000c 8946     		mov	r9, r1
 1166 000e 202B     		cmp	r3, #32
 1167 0010 9046     		mov	r8, r2
 1168 0012 5FFA83FA 		uxtb	r10, r3
 1169 0016 40F09180 		bne	.L212
 1170 001a 01B1     		cbz	r1, .L203
 1171 001c 22B9     		cbnz	r2, .L204
 1172              	.L203:
 1173 001e 4FF40073 		mov	r3, #512
 1174 0022 6364     		str	r3, [r4, #68]
 1175              	.L213:
ARM GAS  /tmp/ccina73P.s 			page 21


 1176 0024 0120     		movs	r0, #1
 1177 0026 86E0     		b	.L202
 1178              	.L204:
 1179 0028 90F84030 		ldrb	r3, [r0, #64]	@ zero_extendqisi2
 1180 002c 012B     		cmp	r3, #1
 1181 002e 00F08580 		beq	.L212
 1182 0032 0125     		movs	r5, #1
 1183 0034 80F84050 		strb	r5, [r0, #64]
 1184 0038 FFF7FEFF 		bl	HAL_GetTick
 1185 003c 0022     		movs	r2, #0
 1186 003e 2223     		movs	r3, #34
 1187 0040 2168     		ldr	r1, [r4]
 1188 0042 C4F82490 		str	r9, [r4, #36]
 1189 0046 0746     		mov	r7, r0
 1190 0048 84F84130 		strb	r3, [r4, #65]
 1191 004c 84F842A0 		strb	r10, [r4, #66]
 1192 0050 6264     		str	r2, [r4, #68]
 1193 0052 A4F82A80 		strh	r8, [r4, #42]	@ movhi
 1194 0056 638D     		ldrh	r3, [r4, #42]
 1195 0058 6263     		str	r2, [r4, #52]
 1196 005a 2385     		strh	r3, [r4, #40]	@ movhi
 1197 005c 4B68     		ldr	r3, [r1, #4]
 1198 005e 23F40043 		bic	r3, r3, #32768
 1199 0062 4B60     		str	r3, [r1, #4]
 1200 0064 3346     		mov	r3, r6
 1201 0066 0090     		str	r0, [sp]
 1202 0068 0821     		movs	r1, #8
 1203 006a 2046     		mov	r0, r4
 1204 006c FFF7FEFF 		bl	I2C_WaitOnFlagUntilTimeout
 1205 0070 2368     		ldr	r3, [r4]
 1206 0072 20B1     		cbz	r0, .L205
 1207              	.L219:
 1208 0074 5A68     		ldr	r2, [r3, #4]
 1209 0076 42F40042 		orr	r2, r2, #32768
 1210 007a 5A60     		str	r2, [r3, #4]
 1211 007c D2E7     		b	.L213
 1212              	.L205:
 1213 007e 0822     		movs	r2, #8
 1214 0080 4FF48031 		mov	r1, #65536
 1215 0084 2046     		mov	r0, r4
 1216 0086 DA61     		str	r2, [r3, #28]
 1217 0088 3346     		mov	r3, r6
 1218 008a 2A46     		mov	r2, r5
 1219 008c 0097     		str	r7, [sp]
 1220 008e FFF7FEFF 		bl	I2C_WaitOnFlagUntilTimeout
 1221 0092 0028     		cmp	r0, #0
 1222 0094 2BD0     		beq	.L206
 1223 0096 2268     		ldr	r2, [r4]
 1224 0098 5368     		ldr	r3, [r2, #4]
 1225 009a 43F40043 		orr	r3, r3, #32768
 1226 009e 5360     		str	r3, [r2, #4]
 1227 00a0 C0E7     		b	.L213
 1228              	.L208:
 1229 00a2 FFF7FEFF 		bl	I2C_WaitOnRXNEFlagUntilTimeout
 1230 00a6 2368     		ldr	r3, [r4]
 1231 00a8 A0B1     		cbz	r0, .L207
 1232 00aa 5A68     		ldr	r2, [r3, #4]
ARM GAS  /tmp/ccina73P.s 			page 22


 1233 00ac 42F40042 		orr	r2, r2, #32768
 1234 00b0 5A60     		str	r2, [r3, #4]
 1235 00b2 9A69     		ldr	r2, [r3, #24]
 1236 00b4 5207     		lsls	r2, r2, #29
 1237 00b6 B5D5     		bpl	.L213
 1238 00b8 5A6A     		ldr	r2, [r3, #36]
 1239 00ba 636A     		ldr	r3, [r4, #36]
 1240 00bc 1A70     		strb	r2, [r3]
 1241 00be 636A     		ldr	r3, [r4, #36]
 1242 00c0 0133     		adds	r3, r3, #1
 1243 00c2 6362     		str	r3, [r4, #36]
 1244 00c4 638D     		ldrh	r3, [r4, #42]
 1245 00c6 013B     		subs	r3, r3, #1
 1246 00c8 9BB2     		uxth	r3, r3
 1247 00ca 6385     		strh	r3, [r4, #42]	@ movhi
 1248 00cc 238D     		ldrh	r3, [r4, #40]
 1249 00ce 013B     		subs	r3, r3, #1
 1250 00d0 2385     		strh	r3, [r4, #40]	@ movhi
 1251 00d2 A7E7     		b	.L213
 1252              	.L207:
 1253 00d4 5A6A     		ldr	r2, [r3, #36]
 1254 00d6 636A     		ldr	r3, [r4, #36]
 1255 00d8 1A70     		strb	r2, [r3]
 1256 00da 636A     		ldr	r3, [r4, #36]
 1257 00dc 0133     		adds	r3, r3, #1
 1258 00de 6362     		str	r3, [r4, #36]
 1259 00e0 638D     		ldrh	r3, [r4, #42]
 1260 00e2 013B     		subs	r3, r3, #1
 1261 00e4 9BB2     		uxth	r3, r3
 1262 00e6 6385     		strh	r3, [r4, #42]	@ movhi
 1263 00e8 238D     		ldrh	r3, [r4, #40]
 1264 00ea 013B     		subs	r3, r3, #1
 1265 00ec 2385     		strh	r3, [r4, #40]	@ movhi
 1266              	.L206:
 1267 00ee 638D     		ldrh	r3, [r4, #42]
 1268 00f0 3A46     		mov	r2, r7
 1269 00f2 3146     		mov	r1, r6
 1270 00f4 2046     		mov	r0, r4
 1271 00f6 9BB2     		uxth	r3, r3
 1272 00f8 002B     		cmp	r3, #0
 1273 00fa D2D1     		bne	.L208
 1274 00fc FFF7FEFF 		bl	I2C_WaitOnSTOPFlagUntilTimeout
 1275 0100 2368     		ldr	r3, [r4]
 1276 0102 0028     		cmp	r0, #0
 1277 0104 B6D1     		bne	.L219
 1278 0106 2025     		movs	r5, #32
 1279 0108 0122     		movs	r2, #1
 1280 010a 4FF40041 		mov	r1, #32768
 1281 010e 2046     		mov	r0, r4
 1282 0110 DD61     		str	r5, [r3, #28]
 1283 0112 3346     		mov	r3, r6
 1284 0114 0097     		str	r7, [sp]
 1285 0116 FFF7FEFF 		bl	I2C_WaitOnFlagUntilTimeout
 1286 011a 2368     		ldr	r3, [r4]
 1287 011c 5A68     		ldr	r2, [r3, #4]
 1288 011e 42F40042 		orr	r2, r2, #32768
 1289 0122 5A60     		str	r2, [r3, #4]
ARM GAS  /tmp/ccina73P.s 			page 23


 1290 0124 0028     		cmp	r0, #0
 1291 0126 7FF47DAF 		bne	.L213
 1292 012a 84F84150 		strb	r5, [r4, #65]
 1293 012e 84F84000 		strb	r0, [r4, #64]
 1294 0132 84F84200 		strb	r0, [r4, #66]
 1295              	.L202:
 1296 0136 02B0     		add	sp, sp, #8
 1297              		@ sp needed
 1298 0138 BDE8F087 		pop	{r4, r5, r6, r7, r8, r9, r10, pc}
 1299              	.L212:
 1300 013c 0220     		movs	r0, #2
 1301 013e FAE7     		b	.L202
 1303              		.section	.text.HAL_I2C_Master_Transmit_IT,"ax",%progbits
 1304              		.align	1
 1305              		.global	HAL_I2C_Master_Transmit_IT
 1306              		.syntax unified
 1307              		.thumb
 1308              		.thumb_func
 1309              		.fpu fpv5-sp-d16
 1311              	HAL_I2C_Master_Transmit_IT:
 1312              		@ args = 0, pretend = 0, frame = 0
 1313              		@ frame_needed = 0, uses_anonymous_args = 0
 1314 0000 37B5     		push	{r0, r1, r2, r4, r5, lr}
 1315 0002 0446     		mov	r4, r0
 1316 0004 90F84100 		ldrb	r0, [r0, #65]	@ zero_extendqisi2
 1317 0008 2028     		cmp	r0, #32
 1318 000a 35D1     		bne	.L225
 1319 000c 2068     		ldr	r0, [r4]
 1320 000e 8069     		ldr	r0, [r0, #24]
 1321 0010 10F40040 		ands	r0, r0, #32768
 1322 0014 30D1     		bne	.L225
 1323 0016 94F84050 		ldrb	r5, [r4, #64]	@ zero_extendqisi2
 1324 001a 012D     		cmp	r5, #1
 1325 001c 2CD0     		beq	.L225
 1326 001e 0125     		movs	r5, #1
 1327 0020 6262     		str	r2, [r4, #36]
 1328 0022 84F84050 		strb	r5, [r4, #64]
 1329 0026 2125     		movs	r5, #33
 1330 0028 84F84150 		strb	r5, [r4, #65]
 1331 002c 1025     		movs	r5, #16
 1332 002e 84F84250 		strb	r5, [r4, #66]
 1333 0032 6064     		str	r0, [r4, #68]
 1334 0034 6385     		strh	r3, [r4, #42]	@ movhi
 1335 0036 114B     		ldr	r3, .L227
 1336 0038 E362     		str	r3, [r4, #44]
 1337 003a 114B     		ldr	r3, .L227+4
 1338 003c 6363     		str	r3, [r4, #52]
 1339 003e 638D     		ldrh	r3, [r4, #42]
 1340 0040 9BB2     		uxth	r3, r3
 1341 0042 FF2B     		cmp	r3, #255
 1342 0044 14D8     		bhi	.L226
 1343 0046 628D     		ldrh	r2, [r4, #42]
 1344 0048 4FF00073 		mov	r3, #33554432
 1345 004c 92B2     		uxth	r2, r2
 1346              	.L222:
 1347 004e 0D48     		ldr	r0, .L227+8
 1348 0050 0025     		movs	r5, #0
ARM GAS  /tmp/ccina73P.s 			page 24


 1349 0052 2285     		strh	r2, [r4, #40]	@ movhi
 1350 0054 D2B2     		uxtb	r2, r2
 1351 0056 0090     		str	r0, [sp]
 1352 0058 2046     		mov	r0, r4
 1353 005a FFF7FEFF 		bl	I2C_TransferConfig
 1354 005e 2046     		mov	r0, r4
 1355 0060 0121     		movs	r1, #1
 1356 0062 84F84050 		strb	r5, [r4, #64]
 1357 0066 FFF7FEFF 		bl	I2C_Enable_IRQ
 1358 006a 2846     		mov	r0, r5
 1359              	.L221:
 1360 006c 03B0     		add	sp, sp, #12
 1361              		@ sp needed
 1362 006e 30BD     		pop	{r4, r5, pc}
 1363              	.L226:
 1364 0070 FF22     		movs	r2, #255
 1365 0072 4FF08073 		mov	r3, #16777216
 1366 0076 EAE7     		b	.L222
 1367              	.L225:
 1368 0078 0220     		movs	r0, #2
 1369 007a F7E7     		b	.L221
 1370              	.L228:
 1371              		.align	2
 1372              	.L227:
 1373 007c 0000FFFF 		.word	-65536
 1374 0080 00000000 		.word	I2C_Master_ISR_IT
 1375 0084 00200080 		.word	-2147475456
 1377              		.section	.text.HAL_I2C_Master_Receive_IT,"ax",%progbits
 1378              		.align	1
 1379              		.global	HAL_I2C_Master_Receive_IT
 1380              		.syntax unified
 1381              		.thumb
 1382              		.thumb_func
 1383              		.fpu fpv5-sp-d16
 1385              	HAL_I2C_Master_Receive_IT:
 1386              		@ args = 0, pretend = 0, frame = 0
 1387              		@ frame_needed = 0, uses_anonymous_args = 0
 1388 0000 37B5     		push	{r0, r1, r2, r4, r5, lr}
 1389 0002 0446     		mov	r4, r0
 1390 0004 90F84100 		ldrb	r0, [r0, #65]	@ zero_extendqisi2
 1391 0008 2028     		cmp	r0, #32
 1392 000a 35D1     		bne	.L234
 1393 000c 2068     		ldr	r0, [r4]
 1394 000e 8069     		ldr	r0, [r0, #24]
 1395 0010 10F40040 		ands	r0, r0, #32768
 1396 0014 30D1     		bne	.L234
 1397 0016 94F84050 		ldrb	r5, [r4, #64]	@ zero_extendqisi2
 1398 001a 012D     		cmp	r5, #1
 1399 001c 2CD0     		beq	.L234
 1400 001e 0125     		movs	r5, #1
 1401 0020 6262     		str	r2, [r4, #36]
 1402 0022 84F84050 		strb	r5, [r4, #64]
 1403 0026 2225     		movs	r5, #34
 1404 0028 84F84150 		strb	r5, [r4, #65]
 1405 002c 1025     		movs	r5, #16
 1406 002e 84F84250 		strb	r5, [r4, #66]
 1407 0032 6064     		str	r0, [r4, #68]
ARM GAS  /tmp/ccina73P.s 			page 25


 1408 0034 6385     		strh	r3, [r4, #42]	@ movhi
 1409 0036 114B     		ldr	r3, .L236
 1410 0038 E362     		str	r3, [r4, #44]
 1411 003a 114B     		ldr	r3, .L236+4
 1412 003c 6363     		str	r3, [r4, #52]
 1413 003e 638D     		ldrh	r3, [r4, #42]
 1414 0040 9BB2     		uxth	r3, r3
 1415 0042 FF2B     		cmp	r3, #255
 1416 0044 14D8     		bhi	.L235
 1417 0046 628D     		ldrh	r2, [r4, #42]
 1418 0048 4FF00073 		mov	r3, #33554432
 1419 004c 92B2     		uxth	r2, r2
 1420              	.L231:
 1421 004e 0D48     		ldr	r0, .L236+8
 1422 0050 0025     		movs	r5, #0
 1423 0052 2285     		strh	r2, [r4, #40]	@ movhi
 1424 0054 D2B2     		uxtb	r2, r2
 1425 0056 0090     		str	r0, [sp]
 1426 0058 2046     		mov	r0, r4
 1427 005a FFF7FEFF 		bl	I2C_TransferConfig
 1428 005e 2046     		mov	r0, r4
 1429 0060 0221     		movs	r1, #2
 1430 0062 84F84050 		strb	r5, [r4, #64]
 1431 0066 FFF7FEFF 		bl	I2C_Enable_IRQ
 1432 006a 2846     		mov	r0, r5
 1433              	.L230:
 1434 006c 03B0     		add	sp, sp, #12
 1435              		@ sp needed
 1436 006e 30BD     		pop	{r4, r5, pc}
 1437              	.L235:
 1438 0070 FF22     		movs	r2, #255
 1439 0072 4FF08073 		mov	r3, #16777216
 1440 0076 EAE7     		b	.L231
 1441              	.L234:
 1442 0078 0220     		movs	r0, #2
 1443 007a F7E7     		b	.L230
 1444              	.L237:
 1445              		.align	2
 1446              	.L236:
 1447 007c 0000FFFF 		.word	-65536
 1448 0080 00000000 		.word	I2C_Master_ISR_IT
 1449 0084 00240080 		.word	-2147474432
 1451              		.section	.text.HAL_I2C_Slave_Transmit_IT,"ax",%progbits
 1452              		.align	1
 1453              		.global	HAL_I2C_Slave_Transmit_IT
 1454              		.syntax unified
 1455              		.thumb
 1456              		.thumb_func
 1457              		.fpu fpv5-sp-d16
 1459              	HAL_I2C_Slave_Transmit_IT:
 1460              		@ args = 0, pretend = 0, frame = 0
 1461              		@ frame_needed = 0, uses_anonymous_args = 0
 1462 0000 70B5     		push	{r4, r5, r6, lr}
 1463 0002 90F84140 		ldrb	r4, [r0, #65]	@ zero_extendqisi2
 1464 0006 202C     		cmp	r4, #32
 1465 0008 E5B2     		uxtb	r5, r4
 1466 000a 1FD1     		bne	.L241
ARM GAS  /tmp/ccina73P.s 			page 26


 1467 000c 90F84040 		ldrb	r4, [r0, #64]	@ zero_extendqisi2
 1468 0010 012C     		cmp	r4, #1
 1469 0012 1BD0     		beq	.L241
 1470 0014 2124     		movs	r4, #33
 1471 0016 0668     		ldr	r6, [r0]
 1472 0018 80F84140 		strb	r4, [r0, #65]
 1473 001c 0024     		movs	r4, #0
 1474 001e 80F84250 		strb	r5, [r0, #66]
 1475 0022 4464     		str	r4, [r0, #68]
 1476 0024 7568     		ldr	r5, [r6, #4]
 1477 0026 25F40045 		bic	r5, r5, #32768
 1478 002a 7560     		str	r5, [r6, #4]
 1479 002c 4285     		strh	r2, [r0, #42]	@ movhi
 1480 002e 428D     		ldrh	r2, [r0, #42]
 1481 0030 4162     		str	r1, [r0, #36]
 1482 0032 48F20101 		movw	r1, #32769
 1483 0036 0285     		strh	r2, [r0, #40]	@ movhi
 1484 0038 054A     		ldr	r2, .L242
 1485 003a 80F84040 		strb	r4, [r0, #64]
 1486 003e C262     		str	r2, [r0, #44]
 1487 0040 044A     		ldr	r2, .L242+4
 1488 0042 4263     		str	r2, [r0, #52]
 1489 0044 FFF7FEFF 		bl	I2C_Enable_IRQ
 1490 0048 2046     		mov	r0, r4
 1491              	.L239:
 1492 004a 70BD     		pop	{r4, r5, r6, pc}
 1493              	.L241:
 1494 004c 0220     		movs	r0, #2
 1495 004e FCE7     		b	.L239
 1496              	.L243:
 1497              		.align	2
 1498              	.L242:
 1499 0050 0000FFFF 		.word	-65536
 1500 0054 00000000 		.word	I2C_Slave_ISR_IT
 1502              		.section	.text.HAL_I2C_Slave_Receive_IT,"ax",%progbits
 1503              		.align	1
 1504              		.global	HAL_I2C_Slave_Receive_IT
 1505              		.syntax unified
 1506              		.thumb
 1507              		.thumb_func
 1508              		.fpu fpv5-sp-d16
 1510              	HAL_I2C_Slave_Receive_IT:
 1511              		@ args = 0, pretend = 0, frame = 0
 1512              		@ frame_needed = 0, uses_anonymous_args = 0
 1513 0000 70B5     		push	{r4, r5, r6, lr}
 1514 0002 90F84140 		ldrb	r4, [r0, #65]	@ zero_extendqisi2
 1515 0006 202C     		cmp	r4, #32
 1516 0008 E5B2     		uxtb	r5, r4
 1517 000a 1FD1     		bne	.L247
 1518 000c 90F84040 		ldrb	r4, [r0, #64]	@ zero_extendqisi2
 1519 0010 012C     		cmp	r4, #1
 1520 0012 1BD0     		beq	.L247
 1521 0014 2224     		movs	r4, #34
 1522 0016 0668     		ldr	r6, [r0]
 1523 0018 80F84140 		strb	r4, [r0, #65]
 1524 001c 0024     		movs	r4, #0
 1525 001e 80F84250 		strb	r5, [r0, #66]
ARM GAS  /tmp/ccina73P.s 			page 27


 1526 0022 4464     		str	r4, [r0, #68]
 1527 0024 7568     		ldr	r5, [r6, #4]
 1528 0026 25F40045 		bic	r5, r5, #32768
 1529 002a 7560     		str	r5, [r6, #4]
 1530 002c 4285     		strh	r2, [r0, #42]	@ movhi
 1531 002e 428D     		ldrh	r2, [r0, #42]
 1532 0030 4162     		str	r1, [r0, #36]
 1533 0032 48F20201 		movw	r1, #32770
 1534 0036 0285     		strh	r2, [r0, #40]	@ movhi
 1535 0038 054A     		ldr	r2, .L248
 1536 003a 80F84040 		strb	r4, [r0, #64]
 1537 003e C262     		str	r2, [r0, #44]
 1538 0040 044A     		ldr	r2, .L248+4
 1539 0042 4263     		str	r2, [r0, #52]
 1540 0044 FFF7FEFF 		bl	I2C_Enable_IRQ
 1541 0048 2046     		mov	r0, r4
 1542              	.L245:
 1543 004a 70BD     		pop	{r4, r5, r6, pc}
 1544              	.L247:
 1545 004c 0220     		movs	r0, #2
 1546 004e FCE7     		b	.L245
 1547              	.L249:
 1548              		.align	2
 1549              	.L248:
 1550 0050 0000FFFF 		.word	-65536
 1551 0054 00000000 		.word	I2C_Slave_ISR_IT
 1553              		.section	.text.HAL_I2C_Master_Transmit_DMA,"ax",%progbits
 1554              		.align	1
 1555              		.global	HAL_I2C_Master_Transmit_DMA
 1556              		.syntax unified
 1557              		.thumb
 1558              		.thumb_func
 1559              		.fpu fpv5-sp-d16
 1561              	HAL_I2C_Master_Transmit_DMA:
 1562              		@ args = 0, pretend = 0, frame = 0
 1563              		@ frame_needed = 0, uses_anonymous_args = 0
 1564 0000 2DE9F341 		push	{r0, r1, r4, r5, r6, r7, r8, lr}
 1565 0004 0E46     		mov	r6, r1
 1566 0006 1146     		mov	r1, r2
 1567 0008 90F84120 		ldrb	r2, [r0, #65]	@ zero_extendqisi2
 1568 000c 0446     		mov	r4, r0
 1569 000e 202A     		cmp	r2, #32
 1570 0010 7ED1     		bne	.L259
 1571 0012 0268     		ldr	r2, [r0]
 1572 0014 9069     		ldr	r0, [r2, #24]
 1573 0016 10F40040 		ands	r0, r0, #32768
 1574 001a 79D1     		bne	.L259
 1575 001c 94F84050 		ldrb	r5, [r4, #64]	@ zero_extendqisi2
 1576 0020 012D     		cmp	r5, #1
 1577 0022 75D0     		beq	.L259
 1578 0024 0125     		movs	r5, #1
 1579 0026 6162     		str	r1, [r4, #36]
 1580 0028 84F84050 		strb	r5, [r4, #64]
 1581 002c 2125     		movs	r5, #33
 1582 002e 84F84150 		strb	r5, [r4, #65]
 1583 0032 1025     		movs	r5, #16
 1584 0034 84F84250 		strb	r5, [r4, #66]
ARM GAS  /tmp/ccina73P.s 			page 28


 1585 0038 6064     		str	r0, [r4, #68]
 1586 003a 6385     		strh	r3, [r4, #42]	@ movhi
 1587 003c 354B     		ldr	r3, .L263
 1588 003e E362     		str	r3, [r4, #44]
 1589 0040 354B     		ldr	r3, .L263+4
 1590 0042 6363     		str	r3, [r4, #52]
 1591 0044 638D     		ldrh	r3, [r4, #42]
 1592 0046 9BB2     		uxth	r3, r3
 1593 0048 FF2B     		cmp	r3, #255
 1594 004a 32D8     		bhi	.L260
 1595 004c 658D     		ldrh	r5, [r4, #42]
 1596 004e 4FF00078 		mov	r8, #33554432
 1597 0052 ADB2     		uxth	r5, r5
 1598              	.L252:
 1599 0054 2585     		strh	r5, [r4, #40]	@ movhi
 1600 0056 002D     		cmp	r5, #0
 1601 0058 48D0     		beq	.L253
 1602 005a A06B     		ldr	r0, [r4, #56]
 1603 005c 68B3     		cbz	r0, .L254
 1604 005e 2F4B     		ldr	r3, .L263+8
 1605 0060 0027     		movs	r7, #0
 1606 0062 2832     		adds	r2, r2, #40
 1607 0064 C363     		str	r3, [r0, #60]
 1608 0066 2E4B     		ldr	r3, .L263+12
 1609 0068 0764     		str	r7, [r0, #64]
 1610 006a C364     		str	r3, [r0, #76]
 1611 006c 2B46     		mov	r3, r5
 1612 006e 0765     		str	r7, [r0, #80]
 1613 0070 FFF7FEFF 		bl	HAL_DMA_Start_IT
 1614 0074 0546     		mov	r5, r0
 1615 0076 68BB     		cbnz	r0, .L261
 1616 0078 2A4B     		ldr	r3, .L263+16
 1617 007a 3146     		mov	r1, r6
 1618 007c 94F82820 		ldrb	r2, [r4, #40]	@ zero_extendqisi2
 1619 0080 2046     		mov	r0, r4
 1620 0082 0093     		str	r3, [sp]
 1621 0084 4346     		mov	r3, r8
 1622 0086 FFF7FEFF 		bl	I2C_TransferConfig
 1623 008a 638D     		ldrh	r3, [r4, #42]
 1624 008c 228D     		ldrh	r2, [r4, #40]
 1625 008e 1021     		movs	r1, #16
 1626 0090 2046     		mov	r0, r4
 1627 0092 84F84050 		strb	r5, [r4, #64]
 1628 0096 9B1A     		subs	r3, r3, r2
 1629 0098 9BB2     		uxth	r3, r3
 1630 009a 6385     		strh	r3, [r4, #42]	@ movhi
 1631 009c FFF7FEFF 		bl	I2C_Enable_IRQ
 1632 00a0 2268     		ldr	r2, [r4]
 1633 00a2 1368     		ldr	r3, [r2]
 1634 00a4 43F48043 		orr	r3, r3, #16384
 1635 00a8 1360     		str	r3, [r2]
 1636              	.L251:
 1637 00aa 2846     		mov	r0, r5
 1638 00ac 02B0     		add	sp, sp, #8
 1639              		@ sp needed
 1640 00ae BDE8F081 		pop	{r4, r5, r6, r7, r8, pc}
 1641              	.L260:
ARM GAS  /tmp/ccina73P.s 			page 29


 1642 00b2 FF25     		movs	r5, #255
 1643 00b4 4FF08078 		mov	r8, #16777216
 1644 00b8 CCE7     		b	.L252
 1645              	.L254:
 1646 00ba 2023     		movs	r3, #32
 1647 00bc 84F84000 		strb	r0, [r4, #64]
 1648 00c0 84F84130 		strb	r3, [r4, #65]
 1649 00c4 84F84200 		strb	r0, [r4, #66]
 1650 00c8 636C     		ldr	r3, [r4, #68]
 1651 00ca 43F08003 		orr	r3, r3, #128
 1652 00ce 6364     		str	r3, [r4, #68]
 1653              	.L262:
 1654 00d0 0125     		movs	r5, #1
 1655 00d2 EAE7     		b	.L251
 1656              	.L261:
 1657 00d4 2023     		movs	r3, #32
 1658 00d6 84F84070 		strb	r7, [r4, #64]
 1659 00da 84F84130 		strb	r3, [r4, #65]
 1660 00de 84F84270 		strb	r7, [r4, #66]
 1661 00e2 636C     		ldr	r3, [r4, #68]
 1662 00e4 43F01003 		orr	r3, r3, #16
 1663 00e8 6364     		str	r3, [r4, #68]
 1664 00ea F1E7     		b	.L262
 1665              	.L253:
 1666 00ec 0E4B     		ldr	r3, .L263+20
 1667 00ee 3146     		mov	r1, r6
 1668 00f0 2046     		mov	r0, r4
 1669 00f2 2A46     		mov	r2, r5
 1670 00f4 6363     		str	r3, [r4, #52]
 1671 00f6 0B4B     		ldr	r3, .L263+16
 1672 00f8 0093     		str	r3, [sp]
 1673 00fa 4FF00073 		mov	r3, #33554432
 1674 00fe FFF7FEFF 		bl	I2C_TransferConfig
 1675 0102 0121     		movs	r1, #1
 1676 0104 2046     		mov	r0, r4
 1677 0106 84F84050 		strb	r5, [r4, #64]
 1678 010a FFF7FEFF 		bl	I2C_Enable_IRQ
 1679 010e CCE7     		b	.L251
 1680              	.L259:
 1681 0110 0225     		movs	r5, #2
 1682 0112 CAE7     		b	.L251
 1683              	.L264:
 1684              		.align	2
 1685              	.L263:
 1686 0114 0000FFFF 		.word	-65536
 1687 0118 00000000 		.word	I2C_Master_ISR_DMA
 1688 011c 00000000 		.word	I2C_DMAMasterTransmitCplt
 1689 0120 00000000 		.word	I2C_DMAError
 1690 0124 00200080 		.word	-2147475456
 1691 0128 00000000 		.word	I2C_Master_ISR_IT
 1693              		.section	.text.HAL_I2C_Master_Receive_DMA,"ax",%progbits
 1694              		.align	1
 1695              		.global	HAL_I2C_Master_Receive_DMA
 1696              		.syntax unified
 1697              		.thumb
 1698              		.thumb_func
 1699              		.fpu fpv5-sp-d16
ARM GAS  /tmp/ccina73P.s 			page 30


 1701              	HAL_I2C_Master_Receive_DMA:
 1702              		@ args = 0, pretend = 0, frame = 0
 1703              		@ frame_needed = 0, uses_anonymous_args = 0
 1704 0000 2DE9F341 		push	{r0, r1, r4, r5, r6, r7, r8, lr}
 1705 0004 0E46     		mov	r6, r1
 1706 0006 90F84110 		ldrb	r1, [r0, #65]	@ zero_extendqisi2
 1707 000a 0446     		mov	r4, r0
 1708 000c 2029     		cmp	r1, #32
 1709 000e 7ED1     		bne	.L274
 1710 0010 0168     		ldr	r1, [r0]
 1711 0012 8869     		ldr	r0, [r1, #24]
 1712 0014 10F40040 		ands	r0, r0, #32768
 1713 0018 79D1     		bne	.L274
 1714 001a 94F84050 		ldrb	r5, [r4, #64]	@ zero_extendqisi2
 1715 001e 012D     		cmp	r5, #1
 1716 0020 75D0     		beq	.L274
 1717 0022 0125     		movs	r5, #1
 1718 0024 6262     		str	r2, [r4, #36]
 1719 0026 84F84050 		strb	r5, [r4, #64]
 1720 002a 2225     		movs	r5, #34
 1721 002c 84F84150 		strb	r5, [r4, #65]
 1722 0030 1025     		movs	r5, #16
 1723 0032 84F84250 		strb	r5, [r4, #66]
 1724 0036 6064     		str	r0, [r4, #68]
 1725 0038 6385     		strh	r3, [r4, #42]	@ movhi
 1726 003a 364B     		ldr	r3, .L278
 1727 003c E362     		str	r3, [r4, #44]
 1728 003e 364B     		ldr	r3, .L278+4
 1729 0040 6363     		str	r3, [r4, #52]
 1730 0042 638D     		ldrh	r3, [r4, #42]
 1731 0044 9BB2     		uxth	r3, r3
 1732 0046 FF2B     		cmp	r3, #255
 1733 0048 32D8     		bhi	.L275
 1734 004a 658D     		ldrh	r5, [r4, #42]
 1735 004c 4FF00078 		mov	r8, #33554432
 1736 0050 ADB2     		uxth	r5, r5
 1737              	.L267:
 1738 0052 2585     		strh	r5, [r4, #40]	@ movhi
 1739 0054 002D     		cmp	r5, #0
 1740 0056 48D0     		beq	.L268
 1741 0058 E06B     		ldr	r0, [r4, #60]
 1742 005a 68B3     		cbz	r0, .L269
 1743 005c 2F4B     		ldr	r3, .L278+8
 1744 005e 0027     		movs	r7, #0
 1745 0060 2431     		adds	r1, r1, #36
 1746 0062 C363     		str	r3, [r0, #60]
 1747 0064 2E4B     		ldr	r3, .L278+12
 1748 0066 0764     		str	r7, [r0, #64]
 1749 0068 C364     		str	r3, [r0, #76]
 1750 006a 2B46     		mov	r3, r5
 1751 006c 0765     		str	r7, [r0, #80]
 1752 006e FFF7FEFF 		bl	HAL_DMA_Start_IT
 1753 0072 0546     		mov	r5, r0
 1754 0074 68BB     		cbnz	r0, .L276
 1755 0076 2B4B     		ldr	r3, .L278+16
 1756 0078 3146     		mov	r1, r6
 1757 007a 94F82820 		ldrb	r2, [r4, #40]	@ zero_extendqisi2
ARM GAS  /tmp/ccina73P.s 			page 31


 1758 007e 2046     		mov	r0, r4
 1759 0080 0093     		str	r3, [sp]
 1760 0082 4346     		mov	r3, r8
 1761 0084 FFF7FEFF 		bl	I2C_TransferConfig
 1762 0088 638D     		ldrh	r3, [r4, #42]
 1763 008a 228D     		ldrh	r2, [r4, #40]
 1764 008c 1021     		movs	r1, #16
 1765 008e 2046     		mov	r0, r4
 1766 0090 84F84050 		strb	r5, [r4, #64]
 1767 0094 9B1A     		subs	r3, r3, r2
 1768 0096 9BB2     		uxth	r3, r3
 1769 0098 6385     		strh	r3, [r4, #42]	@ movhi
 1770 009a FFF7FEFF 		bl	I2C_Enable_IRQ
 1771 009e 2268     		ldr	r2, [r4]
 1772 00a0 1368     		ldr	r3, [r2]
 1773 00a2 43F40043 		orr	r3, r3, #32768
 1774 00a6 1360     		str	r3, [r2]
 1775              	.L266:
 1776 00a8 2846     		mov	r0, r5
 1777 00aa 02B0     		add	sp, sp, #8
 1778              		@ sp needed
 1779 00ac BDE8F081 		pop	{r4, r5, r6, r7, r8, pc}
 1780              	.L275:
 1781 00b0 FF25     		movs	r5, #255
 1782 00b2 4FF08078 		mov	r8, #16777216
 1783 00b6 CCE7     		b	.L267
 1784              	.L269:
 1785 00b8 2023     		movs	r3, #32
 1786 00ba 84F84000 		strb	r0, [r4, #64]
 1787 00be 84F84130 		strb	r3, [r4, #65]
 1788 00c2 84F84200 		strb	r0, [r4, #66]
 1789 00c6 636C     		ldr	r3, [r4, #68]
 1790 00c8 43F08003 		orr	r3, r3, #128
 1791 00cc 6364     		str	r3, [r4, #68]
 1792              	.L277:
 1793 00ce 0125     		movs	r5, #1
 1794 00d0 EAE7     		b	.L266
 1795              	.L276:
 1796 00d2 2023     		movs	r3, #32
 1797 00d4 84F84070 		strb	r7, [r4, #64]
 1798 00d8 84F84130 		strb	r3, [r4, #65]
 1799 00dc 84F84270 		strb	r7, [r4, #66]
 1800 00e0 636C     		ldr	r3, [r4, #68]
 1801 00e2 43F01003 		orr	r3, r3, #16
 1802 00e6 6364     		str	r3, [r4, #68]
 1803 00e8 F1E7     		b	.L277
 1804              	.L268:
 1805 00ea 0F4B     		ldr	r3, .L278+20
 1806 00ec 3146     		mov	r1, r6
 1807 00ee 2046     		mov	r0, r4
 1808 00f0 2A46     		mov	r2, r5
 1809 00f2 6363     		str	r3, [r4, #52]
 1810 00f4 0B4B     		ldr	r3, .L278+16
 1811 00f6 0093     		str	r3, [sp]
 1812 00f8 4FF00073 		mov	r3, #33554432
 1813 00fc FFF7FEFF 		bl	I2C_TransferConfig
 1814 0100 0121     		movs	r1, #1
ARM GAS  /tmp/ccina73P.s 			page 32


 1815 0102 2046     		mov	r0, r4
 1816 0104 84F84050 		strb	r5, [r4, #64]
 1817 0108 FFF7FEFF 		bl	I2C_Enable_IRQ
 1818 010c CCE7     		b	.L266
 1819              	.L274:
 1820 010e 0225     		movs	r5, #2
 1821 0110 CAE7     		b	.L266
 1822              	.L279:
 1823 0112 00BF     		.align	2
 1824              	.L278:
 1825 0114 0000FFFF 		.word	-65536
 1826 0118 00000000 		.word	I2C_Master_ISR_DMA
 1827 011c 00000000 		.word	I2C_DMAMasterReceiveCplt
 1828 0120 00000000 		.word	I2C_DMAError
 1829 0124 00240080 		.word	-2147474432
 1830 0128 00000000 		.word	I2C_Master_ISR_IT
 1832              		.section	.text.HAL_I2C_Slave_Transmit_DMA,"ax",%progbits
 1833              		.align	1
 1834              		.global	HAL_I2C_Slave_Transmit_DMA
 1835              		.syntax unified
 1836              		.thumb
 1837              		.thumb_func
 1838              		.fpu fpv5-sp-d16
 1840              	HAL_I2C_Slave_Transmit_DMA:
 1841              		@ args = 0, pretend = 0, frame = 0
 1842              		@ frame_needed = 0, uses_anonymous_args = 0
 1843 0000 F8B5     		push	{r3, r4, r5, r6, r7, lr}
 1844 0002 0446     		mov	r4, r0
 1845 0004 90F84100 		ldrb	r0, [r0, #65]	@ zero_extendqisi2
 1846 0008 2028     		cmp	r0, #32
 1847 000a C5B2     		uxtb	r5, r0
 1848 000c 56D1     		bne	.L288
 1849 000e 01B1     		cbz	r1, .L282
 1850 0010 2AB9     		cbnz	r2, .L283
 1851              	.L282:
 1852 0012 4FF40073 		mov	r3, #512
 1853 0016 6364     		str	r3, [r4, #68]
 1854              	.L293:
 1855 0018 0125     		movs	r5, #1
 1856              	.L281:
 1857 001a 2846     		mov	r0, r5
 1858 001c F8BD     		pop	{r3, r4, r5, r6, r7, pc}
 1859              	.L283:
 1860 001e 94F84000 		ldrb	r0, [r4, #64]	@ zero_extendqisi2
 1861 0022 0128     		cmp	r0, #1
 1862 0024 4AD0     		beq	.L288
 1863 0026 2120     		movs	r0, #33
 1864 0028 0026     		movs	r6, #0
 1865 002a 0127     		movs	r7, #1
 1866 002c 6162     		str	r1, [r4, #36]
 1867 002e 84F84100 		strb	r0, [r4, #65]
 1868 0032 84F84250 		strb	r5, [r4, #66]
 1869 0036 6664     		str	r6, [r4, #68]
 1870 0038 6285     		strh	r2, [r4, #42]	@ movhi
 1871 003a 214A     		ldr	r2, .L294
 1872 003c 638D     		ldrh	r3, [r4, #42]
 1873 003e A06B     		ldr	r0, [r4, #56]
ARM GAS  /tmp/ccina73P.s 			page 33


 1874 0040 9BB2     		uxth	r3, r3
 1875 0042 E262     		str	r2, [r4, #44]
 1876 0044 1F4A     		ldr	r2, .L294+4
 1877 0046 84F84070 		strb	r7, [r4, #64]
 1878 004a 2385     		strh	r3, [r4, #40]	@ movhi
 1879 004c 6263     		str	r2, [r4, #52]
 1880 004e E8B1     		cbz	r0, .L284
 1881 0050 1D4A     		ldr	r2, .L294+8
 1882 0052 0664     		str	r6, [r0, #64]
 1883 0054 C263     		str	r2, [r0, #60]
 1884 0056 1D4A     		ldr	r2, .L294+12
 1885 0058 0665     		str	r6, [r0, #80]
 1886 005a C264     		str	r2, [r0, #76]
 1887 005c 2268     		ldr	r2, [r4]
 1888 005e 2832     		adds	r2, r2, #40
 1889 0060 FFF7FEFF 		bl	HAL_DMA_Start_IT
 1890 0064 0546     		mov	r5, r0
 1891 0066 E8B9     		cbnz	r0, .L292
 1892 0068 2268     		ldr	r2, [r4]
 1893 006a 4FF40041 		mov	r1, #32768
 1894 006e 5368     		ldr	r3, [r2, #4]
 1895 0070 23F40043 		bic	r3, r3, #32768
 1896 0074 5360     		str	r3, [r2, #4]
 1897 0076 84F84000 		strb	r0, [r4, #64]
 1898 007a 2046     		mov	r0, r4
 1899 007c FFF7FEFF 		bl	I2C_Enable_IRQ
 1900 0080 2268     		ldr	r2, [r4]
 1901 0082 1368     		ldr	r3, [r2]
 1902 0084 43F48043 		orr	r3, r3, #16384
 1903 0088 1360     		str	r3, [r2]
 1904 008a C6E7     		b	.L281
 1905              	.L284:
 1906 008c 2823     		movs	r3, #40
 1907 008e 84F84000 		strb	r0, [r4, #64]
 1908 0092 84F84130 		strb	r3, [r4, #65]
 1909 0096 84F84200 		strb	r0, [r4, #66]
 1910 009a 636C     		ldr	r3, [r4, #68]
 1911 009c 43F08003 		orr	r3, r3, #128
 1912 00a0 6364     		str	r3, [r4, #68]
 1913 00a2 B9E7     		b	.L293
 1914              	.L292:
 1915 00a4 2823     		movs	r3, #40
 1916 00a6 84F84060 		strb	r6, [r4, #64]
 1917 00aa 84F84130 		strb	r3, [r4, #65]
 1918 00ae 84F84260 		strb	r6, [r4, #66]
 1919 00b2 636C     		ldr	r3, [r4, #68]
 1920 00b4 43F01003 		orr	r3, r3, #16
 1921 00b8 6364     		str	r3, [r4, #68]
 1922 00ba ADE7     		b	.L293
 1923              	.L288:
 1924 00bc 0225     		movs	r5, #2
 1925 00be ACE7     		b	.L281
 1926              	.L295:
 1927              		.align	2
 1928              	.L294:
 1929 00c0 0000FFFF 		.word	-65536
 1930 00c4 00000000 		.word	I2C_Slave_ISR_DMA
ARM GAS  /tmp/ccina73P.s 			page 34


 1931 00c8 00000000 		.word	I2C_DMASlaveTransmitCplt
 1932 00cc 00000000 		.word	I2C_DMAError
 1934              		.section	.text.HAL_I2C_Slave_Receive_DMA,"ax",%progbits
 1935              		.align	1
 1936              		.global	HAL_I2C_Slave_Receive_DMA
 1937              		.syntax unified
 1938              		.thumb
 1939              		.thumb_func
 1940              		.fpu fpv5-sp-d16
 1942              	HAL_I2C_Slave_Receive_DMA:
 1943              		@ args = 0, pretend = 0, frame = 0
 1944              		@ frame_needed = 0, uses_anonymous_args = 0
 1945 0000 F8B5     		push	{r3, r4, r5, r6, r7, lr}
 1946 0002 90F84130 		ldrb	r3, [r0, #65]	@ zero_extendqisi2
 1947 0006 0446     		mov	r4, r0
 1948 0008 202B     		cmp	r3, #32
 1949 000a D8B2     		uxtb	r0, r3
 1950 000c 58D1     		bne	.L304
 1951 000e 01B1     		cbz	r1, .L298
 1952 0010 2AB9     		cbnz	r2, .L299
 1953              	.L298:
 1954 0012 4FF40073 		mov	r3, #512
 1955 0016 6364     		str	r3, [r4, #68]
 1956              	.L309:
 1957 0018 0125     		movs	r5, #1
 1958              	.L297:
 1959 001a 2846     		mov	r0, r5
 1960 001c F8BD     		pop	{r3, r4, r5, r6, r7, pc}
 1961              	.L299:
 1962 001e 94F84030 		ldrb	r3, [r4, #64]	@ zero_extendqisi2
 1963 0022 012B     		cmp	r3, #1
 1964 0024 4CD0     		beq	.L304
 1965 0026 2223     		movs	r3, #34
 1966 0028 0026     		movs	r6, #0
 1967 002a 0127     		movs	r7, #1
 1968 002c 6162     		str	r1, [r4, #36]
 1969 002e 84F84130 		strb	r3, [r4, #65]
 1970 0032 84F84200 		strb	r0, [r4, #66]
 1971 0036 6664     		str	r6, [r4, #68]
 1972 0038 6285     		strh	r2, [r4, #42]	@ movhi
 1973 003a 224A     		ldr	r2, .L310
 1974 003c 638D     		ldrh	r3, [r4, #42]
 1975 003e E06B     		ldr	r0, [r4, #60]
 1976 0040 9BB2     		uxth	r3, r3
 1977 0042 E262     		str	r2, [r4, #44]
 1978 0044 204A     		ldr	r2, .L310+4
 1979 0046 84F84070 		strb	r7, [r4, #64]
 1980 004a 2385     		strh	r3, [r4, #40]	@ movhi
 1981 004c 6263     		str	r2, [r4, #52]
 1982 004e F8B1     		cbz	r0, .L300
 1983 0050 1E4A     		ldr	r2, .L310+8
 1984 0052 2568     		ldr	r5, [r4]
 1985 0054 C263     		str	r2, [r0, #60]
 1986 0056 1E4A     		ldr	r2, .L310+12
 1987 0058 0664     		str	r6, [r0, #64]
 1988 005a C264     		str	r2, [r0, #76]
 1989 005c 0A46     		mov	r2, r1
ARM GAS  /tmp/ccina73P.s 			page 35


 1990 005e 0665     		str	r6, [r0, #80]
 1991 0060 05F12401 		add	r1, r5, #36
 1992 0064 FFF7FEFF 		bl	HAL_DMA_Start_IT
 1993 0068 0546     		mov	r5, r0
 1994 006a E8B9     		cbnz	r0, .L308
 1995 006c 2268     		ldr	r2, [r4]
 1996 006e 4FF40041 		mov	r1, #32768
 1997 0072 5368     		ldr	r3, [r2, #4]
 1998 0074 23F40043 		bic	r3, r3, #32768
 1999 0078 5360     		str	r3, [r2, #4]
 2000 007a 84F84000 		strb	r0, [r4, #64]
 2001 007e 2046     		mov	r0, r4
 2002 0080 FFF7FEFF 		bl	I2C_Enable_IRQ
 2003 0084 2268     		ldr	r2, [r4]
 2004 0086 1368     		ldr	r3, [r2]
 2005 0088 43F40043 		orr	r3, r3, #32768
 2006 008c 1360     		str	r3, [r2]
 2007 008e C4E7     		b	.L297
 2008              	.L300:
 2009 0090 2823     		movs	r3, #40
 2010 0092 84F84000 		strb	r0, [r4, #64]
 2011 0096 84F84130 		strb	r3, [r4, #65]
 2012 009a 84F84200 		strb	r0, [r4, #66]
 2013 009e 636C     		ldr	r3, [r4, #68]
 2014 00a0 43F08003 		orr	r3, r3, #128
 2015 00a4 6364     		str	r3, [r4, #68]
 2016 00a6 B7E7     		b	.L309
 2017              	.L308:
 2018 00a8 2823     		movs	r3, #40
 2019 00aa 84F84060 		strb	r6, [r4, #64]
 2020 00ae 84F84130 		strb	r3, [r4, #65]
 2021 00b2 84F84260 		strb	r6, [r4, #66]
 2022 00b6 636C     		ldr	r3, [r4, #68]
 2023 00b8 43F01003 		orr	r3, r3, #16
 2024 00bc 6364     		str	r3, [r4, #68]
 2025 00be ABE7     		b	.L309
 2026              	.L304:
 2027 00c0 0225     		movs	r5, #2
 2028 00c2 AAE7     		b	.L297
 2029              	.L311:
 2030              		.align	2
 2031              	.L310:
 2032 00c4 0000FFFF 		.word	-65536
 2033 00c8 00000000 		.word	I2C_Slave_ISR_DMA
 2034 00cc 00000000 		.word	I2C_DMASlaveReceiveCplt
 2035 00d0 00000000 		.word	I2C_DMAError
 2037              		.section	.text.HAL_I2C_Mem_Write,"ax",%progbits
 2038              		.align	1
 2039              		.global	HAL_I2C_Mem_Write
 2040              		.syntax unified
 2041              		.thumb
 2042              		.thumb_func
 2043              		.fpu fpv5-sp-d16
 2045              	HAL_I2C_Mem_Write:
 2046              		@ args = 12, pretend = 0, frame = 0
 2047              		@ frame_needed = 0, uses_anonymous_args = 0
 2048 0000 2DE9F74F 		push	{r0, r1, r2, r4, r5, r6, r7, r8, r9, r10, fp, lr}
ARM GAS  /tmp/ccina73P.s 			page 36


 2049 0004 9946     		mov	r9, r3
 2050 0006 90F84130 		ldrb	r3, [r0, #65]	@ zero_extendqisi2
 2051 000a 0446     		mov	r4, r0
 2052 000c 0F46     		mov	r7, r1
 2053 000e 202B     		cmp	r3, #32
 2054 0010 1646     		mov	r6, r2
 2055 0012 BDF834A0 		ldrh	r10, [sp, #52]
 2056 0016 DDF83880 		ldr	r8, [sp, #56]
 2057 001a 40F0C680 		bne	.L328
 2058 001e 0C9B     		ldr	r3, [sp, #48]
 2059 0020 13B1     		cbz	r3, .L314
 2060 0022 BAF1000F 		cmp	r10, #0
 2061 0026 06D1     		bne	.L315
 2062              	.L314:
 2063 0028 4FF40073 		mov	r3, #512
 2064 002c 6364     		str	r3, [r4, #68]
 2065              	.L340:
 2066 002e 0120     		movs	r0, #1
 2067              	.L313:
 2068 0030 03B0     		add	sp, sp, #12
 2069              		@ sp needed
 2070 0032 BDE8F08F 		pop	{r4, r5, r6, r7, r8, r9, r10, fp, pc}
 2071              	.L315:
 2072 0036 90F84030 		ldrb	r3, [r0, #64]	@ zero_extendqisi2
 2073 003a 012B     		cmp	r3, #1
 2074 003c 00F0B580 		beq	.L328
 2075 0040 4FF0010B 		mov	fp, #1
 2076 0044 80F840B0 		strb	fp, [r0, #64]
 2077 0048 FFF7FEFF 		bl	HAL_GetTick
 2078 004c 1923     		movs	r3, #25
 2079 004e 0546     		mov	r5, r0
 2080 0050 0090     		str	r0, [sp]
 2081 0052 5A46     		mov	r2, fp
 2082 0054 4FF40041 		mov	r1, #32768
 2083 0058 2046     		mov	r0, r4
 2084 005a FFF7FEFF 		bl	I2C_WaitOnFlagUntilTimeout
 2085 005e 0028     		cmp	r0, #0
 2086 0060 E5D1     		bne	.L340
 2087 0062 2123     		movs	r3, #33
 2088 0064 5FFA89F2 		uxtb	r2, r9
 2089 0068 3946     		mov	r1, r7
 2090 006a 6063     		str	r0, [r4, #52]
 2091 006c 84F84130 		strb	r3, [r4, #65]
 2092 0070 4023     		movs	r3, #64
 2093 0072 84F84230 		strb	r3, [r4, #66]
 2094 0076 0C9B     		ldr	r3, [sp, #48]
 2095 0078 6064     		str	r0, [r4, #68]
 2096 007a 2046     		mov	r0, r4
 2097 007c 6362     		str	r3, [r4, #36]
 2098 007e 4C4B     		ldr	r3, .L341
 2099 0080 A4F82AA0 		strh	r10, [r4, #42]	@ movhi
 2100 0084 0093     		str	r3, [sp]
 2101 0086 4FF08073 		mov	r3, #16777216
 2102 008a FFF7FEFF 		bl	I2C_TransferConfig
 2103 008e 2A46     		mov	r2, r5
 2104 0090 4146     		mov	r1, r8
 2105 0092 2046     		mov	r0, r4
ARM GAS  /tmp/ccina73P.s 			page 37


 2106 0094 FFF7FEFF 		bl	I2C_WaitOnTXISFlagUntilTimeout
 2107 0098 18BB     		cbnz	r0, .L317
 2108 009a B9F1010F 		cmp	r9, #1
 2109 009e 2368     		ldr	r3, [r4]
 2110 00a0 15D1     		bne	.L318
 2111              	.L337:
 2112 00a2 F6B2     		uxtb	r6, r6
 2113 00a4 0022     		movs	r2, #0
 2114 00a6 8021     		movs	r1, #128
 2115 00a8 2046     		mov	r0, r4
 2116 00aa 9E62     		str	r6, [r3, #40]
 2117 00ac 4346     		mov	r3, r8
 2118 00ae 0095     		str	r5, [sp]
 2119 00b0 FFF7FEFF 		bl	I2C_WaitOnFlagUntilTimeout
 2120 00b4 A8B9     		cbnz	r0, .L317
 2121 00b6 638D     		ldrh	r3, [r4, #42]
 2122 00b8 9BB2     		uxth	r3, r3
 2123 00ba FF2B     		cmp	r3, #255
 2124 00bc 15D8     		bhi	.L320
 2125 00be 628D     		ldrh	r2, [r4, #42]
 2126 00c0 4FF00073 		mov	r3, #33554432
 2127 00c4 0090     		str	r0, [sp]
 2128 00c6 92B2     		uxth	r2, r2
 2129 00c8 2285     		strh	r2, [r4, #40]	@ movhi
 2130 00ca D2B2     		uxtb	r2, r2
 2131 00cc 12E0     		b	.L338
 2132              	.L318:
 2133 00ce 320A     		lsrs	r2, r6, #8
 2134 00d0 4146     		mov	r1, r8
 2135 00d2 2046     		mov	r0, r4
 2136 00d4 9A62     		str	r2, [r3, #40]
 2137 00d6 2A46     		mov	r2, r5
 2138 00d8 FFF7FEFF 		bl	I2C_WaitOnTXISFlagUntilTimeout
 2139 00dc 08B9     		cbnz	r0, .L317
 2140 00de 2368     		ldr	r3, [r4]
 2141 00e0 DFE7     		b	.L337
 2142              	.L317:
 2143 00e2 0023     		movs	r3, #0
 2144 00e4 84F84030 		strb	r3, [r4, #64]
 2145 00e8 A1E7     		b	.L340
 2146              	.L320:
 2147 00ea FF22     		movs	r2, #255
 2148 00ec 4FF08073 		mov	r3, #16777216
 2149 00f0 0090     		str	r0, [sp]
 2150 00f2 2285     		strh	r2, [r4, #40]	@ movhi
 2151              	.L338:
 2152 00f4 3946     		mov	r1, r7
 2153 00f6 2046     		mov	r0, r4
 2154 00f8 FFF7FEFF 		bl	I2C_TransferConfig
 2155              	.L322:
 2156 00fc 2A46     		mov	r2, r5
 2157 00fe 4146     		mov	r1, r8
 2158 0100 2046     		mov	r0, r4
 2159 0102 FFF7FEFF 		bl	I2C_WaitOnTXISFlagUntilTimeout
 2160 0106 0028     		cmp	r0, #0
 2161 0108 91D1     		bne	.L340
 2162 010a 636A     		ldr	r3, [r4, #36]
ARM GAS  /tmp/ccina73P.s 			page 38


 2163 010c 2268     		ldr	r2, [r4]
 2164 010e 13F8011B 		ldrb	r1, [r3], #1	@ zero_extendqisi2
 2165 0112 9162     		str	r1, [r2, #40]
 2166 0114 6362     		str	r3, [r4, #36]
 2167 0116 638D     		ldrh	r3, [r4, #42]
 2168 0118 228D     		ldrh	r2, [r4, #40]
 2169 011a 013B     		subs	r3, r3, #1
 2170 011c 013A     		subs	r2, r2, #1
 2171 011e 9BB2     		uxth	r3, r3
 2172 0120 92B2     		uxth	r2, r2
 2173 0122 6385     		strh	r3, [r4, #42]	@ movhi
 2174 0124 638D     		ldrh	r3, [r4, #42]
 2175 0126 2285     		strh	r2, [r4, #40]	@ movhi
 2176 0128 9BB2     		uxth	r3, r3
 2177 012a B3B1     		cbz	r3, .L325
 2178 012c AAB9     		cbnz	r2, .L325
 2179 012e 4346     		mov	r3, r8
 2180 0130 8021     		movs	r1, #128
 2181 0132 2046     		mov	r0, r4
 2182 0134 0095     		str	r5, [sp]
 2183 0136 FFF7FEFF 		bl	I2C_WaitOnFlagUntilTimeout
 2184 013a 0028     		cmp	r0, #0
 2185 013c 7FF477AF 		bne	.L340
 2186 0140 638D     		ldrh	r3, [r4, #42]
 2187 0142 9BB2     		uxth	r3, r3
 2188 0144 FF2B     		cmp	r3, #255
 2189 0146 28D9     		bls	.L326
 2190 0148 FF22     		movs	r2, #255
 2191 014a 4FF08073 		mov	r3, #16777216
 2192 014e 0090     		str	r0, [sp]
 2193 0150 2285     		strh	r2, [r4, #40]	@ movhi
 2194              	.L339:
 2195 0152 3946     		mov	r1, r7
 2196 0154 2046     		mov	r0, r4
 2197 0156 FFF7FEFF 		bl	I2C_TransferConfig
 2198              	.L325:
 2199 015a 638D     		ldrh	r3, [r4, #42]
 2200 015c 9BB2     		uxth	r3, r3
 2201 015e 002B     		cmp	r3, #0
 2202 0160 CCD1     		bne	.L322
 2203 0162 2A46     		mov	r2, r5
 2204 0164 4146     		mov	r1, r8
 2205 0166 2046     		mov	r0, r4
 2206 0168 FFF7FEFF 		bl	I2C_WaitOnSTOPFlagUntilTimeout
 2207 016c 0028     		cmp	r0, #0
 2208 016e 7FF45EAF 		bne	.L340
 2209 0172 2368     		ldr	r3, [r4]
 2210 0174 2021     		movs	r1, #32
 2211 0176 D961     		str	r1, [r3, #28]
 2212 0178 5A68     		ldr	r2, [r3, #4]
 2213 017a 22F0FF72 		bic	r2, r2, #33423360
 2214 017e 22F48B32 		bic	r2, r2, #71168
 2215 0182 22F4FF72 		bic	r2, r2, #510
 2216 0186 22F00102 		bic	r2, r2, #1
 2217 018a 5A60     		str	r2, [r3, #4]
 2218 018c 84F84110 		strb	r1, [r4, #65]
 2219 0190 84F84000 		strb	r0, [r4, #64]
ARM GAS  /tmp/ccina73P.s 			page 39


 2220 0194 84F84200 		strb	r0, [r4, #66]
 2221 0198 4AE7     		b	.L313
 2222              	.L326:
 2223 019a 628D     		ldrh	r2, [r4, #42]
 2224 019c 4FF00073 		mov	r3, #33554432
 2225 01a0 0090     		str	r0, [sp]
 2226 01a2 92B2     		uxth	r2, r2
 2227 01a4 2285     		strh	r2, [r4, #40]	@ movhi
 2228 01a6 D2B2     		uxtb	r2, r2
 2229 01a8 D3E7     		b	.L339
 2230              	.L328:
 2231 01aa 0220     		movs	r0, #2
 2232 01ac 40E7     		b	.L313
 2233              	.L342:
 2234 01ae 00BF     		.align	2
 2235              	.L341:
 2236 01b0 00200080 		.word	-2147475456
 2238              		.section	.text.HAL_I2C_Mem_Read,"ax",%progbits
 2239              		.align	1
 2240              		.global	HAL_I2C_Mem_Read
 2241              		.syntax unified
 2242              		.thumb
 2243              		.thumb_func
 2244              		.fpu fpv5-sp-d16
 2246              	HAL_I2C_Mem_Read:
 2247              		@ args = 12, pretend = 0, frame = 0
 2248              		@ frame_needed = 0, uses_anonymous_args = 0
 2249 0000 2DE9F74F 		push	{r0, r1, r2, r4, r5, r6, r7, r8, r9, r10, fp, lr}
 2250 0004 9946     		mov	r9, r3
 2251 0006 90F84130 		ldrb	r3, [r0, #65]	@ zero_extendqisi2
 2252 000a 0446     		mov	r4, r0
 2253 000c 0F46     		mov	r7, r1
 2254 000e 202B     		cmp	r3, #32
 2255 0010 1646     		mov	r6, r2
 2256 0012 BDF834A0 		ldrh	r10, [sp, #52]
 2257 0016 DDF83880 		ldr	r8, [sp, #56]
 2258 001a 40F0C980 		bne	.L359
 2259 001e 0C9B     		ldr	r3, [sp, #48]
 2260 0020 13B1     		cbz	r3, .L345
 2261 0022 BAF1000F 		cmp	r10, #0
 2262 0026 06D1     		bne	.L346
 2263              	.L345:
 2264 0028 4FF40073 		mov	r3, #512
 2265 002c 6364     		str	r3, [r4, #68]
 2266              	.L371:
 2267 002e 0120     		movs	r0, #1
 2268              	.L344:
 2269 0030 03B0     		add	sp, sp, #12
 2270              		@ sp needed
 2271 0032 BDE8F08F 		pop	{r4, r5, r6, r7, r8, r9, r10, fp, pc}
 2272              	.L346:
 2273 0036 90F84030 		ldrb	r3, [r0, #64]	@ zero_extendqisi2
 2274 003a 012B     		cmp	r3, #1
 2275 003c 00F0B880 		beq	.L359
 2276 0040 4FF0010B 		mov	fp, #1
 2277 0044 80F840B0 		strb	fp, [r0, #64]
 2278 0048 FFF7FEFF 		bl	HAL_GetTick
ARM GAS  /tmp/ccina73P.s 			page 40


 2279 004c 1923     		movs	r3, #25
 2280 004e 0546     		mov	r5, r0
 2281 0050 0090     		str	r0, [sp]
 2282 0052 5A46     		mov	r2, fp
 2283 0054 4FF40041 		mov	r1, #32768
 2284 0058 2046     		mov	r0, r4
 2285 005a FFF7FEFF 		bl	I2C_WaitOnFlagUntilTimeout
 2286 005e 0028     		cmp	r0, #0
 2287 0060 E5D1     		bne	.L371
 2288 0062 2223     		movs	r3, #34
 2289 0064 5FFA89F2 		uxtb	r2, r9
 2290 0068 3946     		mov	r1, r7
 2291 006a 6063     		str	r0, [r4, #52]
 2292 006c 84F84130 		strb	r3, [r4, #65]
 2293 0070 4023     		movs	r3, #64
 2294 0072 84F84230 		strb	r3, [r4, #66]
 2295 0076 0C9B     		ldr	r3, [sp, #48]
 2296 0078 6064     		str	r0, [r4, #68]
 2297 007a 6362     		str	r3, [r4, #36]
 2298 007c 4D4B     		ldr	r3, .L372
 2299 007e A4F82AA0 		strh	r10, [r4, #42]	@ movhi
 2300 0082 0093     		str	r3, [sp]
 2301 0084 0346     		mov	r3, r0
 2302 0086 2046     		mov	r0, r4
 2303 0088 FFF7FEFF 		bl	I2C_TransferConfig
 2304 008c 2A46     		mov	r2, r5
 2305 008e 4146     		mov	r1, r8
 2306 0090 2046     		mov	r0, r4
 2307 0092 FFF7FEFF 		bl	I2C_WaitOnTXISFlagUntilTimeout
 2308 0096 20BB     		cbnz	r0, .L348
 2309 0098 B9F1010F 		cmp	r9, #1
 2310 009c 2368     		ldr	r3, [r4]
 2311 009e 16D1     		bne	.L349
 2312              	.L368:
 2313 00a0 F6B2     		uxtb	r6, r6
 2314 00a2 0022     		movs	r2, #0
 2315 00a4 4021     		movs	r1, #64
 2316 00a6 2046     		mov	r0, r4
 2317 00a8 9E62     		str	r6, [r3, #40]
 2318 00aa 4346     		mov	r3, r8
 2319 00ac 0095     		str	r5, [sp]
 2320 00ae FFF7FEFF 		bl	I2C_WaitOnFlagUntilTimeout
 2321 00b2 B0B9     		cbnz	r0, .L348
 2322 00b4 638D     		ldrh	r3, [r4, #42]
 2323 00b6 9BB2     		uxth	r3, r3
 2324 00b8 FF2B     		cmp	r3, #255
 2325 00ba 3F4B     		ldr	r3, .L372+4
 2326 00bc 15D8     		bhi	.L351
 2327 00be 628D     		ldrh	r2, [r4, #42]
 2328 00c0 0093     		str	r3, [sp]
 2329 00c2 4FF00073 		mov	r3, #33554432
 2330 00c6 92B2     		uxth	r2, r2
 2331 00c8 2285     		strh	r2, [r4, #40]	@ movhi
 2332 00ca D2B2     		uxtb	r2, r2
 2333 00cc 12E0     		b	.L369
 2334              	.L349:
 2335 00ce 320A     		lsrs	r2, r6, #8
ARM GAS  /tmp/ccina73P.s 			page 41


 2336 00d0 4146     		mov	r1, r8
 2337 00d2 2046     		mov	r0, r4
 2338 00d4 9A62     		str	r2, [r3, #40]
 2339 00d6 2A46     		mov	r2, r5
 2340 00d8 FFF7FEFF 		bl	I2C_WaitOnTXISFlagUntilTimeout
 2341 00dc 08B9     		cbnz	r0, .L348
 2342 00de 2368     		ldr	r3, [r4]
 2343 00e0 DEE7     		b	.L368
 2344              	.L348:
 2345 00e2 0023     		movs	r3, #0
 2346 00e4 84F84030 		strb	r3, [r4, #64]
 2347 00e8 A1E7     		b	.L371
 2348              	.L351:
 2349 00ea FF22     		movs	r2, #255
 2350 00ec 0093     		str	r3, [sp]
 2351 00ee 4FF08073 		mov	r3, #16777216
 2352 00f2 2285     		strh	r2, [r4, #40]	@ movhi
 2353              	.L369:
 2354 00f4 3946     		mov	r1, r7
 2355 00f6 2046     		mov	r0, r4
 2356 00f8 FFF7FEFF 		bl	I2C_TransferConfig
 2357              	.L353:
 2358 00fc 4346     		mov	r3, r8
 2359 00fe 0022     		movs	r2, #0
 2360 0100 0421     		movs	r1, #4
 2361 0102 2046     		mov	r0, r4
 2362 0104 0095     		str	r5, [sp]
 2363 0106 FFF7FEFF 		bl	I2C_WaitOnFlagUntilTimeout
 2364 010a 0028     		cmp	r0, #0
 2365 010c 8FD1     		bne	.L371
 2366 010e 2368     		ldr	r3, [r4]
 2367 0110 5A6A     		ldr	r2, [r3, #36]
 2368 0112 636A     		ldr	r3, [r4, #36]
 2369 0114 1A70     		strb	r2, [r3]
 2370 0116 636A     		ldr	r3, [r4, #36]
 2371 0118 228D     		ldrh	r2, [r4, #40]
 2372 011a 0133     		adds	r3, r3, #1
 2373 011c 013A     		subs	r2, r2, #1
 2374 011e 6362     		str	r3, [r4, #36]
 2375 0120 638D     		ldrh	r3, [r4, #42]
 2376 0122 92B2     		uxth	r2, r2
 2377 0124 013B     		subs	r3, r3, #1
 2378 0126 2285     		strh	r2, [r4, #40]	@ movhi
 2379 0128 9BB2     		uxth	r3, r3
 2380 012a 6385     		strh	r3, [r4, #42]	@ movhi
 2381 012c 638D     		ldrh	r3, [r4, #42]
 2382 012e 9BB2     		uxth	r3, r3
 2383 0130 B3B1     		cbz	r3, .L356
 2384 0132 AAB9     		cbnz	r2, .L356
 2385 0134 4346     		mov	r3, r8
 2386 0136 8021     		movs	r1, #128
 2387 0138 2046     		mov	r0, r4
 2388 013a 0095     		str	r5, [sp]
 2389 013c FFF7FEFF 		bl	I2C_WaitOnFlagUntilTimeout
 2390 0140 0028     		cmp	r0, #0
 2391 0142 7FF474AF 		bne	.L371
 2392 0146 638D     		ldrh	r3, [r4, #42]
ARM GAS  /tmp/ccina73P.s 			page 42


 2393 0148 9BB2     		uxth	r3, r3
 2394 014a FF2B     		cmp	r3, #255
 2395 014c 28D9     		bls	.L357
 2396 014e FF22     		movs	r2, #255
 2397 0150 4FF08073 		mov	r3, #16777216
 2398 0154 0090     		str	r0, [sp]
 2399 0156 2285     		strh	r2, [r4, #40]	@ movhi
 2400              	.L370:
 2401 0158 3946     		mov	r1, r7
 2402 015a 2046     		mov	r0, r4
 2403 015c FFF7FEFF 		bl	I2C_TransferConfig
 2404              	.L356:
 2405 0160 638D     		ldrh	r3, [r4, #42]
 2406 0162 9BB2     		uxth	r3, r3
 2407 0164 002B     		cmp	r3, #0
 2408 0166 C9D1     		bne	.L353
 2409 0168 2A46     		mov	r2, r5
 2410 016a 4146     		mov	r1, r8
 2411 016c 2046     		mov	r0, r4
 2412 016e FFF7FEFF 		bl	I2C_WaitOnSTOPFlagUntilTimeout
 2413 0172 0028     		cmp	r0, #0
 2414 0174 7FF45BAF 		bne	.L371
 2415 0178 2368     		ldr	r3, [r4]
 2416 017a 2021     		movs	r1, #32
 2417 017c D961     		str	r1, [r3, #28]
 2418 017e 5A68     		ldr	r2, [r3, #4]
 2419 0180 22F0FF72 		bic	r2, r2, #33423360
 2420 0184 22F48B32 		bic	r2, r2, #71168
 2421 0188 22F4FF72 		bic	r2, r2, #510
 2422 018c 22F00102 		bic	r2, r2, #1
 2423 0190 5A60     		str	r2, [r3, #4]
 2424 0192 84F84110 		strb	r1, [r4, #65]
 2425 0196 84F84000 		strb	r0, [r4, #64]
 2426 019a 84F84200 		strb	r0, [r4, #66]
 2427 019e 47E7     		b	.L344
 2428              	.L357:
 2429 01a0 628D     		ldrh	r2, [r4, #42]
 2430 01a2 4FF00073 		mov	r3, #33554432
 2431 01a6 0090     		str	r0, [sp]
 2432 01a8 92B2     		uxth	r2, r2
 2433 01aa 2285     		strh	r2, [r4, #40]	@ movhi
 2434 01ac D2B2     		uxtb	r2, r2
 2435 01ae D3E7     		b	.L370
 2436              	.L359:
 2437 01b0 0220     		movs	r0, #2
 2438 01b2 3DE7     		b	.L344
 2439              	.L373:
 2440              		.align	2
 2441              	.L372:
 2442 01b4 00200080 		.word	-2147475456
 2443 01b8 00240080 		.word	-2147474432
 2445              		.section	.text.HAL_I2C_Mem_Write_IT,"ax",%progbits
 2446              		.align	1
 2447              		.global	HAL_I2C_Mem_Write_IT
 2448              		.syntax unified
 2449              		.thumb
 2450              		.thumb_func
ARM GAS  /tmp/ccina73P.s 			page 43


 2451              		.fpu fpv5-sp-d16
 2453              	HAL_I2C_Mem_Write_IT:
 2454              		@ args = 8, pretend = 0, frame = 0
 2455              		@ frame_needed = 0, uses_anonymous_args = 0
 2456 0000 F7B5     		push	{r0, r1, r2, r4, r5, r6, r7, lr}
 2457 0002 0446     		mov	r4, r0
 2458 0004 1846     		mov	r0, r3
 2459 0006 089F     		ldr	r7, [sp, #32]
 2460 0008 94F84130 		ldrb	r3, [r4, #65]	@ zero_extendqisi2
 2461 000c BDF82460 		ldrh	r6, [sp, #36]
 2462 0010 202B     		cmp	r3, #32
 2463 0012 40D1     		bne	.L382
 2464 0014 07B1     		cbz	r7, .L376
 2465 0016 2EB9     		cbnz	r6, .L377
 2466              	.L376:
 2467 0018 4FF40073 		mov	r3, #512
 2468 001c 0120     		movs	r0, #1
 2469 001e 6364     		str	r3, [r4, #68]
 2470              	.L375:
 2471 0020 03B0     		add	sp, sp, #12
 2472              		@ sp needed
 2473 0022 F0BD     		pop	{r4, r5, r6, r7, pc}
 2474              	.L377:
 2475 0024 2568     		ldr	r5, [r4]
 2476 0026 AB69     		ldr	r3, [r5, #24]
 2477 0028 13F40043 		ands	r3, r3, #32768
 2478 002c 33D1     		bne	.L382
 2479 002e 94F840C0 		ldrb	ip, [r4, #64]	@ zero_extendqisi2
 2480 0032 BCF1010F 		cmp	ip, #1
 2481 0036 2ED0     		beq	.L382
 2482 0038 4FF0010C 		mov	ip, #1
 2483 003c 0128     		cmp	r0, #1
 2484 003e 6762     		str	r7, [r4, #36]
 2485 0040 84F840C0 		strb	ip, [r4, #64]
 2486 0044 4FF0210C 		mov	ip, #33
 2487 0048 84F841C0 		strb	ip, [r4, #65]
 2488 004c 4FF0400C 		mov	ip, #64
 2489 0050 84F842C0 		strb	ip, [r4, #66]
 2490 0054 6364     		str	r3, [r4, #68]
 2491 0056 114B     		ldr	r3, .L387
 2492 0058 6685     		strh	r6, [r4, #42]	@ movhi
 2493 005a E362     		str	r3, [r4, #44]
 2494 005c 104B     		ldr	r3, .L387+4
 2495 005e E164     		str	r1, [r4, #76]
 2496 0060 6363     		str	r3, [r4, #52]
 2497 0062 D3B2     		uxtb	r3, r2
 2498 0064 14D1     		bne	.L378
 2499 0066 AB62     		str	r3, [r5, #40]
 2500 0068 4FF0FF33 		mov	r3, #-1
 2501              	.L386:
 2502 006c 2365     		str	r3, [r4, #80]
 2503 006e 0025     		movs	r5, #0
 2504 0070 0C4B     		ldr	r3, .L387+8
 2505 0072 C2B2     		uxtb	r2, r0
 2506 0074 2046     		mov	r0, r4
 2507 0076 0093     		str	r3, [sp]
 2508 0078 4FF08073 		mov	r3, #16777216
ARM GAS  /tmp/ccina73P.s 			page 44


 2509 007c FFF7FEFF 		bl	I2C_TransferConfig
 2510 0080 2046     		mov	r0, r4
 2511 0082 0121     		movs	r1, #1
 2512 0084 84F84050 		strb	r5, [r4, #64]
 2513 0088 FFF7FEFF 		bl	I2C_Enable_IRQ
 2514 008c 2846     		mov	r0, r5
 2515 008e C7E7     		b	.L375
 2516              	.L378:
 2517 0090 120A     		lsrs	r2, r2, #8
 2518 0092 AA62     		str	r2, [r5, #40]
 2519 0094 EAE7     		b	.L386
 2520              	.L382:
 2521 0096 0220     		movs	r0, #2
 2522 0098 C2E7     		b	.L375
 2523              	.L388:
 2524 009a 00BF     		.align	2
 2525              	.L387:
 2526 009c 0000FFFF 		.word	-65536
 2527 00a0 00000000 		.word	I2C_Mem_ISR_IT
 2528 00a4 00200080 		.word	-2147475456
 2530              		.section	.text.HAL_I2C_Mem_Read_IT,"ax",%progbits
 2531              		.align	1
 2532              		.global	HAL_I2C_Mem_Read_IT
 2533              		.syntax unified
 2534              		.thumb
 2535              		.thumb_func
 2536              		.fpu fpv5-sp-d16
 2538              	HAL_I2C_Mem_Read_IT:
 2539              		@ args = 8, pretend = 0, frame = 0
 2540              		@ frame_needed = 0, uses_anonymous_args = 0
 2541 0000 F7B5     		push	{r0, r1, r2, r4, r5, r6, r7, lr}
 2542 0002 0446     		mov	r4, r0
 2543 0004 1846     		mov	r0, r3
 2544 0006 089F     		ldr	r7, [sp, #32]
 2545 0008 94F84130 		ldrb	r3, [r4, #65]	@ zero_extendqisi2
 2546 000c BDF82460 		ldrh	r6, [sp, #36]
 2547 0010 202B     		cmp	r3, #32
 2548 0012 3FD1     		bne	.L397
 2549 0014 07B1     		cbz	r7, .L391
 2550 0016 2EB9     		cbnz	r6, .L392
 2551              	.L391:
 2552 0018 4FF40073 		mov	r3, #512
 2553 001c 0120     		movs	r0, #1
 2554 001e 6364     		str	r3, [r4, #68]
 2555              	.L390:
 2556 0020 03B0     		add	sp, sp, #12
 2557              		@ sp needed
 2558 0022 F0BD     		pop	{r4, r5, r6, r7, pc}
 2559              	.L392:
 2560 0024 2568     		ldr	r5, [r4]
 2561 0026 AB69     		ldr	r3, [r5, #24]
 2562 0028 13F40043 		ands	r3, r3, #32768
 2563 002c 32D1     		bne	.L397
 2564 002e 94F840C0 		ldrb	ip, [r4, #64]	@ zero_extendqisi2
 2565 0032 BCF1010F 		cmp	ip, #1
 2566 0036 2DD0     		beq	.L397
 2567 0038 4FF0010C 		mov	ip, #1
ARM GAS  /tmp/ccina73P.s 			page 45


 2568 003c 0128     		cmp	r0, #1
 2569 003e 6762     		str	r7, [r4, #36]
 2570 0040 84F840C0 		strb	ip, [r4, #64]
 2571 0044 4FF0220C 		mov	ip, #34
 2572 0048 84F841C0 		strb	ip, [r4, #65]
 2573 004c 4FF0400C 		mov	ip, #64
 2574 0050 84F842C0 		strb	ip, [r4, #66]
 2575 0054 6364     		str	r3, [r4, #68]
 2576 0056 104B     		ldr	r3, .L402
 2577 0058 6685     		strh	r6, [r4, #42]	@ movhi
 2578 005a E362     		str	r3, [r4, #44]
 2579 005c 0F4B     		ldr	r3, .L402+4
 2580 005e E164     		str	r1, [r4, #76]
 2581 0060 6363     		str	r3, [r4, #52]
 2582 0062 D3B2     		uxtb	r3, r2
 2583 0064 13D1     		bne	.L393
 2584 0066 AB62     		str	r3, [r5, #40]
 2585 0068 4FF0FF33 		mov	r3, #-1
 2586              	.L401:
 2587 006c 2365     		str	r3, [r4, #80]
 2588 006e 0025     		movs	r5, #0
 2589 0070 0B4B     		ldr	r3, .L402+8
 2590 0072 C2B2     		uxtb	r2, r0
 2591 0074 2046     		mov	r0, r4
 2592 0076 0093     		str	r3, [sp]
 2593 0078 0023     		movs	r3, #0
 2594 007a FFF7FEFF 		bl	I2C_TransferConfig
 2595 007e 2046     		mov	r0, r4
 2596 0080 0321     		movs	r1, #3
 2597 0082 84F84050 		strb	r5, [r4, #64]
 2598 0086 FFF7FEFF 		bl	I2C_Enable_IRQ
 2599 008a 2846     		mov	r0, r5
 2600 008c C8E7     		b	.L390
 2601              	.L393:
 2602 008e 120A     		lsrs	r2, r2, #8
 2603 0090 AA62     		str	r2, [r5, #40]
 2604 0092 EBE7     		b	.L401
 2605              	.L397:
 2606 0094 0220     		movs	r0, #2
 2607 0096 C3E7     		b	.L390
 2608              	.L403:
 2609              		.align	2
 2610              	.L402:
 2611 0098 0000FFFF 		.word	-65536
 2612 009c 00000000 		.word	I2C_Mem_ISR_IT
 2613 00a0 00200080 		.word	-2147475456
 2615              		.section	.text.HAL_I2C_Mem_Write_DMA,"ax",%progbits
 2616              		.align	1
 2617              		.global	HAL_I2C_Mem_Write_DMA
 2618              		.syntax unified
 2619              		.thumb
 2620              		.thumb_func
 2621              		.fpu fpv5-sp-d16
 2623              	HAL_I2C_Mem_Write_DMA:
 2624              		@ args = 8, pretend = 0, frame = 0
 2625              		@ frame_needed = 0, uses_anonymous_args = 0
 2626 0000 2DE9F341 		push	{r0, r1, r4, r5, r6, r7, r8, lr}
ARM GAS  /tmp/ccina73P.s 			page 46


 2627 0004 0446     		mov	r4, r0
 2628 0006 1F46     		mov	r7, r3
 2629 0008 0E46     		mov	r6, r1
 2630 000a BDF82400 		ldrh	r0, [sp, #36]
 2631 000e 94F84130 		ldrb	r3, [r4, #65]	@ zero_extendqisi2
 2632 0012 0899     		ldr	r1, [sp, #32]
 2633 0014 202B     		cmp	r3, #32
 2634 0016 75D1     		bne	.L416
 2635 0018 01B1     		cbz	r1, .L406
 2636 001a 20B9     		cbnz	r0, .L407
 2637              	.L406:
 2638 001c 4FF40073 		mov	r3, #512
 2639 0020 6364     		str	r3, [r4, #68]
 2640              	.L422:
 2641 0022 0125     		movs	r5, #1
 2642 0024 4CE0     		b	.L405
 2643              	.L407:
 2644 0026 2568     		ldr	r5, [r4]
 2645 0028 AB69     		ldr	r3, [r5, #24]
 2646 002a 13F40043 		ands	r3, r3, #32768
 2647 002e 69D1     		bne	.L416
 2648 0030 94F840C0 		ldrb	ip, [r4, #64]	@ zero_extendqisi2
 2649 0034 BCF1010F 		cmp	ip, #1
 2650 0038 64D0     		beq	.L416
 2651 003a 4FF0010C 		mov	ip, #1
 2652 003e 6162     		str	r1, [r4, #36]
 2653 0040 84F840C0 		strb	ip, [r4, #64]
 2654 0044 4FF0210C 		mov	ip, #33
 2655 0048 84F841C0 		strb	ip, [r4, #65]
 2656 004c 4FF0400C 		mov	ip, #64
 2657 0050 84F842C0 		strb	ip, [r4, #66]
 2658 0054 6364     		str	r3, [r4, #68]
 2659 0056 2C4B     		ldr	r3, .L423
 2660 0058 6085     		strh	r0, [r4, #42]	@ movhi
 2661 005a E362     		str	r3, [r4, #44]
 2662 005c 2B4B     		ldr	r3, .L423+4
 2663 005e E664     		str	r6, [r4, #76]
 2664 0060 6363     		str	r3, [r4, #52]
 2665 0062 638D     		ldrh	r3, [r4, #42]
 2666 0064 9BB2     		uxth	r3, r3
 2667 0066 FF2B     		cmp	r3, #255
 2668 0068 2ED8     		bhi	.L417
 2669 006a 638D     		ldrh	r3, [r4, #42]
 2670 006c 9BB2     		uxth	r3, r3
 2671              	.L408:
 2672 006e 012F     		cmp	r7, #1
 2673 0070 D0B2     		uxtb	r0, r2
 2674 0072 2385     		strh	r3, [r4, #40]	@ movhi
 2675 0074 2AD1     		bne	.L409
 2676 0076 4FF0FF32 		mov	r2, #-1
 2677 007a A862     		str	r0, [r5, #40]
 2678 007c 2265     		str	r2, [r4, #80]
 2679              	.L410:
 2680 007e A06B     		ldr	r0, [r4, #56]
 2681 0080 40B3     		cbz	r0, .L411
 2682 0082 234A     		ldr	r2, .L423+8
 2683 0084 4FF00008 		mov	r8, #0
ARM GAS  /tmp/ccina73P.s 			page 47


 2684 0088 C263     		str	r2, [r0, #60]
 2685 008a 224A     		ldr	r2, .L423+12
 2686 008c C0F84080 		str	r8, [r0, #64]
 2687 0090 C264     		str	r2, [r0, #76]
 2688 0092 05F12802 		add	r2, r5, #40
 2689 0096 C0F85080 		str	r8, [r0, #80]
 2690 009a FFF7FEFF 		bl	HAL_DMA_Start_IT
 2691 009e 0546     		mov	r5, r0
 2692 00a0 20BB     		cbnz	r0, .L421
 2693 00a2 1D4B     		ldr	r3, .L423+16
 2694 00a4 3146     		mov	r1, r6
 2695 00a6 2046     		mov	r0, r4
 2696 00a8 FAB2     		uxtb	r2, r7
 2697 00aa 0093     		str	r3, [sp]
 2698 00ac 4FF08073 		mov	r3, #16777216
 2699 00b0 FFF7FEFF 		bl	I2C_TransferConfig
 2700 00b4 0121     		movs	r1, #1
 2701 00b6 2046     		mov	r0, r4
 2702 00b8 84F84050 		strb	r5, [r4, #64]
 2703 00bc FFF7FEFF 		bl	I2C_Enable_IRQ
 2704              	.L405:
 2705 00c0 2846     		mov	r0, r5
 2706 00c2 02B0     		add	sp, sp, #8
 2707              		@ sp needed
 2708 00c4 BDE8F081 		pop	{r4, r5, r6, r7, r8, pc}
 2709              	.L417:
 2710 00c8 FF23     		movs	r3, #255
 2711 00ca D0E7     		b	.L408
 2712              	.L409:
 2713 00cc 120A     		lsrs	r2, r2, #8
 2714 00ce AA62     		str	r2, [r5, #40]
 2715 00d0 2065     		str	r0, [r4, #80]
 2716 00d2 D4E7     		b	.L410
 2717              	.L411:
 2718 00d4 2023     		movs	r3, #32
 2719 00d6 84F84000 		strb	r0, [r4, #64]
 2720 00da 84F84130 		strb	r3, [r4, #65]
 2721 00de 84F84200 		strb	r0, [r4, #66]
 2722 00e2 636C     		ldr	r3, [r4, #68]
 2723 00e4 43F08003 		orr	r3, r3, #128
 2724 00e8 6364     		str	r3, [r4, #68]
 2725 00ea 9AE7     		b	.L422
 2726              	.L421:
 2727 00ec 2023     		movs	r3, #32
 2728 00ee 84F84080 		strb	r8, [r4, #64]
 2729 00f2 84F84130 		strb	r3, [r4, #65]
 2730 00f6 84F84280 		strb	r8, [r4, #66]
 2731 00fa 636C     		ldr	r3, [r4, #68]
 2732 00fc 43F01003 		orr	r3, r3, #16
 2733 0100 6364     		str	r3, [r4, #68]
 2734 0102 8EE7     		b	.L422
 2735              	.L416:
 2736 0104 0225     		movs	r5, #2
 2737 0106 DBE7     		b	.L405
 2738              	.L424:
 2739              		.align	2
 2740              	.L423:
ARM GAS  /tmp/ccina73P.s 			page 48


 2741 0108 0000FFFF 		.word	-65536
 2742 010c 00000000 		.word	I2C_Mem_ISR_DMA
 2743 0110 00000000 		.word	I2C_DMAMasterTransmitCplt
 2744 0114 00000000 		.word	I2C_DMAError
 2745 0118 00200080 		.word	-2147475456
 2747              		.section	.text.HAL_I2C_Mem_Read_DMA,"ax",%progbits
 2748              		.align	1
 2749              		.global	HAL_I2C_Mem_Read_DMA
 2750              		.syntax unified
 2751              		.thumb
 2752              		.thumb_func
 2753              		.fpu fpv5-sp-d16
 2755              	HAL_I2C_Mem_Read_DMA:
 2756              		@ args = 8, pretend = 0, frame = 0
 2757              		@ frame_needed = 0, uses_anonymous_args = 0
 2758 0000 2DE9F341 		push	{r0, r1, r4, r5, r6, r7, r8, lr}
 2759 0004 0446     		mov	r4, r0
 2760 0006 1F46     		mov	r7, r3
 2761 0008 0E46     		mov	r6, r1
 2762 000a 089D     		ldr	r5, [sp, #32]
 2763 000c 94F84130 		ldrb	r3, [r4, #65]	@ zero_extendqisi2
 2764 0010 BDF82400 		ldrh	r0, [sp, #36]
 2765 0014 202B     		cmp	r3, #32
 2766 0016 77D1     		bne	.L437
 2767 0018 05B1     		cbz	r5, .L427
 2768 001a 20B9     		cbnz	r0, .L428
 2769              	.L427:
 2770 001c 4FF40073 		mov	r3, #512
 2771 0020 6364     		str	r3, [r4, #68]
 2772              	.L443:
 2773 0022 0125     		movs	r5, #1
 2774 0024 4DE0     		b	.L426
 2775              	.L428:
 2776 0026 2168     		ldr	r1, [r4]
 2777 0028 8B69     		ldr	r3, [r1, #24]
 2778 002a 13F40043 		ands	r3, r3, #32768
 2779 002e 6BD1     		bne	.L437
 2780 0030 94F840C0 		ldrb	ip, [r4, #64]	@ zero_extendqisi2
 2781 0034 BCF1010F 		cmp	ip, #1
 2782 0038 66D0     		beq	.L437
 2783 003a 4FF0010C 		mov	ip, #1
 2784 003e 6562     		str	r5, [r4, #36]
 2785 0040 84F840C0 		strb	ip, [r4, #64]
 2786 0044 4FF0220C 		mov	ip, #34
 2787 0048 84F841C0 		strb	ip, [r4, #65]
 2788 004c 4FF0400C 		mov	ip, #64
 2789 0050 84F842C0 		strb	ip, [r4, #66]
 2790 0054 6364     		str	r3, [r4, #68]
 2791 0056 2D4B     		ldr	r3, .L444
 2792 0058 6085     		strh	r0, [r4, #42]	@ movhi
 2793 005a E362     		str	r3, [r4, #44]
 2794 005c 2C4B     		ldr	r3, .L444+4
 2795 005e E664     		str	r6, [r4, #76]
 2796 0060 6363     		str	r3, [r4, #52]
 2797 0062 638D     		ldrh	r3, [r4, #42]
 2798 0064 9BB2     		uxth	r3, r3
 2799 0066 FF2B     		cmp	r3, #255
ARM GAS  /tmp/ccina73P.s 			page 49


 2800 0068 2FD8     		bhi	.L438
 2801 006a 638D     		ldrh	r3, [r4, #42]
 2802 006c 9BB2     		uxth	r3, r3
 2803              	.L429:
 2804 006e 012F     		cmp	r7, #1
 2805 0070 5FFA82FC 		uxtb	ip, r2
 2806 0074 2385     		strh	r3, [r4, #40]	@ movhi
 2807 0076 2AD1     		bne	.L430
 2808 0078 4FF0FF32 		mov	r2, #-1
 2809 007c C1F828C0 		str	ip, [r1, #40]
 2810 0080 2265     		str	r2, [r4, #80]
 2811              	.L431:
 2812 0082 E06B     		ldr	r0, [r4, #60]
 2813 0084 40B3     		cbz	r0, .L432
 2814 0086 234A     		ldr	r2, .L444+8
 2815 0088 4FF00008 		mov	r8, #0
 2816 008c 2431     		adds	r1, r1, #36
 2817 008e C263     		str	r2, [r0, #60]
 2818 0090 214A     		ldr	r2, .L444+12
 2819 0092 C0F84080 		str	r8, [r0, #64]
 2820 0096 C264     		str	r2, [r0, #76]
 2821 0098 2A46     		mov	r2, r5
 2822 009a C0F85080 		str	r8, [r0, #80]
 2823 009e FFF7FEFF 		bl	HAL_DMA_Start_IT
 2824 00a2 0546     		mov	r5, r0
 2825 00a4 20BB     		cbnz	r0, .L442
 2826 00a6 1D4B     		ldr	r3, .L444+16
 2827 00a8 3146     		mov	r1, r6
 2828 00aa FAB2     		uxtb	r2, r7
 2829 00ac 0093     		str	r3, [sp]
 2830 00ae 0346     		mov	r3, r0
 2831 00b0 2046     		mov	r0, r4
 2832 00b2 FFF7FEFF 		bl	I2C_TransferConfig
 2833 00b6 0121     		movs	r1, #1
 2834 00b8 2046     		mov	r0, r4
 2835 00ba 84F84050 		strb	r5, [r4, #64]
 2836 00be FFF7FEFF 		bl	I2C_Enable_IRQ
 2837              	.L426:
 2838 00c2 2846     		mov	r0, r5
 2839 00c4 02B0     		add	sp, sp, #8
 2840              		@ sp needed
 2841 00c6 BDE8F081 		pop	{r4, r5, r6, r7, r8, pc}
 2842              	.L438:
 2843 00ca FF23     		movs	r3, #255
 2844 00cc CFE7     		b	.L429
 2845              	.L430:
 2846 00ce 120A     		lsrs	r2, r2, #8
 2847 00d0 8A62     		str	r2, [r1, #40]
 2848 00d2 C4F850C0 		str	ip, [r4, #80]
 2849 00d6 D4E7     		b	.L431
 2850              	.L432:
 2851 00d8 2023     		movs	r3, #32
 2852 00da 84F84000 		strb	r0, [r4, #64]
 2853 00de 84F84130 		strb	r3, [r4, #65]
 2854 00e2 84F84200 		strb	r0, [r4, #66]
 2855 00e6 636C     		ldr	r3, [r4, #68]
 2856 00e8 43F08003 		orr	r3, r3, #128
ARM GAS  /tmp/ccina73P.s 			page 50


 2857 00ec 6364     		str	r3, [r4, #68]
 2858 00ee 98E7     		b	.L443
 2859              	.L442:
 2860 00f0 2023     		movs	r3, #32
 2861 00f2 84F84080 		strb	r8, [r4, #64]
 2862 00f6 84F84130 		strb	r3, [r4, #65]
 2863 00fa 84F84280 		strb	r8, [r4, #66]
 2864 00fe 636C     		ldr	r3, [r4, #68]
 2865 0100 43F01003 		orr	r3, r3, #16
 2866 0104 6364     		str	r3, [r4, #68]
 2867 0106 8CE7     		b	.L443
 2868              	.L437:
 2869 0108 0225     		movs	r5, #2
 2870 010a DAE7     		b	.L426
 2871              	.L445:
 2872              		.align	2
 2873              	.L444:
 2874 010c 0000FFFF 		.word	-65536
 2875 0110 00000000 		.word	I2C_Mem_ISR_DMA
 2876 0114 00000000 		.word	I2C_DMAMasterReceiveCplt
 2877 0118 00000000 		.word	I2C_DMAError
 2878 011c 00200080 		.word	-2147475456
 2880              		.section	.text.HAL_I2C_IsDeviceReady,"ax",%progbits
 2881              		.align	1
 2882              		.global	HAL_I2C_IsDeviceReady
 2883              		.syntax unified
 2884              		.thumb
 2885              		.thumb_func
 2886              		.fpu fpv5-sp-d16
 2888              	HAL_I2C_IsDeviceReady:
 2889              		@ args = 0, pretend = 0, frame = 8
 2890              		@ frame_needed = 0, uses_anonymous_args = 0
 2891 0000 2DE9F04F 		push	{r4, r5, r6, r7, r8, r9, r10, fp, lr}
 2892 0004 1E46     		mov	r6, r3
 2893 0006 85B0     		sub	sp, sp, #20
 2894 0008 0023     		movs	r3, #0
 2895 000a 0446     		mov	r4, r0
 2896 000c 9146     		mov	r9, r2
 2897 000e 0393     		str	r3, [sp, #12]
 2898 0010 90F84130 		ldrb	r3, [r0, #65]	@ zero_extendqisi2
 2899 0014 202B     		cmp	r3, #32
 2900 0016 40F08E80 		bne	.L461
 2901 001a 0368     		ldr	r3, [r0]
 2902 001c 9B69     		ldr	r3, [r3, #24]
 2903 001e 13F40043 		ands	r3, r3, #32768
 2904 0022 40F08880 		bne	.L461
 2905 0026 90F84020 		ldrb	r2, [r0, #64]	@ zero_extendqisi2
 2906 002a 012A     		cmp	r2, #1
 2907 002c 00F08380 		beq	.L461
 2908 0030 C1F30907 		ubfx	r7, r1, #0, #10
 2909 0034 0122     		movs	r2, #1
 2910 0036 47F0007A 		orr	r10, r7, #33554432
 2911 003a 80F84020 		strb	r2, [r0, #64]
 2912 003e 2422     		movs	r2, #36
 2913 0040 4AF4005A 		orr	r10, r10, #8192
 2914 0044 80F84120 		strb	r2, [r0, #65]
 2915 0048 4364     		str	r3, [r0, #68]
ARM GAS  /tmp/ccina73P.s 			page 51


 2916              	.L458:
 2917 004a E368     		ldr	r3, [r4, #12]
 2918 004c 2268     		ldr	r2, [r4]
 2919 004e 012B     		cmp	r3, #1
 2920 0050 0CBF     		ite	eq
 2921 0052 5346     		moveq	r3, r10
 2922 0054 47F42053 		orrne	r3, r7, #10240
 2923 0058 5360     		str	r3, [r2, #4]
 2924 005a FFF7FEFF 		bl	HAL_GetTick
 2925 005e 8046     		mov	r8, r0
 2926              	.L451:
 2927 0060 2368     		ldr	r3, [r4]
 2928 0062 9D69     		ldr	r5, [r3, #24]
 2929 0064 9B69     		ldr	r3, [r3, #24]
 2930 0066 C5F34015 		ubfx	r5, r5, #5, #1
 2931 006a C3F30013 		ubfx	r3, r3, #4, #1
 2932 006e 1D43     		orrs	r5, r5, r3
 2933 0070 15D0     		beq	.L453
 2934 0072 2368     		ldr	r3, [r4]
 2935 0074 9A69     		ldr	r2, [r3, #24]
 2936 0076 3346     		mov	r3, r6
 2937 0078 CDF80080 		str	r8, [sp]
 2938 007c 12F01002 		ands	r2, r2, #16
 2939 0080 26D1     		bne	.L454
 2940 0082 2021     		movs	r1, #32
 2941 0084 2046     		mov	r0, r4
 2942 0086 FFF7FEFF 		bl	I2C_WaitOnFlagUntilTimeout
 2943 008a E8B9     		cbnz	r0, .L447
 2944 008c 2023     		movs	r3, #32
 2945 008e 2268     		ldr	r2, [r4]
 2946 0090 0546     		mov	r5, r0
 2947 0092 D361     		str	r3, [r2, #28]
 2948 0094 84F84130 		strb	r3, [r4, #65]
 2949 0098 84F84000 		strb	r0, [r4, #64]
 2950 009c 14E0     		b	.L447
 2951              	.L453:
 2952 009e 731C     		adds	r3, r6, #1
 2953 00a0 DED0     		beq	.L451
 2954 00a2 FFF7FEFF 		bl	HAL_GetTick
 2955 00a6 A0EB0800 		sub	r0, r0, r8
 2956 00aa B042     		cmp	r0, r6
 2957 00ac 01D8     		bhi	.L452
 2958 00ae 002E     		cmp	r6, #0
 2959 00b0 D6D1     		bne	.L451
 2960              	.L452:
 2961 00b2 2023     		movs	r3, #32
 2962 00b4 0125     		movs	r5, #1
 2963 00b6 84F84130 		strb	r3, [r4, #65]
 2964 00ba 636C     		ldr	r3, [r4, #68]
 2965 00bc 43F02003 		orr	r3, r3, #32
 2966 00c0 6364     		str	r3, [r4, #68]
 2967 00c2 0023     		movs	r3, #0
 2968 00c4 84F84030 		strb	r3, [r4, #64]
 2969              	.L447:
 2970 00c8 2846     		mov	r0, r5
 2971 00ca 05B0     		add	sp, sp, #20
 2972              		@ sp needed
ARM GAS  /tmp/ccina73P.s 			page 52


 2973 00cc BDE8F08F 		pop	{r4, r5, r6, r7, r8, r9, r10, fp, pc}
 2974              	.L454:
 2975 00d0 0022     		movs	r2, #0
 2976 00d2 2021     		movs	r1, #32
 2977 00d4 2046     		mov	r0, r4
 2978 00d6 FFF7FEFF 		bl	I2C_WaitOnFlagUntilTimeout
 2979 00da 0028     		cmp	r0, #0
 2980 00dc F4D1     		bne	.L447
 2981 00de 2368     		ldr	r3, [r4]
 2982 00e0 1022     		movs	r2, #16
 2983 00e2 4FF0200B 		mov	fp, #32
 2984 00e6 DA61     		str	r2, [r3, #28]
 2985 00e8 C3F81CB0 		str	fp, [r3, #28]
 2986 00ec 039A     		ldr	r2, [sp, #12]
 2987 00ee 4A45     		cmp	r2, r9
 2988 00f0 10D1     		bne	.L457
 2989 00f2 5A68     		ldr	r2, [r3, #4]
 2990 00f4 5946     		mov	r1, fp
 2991 00f6 42F48042 		orr	r2, r2, #16384
 2992 00fa 5A60     		str	r2, [r3, #4]
 2993 00fc 0246     		mov	r2, r0
 2994 00fe 3346     		mov	r3, r6
 2995 0100 2046     		mov	r0, r4
 2996 0102 CDF80080 		str	r8, [sp]
 2997 0106 FFF7FEFF 		bl	I2C_WaitOnFlagUntilTimeout
 2998 010a 0028     		cmp	r0, #0
 2999 010c DCD1     		bne	.L447
 3000 010e 2368     		ldr	r3, [r4]
 3001 0110 C3F81CB0 		str	fp, [r3, #28]
 3002              	.L457:
 3003 0114 039B     		ldr	r3, [sp, #12]
 3004 0116 0133     		adds	r3, r3, #1
 3005 0118 0393     		str	r3, [sp, #12]
 3006 011a 039B     		ldr	r3, [sp, #12]
 3007 011c 4B45     		cmp	r3, r9
 3008 011e 94D3     		bcc	.L458
 3009 0120 2023     		movs	r3, #32
 3010 0122 84F84130 		strb	r3, [r4, #65]
 3011 0126 636C     		ldr	r3, [r4, #68]
 3012 0128 43F02003 		orr	r3, r3, #32
 3013 012c 6364     		str	r3, [r4, #68]
 3014 012e 0023     		movs	r3, #0
 3015 0130 84F84030 		strb	r3, [r4, #64]
 3016 0134 C8E7     		b	.L447
 3017              	.L461:
 3018 0136 0225     		movs	r5, #2
 3019 0138 C6E7     		b	.L447
 3021              		.section	.text.HAL_I2C_Master_Seq_Transmit_IT,"ax",%progbits
 3022              		.align	1
 3023              		.global	HAL_I2C_Master_Seq_Transmit_IT
 3024              		.syntax unified
 3025              		.thumb
 3026              		.thumb_func
 3027              		.fpu fpv5-sp-d16
 3029              	HAL_I2C_Master_Seq_Transmit_IT:
 3030              		@ args = 4, pretend = 0, frame = 0
 3031              		@ frame_needed = 0, uses_anonymous_args = 0
ARM GAS  /tmp/ccina73P.s 			page 53


 3032 0000 37B5     		push	{r0, r1, r2, r4, r5, lr}
 3033 0002 0446     		mov	r4, r0
 3034 0004 0698     		ldr	r0, [sp, #24]
 3035 0006 94F84150 		ldrb	r5, [r4, #65]	@ zero_extendqisi2
 3036 000a 202D     		cmp	r5, #32
 3037 000c 43D1     		bne	.L473
 3038 000e 94F84050 		ldrb	r5, [r4, #64]	@ zero_extendqisi2
 3039 0012 012D     		cmp	r5, #1
 3040 0014 3FD0     		beq	.L473
 3041 0016 0125     		movs	r5, #1
 3042 0018 6262     		str	r2, [r4, #36]
 3043 001a 84F84050 		strb	r5, [r4, #64]
 3044 001e 2125     		movs	r5, #33
 3045 0020 84F84150 		strb	r5, [r4, #65]
 3046 0024 1025     		movs	r5, #16
 3047 0026 84F84250 		strb	r5, [r4, #66]
 3048 002a 0025     		movs	r5, #0
 3049 002c 6564     		str	r5, [r4, #68]
 3050 002e 6385     		strh	r3, [r4, #42]	@ movhi
 3051 0030 1A4B     		ldr	r3, .L479
 3052 0032 E062     		str	r0, [r4, #44]
 3053 0034 6363     		str	r3, [r4, #52]
 3054 0036 638D     		ldrh	r3, [r4, #42]
 3055 0038 9BB2     		uxth	r3, r3
 3056 003a FF2B     		cmp	r3, #255
 3057 003c 15D9     		bls	.L468
 3058 003e FF23     		movs	r3, #255
 3059 0040 4FF08072 		mov	r2, #16777216
 3060 0044 2385     		strh	r3, [r4, #40]	@ movhi
 3061              	.L469:
 3062 0046 236B     		ldr	r3, [r4, #48]
 3063 0048 112B     		cmp	r3, #17
 3064 004a 04D1     		bne	.L470
 3065 004c AA28     		cmp	r0, #170
 3066 004e 02D0     		beq	.L470
 3067 0050 B0F52A4F 		cmp	r0, #43520
 3068 0054 0DD1     		bne	.L474
 3069              	.L470:
 3070 0056 2046     		mov	r0, r4
 3071 0058 FFF7FEFF 		bl	I2C_ConvertOtherXferOptions
 3072 005c 638D     		ldrh	r3, [r4, #42]
 3073 005e 9BB2     		uxth	r3, r3
 3074 0060 FF2B     		cmp	r3, #255
 3075 0062 00D8     		bhi	.L475
 3076 0064 E26A     		ldr	r2, [r4, #44]
 3077              	.L475:
 3078 0066 0E4B     		ldr	r3, .L479+4
 3079 0068 04E0     		b	.L471
 3080              	.L468:
 3081 006a 638D     		ldrh	r3, [r4, #42]
 3082 006c E26A     		ldr	r2, [r4, #44]
 3083 006e 2385     		strh	r3, [r4, #40]	@ movhi
 3084 0070 E9E7     		b	.L469
 3085              	.L474:
 3086 0072 0023     		movs	r3, #0
 3087              	.L471:
 3088 0074 0025     		movs	r5, #0
ARM GAS  /tmp/ccina73P.s 			page 54


 3089 0076 2046     		mov	r0, r4
 3090 0078 0093     		str	r3, [sp]
 3091 007a 1346     		mov	r3, r2
 3092 007c 94F82820 		ldrb	r2, [r4, #40]	@ zero_extendqisi2
 3093 0080 FFF7FEFF 		bl	I2C_TransferConfig
 3094 0084 2046     		mov	r0, r4
 3095 0086 0121     		movs	r1, #1
 3096 0088 84F84050 		strb	r5, [r4, #64]
 3097 008c FFF7FEFF 		bl	I2C_Enable_IRQ
 3098 0090 2846     		mov	r0, r5
 3099              	.L467:
 3100 0092 03B0     		add	sp, sp, #12
 3101              		@ sp needed
 3102 0094 30BD     		pop	{r4, r5, pc}
 3103              	.L473:
 3104 0096 0220     		movs	r0, #2
 3105 0098 FBE7     		b	.L467
 3106              	.L480:
 3107 009a 00BF     		.align	2
 3108              	.L479:
 3109 009c 00000000 		.word	I2C_Master_ISR_IT
 3110 00a0 00200080 		.word	-2147475456
 3112              		.section	.text.HAL_I2C_Master_Seq_Transmit_DMA,"ax",%progbits
 3113              		.align	1
 3114              		.global	HAL_I2C_Master_Seq_Transmit_DMA
 3115              		.syntax unified
 3116              		.thumb
 3117              		.thumb_func
 3118              		.fpu fpv5-sp-d16
 3120              	HAL_I2C_Master_Seq_Transmit_DMA:
 3121              		@ args = 4, pretend = 0, frame = 0
 3122              		@ frame_needed = 0, uses_anonymous_args = 0
 3123 0000 2DE9F743 		push	{r0, r1, r2, r4, r5, r6, r7, r8, r9, lr}
 3124 0004 0446     		mov	r4, r0
 3125 0006 90F84100 		ldrb	r0, [r0, #65]	@ zero_extendqisi2
 3126 000a 0E46     		mov	r6, r1
 3127 000c 1146     		mov	r1, r2
 3128 000e 2028     		cmp	r0, #32
 3129 0010 0A9A     		ldr	r2, [sp, #40]
 3130 0012 40F09380 		bne	.L492
 3131 0016 94F84000 		ldrb	r0, [r4, #64]	@ zero_extendqisi2
 3132 001a 0128     		cmp	r0, #1
 3133 001c 00F08E80 		beq	.L492
 3134 0020 0120     		movs	r0, #1
 3135 0022 6162     		str	r1, [r4, #36]
 3136 0024 84F84000 		strb	r0, [r4, #64]
 3137 0028 2120     		movs	r0, #33
 3138 002a 84F84100 		strb	r0, [r4, #65]
 3139 002e 1020     		movs	r0, #16
 3140 0030 84F84200 		strb	r0, [r4, #66]
 3141 0034 0020     		movs	r0, #0
 3142 0036 6064     		str	r0, [r4, #68]
 3143 0038 6385     		strh	r3, [r4, #42]	@ movhi
 3144 003a 414B     		ldr	r3, .L500
 3145 003c E262     		str	r2, [r4, #44]
 3146 003e 6363     		str	r3, [r4, #52]
 3147 0040 638D     		ldrh	r3, [r4, #42]
ARM GAS  /tmp/ccina73P.s 			page 55


 3148 0042 9BB2     		uxth	r3, r3
 3149 0044 FF2B     		cmp	r3, #255
 3150 0046 17D9     		bls	.L483
 3151 0048 FF23     		movs	r3, #255
 3152 004a 4FF08078 		mov	r8, #16777216
 3153 004e 2385     		strh	r3, [r4, #40]	@ movhi
 3154              	.L484:
 3155 0050 236B     		ldr	r3, [r4, #48]
 3156 0052 112B     		cmp	r3, #17
 3157 0054 04D1     		bne	.L485
 3158 0056 AA2A     		cmp	r2, #170
 3159 0058 02D0     		beq	.L485
 3160 005a B2F52A4F 		cmp	r2, #43520
 3161 005e 10D1     		bne	.L493
 3162              	.L485:
 3163 0060 2046     		mov	r0, r4
 3164 0062 FFF7FEFF 		bl	I2C_ConvertOtherXferOptions
 3165 0066 638D     		ldrh	r3, [r4, #42]
 3166 0068 9BB2     		uxth	r3, r3
 3167 006a FF2B     		cmp	r3, #255
 3168 006c 01D8     		bhi	.L494
 3169 006e D4F82C80 		ldr	r8, [r4, #44]
 3170              	.L494:
 3171 0072 DFF8DC90 		ldr	r9, .L500+16
 3172 0076 06E0     		b	.L486
 3173              	.L483:
 3174 0078 638D     		ldrh	r3, [r4, #42]
 3175 007a D4F82C80 		ldr	r8, [r4, #44]
 3176 007e 2385     		strh	r3, [r4, #40]	@ movhi
 3177 0080 E6E7     		b	.L484
 3178              	.L493:
 3179 0082 4FF00009 		mov	r9, #0
 3180              	.L486:
 3181 0086 258D     		ldrh	r5, [r4, #40]
 3182 0088 002D     		cmp	r5, #0
 3183 008a 45D0     		beq	.L487
 3184 008c A06B     		ldr	r0, [r4, #56]
 3185 008e 50B3     		cbz	r0, .L488
 3186 0090 2C4B     		ldr	r3, .L500+4
 3187 0092 0027     		movs	r7, #0
 3188 0094 2268     		ldr	r2, [r4]
 3189 0096 C363     		str	r3, [r0, #60]
 3190 0098 2B4B     		ldr	r3, .L500+8
 3191 009a 2832     		adds	r2, r2, #40
 3192 009c 0764     		str	r7, [r0, #64]
 3193 009e C364     		str	r3, [r0, #76]
 3194 00a0 2B46     		mov	r3, r5
 3195 00a2 0765     		str	r7, [r0, #80]
 3196 00a4 FFF7FEFF 		bl	HAL_DMA_Start_IT
 3197 00a8 0546     		mov	r5, r0
 3198 00aa 48BB     		cbnz	r0, .L498
 3199 00ac 4346     		mov	r3, r8
 3200 00ae 94F82820 		ldrb	r2, [r4, #40]	@ zero_extendqisi2
 3201 00b2 3146     		mov	r1, r6
 3202 00b4 2046     		mov	r0, r4
 3203 00b6 CDF80090 		str	r9, [sp]
 3204 00ba FFF7FEFF 		bl	I2C_TransferConfig
ARM GAS  /tmp/ccina73P.s 			page 56


 3205 00be 638D     		ldrh	r3, [r4, #42]
 3206 00c0 228D     		ldrh	r2, [r4, #40]
 3207 00c2 1021     		movs	r1, #16
 3208 00c4 2046     		mov	r0, r4
 3209 00c6 84F84050 		strb	r5, [r4, #64]
 3210 00ca 9B1A     		subs	r3, r3, r2
 3211 00cc 9BB2     		uxth	r3, r3
 3212 00ce 6385     		strh	r3, [r4, #42]	@ movhi
 3213 00d0 FFF7FEFF 		bl	I2C_Enable_IRQ
 3214 00d4 2268     		ldr	r2, [r4]
 3215 00d6 1368     		ldr	r3, [r2]
 3216 00d8 43F48043 		orr	r3, r3, #16384
 3217 00dc 1360     		str	r3, [r2]
 3218              	.L482:
 3219 00de 2846     		mov	r0, r5
 3220 00e0 03B0     		add	sp, sp, #12
 3221              		@ sp needed
 3222 00e2 BDE8F083 		pop	{r4, r5, r6, r7, r8, r9, pc}
 3223              	.L488:
 3224 00e6 2023     		movs	r3, #32
 3225 00e8 84F84000 		strb	r0, [r4, #64]
 3226 00ec 84F84130 		strb	r3, [r4, #65]
 3227 00f0 84F84200 		strb	r0, [r4, #66]
 3228 00f4 636C     		ldr	r3, [r4, #68]
 3229 00f6 43F08003 		orr	r3, r3, #128
 3230 00fa 6364     		str	r3, [r4, #68]
 3231              	.L499:
 3232 00fc 0125     		movs	r5, #1
 3233 00fe EEE7     		b	.L482
 3234              	.L498:
 3235 0100 2023     		movs	r3, #32
 3236 0102 84F84070 		strb	r7, [r4, #64]
 3237 0106 84F84130 		strb	r3, [r4, #65]
 3238 010a 84F84270 		strb	r7, [r4, #66]
 3239 010e 636C     		ldr	r3, [r4, #68]
 3240 0110 43F01003 		orr	r3, r3, #16
 3241 0114 6364     		str	r3, [r4, #68]
 3242 0116 F1E7     		b	.L499
 3243              	.L487:
 3244 0118 0C4B     		ldr	r3, .L500+12
 3245 011a 3146     		mov	r1, r6
 3246 011c 2046     		mov	r0, r4
 3247 011e 2A46     		mov	r2, r5
 3248 0120 6363     		str	r3, [r4, #52]
 3249 0122 0B4B     		ldr	r3, .L500+16
 3250 0124 0093     		str	r3, [sp]
 3251 0126 4FF00073 		mov	r3, #33554432
 3252 012a FFF7FEFF 		bl	I2C_TransferConfig
 3253 012e 0121     		movs	r1, #1
 3254 0130 2046     		mov	r0, r4
 3255 0132 84F84050 		strb	r5, [r4, #64]
 3256 0136 FFF7FEFF 		bl	I2C_Enable_IRQ
 3257 013a D0E7     		b	.L482
 3258              	.L492:
 3259 013c 0225     		movs	r5, #2
 3260 013e CEE7     		b	.L482
 3261              	.L501:
ARM GAS  /tmp/ccina73P.s 			page 57


 3262              		.align	2
 3263              	.L500:
 3264 0140 00000000 		.word	I2C_Master_ISR_DMA
 3265 0144 00000000 		.word	I2C_DMAMasterTransmitCplt
 3266 0148 00000000 		.word	I2C_DMAError
 3267 014c 00000000 		.word	I2C_Master_ISR_IT
 3268 0150 00200080 		.word	-2147475456
 3270              		.section	.text.HAL_I2C_Master_Seq_Receive_IT,"ax",%progbits
 3271              		.align	1
 3272              		.global	HAL_I2C_Master_Seq_Receive_IT
 3273              		.syntax unified
 3274              		.thumb
 3275              		.thumb_func
 3276              		.fpu fpv5-sp-d16
 3278              	HAL_I2C_Master_Seq_Receive_IT:
 3279              		@ args = 4, pretend = 0, frame = 0
 3280              		@ frame_needed = 0, uses_anonymous_args = 0
 3281 0000 37B5     		push	{r0, r1, r2, r4, r5, lr}
 3282 0002 0446     		mov	r4, r0
 3283 0004 0698     		ldr	r0, [sp, #24]
 3284 0006 94F84150 		ldrb	r5, [r4, #65]	@ zero_extendqisi2
 3285 000a 202D     		cmp	r5, #32
 3286 000c 43D1     		bne	.L509
 3287 000e 94F84050 		ldrb	r5, [r4, #64]	@ zero_extendqisi2
 3288 0012 012D     		cmp	r5, #1
 3289 0014 3FD0     		beq	.L509
 3290 0016 0125     		movs	r5, #1
 3291 0018 6262     		str	r2, [r4, #36]
 3292 001a 84F84050 		strb	r5, [r4, #64]
 3293 001e 2225     		movs	r5, #34
 3294 0020 84F84150 		strb	r5, [r4, #65]
 3295 0024 1025     		movs	r5, #16
 3296 0026 84F84250 		strb	r5, [r4, #66]
 3297 002a 0025     		movs	r5, #0
 3298 002c 6564     		str	r5, [r4, #68]
 3299 002e 6385     		strh	r3, [r4, #42]	@ movhi
 3300 0030 1A4B     		ldr	r3, .L515
 3301 0032 E062     		str	r0, [r4, #44]
 3302 0034 6363     		str	r3, [r4, #52]
 3303 0036 638D     		ldrh	r3, [r4, #42]
 3304 0038 9BB2     		uxth	r3, r3
 3305 003a FF2B     		cmp	r3, #255
 3306 003c 15D9     		bls	.L504
 3307 003e FF23     		movs	r3, #255
 3308 0040 4FF08072 		mov	r2, #16777216
 3309 0044 2385     		strh	r3, [r4, #40]	@ movhi
 3310              	.L505:
 3311 0046 236B     		ldr	r3, [r4, #48]
 3312 0048 122B     		cmp	r3, #18
 3313 004a 04D1     		bne	.L506
 3314 004c AA28     		cmp	r0, #170
 3315 004e 02D0     		beq	.L506
 3316 0050 B0F52A4F 		cmp	r0, #43520
 3317 0054 0DD1     		bne	.L510
 3318              	.L506:
 3319 0056 2046     		mov	r0, r4
 3320 0058 FFF7FEFF 		bl	I2C_ConvertOtherXferOptions
ARM GAS  /tmp/ccina73P.s 			page 58


 3321 005c 638D     		ldrh	r3, [r4, #42]
 3322 005e 9BB2     		uxth	r3, r3
 3323 0060 FF2B     		cmp	r3, #255
 3324 0062 00D8     		bhi	.L511
 3325 0064 E26A     		ldr	r2, [r4, #44]
 3326              	.L511:
 3327 0066 0E4B     		ldr	r3, .L515+4
 3328 0068 04E0     		b	.L507
 3329              	.L504:
 3330 006a 638D     		ldrh	r3, [r4, #42]
 3331 006c E26A     		ldr	r2, [r4, #44]
 3332 006e 2385     		strh	r3, [r4, #40]	@ movhi
 3333 0070 E9E7     		b	.L505
 3334              	.L510:
 3335 0072 0023     		movs	r3, #0
 3336              	.L507:
 3337 0074 0025     		movs	r5, #0
 3338 0076 2046     		mov	r0, r4
 3339 0078 0093     		str	r3, [sp]
 3340 007a 1346     		mov	r3, r2
 3341 007c 94F82820 		ldrb	r2, [r4, #40]	@ zero_extendqisi2
 3342 0080 FFF7FEFF 		bl	I2C_TransferConfig
 3343 0084 2046     		mov	r0, r4
 3344 0086 0221     		movs	r1, #2
 3345 0088 84F84050 		strb	r5, [r4, #64]
 3346 008c FFF7FEFF 		bl	I2C_Enable_IRQ
 3347 0090 2846     		mov	r0, r5
 3348              	.L503:
 3349 0092 03B0     		add	sp, sp, #12
 3350              		@ sp needed
 3351 0094 30BD     		pop	{r4, r5, pc}
 3352              	.L509:
 3353 0096 0220     		movs	r0, #2
 3354 0098 FBE7     		b	.L503
 3355              	.L516:
 3356 009a 00BF     		.align	2
 3357              	.L515:
 3358 009c 00000000 		.word	I2C_Master_ISR_IT
 3359 00a0 00240080 		.word	-2147474432
 3361              		.section	.text.HAL_I2C_Master_Seq_Receive_DMA,"ax",%progbits
 3362              		.align	1
 3363              		.global	HAL_I2C_Master_Seq_Receive_DMA
 3364              		.syntax unified
 3365              		.thumb
 3366              		.thumb_func
 3367              		.fpu fpv5-sp-d16
 3369              	HAL_I2C_Master_Seq_Receive_DMA:
 3370              		@ args = 4, pretend = 0, frame = 0
 3371              		@ frame_needed = 0, uses_anonymous_args = 0
 3372 0000 2DE9F743 		push	{r0, r1, r2, r4, r5, r6, r7, r8, r9, lr}
 3373 0004 0446     		mov	r4, r0
 3374 0006 90F84100 		ldrb	r0, [r0, #65]	@ zero_extendqisi2
 3375 000a 0E46     		mov	r6, r1
 3376 000c 0A99     		ldr	r1, [sp, #40]
 3377 000e 2028     		cmp	r0, #32
 3378 0010 40F09380 		bne	.L528
 3379 0014 94F84000 		ldrb	r0, [r4, #64]	@ zero_extendqisi2
ARM GAS  /tmp/ccina73P.s 			page 59


 3380 0018 0128     		cmp	r0, #1
 3381 001a 00F08E80 		beq	.L528
 3382 001e 0120     		movs	r0, #1
 3383 0020 6262     		str	r2, [r4, #36]
 3384 0022 84F84000 		strb	r0, [r4, #64]
 3385 0026 2220     		movs	r0, #34
 3386 0028 84F84100 		strb	r0, [r4, #65]
 3387 002c 1020     		movs	r0, #16
 3388 002e 84F84200 		strb	r0, [r4, #66]
 3389 0032 0020     		movs	r0, #0
 3390 0034 6064     		str	r0, [r4, #68]
 3391 0036 6385     		strh	r3, [r4, #42]	@ movhi
 3392 0038 414B     		ldr	r3, .L536
 3393 003a E162     		str	r1, [r4, #44]
 3394 003c 6363     		str	r3, [r4, #52]
 3395 003e 638D     		ldrh	r3, [r4, #42]
 3396 0040 9BB2     		uxth	r3, r3
 3397 0042 FF2B     		cmp	r3, #255
 3398 0044 17D9     		bls	.L519
 3399 0046 FF23     		movs	r3, #255
 3400 0048 4FF08078 		mov	r8, #16777216
 3401 004c 2385     		strh	r3, [r4, #40]	@ movhi
 3402              	.L520:
 3403 004e 236B     		ldr	r3, [r4, #48]
 3404 0050 122B     		cmp	r3, #18
 3405 0052 04D1     		bne	.L521
 3406 0054 AA29     		cmp	r1, #170
 3407 0056 02D0     		beq	.L521
 3408 0058 B1F52A4F 		cmp	r1, #43520
 3409 005c 10D1     		bne	.L529
 3410              	.L521:
 3411 005e 2046     		mov	r0, r4
 3412 0060 FFF7FEFF 		bl	I2C_ConvertOtherXferOptions
 3413 0064 638D     		ldrh	r3, [r4, #42]
 3414 0066 9BB2     		uxth	r3, r3
 3415 0068 FF2B     		cmp	r3, #255
 3416 006a 01D8     		bhi	.L530
 3417 006c D4F82C80 		ldr	r8, [r4, #44]
 3418              	.L530:
 3419 0070 DFF8DC90 		ldr	r9, .L536+16
 3420 0074 06E0     		b	.L522
 3421              	.L519:
 3422 0076 638D     		ldrh	r3, [r4, #42]
 3423 0078 D4F82C80 		ldr	r8, [r4, #44]
 3424 007c 2385     		strh	r3, [r4, #40]	@ movhi
 3425 007e E6E7     		b	.L520
 3426              	.L529:
 3427 0080 4FF00009 		mov	r9, #0
 3428              	.L522:
 3429 0084 258D     		ldrh	r5, [r4, #40]
 3430 0086 002D     		cmp	r5, #0
 3431 0088 45D0     		beq	.L523
 3432 008a E06B     		ldr	r0, [r4, #60]
 3433 008c 50B3     		cbz	r0, .L524
 3434 008e 2D4B     		ldr	r3, .L536+4
 3435 0090 0027     		movs	r7, #0
 3436 0092 2168     		ldr	r1, [r4]
ARM GAS  /tmp/ccina73P.s 			page 60


 3437 0094 C363     		str	r3, [r0, #60]
 3438 0096 2C4B     		ldr	r3, .L536+8
 3439 0098 2431     		adds	r1, r1, #36
 3440 009a 0764     		str	r7, [r0, #64]
 3441 009c C364     		str	r3, [r0, #76]
 3442 009e 2B46     		mov	r3, r5
 3443 00a0 0765     		str	r7, [r0, #80]
 3444 00a2 FFF7FEFF 		bl	HAL_DMA_Start_IT
 3445 00a6 0546     		mov	r5, r0
 3446 00a8 48BB     		cbnz	r0, .L534
 3447 00aa 4346     		mov	r3, r8
 3448 00ac 94F82820 		ldrb	r2, [r4, #40]	@ zero_extendqisi2
 3449 00b0 3146     		mov	r1, r6
 3450 00b2 2046     		mov	r0, r4
 3451 00b4 CDF80090 		str	r9, [sp]
 3452 00b8 FFF7FEFF 		bl	I2C_TransferConfig
 3453 00bc 638D     		ldrh	r3, [r4, #42]
 3454 00be 228D     		ldrh	r2, [r4, #40]
 3455 00c0 1021     		movs	r1, #16
 3456 00c2 2046     		mov	r0, r4
 3457 00c4 84F84050 		strb	r5, [r4, #64]
 3458 00c8 9B1A     		subs	r3, r3, r2
 3459 00ca 9BB2     		uxth	r3, r3
 3460 00cc 6385     		strh	r3, [r4, #42]	@ movhi
 3461 00ce FFF7FEFF 		bl	I2C_Enable_IRQ
 3462 00d2 2268     		ldr	r2, [r4]
 3463 00d4 1368     		ldr	r3, [r2]
 3464 00d6 43F40043 		orr	r3, r3, #32768
 3465 00da 1360     		str	r3, [r2]
 3466              	.L518:
 3467 00dc 2846     		mov	r0, r5
 3468 00de 03B0     		add	sp, sp, #12
 3469              		@ sp needed
 3470 00e0 BDE8F083 		pop	{r4, r5, r6, r7, r8, r9, pc}
 3471              	.L524:
 3472 00e4 2023     		movs	r3, #32
 3473 00e6 84F84000 		strb	r0, [r4, #64]
 3474 00ea 84F84130 		strb	r3, [r4, #65]
 3475 00ee 84F84200 		strb	r0, [r4, #66]
 3476 00f2 636C     		ldr	r3, [r4, #68]
 3477 00f4 43F08003 		orr	r3, r3, #128
 3478 00f8 6364     		str	r3, [r4, #68]
 3479              	.L535:
 3480 00fa 0125     		movs	r5, #1
 3481 00fc EEE7     		b	.L518
 3482              	.L534:
 3483 00fe 2023     		movs	r3, #32
 3484 0100 84F84070 		strb	r7, [r4, #64]
 3485 0104 84F84130 		strb	r3, [r4, #65]
 3486 0108 84F84270 		strb	r7, [r4, #66]
 3487 010c 636C     		ldr	r3, [r4, #68]
 3488 010e 43F01003 		orr	r3, r3, #16
 3489 0112 6364     		str	r3, [r4, #68]
 3490 0114 F1E7     		b	.L535
 3491              	.L523:
 3492 0116 0D4B     		ldr	r3, .L536+12
 3493 0118 3146     		mov	r1, r6
ARM GAS  /tmp/ccina73P.s 			page 61


 3494 011a 2046     		mov	r0, r4
 3495 011c 2A46     		mov	r2, r5
 3496 011e 6363     		str	r3, [r4, #52]
 3497 0120 0B4B     		ldr	r3, .L536+16
 3498 0122 0093     		str	r3, [sp]
 3499 0124 4FF00073 		mov	r3, #33554432
 3500 0128 FFF7FEFF 		bl	I2C_TransferConfig
 3501 012c 0121     		movs	r1, #1
 3502 012e 2046     		mov	r0, r4
 3503 0130 84F84050 		strb	r5, [r4, #64]
 3504 0134 FFF7FEFF 		bl	I2C_Enable_IRQ
 3505 0138 D0E7     		b	.L518
 3506              	.L528:
 3507 013a 0225     		movs	r5, #2
 3508 013c CEE7     		b	.L518
 3509              	.L537:
 3510 013e 00BF     		.align	2
 3511              	.L536:
 3512 0140 00000000 		.word	I2C_Master_ISR_DMA
 3513 0144 00000000 		.word	I2C_DMAMasterReceiveCplt
 3514 0148 00000000 		.word	I2C_DMAError
 3515 014c 00000000 		.word	I2C_Master_ISR_IT
 3516 0150 00240080 		.word	-2147474432
 3518              		.section	.text.HAL_I2C_Slave_Seq_Transmit_IT,"ax",%progbits
 3519              		.align	1
 3520              		.global	HAL_I2C_Slave_Seq_Transmit_IT
 3521              		.syntax unified
 3522              		.thumb
 3523              		.thumb_func
 3524              		.fpu fpv5-sp-d16
 3526              	HAL_I2C_Slave_Seq_Transmit_IT:
 3527              		@ args = 0, pretend = 0, frame = 0
 3528              		@ frame_needed = 0, uses_anonymous_args = 0
 3529 0000 F8B5     		push	{r3, r4, r5, r6, r7, lr}
 3530 0002 1F46     		mov	r7, r3
 3531 0004 90F84130 		ldrb	r3, [r0, #65]	@ zero_extendqisi2
 3532 0008 0446     		mov	r4, r0
 3533 000a 0E46     		mov	r6, r1
 3534 000c 03F02803 		and	r3, r3, #40
 3535 0010 1546     		mov	r5, r2
 3536 0012 282B     		cmp	r3, #40
 3537 0014 04D1     		bne	.L546
 3538 0016 01B1     		cbz	r1, .L540
 3539 0018 22B9     		cbnz	r2, .L541
 3540              	.L540:
 3541 001a 4FF40073 		mov	r3, #512
 3542 001e 6364     		str	r3, [r4, #68]
 3543              	.L546:
 3544 0020 0120     		movs	r0, #1
 3545 0022 48E0     		b	.L539
 3546              	.L541:
 3547 0024 48F20101 		movw	r1, #32769
 3548 0028 FFF7FEFF 		bl	I2C_Disable_IRQ
 3549 002c 90F84030 		ldrb	r3, [r0, #64]	@ zero_extendqisi2
 3550 0030 012B     		cmp	r3, #1
 3551 0032 41D0     		beq	.L547
 3552 0034 0123     		movs	r3, #1
ARM GAS  /tmp/ccina73P.s 			page 62


 3553 0036 80F84030 		strb	r3, [r0, #64]
 3554 003a 90F84130 		ldrb	r3, [r0, #65]	@ zero_extendqisi2
 3555 003e 2A2B     		cmp	r3, #42
 3556 0040 14D1     		bne	.L543
 3557 0042 0221     		movs	r1, #2
 3558 0044 FFF7FEFF 		bl	I2C_Disable_IRQ
 3559 0048 0368     		ldr	r3, [r0]
 3560 004a 1A68     		ldr	r2, [r3]
 3561 004c 1104     		lsls	r1, r2, #16
 3562 004e 0DD5     		bpl	.L543
 3563 0050 1A68     		ldr	r2, [r3]
 3564 0052 C06B     		ldr	r0, [r0, #60]
 3565 0054 22F40042 		bic	r2, r2, #32768
 3566 0058 1A60     		str	r2, [r3]
 3567 005a 38B1     		cbz	r0, .L543
 3568 005c 174B     		ldr	r3, .L566
 3569 005e 0365     		str	r3, [r0, #80]
 3570 0060 FFF7FEFF 		bl	HAL_DMA_Abort_IT
 3571 0064 10B1     		cbz	r0, .L543
 3572 0066 E06B     		ldr	r0, [r4, #60]
 3573 0068 036D     		ldr	r3, [r0, #80]
 3574 006a 9847     		blx	r3
 3575              	.L543:
 3576 006c 2923     		movs	r3, #41
 3577 006e 2068     		ldr	r0, [r4]
 3578 0070 84F84130 		strb	r3, [r4, #65]
 3579 0074 2023     		movs	r3, #32
 3580 0076 84F84230 		strb	r3, [r4, #66]
 3581 007a 0023     		movs	r3, #0
 3582 007c 6364     		str	r3, [r4, #68]
 3583 007e 4368     		ldr	r3, [r0, #4]
 3584 0080 23F40043 		bic	r3, r3, #32768
 3585 0084 4360     		str	r3, [r0, #4]
 3586 0086 6585     		strh	r5, [r4, #42]	@ movhi
 3587 0088 638D     		ldrh	r3, [r4, #42]
 3588 008a E762     		str	r7, [r4, #44]
 3589 008c 2385     		strh	r3, [r4, #40]	@ movhi
 3590 008e 0C4B     		ldr	r3, .L566+4
 3591 0090 6662     		str	r6, [r4, #36]
 3592 0092 6363     		str	r3, [r4, #52]
 3593 0094 8369     		ldr	r3, [r0, #24]
 3594 0096 8269     		ldr	r2, [r0, #24]
 3595 0098 D203     		lsls	r2, r2, #15
 3596 009a 03D5     		bpl	.L545
 3597 009c 1B07     		lsls	r3, r3, #28
 3598 009e 01D5     		bpl	.L545
 3599 00a0 0823     		movs	r3, #8
 3600 00a2 C361     		str	r3, [r0, #28]
 3601              	.L545:
 3602 00a4 0025     		movs	r5, #0
 3603 00a6 2046     		mov	r0, r4
 3604 00a8 48F20101 		movw	r1, #32769
 3605 00ac 84F84050 		strb	r5, [r4, #64]
 3606 00b0 FFF7FEFF 		bl	I2C_Enable_IRQ
 3607 00b4 2846     		mov	r0, r5
 3608              	.L539:
 3609 00b6 F8BD     		pop	{r3, r4, r5, r6, r7, pc}
ARM GAS  /tmp/ccina73P.s 			page 63


 3610              	.L547:
 3611 00b8 0220     		movs	r0, #2
 3612 00ba FCE7     		b	.L539
 3613              	.L567:
 3614              		.align	2
 3615              	.L566:
 3616 00bc 00000000 		.word	I2C_DMAAbort
 3617 00c0 00000000 		.word	I2C_Slave_ISR_IT
 3619              		.section	.text.HAL_I2C_Slave_Seq_Transmit_DMA,"ax",%progbits
 3620              		.align	1
 3621              		.global	HAL_I2C_Slave_Seq_Transmit_DMA
 3622              		.syntax unified
 3623              		.thumb
 3624              		.thumb_func
 3625              		.fpu fpv5-sp-d16
 3627              	HAL_I2C_Slave_Seq_Transmit_DMA:
 3628              		@ args = 0, pretend = 0, frame = 0
 3629              		@ frame_needed = 0, uses_anonymous_args = 0
 3630 0000 2DE9F041 		push	{r4, r5, r6, r7, r8, lr}
 3631 0004 9846     		mov	r8, r3
 3632 0006 90F84130 		ldrb	r3, [r0, #65]	@ zero_extendqisi2
 3633 000a 0446     		mov	r4, r0
 3634 000c 0D46     		mov	r5, r1
 3635 000e 03F02803 		and	r3, r3, #40
 3636 0012 1746     		mov	r7, r2
 3637 0014 282B     		cmp	r3, #40
 3638 0016 04D1     		bne	.L581
 3639 0018 01B1     		cbz	r1, .L570
 3640 001a 22B9     		cbnz	r2, .L571
 3641              	.L570:
 3642 001c 4FF40073 		mov	r3, #512
 3643 0020 6364     		str	r3, [r4, #68]
 3644              	.L581:
 3645 0022 0125     		movs	r5, #1
 3646 0024 8FE0     		b	.L569
 3647              	.L571:
 3648 0026 90F84030 		ldrb	r3, [r0, #64]	@ zero_extendqisi2
 3649 002a 012B     		cmp	r3, #1
 3650 002c 00F09380 		beq	.L582
 3651 0030 0123     		movs	r3, #1
 3652 0032 48F20101 		movw	r1, #32769
 3653 0036 80F84030 		strb	r3, [r0, #64]
 3654 003a FFF7FEFF 		bl	I2C_Disable_IRQ
 3655 003e 90F84130 		ldrb	r3, [r0, #65]	@ zero_extendqisi2
 3656 0042 2A2B     		cmp	r3, #42
 3657 0044 45D1     		bne	.L572
 3658 0046 0221     		movs	r1, #2
 3659 0048 FFF7FEFF 		bl	I2C_Disable_IRQ
 3660 004c 0368     		ldr	r3, [r0]
 3661 004e 1A68     		ldr	r2, [r3]
 3662 0050 1604     		lsls	r6, r2, #16
 3663 0052 0DD5     		bpl	.L574
 3664 0054 C06B     		ldr	r0, [r0, #60]
 3665 0056 58B1     		cbz	r0, .L574
 3666 0058 1A68     		ldr	r2, [r3]
 3667 005a 22F40042 		bic	r2, r2, #32768
 3668 005e 1A60     		str	r2, [r3]
ARM GAS  /tmp/ccina73P.s 			page 64


 3669 0060 3E4B     		ldr	r3, .L606
 3670 0062 0365     		str	r3, [r0, #80]
 3671 0064 FFF7FEFF 		bl	HAL_DMA_Abort_IT
 3672 0068 10B1     		cbz	r0, .L574
 3673 006a E06B     		ldr	r0, [r4, #60]
 3674              	.L605:
 3675 006c 036D     		ldr	r3, [r0, #80]
 3676 006e 9847     		blx	r3
 3677              	.L574:
 3678 0070 2923     		movs	r3, #41
 3679 0072 2268     		ldr	r2, [r4]
 3680 0074 0026     		movs	r6, #0
 3681 0076 A06B     		ldr	r0, [r4, #56]
 3682 0078 84F84130 		strb	r3, [r4, #65]
 3683 007c 2023     		movs	r3, #32
 3684 007e 84F84230 		strb	r3, [r4, #66]
 3685 0082 6664     		str	r6, [r4, #68]
 3686 0084 5368     		ldr	r3, [r2, #4]
 3687 0086 23F40043 		bic	r3, r3, #32768
 3688 008a 5360     		str	r3, [r2, #4]
 3689 008c 6785     		strh	r7, [r4, #42]	@ movhi
 3690 008e 618D     		ldrh	r1, [r4, #42]
 3691 0090 6562     		str	r5, [r4, #36]
 3692 0092 8BB2     		uxth	r3, r1
 3693 0094 3249     		ldr	r1, .L606+4
 3694 0096 C4F82C80 		str	r8, [r4, #44]
 3695 009a 2385     		strh	r3, [r4, #40]	@ movhi
 3696 009c 6163     		str	r1, [r4, #52]
 3697 009e 0028     		cmp	r0, #0
 3698 00a0 2ED0     		beq	.L576
 3699 00a2 3049     		ldr	r1, .L606+8
 3700 00a4 2832     		adds	r2, r2, #40
 3701 00a6 0664     		str	r6, [r0, #64]
 3702 00a8 C163     		str	r1, [r0, #60]
 3703 00aa 2F49     		ldr	r1, .L606+12
 3704 00ac 0665     		str	r6, [r0, #80]
 3705 00ae C164     		str	r1, [r0, #76]
 3706 00b0 2946     		mov	r1, r5
 3707 00b2 FFF7FEFF 		bl	HAL_DMA_Start_IT
 3708 00b6 0546     		mov	r5, r0
 3709 00b8 70B3     		cbz	r0, .L577
 3710 00ba 2823     		movs	r3, #40
 3711 00bc 84F84060 		strb	r6, [r4, #64]
 3712 00c0 84F84130 		strb	r3, [r4, #65]
 3713 00c4 84F84260 		strb	r6, [r4, #66]
 3714 00c8 636C     		ldr	r3, [r4, #68]
 3715 00ca 43F01003 		orr	r3, r3, #16
 3716 00ce 6364     		str	r3, [r4, #68]
 3717 00d0 A7E7     		b	.L581
 3718              	.L572:
 3719 00d2 90F84130 		ldrb	r3, [r0, #65]	@ zero_extendqisi2
 3720 00d6 292B     		cmp	r3, #41
 3721 00d8 CAD1     		bne	.L574
 3722 00da 0368     		ldr	r3, [r0]
 3723 00dc 1A68     		ldr	r2, [r3]
 3724 00de 5004     		lsls	r0, r2, #17
 3725 00e0 C6D5     		bpl	.L574
ARM GAS  /tmp/ccina73P.s 			page 65


 3726 00e2 1A68     		ldr	r2, [r3]
 3727 00e4 A06B     		ldr	r0, [r4, #56]
 3728 00e6 22F48042 		bic	r2, r2, #16384
 3729 00ea 1A60     		str	r2, [r3]
 3730 00ec 0028     		cmp	r0, #0
 3731 00ee BFD0     		beq	.L574
 3732 00f0 1A4B     		ldr	r3, .L606
 3733 00f2 0365     		str	r3, [r0, #80]
 3734 00f4 FFF7FEFF 		bl	HAL_DMA_Abort_IT
 3735 00f8 0028     		cmp	r0, #0
 3736 00fa B9D0     		beq	.L574
 3737 00fc A06B     		ldr	r0, [r4, #56]
 3738 00fe B5E7     		b	.L605
 3739              	.L576:
 3740 0100 2823     		movs	r3, #40
 3741 0102 84F84000 		strb	r0, [r4, #64]
 3742 0106 84F84130 		strb	r3, [r4, #65]
 3743 010a 84F84200 		strb	r0, [r4, #66]
 3744 010e 636C     		ldr	r3, [r4, #68]
 3745 0110 43F08003 		orr	r3, r3, #128
 3746 0114 6364     		str	r3, [r4, #68]
 3747 0116 84E7     		b	.L581
 3748              	.L577:
 3749 0118 638D     		ldrh	r3, [r4, #42]
 3750 011a 228D     		ldrh	r2, [r4, #40]
 3751 011c 2085     		strh	r0, [r4, #40]	@ movhi
 3752 011e 9B1A     		subs	r3, r3, r2
 3753 0120 9BB2     		uxth	r3, r3
 3754 0122 6385     		strh	r3, [r4, #42]	@ movhi
 3755 0124 2368     		ldr	r3, [r4]
 3756 0126 9A69     		ldr	r2, [r3, #24]
 3757 0128 9969     		ldr	r1, [r3, #24]
 3758 012a C903     		lsls	r1, r1, #15
 3759 012c 0ED4     		bmi	.L579
 3760              	.L580:
 3761 012e 0022     		movs	r2, #0
 3762 0130 4FF40041 		mov	r1, #32768
 3763 0134 2046     		mov	r0, r4
 3764 0136 84F84020 		strb	r2, [r4, #64]
 3765 013a 1A68     		ldr	r2, [r3]
 3766 013c 42F48042 		orr	r2, r2, #16384
 3767 0140 1A60     		str	r2, [r3]
 3768 0142 FFF7FEFF 		bl	I2C_Enable_IRQ
 3769              	.L569:
 3770 0146 2846     		mov	r0, r5
 3771 0148 BDE8F081 		pop	{r4, r5, r6, r7, r8, pc}
 3772              	.L579:
 3773 014c 1207     		lsls	r2, r2, #28
 3774 014e EED5     		bpl	.L580
 3775 0150 0822     		movs	r2, #8
 3776 0152 DA61     		str	r2, [r3, #28]
 3777 0154 EBE7     		b	.L580
 3778              	.L582:
 3779 0156 0225     		movs	r5, #2
 3780 0158 F5E7     		b	.L569
 3781              	.L607:
 3782 015a 00BF     		.align	2
ARM GAS  /tmp/ccina73P.s 			page 66


 3783              	.L606:
 3784 015c 00000000 		.word	I2C_DMAAbort
 3785 0160 00000000 		.word	I2C_Slave_ISR_DMA
 3786 0164 00000000 		.word	I2C_DMASlaveTransmitCplt
 3787 0168 00000000 		.word	I2C_DMAError
 3789              		.section	.text.HAL_I2C_Slave_Seq_Receive_IT,"ax",%progbits
 3790              		.align	1
 3791              		.global	HAL_I2C_Slave_Seq_Receive_IT
 3792              		.syntax unified
 3793              		.thumb
 3794              		.thumb_func
 3795              		.fpu fpv5-sp-d16
 3797              	HAL_I2C_Slave_Seq_Receive_IT:
 3798              		@ args = 0, pretend = 0, frame = 0
 3799              		@ frame_needed = 0, uses_anonymous_args = 0
 3800 0000 F8B5     		push	{r3, r4, r5, r6, r7, lr}
 3801 0002 1F46     		mov	r7, r3
 3802 0004 90F84130 		ldrb	r3, [r0, #65]	@ zero_extendqisi2
 3803 0008 0446     		mov	r4, r0
 3804 000a 0E46     		mov	r6, r1
 3805 000c 03F02803 		and	r3, r3, #40
 3806 0010 1546     		mov	r5, r2
 3807 0012 282B     		cmp	r3, #40
 3808 0014 04D1     		bne	.L616
 3809 0016 01B1     		cbz	r1, .L610
 3810 0018 22B9     		cbnz	r2, .L611
 3811              	.L610:
 3812 001a 4FF40073 		mov	r3, #512
 3813 001e 6364     		str	r3, [r4, #68]
 3814              	.L616:
 3815 0020 0120     		movs	r0, #1
 3816 0022 47E0     		b	.L609
 3817              	.L611:
 3818 0024 48F20201 		movw	r1, #32770
 3819 0028 FFF7FEFF 		bl	I2C_Disable_IRQ
 3820 002c 90F84030 		ldrb	r3, [r0, #64]	@ zero_extendqisi2
 3821 0030 012B     		cmp	r3, #1
 3822 0032 40D0     		beq	.L617
 3823 0034 90F84130 		ldrb	r3, [r0, #65]	@ zero_extendqisi2
 3824 0038 0121     		movs	r1, #1
 3825 003a 292B     		cmp	r3, #41
 3826 003c 80F84010 		strb	r1, [r0, #64]
 3827 0040 13D1     		bne	.L613
 3828 0042 FFF7FEFF 		bl	I2C_Disable_IRQ
 3829 0046 0368     		ldr	r3, [r0]
 3830 0048 1A68     		ldr	r2, [r3]
 3831 004a 5104     		lsls	r1, r2, #17
 3832 004c 0DD5     		bpl	.L613
 3833 004e 1A68     		ldr	r2, [r3]
 3834 0050 806B     		ldr	r0, [r0, #56]
 3835 0052 22F48042 		bic	r2, r2, #16384
 3836 0056 1A60     		str	r2, [r3]
 3837 0058 38B1     		cbz	r0, .L613
 3838 005a 184B     		ldr	r3, .L633
 3839 005c 0365     		str	r3, [r0, #80]
 3840 005e FFF7FEFF 		bl	HAL_DMA_Abort_IT
 3841 0062 10B1     		cbz	r0, .L613
ARM GAS  /tmp/ccina73P.s 			page 67


 3842 0064 A06B     		ldr	r0, [r4, #56]
 3843 0066 036D     		ldr	r3, [r0, #80]
 3844 0068 9847     		blx	r3
 3845              	.L613:
 3846 006a 2A23     		movs	r3, #42
 3847 006c 2068     		ldr	r0, [r4]
 3848 006e 84F84130 		strb	r3, [r4, #65]
 3849 0072 2023     		movs	r3, #32
 3850 0074 84F84230 		strb	r3, [r4, #66]
 3851 0078 0023     		movs	r3, #0
 3852 007a 6364     		str	r3, [r4, #68]
 3853 007c 4368     		ldr	r3, [r0, #4]
 3854 007e 23F40043 		bic	r3, r3, #32768
 3855 0082 4360     		str	r3, [r0, #4]
 3856 0084 6585     		strh	r5, [r4, #42]	@ movhi
 3857 0086 638D     		ldrh	r3, [r4, #42]
 3858 0088 E762     		str	r7, [r4, #44]
 3859 008a 2385     		strh	r3, [r4, #40]	@ movhi
 3860 008c 0C4B     		ldr	r3, .L633+4
 3861 008e 6662     		str	r6, [r4, #36]
 3862 0090 6363     		str	r3, [r4, #52]
 3863 0092 8369     		ldr	r3, [r0, #24]
 3864 0094 8269     		ldr	r2, [r0, #24]
 3865 0096 D203     		lsls	r2, r2, #15
 3866 0098 03D4     		bmi	.L615
 3867 009a 1B07     		lsls	r3, r3, #28
 3868 009c 01D5     		bpl	.L615
 3869 009e 0823     		movs	r3, #8
 3870 00a0 C361     		str	r3, [r0, #28]
 3871              	.L615:
 3872 00a2 0025     		movs	r5, #0
 3873 00a4 2046     		mov	r0, r4
 3874 00a6 48F20201 		movw	r1, #32770
 3875 00aa 84F84050 		strb	r5, [r4, #64]
 3876 00ae FFF7FEFF 		bl	I2C_Enable_IRQ
 3877 00b2 2846     		mov	r0, r5
 3878              	.L609:
 3879 00b4 F8BD     		pop	{r3, r4, r5, r6, r7, pc}
 3880              	.L617:
 3881 00b6 0220     		movs	r0, #2
 3882 00b8 FCE7     		b	.L609
 3883              	.L634:
 3884 00ba 00BF     		.align	2
 3885              	.L633:
 3886 00bc 00000000 		.word	I2C_DMAAbort
 3887 00c0 00000000 		.word	I2C_Slave_ISR_IT
 3889              		.section	.text.HAL_I2C_Slave_Seq_Receive_DMA,"ax",%progbits
 3890              		.align	1
 3891              		.global	HAL_I2C_Slave_Seq_Receive_DMA
 3892              		.syntax unified
 3893              		.thumb
 3894              		.thumb_func
 3895              		.fpu fpv5-sp-d16
 3897              	HAL_I2C_Slave_Seq_Receive_DMA:
 3898              		@ args = 0, pretend = 0, frame = 0
 3899              		@ frame_needed = 0, uses_anonymous_args = 0
 3900 0000 2DE9F041 		push	{r4, r5, r6, r7, r8, lr}
ARM GAS  /tmp/ccina73P.s 			page 68


 3901 0004 9846     		mov	r8, r3
 3902 0006 90F84130 		ldrb	r3, [r0, #65]	@ zero_extendqisi2
 3903 000a 0446     		mov	r4, r0
 3904 000c 0D46     		mov	r5, r1
 3905 000e 03F02803 		and	r3, r3, #40
 3906 0012 1746     		mov	r7, r2
 3907 0014 282B     		cmp	r3, #40
 3908 0016 04D1     		bne	.L648
 3909 0018 01B1     		cbz	r1, .L637
 3910 001a 22B9     		cbnz	r2, .L638
 3911              	.L637:
 3912 001c 4FF40073 		mov	r3, #512
 3913 0020 6364     		str	r3, [r4, #68]
 3914              	.L648:
 3915 0022 0125     		movs	r5, #1
 3916 0024 8EE0     		b	.L636
 3917              	.L638:
 3918 0026 48F20201 		movw	r1, #32770
 3919 002a FFF7FEFF 		bl	I2C_Disable_IRQ
 3920 002e 90F84030 		ldrb	r3, [r0, #64]	@ zero_extendqisi2
 3921 0032 012B     		cmp	r3, #1
 3922 0034 00F08E80 		beq	.L649
 3923 0038 90F84130 		ldrb	r3, [r0, #65]	@ zero_extendqisi2
 3924 003c 0121     		movs	r1, #1
 3925 003e 292B     		cmp	r3, #41
 3926 0040 80F84010 		strb	r1, [r0, #64]
 3927 0044 44D1     		bne	.L639
 3928 0046 FFF7FEFF 		bl	I2C_Disable_IRQ
 3929 004a 0368     		ldr	r3, [r0]
 3930 004c 1A68     		ldr	r2, [r3]
 3931 004e 5604     		lsls	r6, r2, #17
 3932 0050 0DD5     		bpl	.L641
 3933 0052 806B     		ldr	r0, [r0, #56]
 3934 0054 58B1     		cbz	r0, .L641
 3935 0056 1A68     		ldr	r2, [r3]
 3936 0058 22F48042 		bic	r2, r2, #16384
 3937 005c 1A60     		str	r2, [r3]
 3938 005e 3E4B     		ldr	r3, .L673
 3939 0060 0365     		str	r3, [r0, #80]
 3940 0062 FFF7FEFF 		bl	HAL_DMA_Abort_IT
 3941 0066 10B1     		cbz	r0, .L641
 3942 0068 A06B     		ldr	r0, [r4, #56]
 3943              	.L672:
 3944 006a 036D     		ldr	r3, [r0, #80]
 3945 006c 9847     		blx	r3
 3946              	.L641:
 3947 006e 2A23     		movs	r3, #42
 3948 0070 2168     		ldr	r1, [r4]
 3949 0072 0026     		movs	r6, #0
 3950 0074 E06B     		ldr	r0, [r4, #60]
 3951 0076 84F84130 		strb	r3, [r4, #65]
 3952 007a 2023     		movs	r3, #32
 3953 007c 84F84230 		strb	r3, [r4, #66]
 3954 0080 6664     		str	r6, [r4, #68]
 3955 0082 4B68     		ldr	r3, [r1, #4]
 3956 0084 23F40043 		bic	r3, r3, #32768
 3957 0088 4B60     		str	r3, [r1, #4]
ARM GAS  /tmp/ccina73P.s 			page 69


 3958 008a 6785     		strh	r7, [r4, #42]	@ movhi
 3959 008c 628D     		ldrh	r2, [r4, #42]
 3960 008e 6562     		str	r5, [r4, #36]
 3961 0090 93B2     		uxth	r3, r2
 3962 0092 324A     		ldr	r2, .L673+4
 3963 0094 C4F82C80 		str	r8, [r4, #44]
 3964 0098 2385     		strh	r3, [r4, #40]	@ movhi
 3965 009a 6263     		str	r2, [r4, #52]
 3966 009c 0028     		cmp	r0, #0
 3967 009e 2ED0     		beq	.L643
 3968 00a0 2F4A     		ldr	r2, .L673+8
 3969 00a2 2431     		adds	r1, r1, #36
 3970 00a4 0664     		str	r6, [r0, #64]
 3971 00a6 C263     		str	r2, [r0, #60]
 3972 00a8 2E4A     		ldr	r2, .L673+12
 3973 00aa 0665     		str	r6, [r0, #80]
 3974 00ac C264     		str	r2, [r0, #76]
 3975 00ae 2A46     		mov	r2, r5
 3976 00b0 FFF7FEFF 		bl	HAL_DMA_Start_IT
 3977 00b4 0546     		mov	r5, r0
 3978 00b6 70B3     		cbz	r0, .L644
 3979 00b8 2823     		movs	r3, #40
 3980 00ba 84F84060 		strb	r6, [r4, #64]
 3981 00be 84F84130 		strb	r3, [r4, #65]
 3982 00c2 84F84260 		strb	r6, [r4, #66]
 3983 00c6 636C     		ldr	r3, [r4, #68]
 3984 00c8 43F01003 		orr	r3, r3, #16
 3985 00cc 6364     		str	r3, [r4, #68]
 3986 00ce A8E7     		b	.L648
 3987              	.L639:
 3988 00d0 90F84130 		ldrb	r3, [r0, #65]	@ zero_extendqisi2
 3989 00d4 2A2B     		cmp	r3, #42
 3990 00d6 CAD1     		bne	.L641
 3991 00d8 0368     		ldr	r3, [r0]
 3992 00da 1A68     		ldr	r2, [r3]
 3993 00dc 1004     		lsls	r0, r2, #16
 3994 00de C6D5     		bpl	.L641
 3995 00e0 1A68     		ldr	r2, [r3]
 3996 00e2 E06B     		ldr	r0, [r4, #60]
 3997 00e4 22F40042 		bic	r2, r2, #32768
 3998 00e8 1A60     		str	r2, [r3]
 3999 00ea 0028     		cmp	r0, #0
 4000 00ec BFD0     		beq	.L641
 4001 00ee 1A4B     		ldr	r3, .L673
 4002 00f0 0365     		str	r3, [r0, #80]
 4003 00f2 FFF7FEFF 		bl	HAL_DMA_Abort_IT
 4004 00f6 0028     		cmp	r0, #0
 4005 00f8 B9D0     		beq	.L641
 4006 00fa E06B     		ldr	r0, [r4, #60]
 4007 00fc B5E7     		b	.L672
 4008              	.L643:
 4009 00fe 2823     		movs	r3, #40
 4010 0100 84F84000 		strb	r0, [r4, #64]
 4011 0104 84F84130 		strb	r3, [r4, #65]
 4012 0108 84F84200 		strb	r0, [r4, #66]
 4013 010c 636C     		ldr	r3, [r4, #68]
 4014 010e 43F08003 		orr	r3, r3, #128
ARM GAS  /tmp/ccina73P.s 			page 70


 4015 0112 6364     		str	r3, [r4, #68]
 4016 0114 85E7     		b	.L648
 4017              	.L644:
 4018 0116 638D     		ldrh	r3, [r4, #42]
 4019 0118 228D     		ldrh	r2, [r4, #40]
 4020 011a 2085     		strh	r0, [r4, #40]	@ movhi
 4021 011c 9B1A     		subs	r3, r3, r2
 4022 011e 9BB2     		uxth	r3, r3
 4023 0120 6385     		strh	r3, [r4, #42]	@ movhi
 4024 0122 2368     		ldr	r3, [r4]
 4025 0124 9A69     		ldr	r2, [r3, #24]
 4026 0126 9969     		ldr	r1, [r3, #24]
 4027 0128 C903     		lsls	r1, r1, #15
 4028 012a 0ED5     		bpl	.L646
 4029              	.L647:
 4030 012c 0022     		movs	r2, #0
 4031 012e 48F20201 		movw	r1, #32770
 4032 0132 2046     		mov	r0, r4
 4033 0134 84F84020 		strb	r2, [r4, #64]
 4034 0138 1A68     		ldr	r2, [r3]
 4035 013a 42F40042 		orr	r2, r2, #32768
 4036 013e 1A60     		str	r2, [r3]
 4037 0140 FFF7FEFF 		bl	I2C_Enable_IRQ
 4038              	.L636:
 4039 0144 2846     		mov	r0, r5
 4040 0146 BDE8F081 		pop	{r4, r5, r6, r7, r8, pc}
 4041              	.L646:
 4042 014a 1207     		lsls	r2, r2, #28
 4043 014c EED5     		bpl	.L647
 4044 014e 0822     		movs	r2, #8
 4045 0150 DA61     		str	r2, [r3, #28]
 4046 0152 EBE7     		b	.L647
 4047              	.L649:
 4048 0154 0225     		movs	r5, #2
 4049 0156 F5E7     		b	.L636
 4050              	.L674:
 4051              		.align	2
 4052              	.L673:
 4053 0158 00000000 		.word	I2C_DMAAbort
 4054 015c 00000000 		.word	I2C_Slave_ISR_DMA
 4055 0160 00000000 		.word	I2C_DMASlaveReceiveCplt
 4056 0164 00000000 		.word	I2C_DMAError
 4058              		.section	.text.HAL_I2C_EnableListen_IT,"ax",%progbits
 4059              		.align	1
 4060              		.global	HAL_I2C_EnableListen_IT
 4061              		.syntax unified
 4062              		.thumb
 4063              		.thumb_func
 4064              		.fpu fpv5-sp-d16
 4066              	HAL_I2C_EnableListen_IT:
 4067              		@ args = 0, pretend = 0, frame = 0
 4068              		@ frame_needed = 0, uses_anonymous_args = 0
 4069 0000 08B5     		push	{r3, lr}
 4070 0002 90F84120 		ldrb	r2, [r0, #65]	@ zero_extendqisi2
 4071 0006 202A     		cmp	r2, #32
 4072 0008 0AD1     		bne	.L677
 4073 000a 2822     		movs	r2, #40
ARM GAS  /tmp/ccina73P.s 			page 71


 4074 000c 4FF40041 		mov	r1, #32768
 4075 0010 80F84120 		strb	r2, [r0, #65]
 4076 0014 034A     		ldr	r2, .L678
 4077 0016 4263     		str	r2, [r0, #52]
 4078 0018 FFF7FEFF 		bl	I2C_Enable_IRQ
 4079 001c 0020     		movs	r0, #0
 4080              	.L676:
 4081 001e 08BD     		pop	{r3, pc}
 4082              	.L677:
 4083 0020 0220     		movs	r0, #2
 4084 0022 FCE7     		b	.L676
 4085              	.L679:
 4086              		.align	2
 4087              	.L678:
 4088 0024 00000000 		.word	I2C_Slave_ISR_IT
 4090              		.section	.text.HAL_I2C_DisableListen_IT,"ax",%progbits
 4091              		.align	1
 4092              		.global	HAL_I2C_DisableListen_IT
 4093              		.syntax unified
 4094              		.thumb
 4095              		.thumb_func
 4096              		.fpu fpv5-sp-d16
 4098              	HAL_I2C_DisableListen_IT:
 4099              		@ args = 0, pretend = 0, frame = 0
 4100              		@ frame_needed = 0, uses_anonymous_args = 0
 4101 0000 10B5     		push	{r4, lr}
 4102 0002 90F84120 		ldrb	r2, [r0, #65]	@ zero_extendqisi2
 4103 0006 282A     		cmp	r2, #40
 4104 0008 14D1     		bne	.L682
 4105 000a 90F84110 		ldrb	r1, [r0, #65]	@ zero_extendqisi2
 4106 000e 0024     		movs	r4, #0
 4107 0010 90F84220 		ldrb	r2, [r0, #66]	@ zero_extendqisi2
 4108 0014 01F00301 		and	r1, r1, #3
 4109 0018 4463     		str	r4, [r0, #52]
 4110 001a 0A43     		orrs	r2, r2, r1
 4111 001c 4FF40041 		mov	r1, #32768
 4112 0020 0263     		str	r2, [r0, #48]
 4113 0022 2022     		movs	r2, #32
 4114 0024 80F84120 		strb	r2, [r0, #65]
 4115 0028 80F84240 		strb	r4, [r0, #66]
 4116 002c FFF7FEFF 		bl	I2C_Disable_IRQ
 4117 0030 2046     		mov	r0, r4
 4118              	.L681:
 4119 0032 10BD     		pop	{r4, pc}
 4120              	.L682:
 4121 0034 0220     		movs	r0, #2
 4122 0036 FCE7     		b	.L681
 4124              		.section	.text.HAL_I2C_Master_Abort_IT,"ax",%progbits
 4125              		.align	1
 4126              		.global	HAL_I2C_Master_Abort_IT
 4127              		.syntax unified
 4128              		.thumb
 4129              		.thumb_func
 4130              		.fpu fpv5-sp-d16
 4132              	HAL_I2C_Master_Abort_IT:
 4133              		@ args = 0, pretend = 0, frame = 0
 4134              		@ frame_needed = 0, uses_anonymous_args = 0
ARM GAS  /tmp/ccina73P.s 			page 72


 4135 0000 37B5     		push	{r0, r1, r2, r4, r5, lr}
 4136 0002 90F84230 		ldrb	r3, [r0, #66]	@ zero_extendqisi2
 4137 0006 0446     		mov	r4, r0
 4138 0008 0D46     		mov	r5, r1
 4139 000a 102B     		cmp	r3, #16
 4140 000c 2DD1     		bne	.L687
 4141 000e 90F84030 		ldrb	r3, [r0, #64]	@ zero_extendqisi2
 4142 0012 012B     		cmp	r3, #1
 4143 0014 2BD0     		beq	.L688
 4144 0016 90F84130 		ldrb	r3, [r0, #65]	@ zero_extendqisi2
 4145 001a 0121     		movs	r1, #1
 4146 001c 212B     		cmp	r3, #33
 4147 001e 80F84010 		strb	r1, [r0, #64]
 4148 0022 19D1     		bne	.L685
 4149 0024 FFF7FEFF 		bl	I2C_Disable_IRQ
 4150 0028 1123     		movs	r3, #17
 4151              	.L689:
 4152 002a 2363     		str	r3, [r4, #48]
 4153              	.L686:
 4154 002c 6023     		movs	r3, #96
 4155 002e 2946     		mov	r1, r5
 4156 0030 0025     		movs	r5, #0
 4157 0032 0122     		movs	r2, #1
 4158 0034 84F84130 		strb	r3, [r4, #65]
 4159 0038 2046     		mov	r0, r4
 4160 003a 0E4B     		ldr	r3, .L690
 4161 003c 0093     		str	r3, [sp]
 4162 003e 4FF00073 		mov	r3, #33554432
 4163 0042 FFF7FEFF 		bl	I2C_TransferConfig
 4164 0046 2046     		mov	r0, r4
 4165 0048 2021     		movs	r1, #32
 4166 004a 84F84050 		strb	r5, [r4, #64]
 4167 004e FFF7FEFF 		bl	I2C_Enable_IRQ
 4168 0052 2846     		mov	r0, r5
 4169              	.L684:
 4170 0054 03B0     		add	sp, sp, #12
 4171              		@ sp needed
 4172 0056 30BD     		pop	{r4, r5, pc}
 4173              	.L685:
 4174 0058 90F84130 		ldrb	r3, [r0, #65]	@ zero_extendqisi2
 4175 005c 222B     		cmp	r3, #34
 4176 005e E5D1     		bne	.L686
 4177 0060 0221     		movs	r1, #2
 4178 0062 FFF7FEFF 		bl	I2C_Disable_IRQ
 4179 0066 1223     		movs	r3, #18
 4180 0068 DFE7     		b	.L689
 4181              	.L687:
 4182 006a 0120     		movs	r0, #1
 4183 006c F2E7     		b	.L684
 4184              	.L688:
 4185 006e 0220     		movs	r0, #2
 4186 0070 F0E7     		b	.L684
 4187              	.L691:
 4188 0072 00BF     		.align	2
 4189              	.L690:
 4190 0074 00400080 		.word	-2147467264
 4192              		.section	.text.HAL_I2C_EV_IRQHandler,"ax",%progbits
ARM GAS  /tmp/ccina73P.s 			page 73


 4193              		.align	1
 4194              		.global	HAL_I2C_EV_IRQHandler
 4195              		.syntax unified
 4196              		.thumb
 4197              		.thumb_func
 4198              		.fpu fpv5-sp-d16
 4200              	HAL_I2C_EV_IRQHandler:
 4201              		@ args = 0, pretend = 0, frame = 0
 4202              		@ frame_needed = 0, uses_anonymous_args = 0
 4203              		@ link register save eliminated.
 4204 0000 0268     		ldr	r2, [r0]
 4205 0002 436B     		ldr	r3, [r0, #52]
 4206 0004 9169     		ldr	r1, [r2, #24]
 4207 0006 1268     		ldr	r2, [r2]
 4208 0008 03B1     		cbz	r3, .L692
 4209 000a 1847     		bx	r3
 4210              	.L692:
 4211 000c 7047     		bx	lr
 4213              		.section	.text.HAL_I2C_MasterTxCpltCallback,"ax",%progbits
 4214              		.align	1
 4215              		.weak	HAL_I2C_MasterTxCpltCallback
 4216              		.syntax unified
 4217              		.thumb
 4218              		.thumb_func
 4219              		.fpu fpv5-sp-d16
 4221              	HAL_I2C_MasterTxCpltCallback:
 4222              		@ args = 0, pretend = 0, frame = 0
 4223              		@ frame_needed = 0, uses_anonymous_args = 0
 4224              		@ link register save eliminated.
 4225 0000 7047     		bx	lr
 4227              		.section	.text.HAL_I2C_MasterRxCpltCallback,"ax",%progbits
 4228              		.align	1
 4229              		.weak	HAL_I2C_MasterRxCpltCallback
 4230              		.syntax unified
 4231              		.thumb
 4232              		.thumb_func
 4233              		.fpu fpv5-sp-d16
 4235              	HAL_I2C_MasterRxCpltCallback:
 4236              		@ args = 0, pretend = 0, frame = 0
 4237              		@ frame_needed = 0, uses_anonymous_args = 0
 4238              		@ link register save eliminated.
 4239 0000 7047     		bx	lr
 4241              		.section	.text.I2C_ITMasterSeqCplt,"ax",%progbits
 4242              		.align	1
 4243              		.syntax unified
 4244              		.thumb
 4245              		.thumb_func
 4246              		.fpu fpv5-sp-d16
 4248              	I2C_ITMasterSeqCplt:
 4249              		@ args = 0, pretend = 0, frame = 0
 4250              		@ frame_needed = 0, uses_anonymous_args = 0
 4251 0000 38B5     		push	{r3, r4, r5, lr}
 4252 0002 0025     		movs	r5, #0
 4253 0004 80F84250 		strb	r5, [r0, #66]
 4254 0008 90F84130 		ldrb	r3, [r0, #65]	@ zero_extendqisi2
 4255 000c 212B     		cmp	r3, #33
 4256 000e 4FF02003 		mov	r3, #32
ARM GAS  /tmp/ccina73P.s 			page 74


 4257 0012 80F84130 		strb	r3, [r0, #65]
 4258 0016 0AD1     		bne	.L697
 4259 0018 1123     		movs	r3, #17
 4260 001a 0121     		movs	r1, #1
 4261 001c 4563     		str	r5, [r0, #52]
 4262 001e 0363     		str	r3, [r0, #48]
 4263 0020 FFF7FEFF 		bl	I2C_Disable_IRQ
 4264 0024 80F84050 		strb	r5, [r0, #64]
 4265 0028 FFF7FEFF 		bl	HAL_I2C_MasterTxCpltCallback
 4266              	.L696:
 4267 002c 38BD     		pop	{r3, r4, r5, pc}
 4268              	.L697:
 4269 002e 1223     		movs	r3, #18
 4270 0030 0221     		movs	r1, #2
 4271 0032 4563     		str	r5, [r0, #52]
 4272 0034 0363     		str	r3, [r0, #48]
 4273 0036 FFF7FEFF 		bl	I2C_Disable_IRQ
 4274 003a 80F84050 		strb	r5, [r0, #64]
 4275 003e FFF7FEFF 		bl	HAL_I2C_MasterRxCpltCallback
 4276 0042 F3E7     		b	.L696
 4278              		.section	.text.HAL_I2C_SlaveTxCpltCallback,"ax",%progbits
 4279              		.align	1
 4280              		.weak	HAL_I2C_SlaveTxCpltCallback
 4281              		.syntax unified
 4282              		.thumb
 4283              		.thumb_func
 4284              		.fpu fpv5-sp-d16
 4286              	HAL_I2C_SlaveTxCpltCallback:
 4287              		@ args = 0, pretend = 0, frame = 0
 4288              		@ frame_needed = 0, uses_anonymous_args = 0
 4289              		@ link register save eliminated.
 4290 0000 7047     		bx	lr
 4292              		.section	.text.HAL_I2C_SlaveRxCpltCallback,"ax",%progbits
 4293              		.align	1
 4294              		.weak	HAL_I2C_SlaveRxCpltCallback
 4295              		.syntax unified
 4296              		.thumb
 4297              		.thumb_func
 4298              		.fpu fpv5-sp-d16
 4300              	HAL_I2C_SlaveRxCpltCallback:
 4301              		@ args = 0, pretend = 0, frame = 0
 4302              		@ frame_needed = 0, uses_anonymous_args = 0
 4303              		@ link register save eliminated.
 4304 0000 7047     		bx	lr
 4306              		.section	.text.I2C_ITSlaveSeqCplt,"ax",%progbits
 4307              		.align	1
 4308              		.syntax unified
 4309              		.thumb
 4310              		.thumb_func
 4311              		.fpu fpv5-sp-d16
 4313              	I2C_ITSlaveSeqCplt:
 4314              		@ args = 0, pretend = 0, frame = 0
 4315              		@ frame_needed = 0, uses_anonymous_args = 0
 4316 0000 08B5     		push	{r3, lr}
 4317 0002 0368     		ldr	r3, [r0]
 4318 0004 0021     		movs	r1, #0
 4319 0006 1A68     		ldr	r2, [r3]
ARM GAS  /tmp/ccina73P.s 			page 75


 4320 0008 80F84210 		strb	r1, [r0, #66]
 4321 000c 5104     		lsls	r1, r2, #17
 4322 000e 15D5     		bpl	.L702
 4323 0010 1A68     		ldr	r2, [r3]
 4324 0012 22F48042 		bic	r2, r2, #16384
 4325              	.L709:
 4326 0016 1A60     		str	r2, [r3]
 4327              	.L703:
 4328 0018 90F84130 		ldrb	r3, [r0, #65]	@ zero_extendqisi2
 4329 001c 292B     		cmp	r3, #41
 4330 001e 13D1     		bne	.L704
 4331 0020 2823     		movs	r3, #40
 4332 0022 0121     		movs	r1, #1
 4333 0024 80F84130 		strb	r3, [r0, #65]
 4334 0028 2123     		movs	r3, #33
 4335 002a 0363     		str	r3, [r0, #48]
 4336 002c FFF7FEFF 		bl	I2C_Disable_IRQ
 4337 0030 0023     		movs	r3, #0
 4338 0032 80F84030 		strb	r3, [r0, #64]
 4339 0036 FFF7FEFF 		bl	HAL_I2C_SlaveTxCpltCallback
 4340              	.L701:
 4341 003a 08BD     		pop	{r3, pc}
 4342              	.L702:
 4343 003c 1204     		lsls	r2, r2, #16
 4344 003e EBD5     		bpl	.L703
 4345 0040 1A68     		ldr	r2, [r3]
 4346 0042 22F40042 		bic	r2, r2, #32768
 4347 0046 E6E7     		b	.L709
 4348              	.L704:
 4349 0048 90F84130 		ldrb	r3, [r0, #65]	@ zero_extendqisi2
 4350 004c 2A2B     		cmp	r3, #42
 4351 004e F4D1     		bne	.L701
 4352 0050 2823     		movs	r3, #40
 4353 0052 0221     		movs	r1, #2
 4354 0054 80F84130 		strb	r3, [r0, #65]
 4355 0058 2223     		movs	r3, #34
 4356 005a 0363     		str	r3, [r0, #48]
 4357 005c FFF7FEFF 		bl	I2C_Disable_IRQ
 4358 0060 0023     		movs	r3, #0
 4359 0062 80F84030 		strb	r3, [r0, #64]
 4360 0066 FFF7FEFF 		bl	HAL_I2C_SlaveRxCpltCallback
 4361 006a E6E7     		b	.L701
 4363              		.section	.text.I2C_DMASlaveTransmitCplt,"ax",%progbits
 4364              		.align	1
 4365              		.syntax unified
 4366              		.thumb
 4367              		.thumb_func
 4368              		.fpu fpv5-sp-d16
 4370              	I2C_DMASlaveTransmitCplt:
 4371              		@ args = 0, pretend = 0, frame = 0
 4372              		@ frame_needed = 0, uses_anonymous_args = 0
 4373              		@ link register save eliminated.
 4374 0000 806B     		ldr	r0, [r0, #56]
 4375 0002 C36A     		ldr	r3, [r0, #44]
 4376 0004 33F08073 		bics	r3, r3, #16777216
 4377 0008 06D1     		bne	.L710
 4378 000a 0268     		ldr	r2, [r0]
ARM GAS  /tmp/ccina73P.s 			page 76


 4379 000c 1368     		ldr	r3, [r2]
 4380 000e 23F48043 		bic	r3, r3, #16384
 4381 0012 1360     		str	r3, [r2]
 4382 0014 FFF7FEBF 		b	I2C_ITSlaveSeqCplt
 4383              	.L710:
 4384 0018 7047     		bx	lr
 4386              		.section	.text.I2C_DMASlaveReceiveCplt,"ax",%progbits
 4387              		.align	1
 4388              		.syntax unified
 4389              		.thumb
 4390              		.thumb_func
 4391              		.fpu fpv5-sp-d16
 4393              	I2C_DMASlaveReceiveCplt:
 4394              		@ args = 0, pretend = 0, frame = 0
 4395              		@ frame_needed = 0, uses_anonymous_args = 0
 4396              		@ link register save eliminated.
 4397 0000 806B     		ldr	r0, [r0, #56]
 4398 0002 C26B     		ldr	r2, [r0, #60]
 4399 0004 C36A     		ldr	r3, [r0, #44]
 4400 0006 1268     		ldr	r2, [r2]
 4401 0008 5268     		ldr	r2, [r2, #4]
 4402 000a 4AB9     		cbnz	r2, .L712
 4403 000c 13F5803F 		cmn	r3, #65536
 4404 0010 06D0     		beq	.L712
 4405 0012 0268     		ldr	r2, [r0]
 4406 0014 1368     		ldr	r3, [r2]
 4407 0016 23F40043 		bic	r3, r3, #32768
 4408 001a 1360     		str	r3, [r2]
 4409 001c FFF7FEBF 		b	I2C_ITSlaveSeqCplt
 4410              	.L712:
 4411 0020 7047     		bx	lr
 4413              		.section	.text.HAL_I2C_AddrCallback,"ax",%progbits
 4414              		.align	1
 4415              		.weak	HAL_I2C_AddrCallback
 4416              		.syntax unified
 4417              		.thumb
 4418              		.thumb_func
 4419              		.fpu fpv5-sp-d16
 4421              	HAL_I2C_AddrCallback:
 4422              		@ args = 0, pretend = 0, frame = 0
 4423              		@ frame_needed = 0, uses_anonymous_args = 0
 4424              		@ link register save eliminated.
 4425 0000 7047     		bx	lr
 4427              		.section	.text.I2C_ITAddrCplt.constprop.0,"ax",%progbits
 4428              		.align	1
 4429              		.syntax unified
 4430              		.thumb
 4431              		.thumb_func
 4432              		.fpu fpv5-sp-d16
 4434              	I2C_ITAddrCplt.constprop.0:
 4435              		@ args = 0, pretend = 0, frame = 0
 4436              		@ frame_needed = 0, uses_anonymous_args = 0
 4437 0000 90F84120 		ldrb	r2, [r0, #65]	@ zero_extendqisi2
 4438 0004 02F02802 		and	r2, r2, #40
 4439 0008 282A     		cmp	r2, #40
 4440 000a F8B5     		push	{r3, r4, r5, r6, r7, lr}
 4441 000c 0368     		ldr	r3, [r0]
ARM GAS  /tmp/ccina73P.s 			page 77


 4442 000e 35D1     		bne	.L719
 4443 0010 9E69     		ldr	r6, [r3, #24]
 4444 0012 C268     		ldr	r2, [r0, #12]
 4445 0014 9D69     		ldr	r5, [r3, #24]
 4446 0016 C6F30046 		ubfx	r6, r6, #16, #1
 4447 001a 022A     		cmp	r2, #2
 4448 001c 9968     		ldr	r1, [r3, #8]
 4449 001e 4FEA1545 		lsr	r5, r5, #16
 4450 0022 DF68     		ldr	r7, [r3, #12]
 4451 0024 05F0FE05 		and	r5, r5, #254
 4452 0028 1FD1     		bne	.L720
 4453 002a 85EAD115 		eor	r5, r5, r1, lsr #7
 4454 002e C1F30902 		ubfx	r2, r1, #0, #10
 4455 0032 15F00605 		ands	r5, r5, #6
 4456 0036 0ED1     		bne	.L721
 4457 0038 816C     		ldr	r1, [r0, #72]
 4458 003a 0131     		adds	r1, r1, #1
 4459 003c 8164     		str	r1, [r0, #72]
 4460 003e 816C     		ldr	r1, [r0, #72]
 4461 0040 0229     		cmp	r1, #2
 4462 0042 07D1     		bne	.L718
 4463 0044 0821     		movs	r1, #8
 4464 0046 8564     		str	r5, [r0, #72]
 4465 0048 D961     		str	r1, [r3, #28]
 4466 004a 80F84050 		strb	r5, [r0, #64]
 4467              	.L723:
 4468 004e 3146     		mov	r1, r6
 4469 0050 FFF7FEFF 		bl	HAL_I2C_AddrCallback
 4470              	.L718:
 4471 0054 F8BD     		pop	{r3, r4, r5, r6, r7, pc}
 4472              	.L721:
 4473 0056 4FF40041 		mov	r1, #32768
 4474 005a FFF7FEFF 		bl	I2C_Disable_IRQ
 4475 005e 0023     		movs	r3, #0
 4476 0060 07F0FE02 		and	r2, r7, #254
 4477 0064 80F84030 		strb	r3, [r0, #64]
 4478 0068 F1E7     		b	.L723
 4479              	.L720:
 4480 006a 4FF40041 		mov	r1, #32768
 4481 006e FFF7FEFF 		bl	I2C_Disable_IRQ
 4482 0072 0023     		movs	r3, #0
 4483 0074 2A46     		mov	r2, r5
 4484 0076 80F84030 		strb	r3, [r0, #64]
 4485 007a E8E7     		b	.L723
 4486              	.L719:
 4487 007c 0822     		movs	r2, #8
 4488 007e DA61     		str	r2, [r3, #28]
 4489 0080 0023     		movs	r3, #0
 4490 0082 80F84030 		strb	r3, [r0, #64]
 4491 0086 E5E7     		b	.L718
 4493              		.section	.text.HAL_I2C_ListenCpltCallback,"ax",%progbits
 4494              		.align	1
 4495              		.weak	HAL_I2C_ListenCpltCallback
 4496              		.syntax unified
 4497              		.thumb
 4498              		.thumb_func
 4499              		.fpu fpv5-sp-d16
ARM GAS  /tmp/ccina73P.s 			page 78


 4501              	HAL_I2C_ListenCpltCallback:
 4502              		@ args = 0, pretend = 0, frame = 0
 4503              		@ frame_needed = 0, uses_anonymous_args = 0
 4504              		@ link register save eliminated.
 4505 0000 7047     		bx	lr
 4507              		.section	.text.I2C_ITListenCplt,"ax",%progbits
 4508              		.align	1
 4509              		.syntax unified
 4510              		.thumb
 4511              		.thumb_func
 4512              		.fpu fpv5-sp-d16
 4514              	I2C_ITListenCplt:
 4515              		@ args = 0, pretend = 0, frame = 0
 4516              		@ frame_needed = 0, uses_anonymous_args = 0
 4517 0000 08B5     		push	{r3, lr}
 4518 0002 164B     		ldr	r3, .L732
 4519 0004 2022     		movs	r2, #32
 4520 0006 C362     		str	r3, [r0, #44]
 4521 0008 0023     		movs	r3, #0
 4522 000a 0363     		str	r3, [r0, #48]
 4523 000c 4363     		str	r3, [r0, #52]
 4524 000e 80F84120 		strb	r2, [r0, #65]
 4525 0012 80F84230 		strb	r3, [r0, #66]
 4526 0016 4B07     		lsls	r3, r1, #29
 4527 0018 12D5     		bpl	.L727
 4528 001a 0368     		ldr	r3, [r0]
 4529 001c 5A6A     		ldr	r2, [r3, #36]
 4530 001e 436A     		ldr	r3, [r0, #36]
 4531 0020 1A70     		strb	r2, [r3]
 4532 0022 436A     		ldr	r3, [r0, #36]
 4533 0024 0133     		adds	r3, r3, #1
 4534 0026 4362     		str	r3, [r0, #36]
 4535 0028 038D     		ldrh	r3, [r0, #40]
 4536 002a 4BB1     		cbz	r3, .L727
 4537 002c 013B     		subs	r3, r3, #1
 4538 002e 0385     		strh	r3, [r0, #40]	@ movhi
 4539 0030 438D     		ldrh	r3, [r0, #42]
 4540 0032 013B     		subs	r3, r3, #1
 4541 0034 9BB2     		uxth	r3, r3
 4542 0036 4385     		strh	r3, [r0, #42]	@ movhi
 4543 0038 436C     		ldr	r3, [r0, #68]
 4544 003a 43F00403 		orr	r3, r3, #4
 4545 003e 4364     		str	r3, [r0, #68]
 4546              	.L727:
 4547 0040 48F20301 		movw	r1, #32771
 4548 0044 FFF7FEFF 		bl	I2C_Disable_IRQ
 4549 0048 0368     		ldr	r3, [r0]
 4550 004a 1022     		movs	r2, #16
 4551 004c DA61     		str	r2, [r3, #28]
 4552 004e 0023     		movs	r3, #0
 4553 0050 80F84030 		strb	r3, [r0, #64]
 4554 0054 FFF7FEFF 		bl	HAL_I2C_ListenCpltCallback
 4555 0058 08BD     		pop	{r3, pc}
 4556              	.L733:
 4557 005a 00BF     		.align	2
 4558              	.L732:
 4559 005c 0000FFFF 		.word	-65536
ARM GAS  /tmp/ccina73P.s 			page 79


 4561              		.section	.text.HAL_I2C_MemTxCpltCallback,"ax",%progbits
 4562              		.align	1
 4563              		.weak	HAL_I2C_MemTxCpltCallback
 4564              		.syntax unified
 4565              		.thumb
 4566              		.thumb_func
 4567              		.fpu fpv5-sp-d16
 4569              	HAL_I2C_MemTxCpltCallback:
 4570              		@ args = 0, pretend = 0, frame = 0
 4571              		@ frame_needed = 0, uses_anonymous_args = 0
 4572              		@ link register save eliminated.
 4573 0000 7047     		bx	lr
 4575              		.section	.text.HAL_I2C_MemRxCpltCallback,"ax",%progbits
 4576              		.align	1
 4577              		.weak	HAL_I2C_MemRxCpltCallback
 4578              		.syntax unified
 4579              		.thumb
 4580              		.thumb_func
 4581              		.fpu fpv5-sp-d16
 4583              	HAL_I2C_MemRxCpltCallback:
 4584              		@ args = 0, pretend = 0, frame = 0
 4585              		@ frame_needed = 0, uses_anonymous_args = 0
 4586              		@ link register save eliminated.
 4587 0000 7047     		bx	lr
 4589              		.section	.text.HAL_I2C_ErrorCallback,"ax",%progbits
 4590              		.align	1
 4591              		.weak	HAL_I2C_ErrorCallback
 4592              		.syntax unified
 4593              		.thumb
 4594              		.thumb_func
 4595              		.fpu fpv5-sp-d16
 4597              	HAL_I2C_ErrorCallback:
 4598              		@ args = 0, pretend = 0, frame = 0
 4599              		@ frame_needed = 0, uses_anonymous_args = 0
 4600              		@ link register save eliminated.
 4601 0000 7047     		bx	lr
 4603              		.section	.text.HAL_I2C_AbortCpltCallback,"ax",%progbits
 4604              		.align	1
 4605              		.weak	HAL_I2C_AbortCpltCallback
 4606              		.syntax unified
 4607              		.thumb
 4608              		.thumb_func
 4609              		.fpu fpv5-sp-d16
 4611              	HAL_I2C_AbortCpltCallback:
 4612              		@ args = 0, pretend = 0, frame = 0
 4613              		@ frame_needed = 0, uses_anonymous_args = 0
 4614              		@ link register save eliminated.
 4615 0000 7047     		bx	lr
 4617              		.section	.text.I2C_TreatErrorCallback,"ax",%progbits
 4618              		.align	1
 4619              		.syntax unified
 4620              		.thumb
 4621              		.thumb_func
 4622              		.fpu fpv5-sp-d16
 4624              	I2C_TreatErrorCallback:
 4625              		@ args = 0, pretend = 0, frame = 0
 4626              		@ frame_needed = 0, uses_anonymous_args = 0
ARM GAS  /tmp/ccina73P.s 			page 80


 4627 0000 90F84120 		ldrb	r2, [r0, #65]	@ zero_extendqisi2
 4628 0004 602A     		cmp	r2, #96
 4629 0006 4FF00002 		mov	r2, #0
 4630 000a 08B5     		push	{r3, lr}
 4631 000c 08D1     		bne	.L739
 4632 000e 2021     		movs	r1, #32
 4633 0010 80F84020 		strb	r2, [r0, #64]
 4634 0014 80F84110 		strb	r1, [r0, #65]
 4635 0018 0263     		str	r2, [r0, #48]
 4636 001a FFF7FEFF 		bl	HAL_I2C_AbortCpltCallback
 4637              	.L738:
 4638 001e 08BD     		pop	{r3, pc}
 4639              	.L739:
 4640 0020 0263     		str	r2, [r0, #48]
 4641 0022 80F84020 		strb	r2, [r0, #64]
 4642 0026 FFF7FEFF 		bl	HAL_I2C_ErrorCallback
 4643 002a F8E7     		b	.L738
 4645              		.section	.text.I2C_ITError,"ax",%progbits
 4646              		.align	1
 4647              		.syntax unified
 4648              		.thumb
 4649              		.thumb_func
 4650              		.fpu fpv5-sp-d16
 4652              	I2C_ITError:
 4653              		@ args = 0, pretend = 0, frame = 0
 4654              		@ frame_needed = 0, uses_anonymous_args = 0
 4655 0000 70B5     		push	{r4, r5, r6, lr}
 4656 0002 354A     		ldr	r2, .L786
 4657 0004 0025     		movs	r5, #0
 4658 0006 90F84130 		ldrb	r3, [r0, #65]	@ zero_extendqisi2
 4659 000a 0446     		mov	r4, r0
 4660 000c 80F84250 		strb	r5, [r0, #66]
 4661 0010 283B     		subs	r3, r3, #40
 4662 0012 C262     		str	r2, [r0, #44]
 4663 0014 4585     		strh	r5, [r0, #42]	@ movhi
 4664 0016 426C     		ldr	r2, [r0, #68]
 4665 0018 022B     		cmp	r3, #2
 4666 001a 41EA0201 		orr	r1, r1, r2
 4667 001e 4164     		str	r1, [r0, #68]
 4668 0020 29D8     		bhi	.L742
 4669 0022 0321     		movs	r1, #3
 4670 0024 FFF7FEFF 		bl	I2C_Disable_IRQ
 4671 0028 2823     		movs	r3, #40
 4672 002a 80F84130 		strb	r3, [r0, #65]
 4673 002e 2B4B     		ldr	r3, .L786+4
 4674              	.L784:
 4675 0030 A06B     		ldr	r0, [r4, #56]
 4676 0032 6363     		str	r3, [r4, #52]
 4677 0034 236B     		ldr	r3, [r4, #48]
 4678 0036 80B3     		cbz	r0, .L745
 4679 0038 112B     		cmp	r3, #17
 4680 003a 01D0     		beq	.L746
 4681 003c 212B     		cmp	r3, #33
 4682 003e 2CD1     		bne	.L745
 4683              	.L746:
 4684 0040 2368     		ldr	r3, [r4]
 4685 0042 1A68     		ldr	r2, [r3]
ARM GAS  /tmp/ccina73P.s 			page 81


 4686 0044 5104     		lsls	r1, r2, #17
 4687 0046 03D5     		bpl	.L747
 4688 0048 1A68     		ldr	r2, [r3]
 4689 004a 22F48042 		bic	r2, r2, #16384
 4690 004e 1A60     		str	r2, [r3]
 4691              	.L747:
 4692 0050 FFF7FEFF 		bl	HAL_DMA_GetState
 4693 0054 0128     		cmp	r0, #1
 4694 0056 1BD0     		beq	.L748
 4695 0058 214B     		ldr	r3, .L786+8
 4696 005a A06B     		ldr	r0, [r4, #56]
 4697 005c 0365     		str	r3, [r0, #80]
 4698 005e 0023     		movs	r3, #0
 4699 0060 84F84030 		strb	r3, [r4, #64]
 4700 0064 FFF7FEFF 		bl	HAL_DMA_Abort_IT
 4701 0068 0028     		cmp	r0, #0
 4702 006a 34D0     		beq	.L741
 4703 006c A06B     		ldr	r0, [r4, #56]
 4704              	.L785:
 4705 006e 036D     		ldr	r3, [r0, #80]
 4706 0070 BDE87040 		pop	{r4, r5, r6, lr}
 4707 0074 1847     		bx	r3	@ indirect register sibling call
 4708              	.L742:
 4709 0076 48F20301 		movw	r1, #32771
 4710 007a FFF7FEFF 		bl	I2C_Disable_IRQ
 4711 007e 90F84130 		ldrb	r3, [r0, #65]	@ zero_extendqisi2
 4712 0082 602B     		cmp	r3, #96
 4713 0084 02D0     		beq	.L744
 4714 0086 2023     		movs	r3, #32
 4715 0088 80F84130 		strb	r3, [r0, #65]
 4716              	.L744:
 4717 008c 0023     		movs	r3, #0
 4718 008e CFE7     		b	.L784
 4719              	.L748:
 4720 0090 2046     		mov	r0, r4
 4721 0092 BDE87040 		pop	{r4, r5, r6, lr}
 4722 0096 FFF7FEBF 		b	I2C_TreatErrorCallback
 4723              	.L745:
 4724 009a E06B     		ldr	r0, [r4, #60]
 4725 009c 0028     		cmp	r0, #0
 4726 009e F7D0     		beq	.L748
 4727 00a0 122B     		cmp	r3, #18
 4728 00a2 01D0     		beq	.L751
 4729 00a4 222B     		cmp	r3, #34
 4730 00a6 F3D1     		bne	.L748
 4731              	.L751:
 4732 00a8 2368     		ldr	r3, [r4]
 4733 00aa 1A68     		ldr	r2, [r3]
 4734 00ac 1204     		lsls	r2, r2, #16
 4735 00ae 03D5     		bpl	.L752
 4736 00b0 1A68     		ldr	r2, [r3]
 4737 00b2 22F40042 		bic	r2, r2, #32768
 4738 00b6 1A60     		str	r2, [r3]
 4739              	.L752:
 4740 00b8 FFF7FEFF 		bl	HAL_DMA_GetState
 4741 00bc 0128     		cmp	r0, #1
 4742 00be E7D0     		beq	.L748
ARM GAS  /tmp/ccina73P.s 			page 82


 4743 00c0 074B     		ldr	r3, .L786+8
 4744 00c2 E06B     		ldr	r0, [r4, #60]
 4745 00c4 0365     		str	r3, [r0, #80]
 4746 00c6 0023     		movs	r3, #0
 4747 00c8 84F84030 		strb	r3, [r4, #64]
 4748 00cc FFF7FEFF 		bl	HAL_DMA_Abort_IT
 4749 00d0 08B1     		cbz	r0, .L741
 4750 00d2 E06B     		ldr	r0, [r4, #60]
 4751 00d4 CBE7     		b	.L785
 4752              	.L741:
 4753 00d6 70BD     		pop	{r4, r5, r6, pc}
 4754              	.L787:
 4755              		.align	2
 4756              	.L786:
 4757 00d8 0000FFFF 		.word	-65536
 4758 00dc 00000000 		.word	I2C_Slave_ISR_IT
 4759 00e0 00000000 		.word	I2C_DMAAbort
 4761              		.section	.text.I2C_ITSlaveCplt,"ax",%progbits
 4762              		.align	1
 4763              		.syntax unified
 4764              		.thumb
 4765              		.thumb_func
 4766              		.fpu fpv5-sp-d16
 4768              	I2C_ITSlaveCplt:
 4769              		@ args = 0, pretend = 0, frame = 0
 4770              		@ frame_needed = 0, uses_anonymous_args = 0
 4771 0000 F8B5     		push	{r3, r4, r5, r6, r7, lr}
 4772 0002 0368     		ldr	r3, [r0]
 4773 0004 2022     		movs	r2, #32
 4774 0006 0446     		mov	r4, r0
 4775 0008 0E46     		mov	r6, r1
 4776 000a 1F68     		ldr	r7, [r3]
 4777 000c 90F84150 		ldrb	r5, [r0, #65]	@ zero_extendqisi2
 4778 0010 DA61     		str	r2, [r3, #28]
 4779 0012 05F0F705 		and	r5, r5, #247
 4780 0016 212D     		cmp	r5, #33
 4781 0018 51D1     		bne	.L789
 4782 001a 48F20101 		movw	r1, #32769
 4783              	.L816:
 4784 001e FFF7FEFF 		bl	I2C_Disable_IRQ
 4785 0022 2563     		str	r5, [r4, #48]
 4786              	.L790:
 4787 0024 2368     		ldr	r3, [r4]
 4788 0026 2046     		mov	r0, r4
 4789 0028 5A68     		ldr	r2, [r3, #4]
 4790 002a 42F40042 		orr	r2, r2, #32768
 4791 002e 5A60     		str	r2, [r3, #4]
 4792 0030 5A68     		ldr	r2, [r3, #4]
 4793 0032 22F0FF72 		bic	r2, r2, #33423360
 4794 0036 22F48B32 		bic	r2, r2, #71168
 4795 003a 22F4FF72 		bic	r2, r2, #510
 4796 003e 22F00102 		bic	r2, r2, #1
 4797 0042 5A60     		str	r2, [r3, #4]
 4798 0044 FFF7FEFF 		bl	I2C_Flush_TXDR
 4799 0048 7904     		lsls	r1, r7, #17
 4800 004a 3DD5     		bpl	.L791
 4801 004c 2268     		ldr	r2, [r4]
ARM GAS  /tmp/ccina73P.s 			page 83


 4802 004e 1368     		ldr	r3, [r2]
 4803 0050 23F48043 		bic	r3, r3, #16384
 4804 0054 1360     		str	r3, [r2]
 4805 0056 A36B     		ldr	r3, [r4, #56]
 4806              	.L819:
 4807 0058 1BB1     		cbz	r3, .L793
 4808 005a 1B68     		ldr	r3, [r3]
 4809 005c 5B68     		ldr	r3, [r3, #4]
 4810 005e 9BB2     		uxth	r3, r3
 4811 0060 6385     		strh	r3, [r4, #42]	@ movhi
 4812              	.L793:
 4813 0062 7307     		lsls	r3, r6, #29
 4814 0064 10D5     		bpl	.L795
 4815 0066 2368     		ldr	r3, [r4]
 4816 0068 26F00406 		bic	r6, r6, #4
 4817 006c 5A6A     		ldr	r2, [r3, #36]
 4818 006e 636A     		ldr	r3, [r4, #36]
 4819 0070 1A70     		strb	r2, [r3]
 4820 0072 636A     		ldr	r3, [r4, #36]
 4821 0074 0133     		adds	r3, r3, #1
 4822 0076 6362     		str	r3, [r4, #36]
 4823 0078 238D     		ldrh	r3, [r4, #40]
 4824 007a 2BB1     		cbz	r3, .L795
 4825 007c 013B     		subs	r3, r3, #1
 4826 007e 2385     		strh	r3, [r4, #40]	@ movhi
 4827 0080 638D     		ldrh	r3, [r4, #42]
 4828 0082 013B     		subs	r3, r3, #1
 4829 0084 9BB2     		uxth	r3, r3
 4830 0086 6385     		strh	r3, [r4, #42]	@ movhi
 4831              	.L795:
 4832 0088 638D     		ldrh	r3, [r4, #42]
 4833 008a 9BB2     		uxth	r3, r3
 4834 008c 1BB1     		cbz	r3, .L796
 4835 008e 636C     		ldr	r3, [r4, #68]
 4836 0090 43F00403 		orr	r3, r3, #4
 4837 0094 6364     		str	r3, [r4, #68]
 4838              	.L796:
 4839 0096 0023     		movs	r3, #0
 4840 0098 84F84230 		strb	r3, [r4, #66]
 4841 009c 656C     		ldr	r5, [r4, #68]
 4842 009e 6363     		str	r3, [r4, #52]
 4843 00a0 DDB1     		cbz	r5, .L797
 4844 00a2 616C     		ldr	r1, [r4, #68]
 4845 00a4 2046     		mov	r0, r4
 4846 00a6 FFF7FEFF 		bl	I2C_ITError
 4847 00aa 94F84130 		ldrb	r3, [r4, #65]	@ zero_extendqisi2
 4848 00ae 282B     		cmp	r3, #40
 4849 00b0 25D1     		bne	.L788
 4850 00b2 3146     		mov	r1, r6
 4851 00b4 2046     		mov	r0, r4
 4852 00b6 BDE8F840 		pop	{r3, r4, r5, r6, r7, lr}
 4853 00ba FFF7FEBF 		b	I2C_ITListenCplt
 4854              	.L789:
 4855 00be 222D     		cmp	r5, #34
 4856 00c0 B0D1     		bne	.L790
 4857 00c2 48F20201 		movw	r1, #32770
 4858 00c6 AAE7     		b	.L816
ARM GAS  /tmp/ccina73P.s 			page 84


 4859              	.L791:
 4860 00c8 3A04     		lsls	r2, r7, #16
 4861 00ca CAD5     		bpl	.L793
 4862 00cc 2268     		ldr	r2, [r4]
 4863 00ce 1368     		ldr	r3, [r2]
 4864 00d0 23F40043 		bic	r3, r3, #32768
 4865 00d4 1360     		str	r3, [r2]
 4866 00d6 E36B     		ldr	r3, [r4, #60]
 4867 00d8 BEE7     		b	.L819
 4868              	.L797:
 4869 00da E36A     		ldr	r3, [r4, #44]
 4870 00dc 13F5803F 		cmn	r3, #65536
 4871 00e0 0ED0     		beq	.L799
 4872 00e2 2046     		mov	r0, r4
 4873 00e4 FFF7FEFF 		bl	I2C_ITSlaveSeqCplt
 4874 00e8 0E4B     		ldr	r3, .L820
 4875 00ea 2046     		mov	r0, r4
 4876 00ec 84F84050 		strb	r5, [r4, #64]
 4877 00f0 E362     		str	r3, [r4, #44]
 4878 00f2 2023     		movs	r3, #32
 4879 00f4 84F84130 		strb	r3, [r4, #65]
 4880 00f8 2563     		str	r5, [r4, #48]
 4881 00fa FFF7FEFF 		bl	HAL_I2C_ListenCpltCallback
 4882              	.L788:
 4883 00fe F8BD     		pop	{r3, r4, r5, r6, r7, pc}
 4884              	.L799:
 4885 0100 94F84130 		ldrb	r3, [r4, #65]	@ zero_extendqisi2
 4886 0104 2046     		mov	r0, r4
 4887 0106 84F84050 		strb	r5, [r4, #64]
 4888 010a 222B     		cmp	r3, #34
 4889 010c 4FF02003 		mov	r3, #32
 4890 0110 84F84130 		strb	r3, [r4, #65]
 4891 0114 2563     		str	r5, [r4, #48]
 4892 0116 02D1     		bne	.L800
 4893 0118 FFF7FEFF 		bl	HAL_I2C_SlaveRxCpltCallback
 4894 011c EFE7     		b	.L788
 4895              	.L800:
 4896 011e FFF7FEFF 		bl	HAL_I2C_SlaveTxCpltCallback
 4897 0122 ECE7     		b	.L788
 4898              	.L821:
 4899              		.align	2
 4900              	.L820:
 4901 0124 0000FFFF 		.word	-65536
 4903              		.section	.text.I2C_Slave_ISR_IT,"ax",%progbits
 4904              		.align	1
 4905              		.syntax unified
 4906              		.thumb
 4907              		.thumb_func
 4908              		.fpu fpv5-sp-d16
 4910              	I2C_Slave_ISR_IT:
 4911              		@ args = 0, pretend = 0, frame = 0
 4912              		@ frame_needed = 0, uses_anonymous_args = 0
 4913 0000 F8B5     		push	{r3, r4, r5, r6, r7, lr}
 4914 0002 90F84030 		ldrb	r3, [r0, #64]	@ zero_extendqisi2
 4915 0006 0446     		mov	r4, r0
 4916 0008 0D46     		mov	r5, r1
 4917 000a 1646     		mov	r6, r2
ARM GAS  /tmp/ccina73P.s 			page 85


 4918 000c 012B     		cmp	r3, #1
 4919 000e C76A     		ldr	r7, [r0, #44]
 4920 0010 7DD0     		beq	.L837
 4921 0012 0123     		movs	r3, #1
 4922 0014 8A06     		lsls	r2, r1, #26
 4923 0016 80F84030 		strb	r3, [r0, #64]
 4924 001a 03D5     		bpl	.L824
 4925 001c B306     		lsls	r3, r6, #26
 4926 001e 01D5     		bpl	.L824
 4927 0020 FFF7FEFF 		bl	I2C_ITSlaveCplt
 4928              	.L824:
 4929 0024 E806     		lsls	r0, r5, #27
 4930 0026 33D5     		bpl	.L825
 4931 0028 F106     		lsls	r1, r6, #27
 4932 002a 31D5     		bpl	.L825
 4933 002c 638D     		ldrh	r3, [r4, #42]
 4934 002e 9BB2     		uxth	r3, r3
 4935 0030 FBB9     		cbnz	r3, .L826
 4936 0032 94F84130 		ldrb	r3, [r4, #65]	@ zero_extendqisi2
 4937 0036 282B     		cmp	r3, #40
 4938 0038 0AD1     		bne	.L827
 4939 003a B7F1007F 		cmp	r7, #33554432
 4940 003e 07D1     		bne	.L827
 4941 0040 2946     		mov	r1, r5
 4942 0042 2046     		mov	r0, r4
 4943 0044 FFF7FEFF 		bl	I2C_ITListenCplt
 4944              	.L828:
 4945 0048 0020     		movs	r0, #0
 4946 004a 84F84000 		strb	r0, [r4, #64]
 4947              	.L823:
 4948 004e F8BD     		pop	{r3, r4, r5, r6, r7, pc}
 4949              	.L827:
 4950 0050 94F84120 		ldrb	r2, [r4, #65]	@ zero_extendqisi2
 4951 0054 2368     		ldr	r3, [r4]
 4952 0056 292A     		cmp	r2, #41
 4953 0058 4FF01002 		mov	r2, #16
 4954 005c DA61     		str	r2, [r3, #28]
 4955 005e F3D1     		bne	.L828
 4956 0060 17F5803F 		cmn	r7, #65536
 4957 0064 F0D0     		beq	.L828
 4958 0066 2046     		mov	r0, r4
 4959 0068 FFF7FEFF 		bl	I2C_Flush_TXDR
 4960              	.L880:
 4961 006c FFF7FEFF 		bl	I2C_ITSlaveSeqCplt
 4962 0070 EAE7     		b	.L828
 4963              	.L826:
 4964 0072 2368     		ldr	r3, [r4]
 4965 0074 1022     		movs	r2, #16
 4966 0076 DA61     		str	r2, [r3, #28]
 4967 0078 636C     		ldr	r3, [r4, #68]
 4968 007a 43F00403 		orr	r3, r3, #4
 4969 007e 6364     		str	r3, [r4, #68]
 4970 0080 37F08073 		bics	r3, r7, #16777216
 4971 0084 E0D1     		bne	.L828
 4972 0086 616C     		ldr	r1, [r4, #68]
 4973 0088 2046     		mov	r0, r4
 4974 008a FFF7FEFF 		bl	I2C_ITError
ARM GAS  /tmp/ccina73P.s 			page 86


 4975 008e DBE7     		b	.L828
 4976              	.L825:
 4977 0090 6A07     		lsls	r2, r5, #29
 4978 0092 1BD5     		bpl	.L831
 4979 0094 7307     		lsls	r3, r6, #29
 4980 0096 19D5     		bpl	.L831
 4981 0098 638D     		ldrh	r3, [r4, #42]
 4982 009a 9BB2     		uxth	r3, r3
 4983 009c 6BB1     		cbz	r3, .L832
 4984 009e 2368     		ldr	r3, [r4]
 4985 00a0 5A6A     		ldr	r2, [r3, #36]
 4986 00a2 636A     		ldr	r3, [r4, #36]
 4987 00a4 1A70     		strb	r2, [r3]
 4988 00a6 636A     		ldr	r3, [r4, #36]
 4989 00a8 0133     		adds	r3, r3, #1
 4990 00aa 6362     		str	r3, [r4, #36]
 4991 00ac 238D     		ldrh	r3, [r4, #40]
 4992 00ae 013B     		subs	r3, r3, #1
 4993 00b0 2385     		strh	r3, [r4, #40]	@ movhi
 4994 00b2 638D     		ldrh	r3, [r4, #42]
 4995 00b4 013B     		subs	r3, r3, #1
 4996 00b6 9BB2     		uxth	r3, r3
 4997 00b8 6385     		strh	r3, [r4, #42]	@ movhi
 4998              	.L832:
 4999 00ba 638D     		ldrh	r3, [r4, #42]
 5000 00bc 9BB2     		uxth	r3, r3
 5001 00be 002B     		cmp	r3, #0
 5002 00c0 C2D1     		bne	.L828
 5003 00c2 17F5803F 		cmn	r7, #65536
 5004 00c6 BFD0     		beq	.L828
 5005              	.L836:
 5006 00c8 2046     		mov	r0, r4
 5007 00ca CFE7     		b	.L880
 5008              	.L831:
 5009 00cc 2807     		lsls	r0, r5, #28
 5010 00ce 05D5     		bpl	.L834
 5011 00d0 3107     		lsls	r1, r6, #28
 5012 00d2 03D5     		bpl	.L834
 5013 00d4 2046     		mov	r0, r4
 5014 00d6 FFF7FEFF 		bl	I2C_ITAddrCplt.constprop.0
 5015 00da B5E7     		b	.L828
 5016              	.L834:
 5017 00dc AA07     		lsls	r2, r5, #30
 5018 00de B3D5     		bpl	.L828
 5019 00e0 B307     		lsls	r3, r6, #30
 5020 00e2 B1D5     		bpl	.L828
 5021 00e4 638D     		ldrh	r3, [r4, #42]
 5022 00e6 9BB2     		uxth	r3, r3
 5023 00e8 6BB1     		cbz	r3, .L835
 5024 00ea 636A     		ldr	r3, [r4, #36]
 5025 00ec 2268     		ldr	r2, [r4]
 5026 00ee 13F8011B 		ldrb	r1, [r3], #1	@ zero_extendqisi2
 5027 00f2 9162     		str	r1, [r2, #40]
 5028 00f4 6362     		str	r3, [r4, #36]
 5029 00f6 638D     		ldrh	r3, [r4, #42]
 5030 00f8 013B     		subs	r3, r3, #1
 5031 00fa 9BB2     		uxth	r3, r3
ARM GAS  /tmp/ccina73P.s 			page 87


 5032 00fc 6385     		strh	r3, [r4, #42]	@ movhi
 5033 00fe 238D     		ldrh	r3, [r4, #40]
 5034 0100 013B     		subs	r3, r3, #1
 5035 0102 2385     		strh	r3, [r4, #40]	@ movhi
 5036 0104 A0E7     		b	.L828
 5037              	.L835:
 5038 0106 37F08073 		bics	r3, r7, #16777216
 5039 010a DDD0     		beq	.L836
 5040 010c 9CE7     		b	.L828
 5041              	.L837:
 5042 010e 0220     		movs	r0, #2
 5043 0110 9DE7     		b	.L823
 5045              		.section	.text.I2C_ITMasterCplt,"ax",%progbits
 5046              		.align	1
 5047              		.syntax unified
 5048              		.thumb
 5049              		.thumb_func
 5050              		.fpu fpv5-sp-d16
 5052              	I2C_ITMasterCplt:
 5053              		@ args = 0, pretend = 0, frame = 8
 5054              		@ frame_needed = 0, uses_anonymous_args = 0
 5055 0000 37B5     		push	{r0, r1, r2, r4, r5, lr}
 5056 0002 0368     		ldr	r3, [r0]
 5057 0004 2022     		movs	r2, #32
 5058 0006 0446     		mov	r4, r0
 5059 0008 0D46     		mov	r5, r1
 5060 000a DA61     		str	r2, [r3, #28]
 5061 000c 90F84130 		ldrb	r3, [r0, #65]	@ zero_extendqisi2
 5062 0010 212B     		cmp	r3, #33
 5063 0012 37D1     		bne	.L882
 5064 0014 0121     		movs	r1, #1
 5065 0016 FFF7FEFF 		bl	I2C_Disable_IRQ
 5066 001a 1123     		movs	r3, #17
 5067              	.L901:
 5068 001c 2363     		str	r3, [r4, #48]
 5069              	.L883:
 5070 001e 2368     		ldr	r3, [r4]
 5071 0020 E906     		lsls	r1, r5, #27
 5072 0022 5A68     		ldr	r2, [r3, #4]
 5073 0024 22F0FF72 		bic	r2, r2, #33423360
 5074 0028 22F48B32 		bic	r2, r2, #71168
 5075 002c 22F4FF72 		bic	r2, r2, #510
 5076 0030 22F00102 		bic	r2, r2, #1
 5077 0034 5A60     		str	r2, [r3, #4]
 5078 0036 4FF00002 		mov	r2, #0
 5079 003a 6263     		str	r2, [r4, #52]
 5080 003c A2F58032 		sub	r2, r2, #65536
 5081 0040 E262     		str	r2, [r4, #44]
 5082 0042 05D5     		bpl	.L884
 5083 0044 1022     		movs	r2, #16
 5084 0046 DA61     		str	r2, [r3, #28]
 5085 0048 626C     		ldr	r2, [r4, #68]
 5086 004a 42F00402 		orr	r2, r2, #4
 5087 004e 6264     		str	r2, [r4, #68]
 5088              	.L884:
 5089 0050 94F84120 		ldrb	r2, [r4, #65]	@ zero_extendqisi2
 5090 0054 602A     		cmp	r2, #96
ARM GAS  /tmp/ccina73P.s 			page 88


 5091 0056 05D1     		bne	.L885
 5092 0058 6A07     		lsls	r2, r5, #29
 5093 005a 03D5     		bpl	.L885
 5094 005c 5B6A     		ldr	r3, [r3, #36]
 5095 005e DBB2     		uxtb	r3, r3
 5096 0060 0193     		str	r3, [sp, #4]
 5097 0062 019B     		ldr	r3, [sp, #4]
 5098              	.L885:
 5099 0064 2046     		mov	r0, r4
 5100 0066 FFF7FEFF 		bl	I2C_Flush_TXDR
 5101 006a 636C     		ldr	r3, [r4, #68]
 5102 006c 94F84120 		ldrb	r2, [r4, #65]	@ zero_extendqisi2
 5103 0070 602A     		cmp	r2, #96
 5104 0072 00D0     		beq	.L886
 5105 0074 7BB1     		cbz	r3, .L887
 5106              	.L886:
 5107 0076 616C     		ldr	r1, [r4, #68]
 5108 0078 2046     		mov	r0, r4
 5109 007a 03B0     		add	sp, sp, #12
 5110              		@ sp needed
 5111 007c BDE83040 		pop	{r4, r5, lr}
 5112 0080 FFF7FEBF 		b	I2C_ITError
 5113              	.L882:
 5114 0084 90F84130 		ldrb	r3, [r0, #65]	@ zero_extendqisi2
 5115 0088 222B     		cmp	r3, #34
 5116 008a C8D1     		bne	.L883
 5117 008c 0221     		movs	r1, #2
 5118 008e FFF7FEFF 		bl	I2C_Disable_IRQ
 5119 0092 1223     		movs	r3, #18
 5120 0094 C2E7     		b	.L901
 5121              	.L887:
 5122 0096 94F84120 		ldrb	r2, [r4, #65]	@ zero_extendqisi2
 5123 009a 212A     		cmp	r2, #33
 5124 009c 12D1     		bne	.L888
 5125 009e 2022     		movs	r2, #32
 5126 00a0 84F84030 		strb	r3, [r4, #64]
 5127 00a4 84F84120 		strb	r2, [r4, #65]
 5128 00a8 2363     		str	r3, [r4, #48]
 5129 00aa 94F84220 		ldrb	r2, [r4, #66]	@ zero_extendqisi2
 5130 00ae 84F84230 		strb	r3, [r4, #66]
 5131 00b2 402A     		cmp	r2, #64
 5132 00b4 03D1     		bne	.L889
 5133 00b6 FFF7FEFF 		bl	HAL_I2C_MemTxCpltCallback
 5134              	.L881:
 5135 00ba 03B0     		add	sp, sp, #12
 5136              		@ sp needed
 5137 00bc 30BD     		pop	{r4, r5, pc}
 5138              	.L889:
 5139 00be FFF7FEFF 		bl	HAL_I2C_MasterTxCpltCallback
 5140 00c2 FAE7     		b	.L881
 5141              	.L888:
 5142 00c4 94F84120 		ldrb	r2, [r4, #65]	@ zero_extendqisi2
 5143 00c8 222A     		cmp	r2, #34
 5144 00ca F6D1     		bne	.L881
 5145 00cc 2022     		movs	r2, #32
 5146 00ce 84F84030 		strb	r3, [r4, #64]
 5147 00d2 84F84120 		strb	r2, [r4, #65]
ARM GAS  /tmp/ccina73P.s 			page 89


 5148 00d6 2363     		str	r3, [r4, #48]
 5149 00d8 94F84220 		ldrb	r2, [r4, #66]	@ zero_extendqisi2
 5150 00dc 84F84230 		strb	r3, [r4, #66]
 5151 00e0 402A     		cmp	r2, #64
 5152 00e2 02D1     		bne	.L891
 5153 00e4 FFF7FEFF 		bl	HAL_I2C_MemRxCpltCallback
 5154 00e8 E7E7     		b	.L881
 5155              	.L891:
 5156 00ea FFF7FEFF 		bl	HAL_I2C_MasterRxCpltCallback
 5157 00ee E4E7     		b	.L881
 5159              		.section	.text.I2C_Master_ISR_IT,"ax",%progbits
 5160              		.align	1
 5161              		.syntax unified
 5162              		.thumb
 5163              		.thumb_func
 5164              		.fpu fpv5-sp-d16
 5166              	I2C_Master_ISR_IT:
 5167              		@ args = 0, pretend = 0, frame = 0
 5168              		@ frame_needed = 0, uses_anonymous_args = 0
 5169 0000 73B5     		push	{r0, r1, r4, r5, r6, lr}
 5170 0002 90F84030 		ldrb	r3, [r0, #64]	@ zero_extendqisi2
 5171 0006 0446     		mov	r4, r0
 5172 0008 0D46     		mov	r5, r1
 5173 000a 1646     		mov	r6, r2
 5174 000c 012B     		cmp	r3, #1
 5175 000e 00F08680 		beq	.L915
 5176 0012 0123     		movs	r3, #1
 5177 0014 CA06     		lsls	r2, r1, #27
 5178 0016 80F84030 		strb	r3, [r0, #64]
 5179 001a 17D5     		bpl	.L904
 5180 001c F306     		lsls	r3, r6, #27
 5181 001e 15D5     		bpl	.L904
 5182 0020 0368     		ldr	r3, [r0]
 5183 0022 1022     		movs	r2, #16
 5184 0024 DA61     		str	r2, [r3, #28]
 5185 0026 436C     		ldr	r3, [r0, #68]
 5186 0028 43F00403 		orr	r3, r3, #4
 5187 002c 4364     		str	r3, [r0, #68]
 5188 002e FFF7FEFF 		bl	I2C_Flush_TXDR
 5189              	.L905:
 5190 0032 AA06     		lsls	r2, r5, #26
 5191 0034 05D5     		bpl	.L914
 5192 0036 B306     		lsls	r3, r6, #26
 5193 0038 03D5     		bpl	.L914
 5194 003a 2946     		mov	r1, r5
 5195 003c 2046     		mov	r0, r4
 5196 003e FFF7FEFF 		bl	I2C_ITMasterCplt
 5197              	.L914:
 5198 0042 0020     		movs	r0, #0
 5199 0044 84F84000 		strb	r0, [r4, #64]
 5200              	.L903:
 5201 0048 02B0     		add	sp, sp, #8
 5202              		@ sp needed
 5203 004a 70BD     		pop	{r4, r5, r6, pc}
 5204              	.L904:
 5205 004c 6807     		lsls	r0, r5, #29
 5206 004e 12D5     		bpl	.L906
ARM GAS  /tmp/ccina73P.s 			page 90


 5207 0050 7107     		lsls	r1, r6, #29
 5208 0052 10D5     		bpl	.L906
 5209 0054 2368     		ldr	r3, [r4]
 5210 0056 25F00405 		bic	r5, r5, #4
 5211 005a 5A6A     		ldr	r2, [r3, #36]
 5212 005c 636A     		ldr	r3, [r4, #36]
 5213 005e 1A70     		strb	r2, [r3]
 5214 0060 636A     		ldr	r3, [r4, #36]
 5215 0062 0133     		adds	r3, r3, #1
 5216              	.L955:
 5217 0064 6362     		str	r3, [r4, #36]
 5218 0066 238D     		ldrh	r3, [r4, #40]
 5219 0068 013B     		subs	r3, r3, #1
 5220 006a 2385     		strh	r3, [r4, #40]	@ movhi
 5221 006c 638D     		ldrh	r3, [r4, #42]
 5222 006e 013B     		subs	r3, r3, #1
 5223 0070 9BB2     		uxth	r3, r3
 5224 0072 6385     		strh	r3, [r4, #42]	@ movhi
 5225 0074 DDE7     		b	.L905
 5226              	.L906:
 5227 0076 AA07     		lsls	r2, r5, #30
 5228 0078 07D5     		bpl	.L907
 5229 007a B307     		lsls	r3, r6, #30
 5230 007c 05D5     		bpl	.L907
 5231 007e 636A     		ldr	r3, [r4, #36]
 5232 0080 2268     		ldr	r2, [r4]
 5233 0082 13F8011B 		ldrb	r1, [r3], #1	@ zero_extendqisi2
 5234 0086 9162     		str	r1, [r2, #40]
 5235 0088 ECE7     		b	.L955
 5236              	.L907:
 5237 008a 2806     		lsls	r0, r5, #24
 5238 008c 32D5     		bpl	.L908
 5239 008e 7106     		lsls	r1, r6, #25
 5240 0090 30D5     		bpl	.L908
 5241 0092 638D     		ldrh	r3, [r4, #42]
 5242 0094 2268     		ldr	r2, [r4]
 5243 0096 9BB2     		uxth	r3, r3
 5244 0098 03B3     		cbz	r3, .L909
 5245 009a 208D     		ldrh	r0, [r4, #40]
 5246 009c F0B9     		cbnz	r0, .L909
 5247 009e 5168     		ldr	r1, [r2, #4]
 5248 00a0 638D     		ldrh	r3, [r4, #42]
 5249 00a2 C1F30901 		ubfx	r1, r1, #0, #10
 5250 00a6 9BB2     		uxth	r3, r3
 5251 00a8 FF2B     		cmp	r3, #255
 5252 00aa 08D9     		bls	.L910
 5253 00ac FF22     		movs	r2, #255
 5254 00ae 4FF08073 		mov	r3, #16777216
 5255 00b2 0090     		str	r0, [sp]
 5256 00b4 2285     		strh	r2, [r4, #40]	@ movhi
 5257              	.L956:
 5258 00b6 2046     		mov	r0, r4
 5259 00b8 FFF7FEFF 		bl	I2C_TransferConfig
 5260 00bc B9E7     		b	.L905
 5261              	.L910:
 5262 00be 628D     		ldrh	r2, [r4, #42]
 5263 00c0 E36A     		ldr	r3, [r4, #44]
ARM GAS  /tmp/ccina73P.s 			page 91


 5264 00c2 92B2     		uxth	r2, r2
 5265 00c4 13F5803F 		cmn	r3, #65536
 5266 00c8 2285     		strh	r2, [r4, #40]	@ movhi
 5267 00ca D2B2     		uxtb	r2, r2
 5268 00cc 02D0     		beq	.L911
 5269 00ce E36A     		ldr	r3, [r4, #44]
 5270 00d0 0090     		str	r0, [sp]
 5271 00d2 F0E7     		b	.L956
 5272              	.L911:
 5273 00d4 4FF00073 		mov	r3, #33554432
 5274 00d8 0090     		str	r0, [sp]
 5275 00da ECE7     		b	.L956
 5276              	.L909:
 5277 00dc 5368     		ldr	r3, [r2, #4]
 5278 00de 9A01     		lsls	r2, r3, #6
 5279 00e0 03D4     		bmi	.L912
 5280              	.L913:
 5281 00e2 2046     		mov	r0, r4
 5282 00e4 FFF7FEFF 		bl	I2C_ITMasterSeqCplt
 5283 00e8 A3E7     		b	.L905
 5284              	.L912:
 5285 00ea 4021     		movs	r1, #64
 5286 00ec 2046     		mov	r0, r4
 5287 00ee FFF7FEFF 		bl	I2C_ITError
 5288 00f2 9EE7     		b	.L905
 5289              	.L908:
 5290 00f4 6B06     		lsls	r3, r5, #25
 5291 00f6 9CD5     		bpl	.L905
 5292 00f8 7006     		lsls	r0, r6, #25
 5293 00fa 9AD5     		bpl	.L905
 5294 00fc 638D     		ldrh	r3, [r4, #42]
 5295 00fe 9BB2     		uxth	r3, r3
 5296 0100 002B     		cmp	r3, #0
 5297 0102 F2D1     		bne	.L912
 5298 0104 2368     		ldr	r3, [r4]
 5299 0106 5A68     		ldr	r2, [r3, #4]
 5300 0108 9101     		lsls	r1, r2, #6
 5301 010a 92D4     		bmi	.L905
 5302 010c E26A     		ldr	r2, [r4, #44]
 5303 010e 12F5803F 		cmn	r2, #65536
 5304 0112 E6D1     		bne	.L913
 5305 0114 5A68     		ldr	r2, [r3, #4]
 5306 0116 42F48042 		orr	r2, r2, #16384
 5307 011a 5A60     		str	r2, [r3, #4]
 5308 011c 89E7     		b	.L905
 5309              	.L915:
 5310 011e 0220     		movs	r0, #2
 5311 0120 92E7     		b	.L903
 5313              		.section	.text.I2C_Slave_ISR_DMA,"ax",%progbits
 5314              		.align	1
 5315              		.syntax unified
 5316              		.thumb
 5317              		.thumb_func
 5318              		.fpu fpv5-sp-d16
 5320              	I2C_Slave_ISR_DMA:
 5321              		@ args = 0, pretend = 0, frame = 0
 5322              		@ frame_needed = 0, uses_anonymous_args = 0
ARM GAS  /tmp/ccina73P.s 			page 92


 5323 0000 F8B5     		push	{r3, r4, r5, r6, r7, lr}
 5324 0002 90F84030 		ldrb	r3, [r0, #64]	@ zero_extendqisi2
 5325 0006 0446     		mov	r4, r0
 5326 0008 0E46     		mov	r6, r1
 5327 000a 1546     		mov	r5, r2
 5328 000c 012B     		cmp	r3, #1
 5329 000e C76A     		ldr	r7, [r0, #44]
 5330 0010 6CD0     		beq	.L973
 5331 0012 0123     		movs	r3, #1
 5332 0014 8A06     		lsls	r2, r1, #26
 5333 0016 80F84030 		strb	r3, [r0, #64]
 5334 001a 03D5     		bpl	.L959
 5335 001c AB06     		lsls	r3, r5, #26
 5336 001e 01D5     		bpl	.L959
 5337 0020 FFF7FEFF 		bl	I2C_ITSlaveCplt
 5338              	.L959:
 5339 0024 F206     		lsls	r2, r6, #27
 5340 0026 59D5     		bpl	.L960
 5341 0028 EB06     		lsls	r3, r5, #27
 5342 002a 57D5     		bpl	.L960
 5343 002c E80B     		lsrs	r0, r5, #15
 5344 002e A90B     		lsrs	r1, r5, #14
 5345 0030 40EA9535 		orr	r5, r0, r5, lsr #14
 5346 0034 ED07     		lsls	r5, r5, #31
 5347 0036 4DD5     		bpl	.L961
 5348 0038 E26B     		ldr	r2, [r4, #60]
 5349 003a F2B1     		cbz	r2, .L974
 5350 003c 10F00103 		ands	r3, r0, #1
 5351 0040 04D0     		beq	.L962
 5352 0042 1368     		ldr	r3, [r2]
 5353 0044 5B68     		ldr	r3, [r3, #4]
 5354 0046 B3FA83F3 		clz	r3, r3
 5355 004a 5B09     		lsrs	r3, r3, #5
 5356              	.L962:
 5357 004c A26B     		ldr	r2, [r4, #56]
 5358 004e 22B1     		cbz	r2, .L963
 5359 0050 C907     		lsls	r1, r1, #31
 5360 0052 02D5     		bpl	.L963
 5361 0054 1268     		ldr	r2, [r2]
 5362 0056 5268     		ldr	r2, [r2, #4]
 5363 0058 02B1     		cbz	r2, .L964
 5364              	.L963:
 5365 005a 0BB3     		cbz	r3, .L965
 5366              	.L964:
 5367 005c 94F84130 		ldrb	r3, [r4, #65]	@ zero_extendqisi2
 5368 0060 282B     		cmp	r3, #40
 5369 0062 0CD1     		bne	.L966
 5370 0064 B7F1007F 		cmp	r7, #33554432
 5371 0068 09D1     		bne	.L966
 5372 006a 3146     		mov	r1, r6
 5373 006c 2046     		mov	r0, r4
 5374 006e FFF7FEFF 		bl	I2C_ITListenCplt
 5375              	.L967:
 5376 0072 0020     		movs	r0, #0
 5377 0074 84F84000 		strb	r0, [r4, #64]
 5378              	.L958:
 5379 0078 F8BD     		pop	{r3, r4, r5, r6, r7, pc}
ARM GAS  /tmp/ccina73P.s 			page 93


 5380              	.L974:
 5381 007a 1346     		mov	r3, r2
 5382 007c E6E7     		b	.L962
 5383              	.L966:
 5384 007e 94F84120 		ldrb	r2, [r4, #65]	@ zero_extendqisi2
 5385 0082 2368     		ldr	r3, [r4]
 5386 0084 292A     		cmp	r2, #41
 5387 0086 4FF01002 		mov	r2, #16
 5388 008a DA61     		str	r2, [r3, #28]
 5389 008c F1D1     		bne	.L967
 5390 008e 17F5803F 		cmn	r7, #65536
 5391 0092 EED0     		beq	.L967
 5392 0094 2046     		mov	r0, r4
 5393 0096 FFF7FEFF 		bl	I2C_Flush_TXDR
 5394 009a FFF7FEFF 		bl	I2C_ITSlaveSeqCplt
 5395 009e E8E7     		b	.L967
 5396              	.L965:
 5397 00a0 2368     		ldr	r3, [r4]
 5398 00a2 1022     		movs	r2, #16
 5399 00a4 DA61     		str	r2, [r3, #28]
 5400 00a6 37F08072 		bics	r2, r7, #16777216
 5401 00aa 636C     		ldr	r3, [r4, #68]
 5402 00ac 43F00403 		orr	r3, r3, #4
 5403 00b0 6364     		str	r3, [r4, #68]
 5404 00b2 94F84130 		ldrb	r3, [r4, #65]	@ zero_extendqisi2
 5405 00b6 DBB2     		uxtb	r3, r3
 5406 00b8 DBD1     		bne	.L967
 5407 00ba 03F0F703 		and	r3, r3, #247
 5408 00be 212B     		cmp	r3, #33
 5409 00c0 01D1     		bne	.L970
 5410              	.L1006:
 5411 00c2 2363     		str	r3, [r4, #48]
 5412 00c4 01E0     		b	.L971
 5413              	.L970:
 5414 00c6 222B     		cmp	r3, #34
 5415 00c8 FBD0     		beq	.L1006
 5416              	.L971:
 5417 00ca 616C     		ldr	r1, [r4, #68]
 5418 00cc 2046     		mov	r0, r4
 5419 00ce FFF7FEFF 		bl	I2C_ITError
 5420 00d2 CEE7     		b	.L967
 5421              	.L961:
 5422 00d4 2368     		ldr	r3, [r4]
 5423 00d6 1022     		movs	r2, #16
 5424 00d8 DA61     		str	r2, [r3, #28]
 5425 00da CAE7     		b	.L967
 5426              	.L960:
 5427 00dc 3207     		lsls	r2, r6, #28
 5428 00de C8D5     		bpl	.L967
 5429 00e0 2B07     		lsls	r3, r5, #28
 5430 00e2 C6D5     		bpl	.L967
 5431 00e4 2046     		mov	r0, r4
 5432 00e6 FFF7FEFF 		bl	I2C_ITAddrCplt.constprop.0
 5433 00ea C2E7     		b	.L967
 5434              	.L973:
 5435 00ec 0220     		movs	r0, #2
 5436 00ee C3E7     		b	.L958
ARM GAS  /tmp/ccina73P.s 			page 94


 5438              		.section	.text.I2C_Master_ISR_DMA,"ax",%progbits
 5439              		.align	1
 5440              		.syntax unified
 5441              		.thumb
 5442              		.thumb_func
 5443              		.fpu fpv5-sp-d16
 5445              	I2C_Master_ISR_DMA:
 5446              		@ args = 0, pretend = 0, frame = 0
 5447              		@ frame_needed = 0, uses_anonymous_args = 0
 5448 0000 13B5     		push	{r0, r1, r4, lr}
 5449 0002 90F84030 		ldrb	r3, [r0, #64]	@ zero_extendqisi2
 5450 0006 0446     		mov	r4, r0
 5451 0008 012B     		cmp	r3, #1
 5452 000a 7AD0     		beq	.L1019
 5453 000c 0123     		movs	r3, #1
 5454 000e 80F84030 		strb	r3, [r0, #64]
 5455 0012 CB06     		lsls	r3, r1, #27
 5456 0014 12D5     		bpl	.L1009
 5457 0016 D306     		lsls	r3, r2, #27
 5458 0018 10D5     		bpl	.L1009
 5459 001a 0368     		ldr	r3, [r0]
 5460 001c 1022     		movs	r2, #16
 5461 001e 2021     		movs	r1, #32
 5462 0020 DA61     		str	r2, [r3, #28]
 5463 0022 436C     		ldr	r3, [r0, #68]
 5464 0024 43F00403 		orr	r3, r3, #4
 5465 0028 4364     		str	r3, [r0, #68]
 5466 002a FFF7FEFF 		bl	I2C_Enable_IRQ
 5467 002e FFF7FEFF 		bl	I2C_Flush_TXDR
 5468              	.L1010:
 5469 0032 0020     		movs	r0, #0
 5470 0034 84F84000 		strb	r0, [r4, #64]
 5471              	.L1008:
 5472 0038 02B0     		add	sp, sp, #8
 5473              		@ sp needed
 5474 003a 10BD     		pop	{r4, pc}
 5475              	.L1009:
 5476 003c 0B06     		lsls	r3, r1, #24
 5477 003e 43D5     		bpl	.L1011
 5478 0040 5006     		lsls	r0, r2, #25
 5479 0042 41D5     		bpl	.L1011
 5480 0044 2368     		ldr	r3, [r4]
 5481 0046 1A68     		ldr	r2, [r3]
 5482 0048 22F04002 		bic	r2, r2, #64
 5483 004c 1A60     		str	r2, [r3]
 5484 004e 628D     		ldrh	r2, [r4, #42]
 5485 0050 92B2     		uxth	r2, r2
 5486 0052 6AB3     		cbz	r2, .L1012
 5487 0054 5968     		ldr	r1, [r3, #4]
 5488 0056 638D     		ldrh	r3, [r4, #42]
 5489 0058 C1F30901 		ubfx	r1, r1, #0, #10
 5490 005c 9BB2     		uxth	r3, r3
 5491 005e FF2B     		cmp	r3, #255
 5492 0060 1BD9     		bls	.L1013
 5493 0062 FF23     		movs	r3, #255
 5494 0064 2385     		strh	r3, [r4, #40]	@ movhi
 5495 0066 4FF08073 		mov	r3, #16777216
ARM GAS  /tmp/ccina73P.s 			page 95


 5496              	.L1014:
 5497 006a 0022     		movs	r2, #0
 5498 006c 2046     		mov	r0, r4
 5499 006e 0092     		str	r2, [sp]
 5500 0070 94F82820 		ldrb	r2, [r4, #40]	@ zero_extendqisi2
 5501 0074 FFF7FEFF 		bl	I2C_TransferConfig
 5502 0078 638D     		ldrh	r3, [r4, #42]
 5503 007a 228D     		ldrh	r2, [r4, #40]
 5504 007c 9B1A     		subs	r3, r3, r2
 5505 007e 9BB2     		uxth	r3, r3
 5506 0080 6385     		strh	r3, [r4, #42]	@ movhi
 5507 0082 94F84130 		ldrb	r3, [r4, #65]	@ zero_extendqisi2
 5508 0086 222B     		cmp	r3, #34
 5509 0088 2368     		ldr	r3, [r4]
 5510 008a 1A68     		ldr	r2, [r3]
 5511 008c 0CBF     		ite	eq
 5512 008e 42F40042 		orreq	r2, r2, #32768
 5513 0092 42F48042 		orrne	r2, r2, #16384
 5514 0096 1A60     		str	r2, [r3]
 5515 0098 CBE7     		b	.L1010
 5516              	.L1013:
 5517 009a 638D     		ldrh	r3, [r4, #42]
 5518 009c 2385     		strh	r3, [r4, #40]	@ movhi
 5519 009e E36A     		ldr	r3, [r4, #44]
 5520 00a0 13F5803F 		cmn	r3, #65536
 5521 00a4 01D0     		beq	.L1020
 5522 00a6 E36A     		ldr	r3, [r4, #44]
 5523 00a8 DFE7     		b	.L1014
 5524              	.L1020:
 5525 00aa 4FF00073 		mov	r3, #33554432
 5526 00ae DCE7     		b	.L1014
 5527              	.L1012:
 5528 00b0 5B68     		ldr	r3, [r3, #4]
 5529 00b2 9A01     		lsls	r2, r3, #6
 5530 00b4 03D4     		bmi	.L1016
 5531              	.L1018:
 5532 00b6 2046     		mov	r0, r4
 5533 00b8 FFF7FEFF 		bl	I2C_ITMasterSeqCplt
 5534 00bc B9E7     		b	.L1010
 5535              	.L1016:
 5536 00be 4021     		movs	r1, #64
 5537 00c0 2046     		mov	r0, r4
 5538 00c2 FFF7FEFF 		bl	I2C_ITError
 5539 00c6 B4E7     		b	.L1010
 5540              	.L1011:
 5541 00c8 4B06     		lsls	r3, r1, #25
 5542 00ca 12D5     		bpl	.L1017
 5543 00cc 5006     		lsls	r0, r2, #25
 5544 00ce 10D5     		bpl	.L1017
 5545 00d0 638D     		ldrh	r3, [r4, #42]
 5546 00d2 9BB2     		uxth	r3, r3
 5547 00d4 002B     		cmp	r3, #0
 5548 00d6 F2D1     		bne	.L1016
 5549 00d8 2368     		ldr	r3, [r4]
 5550 00da 5A68     		ldr	r2, [r3, #4]
 5551 00dc 9201     		lsls	r2, r2, #6
 5552 00de A8D4     		bmi	.L1010
ARM GAS  /tmp/ccina73P.s 			page 96


 5553 00e0 E26A     		ldr	r2, [r4, #44]
 5554 00e2 12F5803F 		cmn	r2, #65536
 5555 00e6 E6D1     		bne	.L1018
 5556 00e8 5A68     		ldr	r2, [r3, #4]
 5557 00ea 42F48042 		orr	r2, r2, #16384
 5558 00ee 5A60     		str	r2, [r3, #4]
 5559 00f0 9FE7     		b	.L1010
 5560              	.L1017:
 5561 00f2 8806     		lsls	r0, r1, #26
 5562 00f4 9DD5     		bpl	.L1010
 5563 00f6 9306     		lsls	r3, r2, #26
 5564 00f8 9BD5     		bpl	.L1010
 5565 00fa 2046     		mov	r0, r4
 5566 00fc FFF7FEFF 		bl	I2C_ITMasterCplt
 5567 0100 97E7     		b	.L1010
 5568              	.L1019:
 5569 0102 0220     		movs	r0, #2
 5570 0104 98E7     		b	.L1008
 5572              		.section	.text.I2C_DMAError,"ax",%progbits
 5573              		.align	1
 5574              		.syntax unified
 5575              		.thumb
 5576              		.thumb_func
 5577              		.fpu fpv5-sp-d16
 5579              	I2C_DMAError:
 5580              		@ args = 0, pretend = 0, frame = 0
 5581              		@ frame_needed = 0, uses_anonymous_args = 0
 5582 0000 38B5     		push	{r3, r4, r5, lr}
 5583 0002 856B     		ldr	r5, [r0, #56]
 5584 0004 AC6B     		ldr	r4, [r5, #56]
 5585 0006 24B1     		cbz	r4, .L1047
 5586 0008 2368     		ldr	r3, [r4]
 5587 000a 5C68     		ldr	r4, [r3, #4]
 5588 000c B4FA84F4 		clz	r4, r4
 5589 0010 6409     		lsrs	r4, r4, #5
 5590              	.L1047:
 5591 0012 EB6B     		ldr	r3, [r5, #60]
 5592 0014 23B1     		cbz	r3, .L1048
 5593 0016 1B68     		ldr	r3, [r3]
 5594 0018 5B68     		ldr	r3, [r3, #4]
 5595 001a 002B     		cmp	r3, #0
 5596 001c 08BF     		it	eq
 5597 001e 0124     		moveq	r4, #1
 5598              	.L1048:
 5599 0020 FFF7FEFF 		bl	HAL_DMA_GetError
 5600 0024 0228     		cmp	r0, #2
 5601 0026 0BD0     		beq	.L1046
 5602 0028 54B1     		cbz	r4, .L1046
 5603 002a 2A68     		ldr	r2, [r5]
 5604 002c 2846     		mov	r0, r5
 5605 002e 1021     		movs	r1, #16
 5606 0030 5368     		ldr	r3, [r2, #4]
 5607 0032 43F40043 		orr	r3, r3, #32768
 5608 0036 5360     		str	r3, [r2, #4]
 5609 0038 BDE83840 		pop	{r3, r4, r5, lr}
 5610 003c FFF7FEBF 		b	I2C_ITError
 5611              	.L1046:
ARM GAS  /tmp/ccina73P.s 			page 97


 5612 0040 38BD     		pop	{r3, r4, r5, pc}
 5614              		.section	.text.I2C_DMAMasterTransmitCplt,"ax",%progbits
 5615              		.align	1
 5616              		.syntax unified
 5617              		.thumb
 5618              		.thumb_func
 5619              		.fpu fpv5-sp-d16
 5621              	I2C_DMAMasterTransmitCplt:
 5622              		@ args = 0, pretend = 0, frame = 0
 5623              		@ frame_needed = 0, uses_anonymous_args = 0
 5624 0000 10B5     		push	{r4, lr}
 5625 0002 846B     		ldr	r4, [r0, #56]
 5626 0004 2268     		ldr	r2, [r4]
 5627 0006 1368     		ldr	r3, [r2]
 5628 0008 23F48043 		bic	r3, r3, #16384
 5629 000c 1360     		str	r3, [r2]
 5630 000e 638D     		ldrh	r3, [r4, #42]
 5631 0010 9BB2     		uxth	r3, r3
 5632 0012 2BB9     		cbnz	r3, .L1061
 5633 0014 2021     		movs	r1, #32
 5634              	.L1065:
 5635 0016 2046     		mov	r0, r4
 5636 0018 BDE81040 		pop	{r4, lr}
 5637 001c FFF7FEBF 		b	I2C_Enable_IRQ
 5638              	.L1061:
 5639 0020 238D     		ldrh	r3, [r4, #40]
 5640 0022 616A     		ldr	r1, [r4, #36]
 5641 0024 1944     		add	r1, r1, r3
 5642 0026 638D     		ldrh	r3, [r4, #42]
 5643 0028 9BB2     		uxth	r3, r3
 5644 002a 6162     		str	r1, [r4, #36]
 5645 002c FF2B     		cmp	r3, #255
 5646 002e 0DD8     		bhi	.L1064
 5647 0030 638D     		ldrh	r3, [r4, #42]
 5648 0032 9BB2     		uxth	r3, r3
 5649              	.L1062:
 5650 0034 2832     		adds	r2, r2, #40
 5651 0036 A06B     		ldr	r0, [r4, #56]
 5652 0038 2385     		strh	r3, [r4, #40]	@ movhi
 5653 003a FFF7FEFF 		bl	HAL_DMA_Start_IT
 5654 003e 38B1     		cbz	r0, .L1063
 5655 0040 2046     		mov	r0, r4
 5656 0042 1021     		movs	r1, #16
 5657 0044 BDE81040 		pop	{r4, lr}
 5658 0048 FFF7FEBF 		b	I2C_ITError
 5659              	.L1064:
 5660 004c FF23     		movs	r3, #255
 5661 004e F1E7     		b	.L1062
 5662              	.L1063:
 5663 0050 4021     		movs	r1, #64
 5664 0052 E0E7     		b	.L1065
 5666              		.section	.text.I2C_DMAMasterReceiveCplt,"ax",%progbits
 5667              		.align	1
 5668              		.syntax unified
 5669              		.thumb
 5670              		.thumb_func
 5671              		.fpu fpv5-sp-d16
ARM GAS  /tmp/ccina73P.s 			page 98


 5673              	I2C_DMAMasterReceiveCplt:
 5674              		@ args = 0, pretend = 0, frame = 0
 5675              		@ frame_needed = 0, uses_anonymous_args = 0
 5676 0000 10B5     		push	{r4, lr}
 5677 0002 846B     		ldr	r4, [r0, #56]
 5678 0004 2168     		ldr	r1, [r4]
 5679 0006 0B68     		ldr	r3, [r1]
 5680 0008 23F40043 		bic	r3, r3, #32768
 5681 000c 0B60     		str	r3, [r1]
 5682 000e 638D     		ldrh	r3, [r4, #42]
 5683 0010 9BB2     		uxth	r3, r3
 5684 0012 2BB9     		cbnz	r3, .L1067
 5685 0014 2021     		movs	r1, #32
 5686              	.L1071:
 5687 0016 2046     		mov	r0, r4
 5688 0018 BDE81040 		pop	{r4, lr}
 5689 001c FFF7FEBF 		b	I2C_Enable_IRQ
 5690              	.L1067:
 5691 0020 238D     		ldrh	r3, [r4, #40]
 5692 0022 626A     		ldr	r2, [r4, #36]
 5693 0024 1A44     		add	r2, r2, r3
 5694 0026 638D     		ldrh	r3, [r4, #42]
 5695 0028 9BB2     		uxth	r3, r3
 5696 002a 6262     		str	r2, [r4, #36]
 5697 002c FF2B     		cmp	r3, #255
 5698 002e 0DD8     		bhi	.L1070
 5699 0030 638D     		ldrh	r3, [r4, #42]
 5700 0032 9BB2     		uxth	r3, r3
 5701              	.L1068:
 5702 0034 2431     		adds	r1, r1, #36
 5703 0036 E06B     		ldr	r0, [r4, #60]
 5704 0038 2385     		strh	r3, [r4, #40]	@ movhi
 5705 003a FFF7FEFF 		bl	HAL_DMA_Start_IT
 5706 003e 38B1     		cbz	r0, .L1069
 5707 0040 2046     		mov	r0, r4
 5708 0042 1021     		movs	r1, #16
 5709 0044 BDE81040 		pop	{r4, lr}
 5710 0048 FFF7FEBF 		b	I2C_ITError
 5711              	.L1070:
 5712 004c FF23     		movs	r3, #255
 5713 004e F1E7     		b	.L1068
 5714              	.L1069:
 5715 0050 4021     		movs	r1, #64
 5716 0052 E0E7     		b	.L1071
 5718              		.section	.text.I2C_Mem_ISR_IT,"ax",%progbits
 5719              		.align	1
 5720              		.syntax unified
 5721              		.thumb
 5722              		.thumb_func
 5723              		.fpu fpv5-sp-d16
 5725              	I2C_Mem_ISR_IT:
 5726              		@ args = 0, pretend = 0, frame = 0
 5727              		@ frame_needed = 0, uses_anonymous_args = 0
 5728 0000 73B5     		push	{r0, r1, r4, r5, r6, lr}
 5729 0002 90F84030 		ldrb	r3, [r0, #64]	@ zero_extendqisi2
 5730 0006 0446     		mov	r4, r0
 5731 0008 0D46     		mov	r5, r1
ARM GAS  /tmp/ccina73P.s 			page 99


 5732 000a 1646     		mov	r6, r2
 5733 000c 012B     		cmp	r3, #1
 5734 000e 76D0     		beq	.L1085
 5735 0010 0123     		movs	r3, #1
 5736 0012 80F84030 		strb	r3, [r0, #64]
 5737 0016 CB06     		lsls	r3, r1, #27
 5738 0018 17D5     		bpl	.L1074
 5739 001a D106     		lsls	r1, r2, #27
 5740 001c 15D5     		bpl	.L1074
 5741 001e 0368     		ldr	r3, [r0]
 5742 0020 1022     		movs	r2, #16
 5743 0022 DA61     		str	r2, [r3, #28]
 5744 0024 436C     		ldr	r3, [r0, #68]
 5745 0026 43F00403 		orr	r3, r3, #4
 5746 002a 4364     		str	r3, [r0, #68]
 5747 002c FFF7FEFF 		bl	I2C_Flush_TXDR
 5748              	.L1075:
 5749 0030 AA06     		lsls	r2, r5, #26
 5750 0032 05D5     		bpl	.L1084
 5751 0034 B306     		lsls	r3, r6, #26
 5752 0036 03D5     		bpl	.L1084
 5753 0038 2946     		mov	r1, r5
 5754 003a 2046     		mov	r0, r4
 5755 003c FFF7FEFF 		bl	I2C_ITMasterCplt
 5756              	.L1084:
 5757 0040 0020     		movs	r0, #0
 5758 0042 84F84000 		strb	r0, [r4, #64]
 5759              	.L1073:
 5760 0046 02B0     		add	sp, sp, #8
 5761              		@ sp needed
 5762 0048 70BD     		pop	{r4, r5, r6, pc}
 5763              	.L1074:
 5764 004a 6A07     		lsls	r2, r5, #29
 5765 004c 12D5     		bpl	.L1076
 5766 004e 7307     		lsls	r3, r6, #29
 5767 0050 10D5     		bpl	.L1076
 5768 0052 2368     		ldr	r3, [r4]
 5769 0054 25F00405 		bic	r5, r5, #4
 5770 0058 5A6A     		ldr	r2, [r3, #36]
 5771 005a 636A     		ldr	r3, [r4, #36]
 5772 005c 1A70     		strb	r2, [r3]
 5773 005e 636A     		ldr	r3, [r4, #36]
 5774 0060 0133     		adds	r3, r3, #1
 5775              	.L1127:
 5776 0062 6362     		str	r3, [r4, #36]
 5777 0064 238D     		ldrh	r3, [r4, #40]
 5778 0066 013B     		subs	r3, r3, #1
 5779 0068 2385     		strh	r3, [r4, #40]	@ movhi
 5780 006a 638D     		ldrh	r3, [r4, #42]
 5781 006c 013B     		subs	r3, r3, #1
 5782 006e 9BB2     		uxth	r3, r3
 5783 0070 6385     		strh	r3, [r4, #42]	@ movhi
 5784 0072 DDE7     		b	.L1075
 5785              	.L1076:
 5786 0074 A807     		lsls	r0, r5, #30
 5787 0076 10D5     		bpl	.L1077
 5788 0078 B107     		lsls	r1, r6, #30
ARM GAS  /tmp/ccina73P.s 			page 100


 5789 007a 0ED5     		bpl	.L1077
 5790 007c 236D     		ldr	r3, [r4, #80]
 5791 007e 2268     		ldr	r2, [r4]
 5792 0080 0133     		adds	r3, r3, #1
 5793 0082 04D1     		bne	.L1078
 5794 0084 636A     		ldr	r3, [r4, #36]
 5795 0086 13F8011B 		ldrb	r1, [r3], #1	@ zero_extendqisi2
 5796 008a 9162     		str	r1, [r2, #40]
 5797 008c E9E7     		b	.L1127
 5798              	.L1078:
 5799 008e 236D     		ldr	r3, [r4, #80]
 5800 0090 9362     		str	r3, [r2, #40]
 5801 0092 4FF0FF33 		mov	r3, #-1
 5802 0096 2365     		str	r3, [r4, #80]
 5803 0098 CAE7     		b	.L1075
 5804              	.L1077:
 5805 009a 2A06     		lsls	r2, r5, #24
 5806 009c 1AD5     		bpl	.L1079
 5807 009e 7306     		lsls	r3, r6, #25
 5808 00a0 18D5     		bpl	.L1079
 5809 00a2 638D     		ldrh	r3, [r4, #42]
 5810 00a4 9BB2     		uxth	r3, r3
 5811 00a6 83B1     		cbz	r3, .L1080
 5812 00a8 238D     		ldrh	r3, [r4, #40]
 5813 00aa 73B9     		cbnz	r3, .L1080
 5814              	.L1130:
 5815 00ac 628D     		ldrh	r2, [r4, #42]
 5816 00ae 92B2     		uxth	r2, r2
 5817 00b0 FF2A     		cmp	r2, #255
 5818 00b2 1BD9     		bls	.L1083
 5819 00b4 FF22     		movs	r2, #255
 5820 00b6 0093     		str	r3, [sp]
 5821 00b8 E16C     		ldr	r1, [r4, #76]
 5822 00ba 4FF08073 		mov	r3, #16777216
 5823 00be 2285     		strh	r2, [r4, #40]	@ movhi
 5824              	.L1126:
 5825 00c0 89B2     		uxth	r1, r1
 5826 00c2 2046     		mov	r0, r4
 5827 00c4 FFF7FEFF 		bl	I2C_TransferConfig
 5828 00c8 B2E7     		b	.L1075
 5829              	.L1080:
 5830 00ca 4021     		movs	r1, #64
 5831 00cc 2046     		mov	r0, r4
 5832 00ce FFF7FEFF 		bl	I2C_ITError
 5833 00d2 ADE7     		b	.L1075
 5834              	.L1079:
 5835 00d4 6806     		lsls	r0, r5, #25
 5836 00d6 ABD5     		bpl	.L1075
 5837 00d8 7106     		lsls	r1, r6, #25
 5838 00da A9D5     		bpl	.L1075
 5839 00dc 94F84110 		ldrb	r1, [r4, #65]	@ zero_extendqisi2
 5840 00e0 084B     		ldr	r3, .L1131
 5841 00e2 094A     		ldr	r2, .L1131+4
 5842 00e4 2229     		cmp	r1, #34
 5843 00e6 08BF     		it	eq
 5844 00e8 1346     		moveq	r3, r2
 5845 00ea DFE7     		b	.L1130
ARM GAS  /tmp/ccina73P.s 			page 101


 5846              	.L1083:
 5847 00ec 628D     		ldrh	r2, [r4, #42]
 5848 00ee 0093     		str	r3, [sp]
 5849 00f0 4FF00073 		mov	r3, #33554432
 5850 00f4 92B2     		uxth	r2, r2
 5851 00f6 E16C     		ldr	r1, [r4, #76]
 5852 00f8 2285     		strh	r2, [r4, #40]	@ movhi
 5853 00fa D2B2     		uxtb	r2, r2
 5854 00fc E0E7     		b	.L1126
 5855              	.L1085:
 5856 00fe 0220     		movs	r0, #2
 5857 0100 A1E7     		b	.L1073
 5858              	.L1132:
 5859 0102 00BF     		.align	2
 5860              	.L1131:
 5861 0104 00200080 		.word	-2147475456
 5862 0108 00240080 		.word	-2147474432
 5864              		.section	.text.I2C_Mem_ISR_DMA,"ax",%progbits
 5865              		.align	1
 5866              		.syntax unified
 5867              		.thumb
 5868              		.thumb_func
 5869              		.fpu fpv5-sp-d16
 5871              	I2C_Mem_ISR_DMA:
 5872              		@ args = 0, pretend = 0, frame = 0
 5873              		@ frame_needed = 0, uses_anonymous_args = 0
 5874 0000 13B5     		push	{r0, r1, r4, lr}
 5875 0002 90F84030 		ldrb	r3, [r0, #64]	@ zero_extendqisi2
 5876 0006 0446     		mov	r4, r0
 5877 0008 012B     		cmp	r3, #1
 5878 000a 00F08580 		beq	.L1148
 5879 000e 0123     		movs	r3, #1
 5880 0010 80F84030 		strb	r3, [r0, #64]
 5881 0014 CB06     		lsls	r3, r1, #27
 5882 0016 12D5     		bpl	.L1135
 5883 0018 D306     		lsls	r3, r2, #27
 5884 001a 10D5     		bpl	.L1135
 5885 001c 0368     		ldr	r3, [r0]
 5886 001e 1022     		movs	r2, #16
 5887 0020 2021     		movs	r1, #32
 5888 0022 DA61     		str	r2, [r3, #28]
 5889 0024 436C     		ldr	r3, [r0, #68]
 5890 0026 43F00403 		orr	r3, r3, #4
 5891 002a 4364     		str	r3, [r0, #68]
 5892 002c FFF7FEFF 		bl	I2C_Enable_IRQ
 5893 0030 FFF7FEFF 		bl	I2C_Flush_TXDR
 5894              	.L1136:
 5895 0034 0020     		movs	r0, #0
 5896 0036 84F84000 		strb	r0, [r4, #64]
 5897              	.L1134:
 5898 003a 02B0     		add	sp, sp, #8
 5899              		@ sp needed
 5900 003c 10BD     		pop	{r4, pc}
 5901              	.L1135:
 5902 003e 8807     		lsls	r0, r1, #30
 5903 0040 08D5     		bpl	.L1137
 5904 0042 9307     		lsls	r3, r2, #30
ARM GAS  /tmp/ccina73P.s 			page 102


 5905 0044 06D5     		bpl	.L1137
 5906 0046 2368     		ldr	r3, [r4]
 5907 0048 226D     		ldr	r2, [r4, #80]
 5908 004a 9A62     		str	r2, [r3, #40]
 5909 004c 4FF0FF33 		mov	r3, #-1
 5910 0050 2365     		str	r3, [r4, #80]
 5911 0052 EFE7     		b	.L1136
 5912              	.L1137:
 5913 0054 0806     		lsls	r0, r1, #24
 5914 0056 33D5     		bpl	.L1138
 5915 0058 5306     		lsls	r3, r2, #25
 5916 005a 31D5     		bpl	.L1138
 5917 005c 1021     		movs	r1, #16
 5918 005e 2046     		mov	r0, r4
 5919 0060 FFF7FEFF 		bl	I2C_Enable_IRQ
 5920 0064 638D     		ldrh	r3, [r4, #42]
 5921 0066 9BB2     		uxth	r3, r3
 5922 0068 33B3     		cbz	r3, .L1139
 5923 006a 638D     		ldrh	r3, [r4, #42]
 5924 006c 9BB2     		uxth	r3, r3
 5925 006e FF2B     		cmp	r3, #255
 5926 0070 18D9     		bls	.L1140
 5927 0072 0023     		movs	r3, #0
 5928 0074 FF22     		movs	r2, #255
 5929 0076 E16C     		ldr	r1, [r4, #76]
 5930 0078 0093     		str	r3, [sp]
 5931 007a 4FF08073 		mov	r3, #16777216
 5932 007e 2285     		strh	r2, [r4, #40]	@ movhi
 5933              	.L1180:
 5934 0080 89B2     		uxth	r1, r1
 5935              	.L1185:
 5936 0082 FFF7FEFF 		bl	I2C_TransferConfig
 5937 0086 638D     		ldrh	r3, [r4, #42]
 5938 0088 228D     		ldrh	r2, [r4, #40]
 5939 008a 9B1A     		subs	r3, r3, r2
 5940 008c 9BB2     		uxth	r3, r3
 5941 008e 6385     		strh	r3, [r4, #42]	@ movhi
 5942 0090 94F84120 		ldrb	r2, [r4, #65]	@ zero_extendqisi2
 5943 0094 2368     		ldr	r3, [r4]
 5944 0096 222A     		cmp	r2, #34
 5945 0098 1A68     		ldr	r2, [r3]
 5946 009a 32D1     		bne	.L1147
 5947 009c 42F40042 		orr	r2, r2, #32768
 5948              	.L1182:
 5949 00a0 1A60     		str	r2, [r3]
 5950 00a2 C7E7     		b	.L1136
 5951              	.L1140:
 5952 00a4 628D     		ldrh	r2, [r4, #42]
 5953 00a6 0023     		movs	r3, #0
 5954 00a8 E16C     		ldr	r1, [r4, #76]
 5955 00aa 92B2     		uxth	r2, r2
 5956 00ac 0093     		str	r3, [sp]
 5957 00ae 4FF00073 		mov	r3, #33554432
 5958 00b2 2285     		strh	r2, [r4, #40]	@ movhi
 5959 00b4 D2B2     		uxtb	r2, r2
 5960 00b6 E3E7     		b	.L1180
 5961              	.L1139:
ARM GAS  /tmp/ccina73P.s 			page 103


 5962 00b8 4021     		movs	r1, #64
 5963 00ba FFF7FEFF 		bl	I2C_ITError
 5964 00be B9E7     		b	.L1136
 5965              	.L1138:
 5966 00c0 4806     		lsls	r0, r1, #25
 5967 00c2 21D5     		bpl	.L1143
 5968 00c4 5306     		lsls	r3, r2, #25
 5969 00c6 1FD5     		bpl	.L1143
 5970 00c8 94F84110 		ldrb	r1, [r4, #65]	@ zero_extendqisi2
 5971 00cc 134A     		ldr	r2, .L1186
 5972 00ce 144B     		ldr	r3, .L1186+4
 5973 00d0 2229     		cmp	r1, #34
 5974 00d2 08BF     		it	eq
 5975 00d4 1346     		moveq	r3, r2
 5976 00d6 628D     		ldrh	r2, [r4, #42]
 5977 00d8 92B2     		uxth	r2, r2
 5978 00da FF2A     		cmp	r2, #255
 5979 00dc 08D9     		bls	.L1145
 5980 00de FF22     		movs	r2, #255
 5981 00e0 0093     		str	r3, [sp]
 5982 00e2 E16C     		ldr	r1, [r4, #76]
 5983 00e4 4FF08073 		mov	r3, #16777216
 5984 00e8 2285     		strh	r2, [r4, #40]	@ movhi
 5985              	.L1181:
 5986 00ea 89B2     		uxth	r1, r1
 5987 00ec 2046     		mov	r0, r4
 5988 00ee C8E7     		b	.L1185
 5989              	.L1145:
 5990 00f0 628D     		ldrh	r2, [r4, #42]
 5991 00f2 0093     		str	r3, [sp]
 5992 00f4 4FF00073 		mov	r3, #33554432
 5993 00f8 92B2     		uxth	r2, r2
 5994 00fa E16C     		ldr	r1, [r4, #76]
 5995 00fc 2285     		strh	r2, [r4, #40]	@ movhi
 5996 00fe D2B2     		uxtb	r2, r2
 5997 0100 F3E7     		b	.L1181
 5998              	.L1147:
 5999 0102 42F48042 		orr	r2, r2, #16384
 6000 0106 CBE7     		b	.L1182
 6001              	.L1143:
 6002 0108 8806     		lsls	r0, r1, #26
 6003 010a 93D5     		bpl	.L1136
 6004 010c 9306     		lsls	r3, r2, #26
 6005 010e 91D5     		bpl	.L1136
 6006 0110 2046     		mov	r0, r4
 6007 0112 FFF7FEFF 		bl	I2C_ITMasterCplt
 6008 0116 8DE7     		b	.L1136
 6009              	.L1148:
 6010 0118 0220     		movs	r0, #2
 6011 011a 8EE7     		b	.L1134
 6012              	.L1187:
 6013              		.align	2
 6014              	.L1186:
 6015 011c 00240080 		.word	-2147474432
 6016 0120 00200080 		.word	-2147475456
 6018              		.section	.text.HAL_I2C_ER_IRQHandler,"ax",%progbits
 6019              		.align	1
ARM GAS  /tmp/ccina73P.s 			page 104


 6020              		.global	HAL_I2C_ER_IRQHandler
 6021              		.syntax unified
 6022              		.thumb
 6023              		.thumb_func
 6024              		.fpu fpv5-sp-d16
 6026              	HAL_I2C_ER_IRQHandler:
 6027              		@ args = 0, pretend = 0, frame = 0
 6028              		@ frame_needed = 0, uses_anonymous_args = 0
 6029              		@ link register save eliminated.
 6030 0000 0368     		ldr	r3, [r0]
 6031 0002 9969     		ldr	r1, [r3, #24]
 6032 0004 1A68     		ldr	r2, [r3]
 6033 0006 10B4     		push	{r4}
 6034 0008 CC05     		lsls	r4, r1, #23
 6035 000a 08D5     		bpl	.L1189
 6036 000c 1406     		lsls	r4, r2, #24
 6037 000e 06D5     		bpl	.L1189
 6038 0010 446C     		ldr	r4, [r0, #68]
 6039 0012 44F00104 		orr	r4, r4, #1
 6040 0016 4464     		str	r4, [r0, #68]
 6041 0018 4FF48074 		mov	r4, #256
 6042 001c DC61     		str	r4, [r3, #28]
 6043              	.L1189:
 6044 001e 4C05     		lsls	r4, r1, #21
 6045 0020 08D5     		bpl	.L1190
 6046 0022 1406     		lsls	r4, r2, #24
 6047 0024 06D5     		bpl	.L1190
 6048 0026 446C     		ldr	r4, [r0, #68]
 6049 0028 44F00804 		orr	r4, r4, #8
 6050 002c 4464     		str	r4, [r0, #68]
 6051 002e 4FF48064 		mov	r4, #1024
 6052 0032 DC61     		str	r4, [r3, #28]
 6053              	.L1190:
 6054 0034 8905     		lsls	r1, r1, #22
 6055 0036 08D5     		bpl	.L1191
 6056 0038 1206     		lsls	r2, r2, #24
 6057 003a 06D5     		bpl	.L1191
 6058 003c 426C     		ldr	r2, [r0, #68]
 6059 003e 42F00202 		orr	r2, r2, #2
 6060 0042 4264     		str	r2, [r0, #68]
 6061 0044 4FF40072 		mov	r2, #512
 6062 0048 DA61     		str	r2, [r3, #28]
 6063              	.L1191:
 6064 004a 416C     		ldr	r1, [r0, #68]
 6065 004c 11F00B0F 		tst	r1, #11
 6066 0050 03D0     		beq	.L1188
 6067 0052 5DF8044B 		ldr	r4, [sp], #4
 6068 0056 FFF7FEBF 		b	I2C_ITError
 6069              	.L1188:
 6070 005a 5DF8044B 		ldr	r4, [sp], #4
 6071 005e 7047     		bx	lr
 6073              		.section	.text.I2C_DMAAbort,"ax",%progbits
 6074              		.align	1
 6075              		.syntax unified
 6076              		.thumb
 6077              		.thumb_func
 6078              		.fpu fpv5-sp-d16
ARM GAS  /tmp/ccina73P.s 			page 105


 6080              	I2C_DMAAbort:
 6081              		@ args = 0, pretend = 0, frame = 0
 6082              		@ frame_needed = 0, uses_anonymous_args = 0
 6083              		@ link register save eliminated.
 6084 0000 806B     		ldr	r0, [r0, #56]
 6085 0002 836B     		ldr	r3, [r0, #56]
 6086 0004 0BB1     		cbz	r3, .L1212
 6087 0006 0022     		movs	r2, #0
 6088 0008 1A65     		str	r2, [r3, #80]
 6089              	.L1212:
 6090 000a C36B     		ldr	r3, [r0, #60]
 6091 000c 0BB1     		cbz	r3, .L1213
 6092 000e 0022     		movs	r2, #0
 6093 0010 1A65     		str	r2, [r3, #80]
 6094              	.L1213:
 6095 0012 FFF7FEBF 		b	I2C_TreatErrorCallback
 6097              		.section	.text.HAL_I2C_GetState,"ax",%progbits
 6098              		.align	1
 6099              		.global	HAL_I2C_GetState
 6100              		.syntax unified
 6101              		.thumb
 6102              		.thumb_func
 6103              		.fpu fpv5-sp-d16
 6105              	HAL_I2C_GetState:
 6106              		@ args = 0, pretend = 0, frame = 0
 6107              		@ frame_needed = 0, uses_anonymous_args = 0
 6108              		@ link register save eliminated.
 6109 0000 90F84100 		ldrb	r0, [r0, #65]	@ zero_extendqisi2
 6110 0004 7047     		bx	lr
 6112              		.section	.text.HAL_I2C_GetMode,"ax",%progbits
 6113              		.align	1
 6114              		.global	HAL_I2C_GetMode
 6115              		.syntax unified
 6116              		.thumb
 6117              		.thumb_func
 6118              		.fpu fpv5-sp-d16
 6120              	HAL_I2C_GetMode:
 6121              		@ args = 0, pretend = 0, frame = 0
 6122              		@ frame_needed = 0, uses_anonymous_args = 0
 6123              		@ link register save eliminated.
 6124 0000 90F84200 		ldrb	r0, [r0, #66]	@ zero_extendqisi2
 6125 0004 7047     		bx	lr
 6127              		.section	.text.HAL_I2C_GetError,"ax",%progbits
 6128              		.align	1
 6129              		.global	HAL_I2C_GetError
 6130              		.syntax unified
 6131              		.thumb
 6132              		.thumb_func
 6133              		.fpu fpv5-sp-d16
 6135              	HAL_I2C_GetError:
 6136              		@ args = 0, pretend = 0, frame = 0
 6137              		@ frame_needed = 0, uses_anonymous_args = 0
 6138              		@ link register save eliminated.
 6139 0000 406C     		ldr	r0, [r0, #68]
 6140 0002 7047     		bx	lr
 6142              		.ident	"GCC: (15:10.3-2021.07-4) 10.3.1 20210621 (release)"
ARM GAS  /tmp/ccina73P.s 			page 106


DEFINED SYMBOLS
                            *ABS*:0000000000000000 stm32f7xx_hal_i2c.c
     /tmp/ccina73P.s:15     .text.I2C_Flush_TXDR:0000000000000000 $t
     /tmp/ccina73P.s:22     .text.I2C_Flush_TXDR:0000000000000000 I2C_Flush_TXDR
     /tmp/ccina73P.s:43     .text.I2C_TransferConfig:0000000000000000 $t
     /tmp/ccina73P.s:49     .text.I2C_TransferConfig:0000000000000000 I2C_TransferConfig
     /tmp/ccina73P.s:70     .text.I2C_TransferConfig:0000000000000028 $d
     /tmp/ccina73P.s:73     .text.I2C_Enable_IRQ:0000000000000000 $t
     /tmp/ccina73P.s:79     .text.I2C_Enable_IRQ:0000000000000000 I2C_Enable_IRQ
     /tmp/ccina73P.s:141    .text.I2C_Enable_IRQ:000000000000006c $d
     /tmp/ccina73P.s:5445   .text.I2C_Master_ISR_DMA:0000000000000000 I2C_Master_ISR_DMA
     /tmp/ccina73P.s:5320   .text.I2C_Slave_ISR_DMA:0000000000000000 I2C_Slave_ISR_DMA
     /tmp/ccina73P.s:145    .text.I2C_Disable_IRQ:0000000000000000 $t
     /tmp/ccina73P.s:151    .text.I2C_Disable_IRQ:0000000000000000 I2C_Disable_IRQ
     /tmp/ccina73P.s:183    .text.I2C_IsErrorOccurred:0000000000000000 $t
     /tmp/ccina73P.s:189    .text.I2C_IsErrorOccurred:0000000000000000 I2C_IsErrorOccurred
     /tmp/ccina73P.s:311    .text.I2C_WaitOnTXISFlagUntilTimeout:0000000000000000 $t
     /tmp/ccina73P.s:317    .text.I2C_WaitOnTXISFlagUntilTimeout:0000000000000000 I2C_WaitOnTXISFlagUntilTimeout
     /tmp/ccina73P.s:360    .text.I2C_WaitOnRXNEFlagUntilTimeout:0000000000000000 $t
     /tmp/ccina73P.s:366    .text.I2C_WaitOnRXNEFlagUntilTimeout:0000000000000000 I2C_WaitOnRXNEFlagUntilTimeout
     /tmp/ccina73P.s:438    .text.I2C_ConvertOtherXferOptions:0000000000000000 $t
     /tmp/ccina73P.s:444    .text.I2C_ConvertOtherXferOptions:0000000000000000 I2C_ConvertOtherXferOptions
     /tmp/ccina73P.s:464    .text.I2C_WaitOnFlagUntilTimeout:0000000000000000 $t
     /tmp/ccina73P.s:470    .text.I2C_WaitOnFlagUntilTimeout:0000000000000000 I2C_WaitOnFlagUntilTimeout
     /tmp/ccina73P.s:514    .text.I2C_WaitOnSTOPFlagUntilTimeout:0000000000000000 $t
     /tmp/ccina73P.s:520    .text.I2C_WaitOnSTOPFlagUntilTimeout:0000000000000000 I2C_WaitOnSTOPFlagUntilTimeout
     /tmp/ccina73P.s:561    .text.HAL_I2C_MspInit:0000000000000000 $t
     /tmp/ccina73P.s:568    .text.HAL_I2C_MspInit:0000000000000000 HAL_I2C_MspInit
     /tmp/ccina73P.s:575    .text.HAL_I2C_Init:0000000000000000 $t
     /tmp/ccina73P.s:582    .text.HAL_I2C_Init:0000000000000000 HAL_I2C_Init
     /tmp/ccina73P.s:652    .text.HAL_I2C_MspDeInit:0000000000000000 $t
     /tmp/ccina73P.s:659    .text.HAL_I2C_MspDeInit:0000000000000000 HAL_I2C_MspDeInit
     /tmp/ccina73P.s:666    .text.HAL_I2C_DeInit:0000000000000000 $t
     /tmp/ccina73P.s:673    .text.HAL_I2C_DeInit:0000000000000000 HAL_I2C_DeInit
     /tmp/ccina73P.s:699    .text.HAL_I2C_Master_Transmit:0000000000000000 $t
     /tmp/ccina73P.s:706    .text.HAL_I2C_Master_Transmit:0000000000000000 HAL_I2C_Master_Transmit
     /tmp/ccina73P.s:843    .text.HAL_I2C_Master_Transmit:0000000000000128 $d
     /tmp/ccina73P.s:846    .text.HAL_I2C_Master_Receive:0000000000000000 $t
     /tmp/ccina73P.s:853    .text.HAL_I2C_Master_Receive:0000000000000000 HAL_I2C_Master_Receive
     /tmp/ccina73P.s:992    .text.HAL_I2C_Master_Receive:000000000000012c $d
     /tmp/ccina73P.s:995    .text.HAL_I2C_Slave_Transmit:0000000000000000 $t
     /tmp/ccina73P.s:1002   .text.HAL_I2C_Slave_Transmit:0000000000000000 HAL_I2C_Slave_Transmit
     /tmp/ccina73P.s:1151   .text.HAL_I2C_Slave_Receive:0000000000000000 $t
     /tmp/ccina73P.s:1158   .text.HAL_I2C_Slave_Receive:0000000000000000 HAL_I2C_Slave_Receive
     /tmp/ccina73P.s:1304   .text.HAL_I2C_Master_Transmit_IT:0000000000000000 $t
     /tmp/ccina73P.s:1311   .text.HAL_I2C_Master_Transmit_IT:0000000000000000 HAL_I2C_Master_Transmit_IT
     /tmp/ccina73P.s:1373   .text.HAL_I2C_Master_Transmit_IT:000000000000007c $d
     /tmp/ccina73P.s:5166   .text.I2C_Master_ISR_IT:0000000000000000 I2C_Master_ISR_IT
     /tmp/ccina73P.s:1378   .text.HAL_I2C_Master_Receive_IT:0000000000000000 $t
     /tmp/ccina73P.s:1385   .text.HAL_I2C_Master_Receive_IT:0000000000000000 HAL_I2C_Master_Receive_IT
     /tmp/ccina73P.s:1447   .text.HAL_I2C_Master_Receive_IT:000000000000007c $d
     /tmp/ccina73P.s:1452   .text.HAL_I2C_Slave_Transmit_IT:0000000000000000 $t
     /tmp/ccina73P.s:1459   .text.HAL_I2C_Slave_Transmit_IT:0000000000000000 HAL_I2C_Slave_Transmit_IT
     /tmp/ccina73P.s:1499   .text.HAL_I2C_Slave_Transmit_IT:0000000000000050 $d
     /tmp/ccina73P.s:4910   .text.I2C_Slave_ISR_IT:0000000000000000 I2C_Slave_ISR_IT
     /tmp/ccina73P.s:1503   .text.HAL_I2C_Slave_Receive_IT:0000000000000000 $t
     /tmp/ccina73P.s:1510   .text.HAL_I2C_Slave_Receive_IT:0000000000000000 HAL_I2C_Slave_Receive_IT
ARM GAS  /tmp/ccina73P.s 			page 107


     /tmp/ccina73P.s:1550   .text.HAL_I2C_Slave_Receive_IT:0000000000000050 $d
     /tmp/ccina73P.s:1554   .text.HAL_I2C_Master_Transmit_DMA:0000000000000000 $t
     /tmp/ccina73P.s:1561   .text.HAL_I2C_Master_Transmit_DMA:0000000000000000 HAL_I2C_Master_Transmit_DMA
     /tmp/ccina73P.s:1686   .text.HAL_I2C_Master_Transmit_DMA:0000000000000114 $d
     /tmp/ccina73P.s:5621   .text.I2C_DMAMasterTransmitCplt:0000000000000000 I2C_DMAMasterTransmitCplt
     /tmp/ccina73P.s:5579   .text.I2C_DMAError:0000000000000000 I2C_DMAError
     /tmp/ccina73P.s:1694   .text.HAL_I2C_Master_Receive_DMA:0000000000000000 $t
     /tmp/ccina73P.s:1701   .text.HAL_I2C_Master_Receive_DMA:0000000000000000 HAL_I2C_Master_Receive_DMA
     /tmp/ccina73P.s:1825   .text.HAL_I2C_Master_Receive_DMA:0000000000000114 $d
     /tmp/ccina73P.s:5673   .text.I2C_DMAMasterReceiveCplt:0000000000000000 I2C_DMAMasterReceiveCplt
     /tmp/ccina73P.s:1833   .text.HAL_I2C_Slave_Transmit_DMA:0000000000000000 $t
     /tmp/ccina73P.s:1840   .text.HAL_I2C_Slave_Transmit_DMA:0000000000000000 HAL_I2C_Slave_Transmit_DMA
     /tmp/ccina73P.s:1929   .text.HAL_I2C_Slave_Transmit_DMA:00000000000000c0 $d
     /tmp/ccina73P.s:4370   .text.I2C_DMASlaveTransmitCplt:0000000000000000 I2C_DMASlaveTransmitCplt
     /tmp/ccina73P.s:1935   .text.HAL_I2C_Slave_Receive_DMA:0000000000000000 $t
     /tmp/ccina73P.s:1942   .text.HAL_I2C_Slave_Receive_DMA:0000000000000000 HAL_I2C_Slave_Receive_DMA
     /tmp/ccina73P.s:2032   .text.HAL_I2C_Slave_Receive_DMA:00000000000000c4 $d
     /tmp/ccina73P.s:4393   .text.I2C_DMASlaveReceiveCplt:0000000000000000 I2C_DMASlaveReceiveCplt
     /tmp/ccina73P.s:2038   .text.HAL_I2C_Mem_Write:0000000000000000 $t
     /tmp/ccina73P.s:2045   .text.HAL_I2C_Mem_Write:0000000000000000 HAL_I2C_Mem_Write
     /tmp/ccina73P.s:2236   .text.HAL_I2C_Mem_Write:00000000000001b0 $d
     /tmp/ccina73P.s:2239   .text.HAL_I2C_Mem_Read:0000000000000000 $t
     /tmp/ccina73P.s:2246   .text.HAL_I2C_Mem_Read:0000000000000000 HAL_I2C_Mem_Read
     /tmp/ccina73P.s:2442   .text.HAL_I2C_Mem_Read:00000000000001b4 $d
     /tmp/ccina73P.s:2446   .text.HAL_I2C_Mem_Write_IT:0000000000000000 $t
     /tmp/ccina73P.s:2453   .text.HAL_I2C_Mem_Write_IT:0000000000000000 HAL_I2C_Mem_Write_IT
     /tmp/ccina73P.s:2526   .text.HAL_I2C_Mem_Write_IT:000000000000009c $d
     /tmp/ccina73P.s:5725   .text.I2C_Mem_ISR_IT:0000000000000000 I2C_Mem_ISR_IT
     /tmp/ccina73P.s:2531   .text.HAL_I2C_Mem_Read_IT:0000000000000000 $t
     /tmp/ccina73P.s:2538   .text.HAL_I2C_Mem_Read_IT:0000000000000000 HAL_I2C_Mem_Read_IT
     /tmp/ccina73P.s:2611   .text.HAL_I2C_Mem_Read_IT:0000000000000098 $d
     /tmp/ccina73P.s:2616   .text.HAL_I2C_Mem_Write_DMA:0000000000000000 $t
     /tmp/ccina73P.s:2623   .text.HAL_I2C_Mem_Write_DMA:0000000000000000 HAL_I2C_Mem_Write_DMA
     /tmp/ccina73P.s:2741   .text.HAL_I2C_Mem_Write_DMA:0000000000000108 $d
     /tmp/ccina73P.s:5871   .text.I2C_Mem_ISR_DMA:0000000000000000 I2C_Mem_ISR_DMA
     /tmp/ccina73P.s:2748   .text.HAL_I2C_Mem_Read_DMA:0000000000000000 $t
     /tmp/ccina73P.s:2755   .text.HAL_I2C_Mem_Read_DMA:0000000000000000 HAL_I2C_Mem_Read_DMA
     /tmp/ccina73P.s:2874   .text.HAL_I2C_Mem_Read_DMA:000000000000010c $d
     /tmp/ccina73P.s:2881   .text.HAL_I2C_IsDeviceReady:0000000000000000 $t
     /tmp/ccina73P.s:2888   .text.HAL_I2C_IsDeviceReady:0000000000000000 HAL_I2C_IsDeviceReady
     /tmp/ccina73P.s:3022   .text.HAL_I2C_Master_Seq_Transmit_IT:0000000000000000 $t
     /tmp/ccina73P.s:3029   .text.HAL_I2C_Master_Seq_Transmit_IT:0000000000000000 HAL_I2C_Master_Seq_Transmit_IT
     /tmp/ccina73P.s:3109   .text.HAL_I2C_Master_Seq_Transmit_IT:000000000000009c $d
     /tmp/ccina73P.s:3113   .text.HAL_I2C_Master_Seq_Transmit_DMA:0000000000000000 $t
     /tmp/ccina73P.s:3120   .text.HAL_I2C_Master_Seq_Transmit_DMA:0000000000000000 HAL_I2C_Master_Seq_Transmit_DMA
     /tmp/ccina73P.s:3264   .text.HAL_I2C_Master_Seq_Transmit_DMA:0000000000000140 $d
     /tmp/ccina73P.s:3271   .text.HAL_I2C_Master_Seq_Receive_IT:0000000000000000 $t
     /tmp/ccina73P.s:3278   .text.HAL_I2C_Master_Seq_Receive_IT:0000000000000000 HAL_I2C_Master_Seq_Receive_IT
     /tmp/ccina73P.s:3358   .text.HAL_I2C_Master_Seq_Receive_IT:000000000000009c $d
     /tmp/ccina73P.s:3362   .text.HAL_I2C_Master_Seq_Receive_DMA:0000000000000000 $t
     /tmp/ccina73P.s:3369   .text.HAL_I2C_Master_Seq_Receive_DMA:0000000000000000 HAL_I2C_Master_Seq_Receive_DMA
     /tmp/ccina73P.s:3512   .text.HAL_I2C_Master_Seq_Receive_DMA:0000000000000140 $d
     /tmp/ccina73P.s:3519   .text.HAL_I2C_Slave_Seq_Transmit_IT:0000000000000000 $t
     /tmp/ccina73P.s:3526   .text.HAL_I2C_Slave_Seq_Transmit_IT:0000000000000000 HAL_I2C_Slave_Seq_Transmit_IT
     /tmp/ccina73P.s:3616   .text.HAL_I2C_Slave_Seq_Transmit_IT:00000000000000bc $d
     /tmp/ccina73P.s:6080   .text.I2C_DMAAbort:0000000000000000 I2C_DMAAbort
     /tmp/ccina73P.s:3620   .text.HAL_I2C_Slave_Seq_Transmit_DMA:0000000000000000 $t
ARM GAS  /tmp/ccina73P.s 			page 108


     /tmp/ccina73P.s:3627   .text.HAL_I2C_Slave_Seq_Transmit_DMA:0000000000000000 HAL_I2C_Slave_Seq_Transmit_DMA
     /tmp/ccina73P.s:3784   .text.HAL_I2C_Slave_Seq_Transmit_DMA:000000000000015c $d
     /tmp/ccina73P.s:3790   .text.HAL_I2C_Slave_Seq_Receive_IT:0000000000000000 $t
     /tmp/ccina73P.s:3797   .text.HAL_I2C_Slave_Seq_Receive_IT:0000000000000000 HAL_I2C_Slave_Seq_Receive_IT
     /tmp/ccina73P.s:3886   .text.HAL_I2C_Slave_Seq_Receive_IT:00000000000000bc $d
     /tmp/ccina73P.s:3890   .text.HAL_I2C_Slave_Seq_Receive_DMA:0000000000000000 $t
     /tmp/ccina73P.s:3897   .text.HAL_I2C_Slave_Seq_Receive_DMA:0000000000000000 HAL_I2C_Slave_Seq_Receive_DMA
     /tmp/ccina73P.s:4053   .text.HAL_I2C_Slave_Seq_Receive_DMA:0000000000000158 $d
     /tmp/ccina73P.s:4059   .text.HAL_I2C_EnableListen_IT:0000000000000000 $t
     /tmp/ccina73P.s:4066   .text.HAL_I2C_EnableListen_IT:0000000000000000 HAL_I2C_EnableListen_IT
     /tmp/ccina73P.s:4088   .text.HAL_I2C_EnableListen_IT:0000000000000024 $d
     /tmp/ccina73P.s:4091   .text.HAL_I2C_DisableListen_IT:0000000000000000 $t
     /tmp/ccina73P.s:4098   .text.HAL_I2C_DisableListen_IT:0000000000000000 HAL_I2C_DisableListen_IT
     /tmp/ccina73P.s:4125   .text.HAL_I2C_Master_Abort_IT:0000000000000000 $t
     /tmp/ccina73P.s:4132   .text.HAL_I2C_Master_Abort_IT:0000000000000000 HAL_I2C_Master_Abort_IT
     /tmp/ccina73P.s:4190   .text.HAL_I2C_Master_Abort_IT:0000000000000074 $d
     /tmp/ccina73P.s:4193   .text.HAL_I2C_EV_IRQHandler:0000000000000000 $t
     /tmp/ccina73P.s:4200   .text.HAL_I2C_EV_IRQHandler:0000000000000000 HAL_I2C_EV_IRQHandler
     /tmp/ccina73P.s:4214   .text.HAL_I2C_MasterTxCpltCallback:0000000000000000 $t
     /tmp/ccina73P.s:4221   .text.HAL_I2C_MasterTxCpltCallback:0000000000000000 HAL_I2C_MasterTxCpltCallback
     /tmp/ccina73P.s:4228   .text.HAL_I2C_MasterRxCpltCallback:0000000000000000 $t
     /tmp/ccina73P.s:4235   .text.HAL_I2C_MasterRxCpltCallback:0000000000000000 HAL_I2C_MasterRxCpltCallback
     /tmp/ccina73P.s:4242   .text.I2C_ITMasterSeqCplt:0000000000000000 $t
     /tmp/ccina73P.s:4248   .text.I2C_ITMasterSeqCplt:0000000000000000 I2C_ITMasterSeqCplt
     /tmp/ccina73P.s:4279   .text.HAL_I2C_SlaveTxCpltCallback:0000000000000000 $t
     /tmp/ccina73P.s:4286   .text.HAL_I2C_SlaveTxCpltCallback:0000000000000000 HAL_I2C_SlaveTxCpltCallback
     /tmp/ccina73P.s:4293   .text.HAL_I2C_SlaveRxCpltCallback:0000000000000000 $t
     /tmp/ccina73P.s:4300   .text.HAL_I2C_SlaveRxCpltCallback:0000000000000000 HAL_I2C_SlaveRxCpltCallback
     /tmp/ccina73P.s:4307   .text.I2C_ITSlaveSeqCplt:0000000000000000 $t
     /tmp/ccina73P.s:4313   .text.I2C_ITSlaveSeqCplt:0000000000000000 I2C_ITSlaveSeqCplt
     /tmp/ccina73P.s:4364   .text.I2C_DMASlaveTransmitCplt:0000000000000000 $t
     /tmp/ccina73P.s:4387   .text.I2C_DMASlaveReceiveCplt:0000000000000000 $t
     /tmp/ccina73P.s:4414   .text.HAL_I2C_AddrCallback:0000000000000000 $t
     /tmp/ccina73P.s:4421   .text.HAL_I2C_AddrCallback:0000000000000000 HAL_I2C_AddrCallback
     /tmp/ccina73P.s:4428   .text.I2C_ITAddrCplt.constprop.0:0000000000000000 $t
     /tmp/ccina73P.s:4434   .text.I2C_ITAddrCplt.constprop.0:0000000000000000 I2C_ITAddrCplt.constprop.0
     /tmp/ccina73P.s:4494   .text.HAL_I2C_ListenCpltCallback:0000000000000000 $t
     /tmp/ccina73P.s:4501   .text.HAL_I2C_ListenCpltCallback:0000000000000000 HAL_I2C_ListenCpltCallback
     /tmp/ccina73P.s:4508   .text.I2C_ITListenCplt:0000000000000000 $t
     /tmp/ccina73P.s:4514   .text.I2C_ITListenCplt:0000000000000000 I2C_ITListenCplt
     /tmp/ccina73P.s:4559   .text.I2C_ITListenCplt:000000000000005c $d
     /tmp/ccina73P.s:4562   .text.HAL_I2C_MemTxCpltCallback:0000000000000000 $t
     /tmp/ccina73P.s:4569   .text.HAL_I2C_MemTxCpltCallback:0000000000000000 HAL_I2C_MemTxCpltCallback
     /tmp/ccina73P.s:4576   .text.HAL_I2C_MemRxCpltCallback:0000000000000000 $t
     /tmp/ccina73P.s:4583   .text.HAL_I2C_MemRxCpltCallback:0000000000000000 HAL_I2C_MemRxCpltCallback
     /tmp/ccina73P.s:4590   .text.HAL_I2C_ErrorCallback:0000000000000000 $t
     /tmp/ccina73P.s:4597   .text.HAL_I2C_ErrorCallback:0000000000000000 HAL_I2C_ErrorCallback
     /tmp/ccina73P.s:4604   .text.HAL_I2C_AbortCpltCallback:0000000000000000 $t
     /tmp/ccina73P.s:4611   .text.HAL_I2C_AbortCpltCallback:0000000000000000 HAL_I2C_AbortCpltCallback
     /tmp/ccina73P.s:4618   .text.I2C_TreatErrorCallback:0000000000000000 $t
     /tmp/ccina73P.s:4624   .text.I2C_TreatErrorCallback:0000000000000000 I2C_TreatErrorCallback
     /tmp/ccina73P.s:4646   .text.I2C_ITError:0000000000000000 $t
     /tmp/ccina73P.s:4652   .text.I2C_ITError:0000000000000000 I2C_ITError
     /tmp/ccina73P.s:4757   .text.I2C_ITError:00000000000000d8 $d
     /tmp/ccina73P.s:4762   .text.I2C_ITSlaveCplt:0000000000000000 $t
     /tmp/ccina73P.s:4768   .text.I2C_ITSlaveCplt:0000000000000000 I2C_ITSlaveCplt
     /tmp/ccina73P.s:4901   .text.I2C_ITSlaveCplt:0000000000000124 $d
ARM GAS  /tmp/ccina73P.s 			page 109


     /tmp/ccina73P.s:4904   .text.I2C_Slave_ISR_IT:0000000000000000 $t
     /tmp/ccina73P.s:5046   .text.I2C_ITMasterCplt:0000000000000000 $t
     /tmp/ccina73P.s:5052   .text.I2C_ITMasterCplt:0000000000000000 I2C_ITMasterCplt
     /tmp/ccina73P.s:5160   .text.I2C_Master_ISR_IT:0000000000000000 $t
     /tmp/ccina73P.s:5314   .text.I2C_Slave_ISR_DMA:0000000000000000 $t
     /tmp/ccina73P.s:5439   .text.I2C_Master_ISR_DMA:0000000000000000 $t
     /tmp/ccina73P.s:5573   .text.I2C_DMAError:0000000000000000 $t
     /tmp/ccina73P.s:5615   .text.I2C_DMAMasterTransmitCplt:0000000000000000 $t
     /tmp/ccina73P.s:5667   .text.I2C_DMAMasterReceiveCplt:0000000000000000 $t
     /tmp/ccina73P.s:5719   .text.I2C_Mem_ISR_IT:0000000000000000 $t
     /tmp/ccina73P.s:5861   .text.I2C_Mem_ISR_IT:0000000000000104 $d
     /tmp/ccina73P.s:5865   .text.I2C_Mem_ISR_DMA:0000000000000000 $t
     /tmp/ccina73P.s:6015   .text.I2C_Mem_ISR_DMA:000000000000011c $d
     /tmp/ccina73P.s:6019   .text.HAL_I2C_ER_IRQHandler:0000000000000000 $t
     /tmp/ccina73P.s:6026   .text.HAL_I2C_ER_IRQHandler:0000000000000000 HAL_I2C_ER_IRQHandler
     /tmp/ccina73P.s:6074   .text.I2C_DMAAbort:0000000000000000 $t
     /tmp/ccina73P.s:6098   .text.HAL_I2C_GetState:0000000000000000 $t
     /tmp/ccina73P.s:6105   .text.HAL_I2C_GetState:0000000000000000 HAL_I2C_GetState
     /tmp/ccina73P.s:6113   .text.HAL_I2C_GetMode:0000000000000000 $t
     /tmp/ccina73P.s:6120   .text.HAL_I2C_GetMode:0000000000000000 HAL_I2C_GetMode
     /tmp/ccina73P.s:6128   .text.HAL_I2C_GetError:0000000000000000 $t
     /tmp/ccina73P.s:6135   .text.HAL_I2C_GetError:0000000000000000 HAL_I2C_GetError

UNDEFINED SYMBOLS
HAL_GetTick
HAL_DMA_Start_IT
HAL_DMA_Abort_IT
HAL_DMA_GetState
HAL_DMA_GetError
