ARM GAS  /tmp/ccAEwYvH.s 			page 1


   1              		.cpu cortex-m7
   2              		.eabi_attribute 27, 1
   3              		.eabi_attribute 20, 1
   4              		.eabi_attribute 21, 1
   5              		.eabi_attribute 23, 3
   6              		.eabi_attribute 24, 1
   7              		.eabi_attribute 25, 1
   8              		.eabi_attribute 26, 1
   9              		.eabi_attribute 30, 4
  10              		.eabi_attribute 34, 1
  11              		.eabi_attribute 18, 4
  12              		.file	"stm32f7xx_hal_uart.c"
  13              		.text
  14              		.section	.text.UART_EndRxTransfer,"ax",%progbits
  15              		.align	1
  16              		.arch armv7e-m
  17              		.syntax unified
  18              		.thumb
  19              		.thumb_func
  20              		.fpu fpv5-sp-d16
  22              	UART_EndRxTransfer:
  23              		@ args = 0, pretend = 0, frame = 0
  24              		@ frame_needed = 0, uses_anonymous_args = 0
  25              		@ link register save eliminated.
  26              	.L2:
  27 0000 0268     		ldr	r2, [r0]
  28              		.syntax unified
  29              	@ 1072 "Drivers/CMSIS/Include/cmsis_gcc.h" 1
  30 0002 52E8003F 		ldrex r3, [r2]
  31              	@ 0 "" 2
  32              		.thumb
  33              		.syntax unified
  34 0006 23F49073 		bic	r3, r3, #288
  35              		.syntax unified
  36              	@ 1123 "Drivers/CMSIS/Include/cmsis_gcc.h" 1
  37 000a 42E80031 		strex r1, r3, [r2]
  38              	@ 0 "" 2
  39              		.thumb
  40              		.syntax unified
  41 000e 0268     		ldr	r2, [r0]
  42 0010 0029     		cmp	r1, #0
  43 0012 F5D1     		bne	.L2
  44              	.L3:
  45 0014 02F10803 		add	r3, r2, #8
  46              		.syntax unified
  47              	@ 1072 "Drivers/CMSIS/Include/cmsis_gcc.h" 1
  48 0018 53E8003F 		ldrex r3, [r3]
  49              	@ 0 "" 2
  50              		.thumb
  51              		.syntax unified
  52 001c 23F00103 		bic	r3, r3, #1
  53 0020 02F1080C 		add	ip, r2, #8
  54              		.syntax unified
  55              	@ 1123 "Drivers/CMSIS/Include/cmsis_gcc.h" 1
  56 0024 4CE80031 		strex r1, r3, [ip]
  57              	@ 0 "" 2
  58              		.thumb
ARM GAS  /tmp/ccAEwYvH.s 			page 2


  59              		.syntax unified
  60 0028 0029     		cmp	r1, #0
  61 002a F3D1     		bne	.L3
  62 002c 036E     		ldr	r3, [r0, #96]
  63 002e 012B     		cmp	r3, #1
  64 0030 07D1     		bne	.L4
  65              	.L5:
  66              		.syntax unified
  67              	@ 1072 "Drivers/CMSIS/Include/cmsis_gcc.h" 1
  68 0032 52E8003F 		ldrex r3, [r2]
  69              	@ 0 "" 2
  70              		.thumb
  71              		.syntax unified
  72 0036 23F01003 		bic	r3, r3, #16
  73              		.syntax unified
  74              	@ 1123 "Drivers/CMSIS/Include/cmsis_gcc.h" 1
  75 003a 42E80031 		strex r1, r3, [r2]
  76              	@ 0 "" 2
  77              		.thumb
  78              		.syntax unified
  79 003e 0029     		cmp	r1, #0
  80 0040 F7D1     		bne	.L5
  81              	.L4:
  82 0042 2023     		movs	r3, #32
  83 0044 C0F88030 		str	r3, [r0, #128]
  84 0048 0023     		movs	r3, #0
  85 004a 0366     		str	r3, [r0, #96]
  86 004c 8366     		str	r3, [r0, #104]
  87 004e 7047     		bx	lr
  89              		.section	.text.UART_TxISR_8BIT.part.0,"ax",%progbits
  90              		.align	1
  91              		.syntax unified
  92              		.thumb
  93              		.thumb_func
  94              		.fpu fpv5-sp-d16
  96              	UART_TxISR_8BIT.part.0:
  97              		@ args = 0, pretend = 0, frame = 0
  98              		@ frame_needed = 0, uses_anonymous_args = 0
  99              		@ link register save eliminated.
 100              	.L10:
 101 0000 0268     		ldr	r2, [r0]
 102              		.syntax unified
 103              	@ 1072 "Drivers/CMSIS/Include/cmsis_gcc.h" 1
 104 0002 52E8003F 		ldrex r3, [r2]
 105              	@ 0 "" 2
 106              		.thumb
 107              		.syntax unified
 108 0006 23F08003 		bic	r3, r3, #128
 109              		.syntax unified
 110              	@ 1123 "Drivers/CMSIS/Include/cmsis_gcc.h" 1
 111 000a 42E80031 		strex r1, r3, [r2]
 112              	@ 0 "" 2
 113              		.thumb
 114              		.syntax unified
 115 000e 0268     		ldr	r2, [r0]
 116 0010 0029     		cmp	r1, #0
 117 0012 F5D1     		bne	.L10
ARM GAS  /tmp/ccAEwYvH.s 			page 3


 118              	.L11:
 119              		.syntax unified
 120              	@ 1072 "Drivers/CMSIS/Include/cmsis_gcc.h" 1
 121 0014 52E8003F 		ldrex r3, [r2]
 122              	@ 0 "" 2
 123              		.thumb
 124              		.syntax unified
 125 0018 43F04003 		orr	r3, r3, #64
 126              		.syntax unified
 127              	@ 1123 "Drivers/CMSIS/Include/cmsis_gcc.h" 1
 128 001c 42E80031 		strex r1, r3, [r2]
 129              	@ 0 "" 2
 130              		.thumb
 131              		.syntax unified
 132 0020 0029     		cmp	r1, #0
 133 0022 F7D1     		bne	.L11
 134 0024 7047     		bx	lr
 136              		.thumb_set UART_TxISR_16BIT.part.0,UART_TxISR_8BIT.part.0
 137              		.section	.text.UART_TxISR_8BIT,"ax",%progbits
 138              		.align	1
 139              		.syntax unified
 140              		.thumb
 141              		.thumb_func
 142              		.fpu fpv5-sp-d16
 144              	UART_TxISR_8BIT:
 145              		@ args = 0, pretend = 0, frame = 0
 146              		@ frame_needed = 0, uses_anonymous_args = 0
 147              		@ link register save eliminated.
 148 0000 C26F     		ldr	r2, [r0, #124]
 149 0002 0346     		mov	r3, r0
 150 0004 212A     		cmp	r2, #33
 151 0006 11D1     		bne	.L14
 152 0008 B0F85220 		ldrh	r2, [r0, #82]
 153 000c 92B2     		uxth	r2, r2
 154 000e 0AB9     		cbnz	r2, .L16
 155 0010 FFF7FEBF 		b	UART_TxISR_8BIT.part.0
 156              	.L16:
 157 0014 C26C     		ldr	r2, [r0, #76]
 158 0016 0168     		ldr	r1, [r0]
 159 0018 12F8010B 		ldrb	r0, [r2], #1	@ zero_extendqisi2
 160 001c 8862     		str	r0, [r1, #40]
 161 001e DA64     		str	r2, [r3, #76]
 162 0020 B3F85220 		ldrh	r2, [r3, #82]
 163 0024 013A     		subs	r2, r2, #1
 164 0026 92B2     		uxth	r2, r2
 165 0028 A3F85220 		strh	r2, [r3, #82]	@ movhi
 166              	.L14:
 167 002c 7047     		bx	lr
 169              		.section	.text.UART_TxISR_16BIT,"ax",%progbits
 170              		.align	1
 171              		.syntax unified
 172              		.thumb
 173              		.thumb_func
 174              		.fpu fpv5-sp-d16
 176              	UART_TxISR_16BIT:
 177              		@ args = 0, pretend = 0, frame = 0
 178              		@ frame_needed = 0, uses_anonymous_args = 0
ARM GAS  /tmp/ccAEwYvH.s 			page 4


 179              		@ link register save eliminated.
 180 0000 C26F     		ldr	r2, [r0, #124]
 181 0002 0346     		mov	r3, r0
 182 0004 212A     		cmp	r2, #33
 183 0006 13D1     		bne	.L17
 184 0008 B0F85220 		ldrh	r2, [r0, #82]
 185 000c 92B2     		uxth	r2, r2
 186 000e 0AB9     		cbnz	r2, .L19
 187 0010 FFF7FEBF 		b	UART_TxISR_16BIT.part.0
 188              	.L19:
 189 0014 DA6C     		ldr	r2, [r3, #76]
 190 0016 0068     		ldr	r0, [r0]
 191 0018 32F8021B 		ldrh	r1, [r2], #2
 192 001c C1F30801 		ubfx	r1, r1, #0, #9
 193 0020 8162     		str	r1, [r0, #40]
 194 0022 DA64     		str	r2, [r3, #76]
 195 0024 B3F85220 		ldrh	r2, [r3, #82]
 196 0028 013A     		subs	r2, r2, #1
 197 002a 92B2     		uxth	r2, r2
 198 002c A3F85220 		strh	r2, [r3, #82]	@ movhi
 199              	.L17:
 200 0030 7047     		bx	lr
 202              		.section	.text.HAL_UART_MspInit,"ax",%progbits
 203              		.align	1
 204              		.weak	HAL_UART_MspInit
 205              		.syntax unified
 206              		.thumb
 207              		.thumb_func
 208              		.fpu fpv5-sp-d16
 210              	HAL_UART_MspInit:
 211              		@ args = 0, pretend = 0, frame = 0
 212              		@ frame_needed = 0, uses_anonymous_args = 0
 213              		@ link register save eliminated.
 214 0000 7047     		bx	lr
 216              		.section	.text.HAL_UART_MspDeInit,"ax",%progbits
 217              		.align	1
 218              		.weak	HAL_UART_MspDeInit
 219              		.syntax unified
 220              		.thumb
 221              		.thumb_func
 222              		.fpu fpv5-sp-d16
 224              	HAL_UART_MspDeInit:
 225              		@ args = 0, pretend = 0, frame = 0
 226              		@ frame_needed = 0, uses_anonymous_args = 0
 227              		@ link register save eliminated.
 228 0000 7047     		bx	lr
 230              		.section	.text.HAL_UART_DeInit,"ax",%progbits
 231              		.align	1
 232              		.global	HAL_UART_DeInit
 233              		.syntax unified
 234              		.thumb
 235              		.thumb_func
 236              		.fpu fpv5-sp-d16
 238              	HAL_UART_DeInit:
 239              		@ args = 0, pretend = 0, frame = 0
 240              		@ frame_needed = 0, uses_anonymous_args = 0
 241 0000 38B5     		push	{r3, r4, r5, lr}
ARM GAS  /tmp/ccAEwYvH.s 			page 5


 242 0002 0546     		mov	r5, r0
 243 0004 B8B1     		cbz	r0, .L24
 244 0006 2423     		movs	r3, #36
 245 0008 0024     		movs	r4, #0
 246 000a C367     		str	r3, [r0, #124]
 247 000c 0368     		ldr	r3, [r0]
 248 000e 1A68     		ldr	r2, [r3]
 249 0010 22F00102 		bic	r2, r2, #1
 250 0014 1A60     		str	r2, [r3]
 251 0016 1C60     		str	r4, [r3]
 252 0018 5C60     		str	r4, [r3, #4]
 253 001a 9C60     		str	r4, [r3, #8]
 254 001c FFF7FEFF 		bl	HAL_UART_MspDeInit
 255 0020 2046     		mov	r0, r4
 256 0022 C5F88440 		str	r4, [r5, #132]
 257 0026 85F87840 		strb	r4, [r5, #120]
 258 002a EC67     		str	r4, [r5, #124]
 259 002c C5F88040 		str	r4, [r5, #128]
 260 0030 2C66     		str	r4, [r5, #96]
 261 0032 6C66     		str	r4, [r5, #100]
 262              	.L23:
 263 0034 38BD     		pop	{r3, r4, r5, pc}
 264              	.L24:
 265 0036 0120     		movs	r0, #1
 266 0038 FCE7     		b	.L23
 268              		.section	.text.HAL_UART_Transmit_IT,"ax",%progbits
 269              		.align	1
 270              		.global	HAL_UART_Transmit_IT
 271              		.syntax unified
 272              		.thumb
 273              		.thumb_func
 274              		.fpu fpv5-sp-d16
 276              	HAL_UART_Transmit_IT:
 277              		@ args = 0, pretend = 0, frame = 0
 278              		@ frame_needed = 0, uses_anonymous_args = 0
 279              		@ link register save eliminated.
 280 0000 C36F     		ldr	r3, [r0, #124]
 281 0002 202B     		cmp	r3, #32
 282 0004 23D1     		bne	.L29
 283 0006 21B3     		cbz	r1, .L31
 284 0008 1AB3     		cbz	r2, .L31
 285 000a 0023     		movs	r3, #0
 286 000c A0F85220 		strh	r2, [r0, #82]	@ movhi
 287 0010 C164     		str	r1, [r0, #76]
 288 0012 C0F88430 		str	r3, [r0, #132]
 289 0016 2123     		movs	r3, #33
 290 0018 A0F85020 		strh	r2, [r0, #80]	@ movhi
 291 001c C367     		str	r3, [r0, #124]
 292 001e 8368     		ldr	r3, [r0, #8]
 293 0020 B3F5805F 		cmp	r3, #4096
 294 0024 11D1     		bne	.L32
 295 0026 0169     		ldr	r1, [r0, #16]
 296 0028 0B4B     		ldr	r3, .L35
 297 002a 0C4A     		ldr	r2, .L35+4
 298 002c 0029     		cmp	r1, #0
 299 002e 08BF     		it	eq
 300 0030 1346     		moveq	r3, r2
ARM GAS  /tmp/ccAEwYvH.s 			page 6


 301              	.L27:
 302 0032 C366     		str	r3, [r0, #108]
 303              	.L28:
 304 0034 0168     		ldr	r1, [r0]
 305              		.syntax unified
 306              	@ 1072 "Drivers/CMSIS/Include/cmsis_gcc.h" 1
 307 0036 51E8002F 		ldrex r2, [r1]
 308              	@ 0 "" 2
 309              		.thumb
 310              		.syntax unified
 311 003a 42F08002 		orr	r2, r2, #128
 312              		.syntax unified
 313              	@ 1123 "Drivers/CMSIS/Include/cmsis_gcc.h" 1
 314 003e 41E80023 		strex r3, r2, [r1]
 315              	@ 0 "" 2
 316              		.thumb
 317              		.syntax unified
 318 0042 002B     		cmp	r3, #0
 319 0044 F6D1     		bne	.L28
 320 0046 1846     		mov	r0, r3
 321 0048 7047     		bx	lr
 322              	.L32:
 323 004a 034B     		ldr	r3, .L35
 324 004c F1E7     		b	.L27
 325              	.L29:
 326 004e 0220     		movs	r0, #2
 327 0050 7047     		bx	lr
 328              	.L31:
 329 0052 0120     		movs	r0, #1
 330 0054 7047     		bx	lr
 331              	.L36:
 332 0056 00BF     		.align	2
 333              	.L35:
 334 0058 00000000 		.word	UART_TxISR_8BIT
 335 005c 00000000 		.word	UART_TxISR_16BIT
 337              		.section	.text.HAL_UART_Transmit_DMA,"ax",%progbits
 338              		.align	1
 339              		.global	HAL_UART_Transmit_DMA
 340              		.syntax unified
 341              		.thumb
 342              		.thumb_func
 343              		.fpu fpv5-sp-d16
 345              	HAL_UART_Transmit_DMA:
 346              		@ args = 0, pretend = 0, frame = 0
 347              		@ frame_needed = 0, uses_anonymous_args = 0
 348 0000 F8B5     		push	{r3, r4, r5, r6, r7, lr}
 349 0002 0446     		mov	r4, r0
 350 0004 1346     		mov	r3, r2
 351 0006 E56F     		ldr	r5, [r4, #124]
 352 0008 202D     		cmp	r5, #32
 353 000a 30D1     		bne	.L41
 354 000c E1B1     		cbz	r1, .L43
 355 000e DAB1     		cbz	r2, .L43
 356 0010 A4F85220 		strh	r2, [r4, #82]	@ movhi
 357 0014 0026     		movs	r6, #0
 358 0016 A4F85020 		strh	r2, [r4, #80]	@ movhi
 359 001a 2122     		movs	r2, #33
ARM GAS  /tmp/ccAEwYvH.s 			page 7


 360 001c 206F     		ldr	r0, [r4, #112]
 361 001e C4F88460 		str	r6, [r4, #132]
 362 0022 E164     		str	r1, [r4, #76]
 363 0024 E267     		str	r2, [r4, #124]
 364 0026 88B1     		cbz	r0, .L39
 365 0028 124F     		ldr	r7, .L51
 366 002a 2268     		ldr	r2, [r4]
 367 002c C763     		str	r7, [r0, #60]
 368 002e 124F     		ldr	r7, .L51+4
 369 0030 2832     		adds	r2, r2, #40
 370 0032 0764     		str	r7, [r0, #64]
 371 0034 114F     		ldr	r7, .L51+8
 372 0036 C0E91376 		strd	r7, r6, [r0, #76]
 373 003a FFF7FEFF 		bl	HAL_DMA_Start_IT
 374 003e 28B1     		cbz	r0, .L39
 375 0040 1023     		movs	r3, #16
 376 0042 C4F88430 		str	r3, [r4, #132]
 377 0046 E567     		str	r5, [r4, #124]
 378              	.L43:
 379 0048 0120     		movs	r0, #1
 380 004a 0FE0     		b	.L38
 381              	.L39:
 382 004c 4022     		movs	r2, #64
 383 004e 2368     		ldr	r3, [r4]
 384 0050 1A62     		str	r2, [r3, #32]
 385 0052 2268     		ldr	r2, [r4]
 386              	.L40:
 387 0054 02F10803 		add	r3, r2, #8
 388              		.syntax unified
 389              	@ 1072 "Drivers/CMSIS/Include/cmsis_gcc.h" 1
 390 0058 53E8003F 		ldrex r3, [r3]
 391              	@ 0 "" 2
 392              		.thumb
 393              		.syntax unified
 394 005c 43F08003 		orr	r3, r3, #128
 395 0060 02F10801 		add	r1, r2, #8
 396              		.syntax unified
 397              	@ 1123 "Drivers/CMSIS/Include/cmsis_gcc.h" 1
 398 0064 41E80030 		strex r0, r3, [r1]
 399              	@ 0 "" 2
 400              		.thumb
 401              		.syntax unified
 402 0068 0028     		cmp	r0, #0
 403 006a F3D1     		bne	.L40
 404              	.L38:
 405 006c F8BD     		pop	{r3, r4, r5, r6, r7, pc}
 406              	.L41:
 407 006e 0220     		movs	r0, #2
 408 0070 FCE7     		b	.L38
 409              	.L52:
 410 0072 00BF     		.align	2
 411              	.L51:
 412 0074 00000000 		.word	UART_DMATransmitCplt
 413 0078 00000000 		.word	UART_DMATxHalfCplt
 414 007c 00000000 		.word	UART_DMAError
 416              		.section	.text.HAL_UART_DMAPause,"ax",%progbits
 417              		.align	1
ARM GAS  /tmp/ccAEwYvH.s 			page 8


 418              		.global	HAL_UART_DMAPause
 419              		.syntax unified
 420              		.thumb
 421              		.thumb_func
 422              		.fpu fpv5-sp-d16
 424              	HAL_UART_DMAPause:
 425              		@ args = 0, pretend = 0, frame = 0
 426              		@ frame_needed = 0, uses_anonymous_args = 0
 427              		@ link register save eliminated.
 428 0000 0368     		ldr	r3, [r0]
 429 0002 C26F     		ldr	r2, [r0, #124]
 430 0004 D0F88010 		ldr	r1, [r0, #128]
 431 0008 9868     		ldr	r0, [r3, #8]
 432 000a 0006     		lsls	r0, r0, #24
 433 000c 0DD5     		bpl	.L54
 434 000e 212A     		cmp	r2, #33
 435 0010 0BD1     		bne	.L54
 436              	.L55:
 437 0012 03F10802 		add	r2, r3, #8
 438              		.syntax unified
 439              	@ 1072 "Drivers/CMSIS/Include/cmsis_gcc.h" 1
 440 0016 52E8002F 		ldrex r2, [r2]
 441              	@ 0 "" 2
 442              		.thumb
 443              		.syntax unified
 444 001a 22F08002 		bic	r2, r2, #128
 445 001e 03F1080C 		add	ip, r3, #8
 446              		.syntax unified
 447              	@ 1123 "Drivers/CMSIS/Include/cmsis_gcc.h" 1
 448 0022 4CE80020 		strex r0, r2, [ip]
 449              	@ 0 "" 2
 450              		.thumb
 451              		.syntax unified
 452 0026 0028     		cmp	r0, #0
 453 0028 F3D1     		bne	.L55
 454              	.L54:
 455 002a 9A68     		ldr	r2, [r3, #8]
 456 002c 5206     		lsls	r2, r2, #25
 457 002e 21D5     		bpl	.L56
 458 0030 2229     		cmp	r1, #34
 459 0032 1FD1     		bne	.L56
 460              	.L57:
 461              		.syntax unified
 462              	@ 1072 "Drivers/CMSIS/Include/cmsis_gcc.h" 1
 463 0034 53E8002F 		ldrex r2, [r3]
 464              	@ 0 "" 2
 465              		.thumb
 466              		.syntax unified
 467 0038 22F48072 		bic	r2, r2, #256
 468              		.syntax unified
 469              	@ 1123 "Drivers/CMSIS/Include/cmsis_gcc.h" 1
 470 003c 43E80021 		strex r1, r2, [r3]
 471              	@ 0 "" 2
 472              		.thumb
 473              		.syntax unified
 474 0040 0029     		cmp	r1, #0
 475 0042 F7D1     		bne	.L57
ARM GAS  /tmp/ccAEwYvH.s 			page 9


 476              	.L58:
 477 0044 03F10802 		add	r2, r3, #8
 478              		.syntax unified
 479              	@ 1072 "Drivers/CMSIS/Include/cmsis_gcc.h" 1
 480 0048 52E8002F 		ldrex r2, [r2]
 481              	@ 0 "" 2
 482              		.thumb
 483              		.syntax unified
 484 004c 22F00102 		bic	r2, r2, #1
 485 0050 03F10800 		add	r0, r3, #8
 486              		.syntax unified
 487              	@ 1123 "Drivers/CMSIS/Include/cmsis_gcc.h" 1
 488 0054 40E80021 		strex r1, r2, [r0]
 489              	@ 0 "" 2
 490              		.thumb
 491              		.syntax unified
 492 0058 0029     		cmp	r1, #0
 493 005a F3D1     		bne	.L58
 494              	.L59:
 495 005c 03F10802 		add	r2, r3, #8
 496              		.syntax unified
 497              	@ 1072 "Drivers/CMSIS/Include/cmsis_gcc.h" 1
 498 0060 52E8002F 		ldrex r2, [r2]
 499              	@ 0 "" 2
 500              		.thumb
 501              		.syntax unified
 502 0064 22F04002 		bic	r2, r2, #64
 503 0068 03F10800 		add	r0, r3, #8
 504              		.syntax unified
 505              	@ 1123 "Drivers/CMSIS/Include/cmsis_gcc.h" 1
 506 006c 40E80021 		strex r1, r2, [r0]
 507              	@ 0 "" 2
 508              		.thumb
 509              		.syntax unified
 510 0070 0029     		cmp	r1, #0
 511 0072 F3D1     		bne	.L59
 512              	.L56:
 513 0074 0020     		movs	r0, #0
 514 0076 7047     		bx	lr
 516              		.section	.text.HAL_UART_DMAResume,"ax",%progbits
 517              		.align	1
 518              		.global	HAL_UART_DMAResume
 519              		.syntax unified
 520              		.thumb
 521              		.thumb_func
 522              		.fpu fpv5-sp-d16
 524              	HAL_UART_DMAResume:
 525              		@ args = 0, pretend = 0, frame = 0
 526              		@ frame_needed = 0, uses_anonymous_args = 0
 527              		@ link register save eliminated.
 528 0000 C36F     		ldr	r3, [r0, #124]
 529 0002 212B     		cmp	r3, #33
 530 0004 0BD1     		bne	.L71
 531              	.L72:
 532 0006 0268     		ldr	r2, [r0]
 533 0008 02F10803 		add	r3, r2, #8
 534              		.syntax unified
ARM GAS  /tmp/ccAEwYvH.s 			page 10


 535              	@ 1072 "Drivers/CMSIS/Include/cmsis_gcc.h" 1
 536 000c 53E8003F 		ldrex r3, [r3]
 537              	@ 0 "" 2
 538              		.thumb
 539              		.syntax unified
 540 0010 43F08003 		orr	r3, r3, #128
 541 0014 0832     		adds	r2, r2, #8
 542              		.syntax unified
 543              	@ 1123 "Drivers/CMSIS/Include/cmsis_gcc.h" 1
 544 0016 42E80031 		strex r1, r3, [r2]
 545              	@ 0 "" 2
 546              		.thumb
 547              		.syntax unified
 548 001a 0029     		cmp	r1, #0
 549 001c F3D1     		bne	.L72
 550              	.L71:
 551 001e D0F88030 		ldr	r3, [r0, #128]
 552 0022 222B     		cmp	r3, #34
 553 0024 25D1     		bne	.L73
 554 0026 0368     		ldr	r3, [r0]
 555 0028 0822     		movs	r2, #8
 556 002a 1A62     		str	r2, [r3, #32]
 557 002c 0269     		ldr	r2, [r0, #16]
 558 002e 0368     		ldr	r3, [r0]
 559 0030 3AB1     		cbz	r2, .L76
 560              	.L75:
 561              		.syntax unified
 562              	@ 1072 "Drivers/CMSIS/Include/cmsis_gcc.h" 1
 563 0032 53E8002F 		ldrex r2, [r3]
 564              	@ 0 "" 2
 565              		.thumb
 566              		.syntax unified
 567 0036 42F48072 		orr	r2, r2, #256
 568              		.syntax unified
 569              	@ 1123 "Drivers/CMSIS/Include/cmsis_gcc.h" 1
 570 003a 43E80021 		strex r1, r2, [r3]
 571              	@ 0 "" 2
 572              		.thumb
 573              		.syntax unified
 574 003e 0029     		cmp	r1, #0
 575 0040 F7D1     		bne	.L75
 576              	.L76:
 577 0042 03F10802 		add	r2, r3, #8
 578              		.syntax unified
 579              	@ 1072 "Drivers/CMSIS/Include/cmsis_gcc.h" 1
 580 0046 52E8002F 		ldrex r2, [r2]
 581              	@ 0 "" 2
 582              		.thumb
 583              		.syntax unified
 584 004a 42F00102 		orr	r2, r2, #1
 585 004e 03F10800 		add	r0, r3, #8
 586              		.syntax unified
 587              	@ 1123 "Drivers/CMSIS/Include/cmsis_gcc.h" 1
 588 0052 40E80021 		strex r1, r2, [r0]
 589              	@ 0 "" 2
 590              		.thumb
 591              		.syntax unified
ARM GAS  /tmp/ccAEwYvH.s 			page 11


 592 0056 0029     		cmp	r1, #0
 593 0058 F3D1     		bne	.L76
 594              	.L77:
 595 005a 03F10802 		add	r2, r3, #8
 596              		.syntax unified
 597              	@ 1072 "Drivers/CMSIS/Include/cmsis_gcc.h" 1
 598 005e 52E8002F 		ldrex r2, [r2]
 599              	@ 0 "" 2
 600              		.thumb
 601              		.syntax unified
 602 0062 42F04002 		orr	r2, r2, #64
 603 0066 03F10800 		add	r0, r3, #8
 604              		.syntax unified
 605              	@ 1123 "Drivers/CMSIS/Include/cmsis_gcc.h" 1
 606 006a 40E80021 		strex r1, r2, [r0]
 607              	@ 0 "" 2
 608              		.thumb
 609              		.syntax unified
 610 006e 0029     		cmp	r1, #0
 611 0070 F3D1     		bne	.L77
 612              	.L73:
 613 0072 0020     		movs	r0, #0
 614 0074 7047     		bx	lr
 616              		.section	.text.HAL_UART_DMAStop,"ax",%progbits
 617              		.align	1
 618              		.global	HAL_UART_DMAStop
 619              		.syntax unified
 620              		.thumb
 621              		.thumb_func
 622              		.fpu fpv5-sp-d16
 624              	HAL_UART_DMAStop:
 625              		@ args = 0, pretend = 0, frame = 0
 626              		@ frame_needed = 0, uses_anonymous_args = 0
 627 0000 0268     		ldr	r2, [r0]
 628 0002 38B5     		push	{r3, r4, r5, lr}
 629 0004 C36F     		ldr	r3, [r0, #124]
 630 0006 0446     		mov	r4, r0
 631 0008 D0F88050 		ldr	r5, [r0, #128]
 632 000c 9168     		ldr	r1, [r2, #8]
 633 000e 0906     		lsls	r1, r1, #24
 634 0010 27D5     		bpl	.L86
 635 0012 212B     		cmp	r3, #33
 636 0014 25D1     		bne	.L86
 637              	.L87:
 638 0016 02F10803 		add	r3, r2, #8
 639              		.syntax unified
 640              	@ 1072 "Drivers/CMSIS/Include/cmsis_gcc.h" 1
 641 001a 53E8003F 		ldrex r3, [r3]
 642              	@ 0 "" 2
 643              		.thumb
 644              		.syntax unified
 645 001e 23F08003 		bic	r3, r3, #128
 646 0022 02F10800 		add	r0, r2, #8
 647              		.syntax unified
 648              	@ 1123 "Drivers/CMSIS/Include/cmsis_gcc.h" 1
 649 0026 40E80031 		strex r1, r3, [r0]
 650              	@ 0 "" 2
ARM GAS  /tmp/ccAEwYvH.s 			page 12


 651              		.thumb
 652              		.syntax unified
 653 002a 0029     		cmp	r1, #0
 654 002c F3D1     		bne	.L87
 655 002e 206F     		ldr	r0, [r4, #112]
 656 0030 60B1     		cbz	r0, .L89
 657 0032 FFF7FEFF 		bl	HAL_DMA_Abort
 658 0036 48B1     		cbz	r0, .L89
 659 0038 206F     		ldr	r0, [r4, #112]
 660 003a FFF7FEFF 		bl	HAL_DMA_GetError
 661 003e 2028     		cmp	r0, #32
 662 0040 04D1     		bne	.L89
 663              	.L111:
 664 0042 1023     		movs	r3, #16
 665 0044 0320     		movs	r0, #3
 666 0046 C4F88430 		str	r3, [r4, #132]
 667              	.L91:
 668 004a 38BD     		pop	{r3, r4, r5, pc}
 669              	.L89:
 670 004c 2268     		ldr	r2, [r4]
 671              		.syntax unified
 672              	@ 1072 "Drivers/CMSIS/Include/cmsis_gcc.h" 1
 673 004e 52E8003F 		ldrex r3, [r2]
 674              	@ 0 "" 2
 675              		.thumb
 676              		.syntax unified
 677 0052 23F0C003 		bic	r3, r3, #192
 678              		.syntax unified
 679              	@ 1123 "Drivers/CMSIS/Include/cmsis_gcc.h" 1
 680 0056 42E80031 		strex r1, r3, [r2]
 681              	@ 0 "" 2
 682              		.thumb
 683              		.syntax unified
 684 005a 0029     		cmp	r1, #0
 685 005c F6D1     		bne	.L89
 686 005e 2023     		movs	r3, #32
 687 0060 E367     		str	r3, [r4, #124]
 688              	.L86:
 689 0062 2268     		ldr	r2, [r4]
 690 0064 9068     		ldr	r0, [r2, #8]
 691 0066 10F04000 		ands	r0, r0, #64
 692 006a EED0     		beq	.L91
 693 006c 222D     		cmp	r5, #34
 694 006e 18D1     		bne	.L95
 695              	.L92:
 696 0070 02F10803 		add	r3, r2, #8
 697              		.syntax unified
 698              	@ 1072 "Drivers/CMSIS/Include/cmsis_gcc.h" 1
 699 0074 53E8003F 		ldrex r3, [r3]
 700              	@ 0 "" 2
 701              		.thumb
 702              		.syntax unified
 703 0078 23F04003 		bic	r3, r3, #64
 704 007c 02F10800 		add	r0, r2, #8
 705              		.syntax unified
 706              	@ 1123 "Drivers/CMSIS/Include/cmsis_gcc.h" 1
 707 0080 40E80031 		strex r1, r3, [r0]
ARM GAS  /tmp/ccAEwYvH.s 			page 13


 708              	@ 0 "" 2
 709              		.thumb
 710              		.syntax unified
 711 0084 0029     		cmp	r1, #0
 712 0086 F3D1     		bne	.L92
 713 0088 606F     		ldr	r0, [r4, #116]
 714 008a 38B1     		cbz	r0, .L93
 715 008c FFF7FEFF 		bl	HAL_DMA_Abort
 716 0090 20B1     		cbz	r0, .L93
 717 0092 606F     		ldr	r0, [r4, #116]
 718 0094 FFF7FEFF 		bl	HAL_DMA_GetError
 719 0098 2028     		cmp	r0, #32
 720 009a D2D0     		beq	.L111
 721              	.L93:
 722 009c 2046     		mov	r0, r4
 723 009e FFF7FEFF 		bl	UART_EndRxTransfer
 724              	.L95:
 725 00a2 0020     		movs	r0, #0
 726 00a4 D1E7     		b	.L91
 728              		.section	.text.HAL_UART_Abort,"ax",%progbits
 729              		.align	1
 730              		.global	HAL_UART_Abort
 731              		.syntax unified
 732              		.thumb
 733              		.thumb_func
 734              		.fpu fpv5-sp-d16
 736              	HAL_UART_Abort:
 737              		@ args = 0, pretend = 0, frame = 0
 738              		@ frame_needed = 0, uses_anonymous_args = 0
 739 0000 10B5     		push	{r4, lr}
 740 0002 0446     		mov	r4, r0
 741              	.L113:
 742 0004 2268     		ldr	r2, [r4]
 743              		.syntax unified
 744              	@ 1072 "Drivers/CMSIS/Include/cmsis_gcc.h" 1
 745 0006 52E8003F 		ldrex r3, [r2]
 746              	@ 0 "" 2
 747              		.thumb
 748              		.syntax unified
 749 000a 23F4F073 		bic	r3, r3, #480
 750              		.syntax unified
 751              	@ 1123 "Drivers/CMSIS/Include/cmsis_gcc.h" 1
 752 000e 42E80031 		strex r1, r3, [r2]
 753              	@ 0 "" 2
 754              		.thumb
 755              		.syntax unified
 756 0012 2368     		ldr	r3, [r4]
 757 0014 0029     		cmp	r1, #0
 758 0016 F5D1     		bne	.L113
 759              	.L114:
 760 0018 03F10802 		add	r2, r3, #8
 761              		.syntax unified
 762              	@ 1072 "Drivers/CMSIS/Include/cmsis_gcc.h" 1
 763 001c 52E8002F 		ldrex r2, [r2]
 764              	@ 0 "" 2
 765              		.thumb
 766              		.syntax unified
ARM GAS  /tmp/ccAEwYvH.s 			page 14


 767 0020 22F00102 		bic	r2, r2, #1
 768 0024 03F10800 		add	r0, r3, #8
 769              		.syntax unified
 770              	@ 1123 "Drivers/CMSIS/Include/cmsis_gcc.h" 1
 771 0028 40E80021 		strex r1, r2, [r0]
 772              	@ 0 "" 2
 773              		.thumb
 774              		.syntax unified
 775 002c 0029     		cmp	r1, #0
 776 002e F3D1     		bne	.L114
 777 0030 226E     		ldr	r2, [r4, #96]
 778 0032 012A     		cmp	r2, #1
 779 0034 07D1     		bne	.L115
 780              	.L116:
 781              		.syntax unified
 782              	@ 1072 "Drivers/CMSIS/Include/cmsis_gcc.h" 1
 783 0036 53E8002F 		ldrex r2, [r3]
 784              	@ 0 "" 2
 785              		.thumb
 786              		.syntax unified
 787 003a 22F01002 		bic	r2, r2, #16
 788              		.syntax unified
 789              	@ 1123 "Drivers/CMSIS/Include/cmsis_gcc.h" 1
 790 003e 43E80021 		strex r1, r2, [r3]
 791              	@ 0 "" 2
 792              		.thumb
 793              		.syntax unified
 794 0042 0029     		cmp	r1, #0
 795 0044 F7D1     		bne	.L116
 796              	.L115:
 797 0046 9A68     		ldr	r2, [r3, #8]
 798 0048 1206     		lsls	r2, r2, #24
 799 004a 1BD5     		bpl	.L117
 800              	.L118:
 801 004c 03F10802 		add	r2, r3, #8
 802              		.syntax unified
 803              	@ 1072 "Drivers/CMSIS/Include/cmsis_gcc.h" 1
 804 0050 52E8002F 		ldrex r2, [r2]
 805              	@ 0 "" 2
 806              		.thumb
 807              		.syntax unified
 808 0054 22F08002 		bic	r2, r2, #128
 809 0058 03F10800 		add	r0, r3, #8
 810              		.syntax unified
 811              	@ 1123 "Drivers/CMSIS/Include/cmsis_gcc.h" 1
 812 005c 40E80021 		strex r1, r2, [r0]
 813              	@ 0 "" 2
 814              		.thumb
 815              		.syntax unified
 816 0060 0029     		cmp	r1, #0
 817 0062 F3D1     		bne	.L118
 818 0064 206F     		ldr	r0, [r4, #112]
 819 0066 68B1     		cbz	r0, .L117
 820 0068 0165     		str	r1, [r0, #80]
 821 006a FFF7FEFF 		bl	HAL_DMA_Abort
 822 006e 48B1     		cbz	r0, .L117
 823 0070 206F     		ldr	r0, [r4, #112]
ARM GAS  /tmp/ccAEwYvH.s 			page 15


 824 0072 FFF7FEFF 		bl	HAL_DMA_GetError
 825 0076 2028     		cmp	r0, #32
 826 0078 04D1     		bne	.L117
 827              	.L145:
 828 007a 1023     		movs	r3, #16
 829 007c 0320     		movs	r0, #3
 830 007e C4F88430 		str	r3, [r4, #132]
 831              	.L119:
 832 0082 10BD     		pop	{r4, pc}
 833              	.L117:
 834 0084 2268     		ldr	r2, [r4]
 835 0086 9368     		ldr	r3, [r2, #8]
 836 0088 5B06     		lsls	r3, r3, #25
 837 008a 16D5     		bpl	.L120
 838              	.L121:
 839 008c 02F10803 		add	r3, r2, #8
 840              		.syntax unified
 841              	@ 1072 "Drivers/CMSIS/Include/cmsis_gcc.h" 1
 842 0090 53E8003F 		ldrex r3, [r3]
 843              	@ 0 "" 2
 844              		.thumb
 845              		.syntax unified
 846 0094 23F04003 		bic	r3, r3, #64
 847 0098 02F10800 		add	r0, r2, #8
 848              		.syntax unified
 849              	@ 1123 "Drivers/CMSIS/Include/cmsis_gcc.h" 1
 850 009c 40E80031 		strex r1, r3, [r0]
 851              	@ 0 "" 2
 852              		.thumb
 853              		.syntax unified
 854 00a0 0029     		cmp	r1, #0
 855 00a2 F3D1     		bne	.L121
 856 00a4 606F     		ldr	r0, [r4, #116]
 857 00a6 40B1     		cbz	r0, .L120
 858 00a8 0165     		str	r1, [r0, #80]
 859 00aa FFF7FEFF 		bl	HAL_DMA_Abort
 860 00ae 20B1     		cbz	r0, .L120
 861 00b0 606F     		ldr	r0, [r4, #116]
 862 00b2 FFF7FEFF 		bl	HAL_DMA_GetError
 863 00b6 2028     		cmp	r0, #32
 864 00b8 DFD0     		beq	.L145
 865              	.L120:
 866 00ba 0020     		movs	r0, #0
 867 00bc 2368     		ldr	r3, [r4]
 868 00be 0F22     		movs	r2, #15
 869 00c0 A4F85200 		strh	r0, [r4, #82]	@ movhi
 870 00c4 A4F85A00 		strh	r0, [r4, #90]	@ movhi
 871 00c8 1A62     		str	r2, [r3, #32]
 872 00ca 9A69     		ldr	r2, [r3, #24]
 873 00cc 42F00802 		orr	r2, r2, #8
 874 00d0 9A61     		str	r2, [r3, #24]
 875 00d2 2023     		movs	r3, #32
 876 00d4 E367     		str	r3, [r4, #124]
 877 00d6 C4F88030 		str	r3, [r4, #128]
 878 00da 2066     		str	r0, [r4, #96]
 879 00dc C4F88400 		str	r0, [r4, #132]
 880 00e0 CFE7     		b	.L119
ARM GAS  /tmp/ccAEwYvH.s 			page 16


 882              		.section	.text.HAL_UART_AbortTransmit,"ax",%progbits
 883              		.align	1
 884              		.global	HAL_UART_AbortTransmit
 885              		.syntax unified
 886              		.thumb
 887              		.thumb_func
 888              		.fpu fpv5-sp-d16
 890              	HAL_UART_AbortTransmit:
 891              		@ args = 0, pretend = 0, frame = 0
 892              		@ frame_needed = 0, uses_anonymous_args = 0
 893 0000 10B5     		push	{r4, lr}
 894 0002 0446     		mov	r4, r0
 895              	.L147:
 896 0004 2268     		ldr	r2, [r4]
 897              		.syntax unified
 898              	@ 1072 "Drivers/CMSIS/Include/cmsis_gcc.h" 1
 899 0006 52E8003F 		ldrex r3, [r2]
 900              	@ 0 "" 2
 901              		.thumb
 902              		.syntax unified
 903 000a 23F0C003 		bic	r3, r3, #192
 904              		.syntax unified
 905              	@ 1123 "Drivers/CMSIS/Include/cmsis_gcc.h" 1
 906 000e 42E80031 		strex r1, r3, [r2]
 907              	@ 0 "" 2
 908              		.thumb
 909              		.syntax unified
 910 0012 2268     		ldr	r2, [r4]
 911 0014 0029     		cmp	r1, #0
 912 0016 F5D1     		bne	.L147
 913 0018 9368     		ldr	r3, [r2, #8]
 914 001a 1B06     		lsls	r3, r3, #24
 915 001c 1BD5     		bpl	.L148
 916              	.L149:
 917 001e 02F10803 		add	r3, r2, #8
 918              		.syntax unified
 919              	@ 1072 "Drivers/CMSIS/Include/cmsis_gcc.h" 1
 920 0022 53E8003F 		ldrex r3, [r3]
 921              	@ 0 "" 2
 922              		.thumb
 923              		.syntax unified
 924 0026 23F08003 		bic	r3, r3, #128
 925 002a 02F10800 		add	r0, r2, #8
 926              		.syntax unified
 927              	@ 1123 "Drivers/CMSIS/Include/cmsis_gcc.h" 1
 928 002e 40E80031 		strex r1, r3, [r0]
 929              	@ 0 "" 2
 930              		.thumb
 931              		.syntax unified
 932 0032 0029     		cmp	r1, #0
 933 0034 F3D1     		bne	.L149
 934 0036 206F     		ldr	r0, [r4, #112]
 935 0038 68B1     		cbz	r0, .L148
 936 003a 0165     		str	r1, [r0, #80]
 937 003c FFF7FEFF 		bl	HAL_DMA_Abort
 938 0040 48B1     		cbz	r0, .L148
 939 0042 206F     		ldr	r0, [r4, #112]
ARM GAS  /tmp/ccAEwYvH.s 			page 17


 940 0044 FFF7FEFF 		bl	HAL_DMA_GetError
 941 0048 2028     		cmp	r0, #32
 942 004a 04D1     		bne	.L148
 943 004c 1023     		movs	r3, #16
 944 004e 0320     		movs	r0, #3
 945 0050 C4F88430 		str	r3, [r4, #132]
 946              	.L150:
 947 0054 10BD     		pop	{r4, pc}
 948              	.L148:
 949 0056 0020     		movs	r0, #0
 950 0058 2023     		movs	r3, #32
 951 005a A4F85200 		strh	r0, [r4, #82]	@ movhi
 952 005e E367     		str	r3, [r4, #124]
 953 0060 F8E7     		b	.L150
 955              		.section	.text.HAL_UART_AbortReceive,"ax",%progbits
 956              		.align	1
 957              		.global	HAL_UART_AbortReceive
 958              		.syntax unified
 959              		.thumb
 960              		.thumb_func
 961              		.fpu fpv5-sp-d16
 963              	HAL_UART_AbortReceive:
 964              		@ args = 0, pretend = 0, frame = 0
 965              		@ frame_needed = 0, uses_anonymous_args = 0
 966 0000 10B5     		push	{r4, lr}
 967 0002 0446     		mov	r4, r0
 968              	.L163:
 969 0004 2268     		ldr	r2, [r4]
 970              		.syntax unified
 971              	@ 1072 "Drivers/CMSIS/Include/cmsis_gcc.h" 1
 972 0006 52E8003F 		ldrex r3, [r2]
 973              	@ 0 "" 2
 974              		.thumb
 975              		.syntax unified
 976 000a 23F49073 		bic	r3, r3, #288
 977              		.syntax unified
 978              	@ 1123 "Drivers/CMSIS/Include/cmsis_gcc.h" 1
 979 000e 42E80031 		strex r1, r3, [r2]
 980              	@ 0 "" 2
 981              		.thumb
 982              		.syntax unified
 983 0012 2368     		ldr	r3, [r4]
 984 0014 0029     		cmp	r1, #0
 985 0016 F5D1     		bne	.L163
 986              	.L164:
 987 0018 03F10802 		add	r2, r3, #8
 988              		.syntax unified
 989              	@ 1072 "Drivers/CMSIS/Include/cmsis_gcc.h" 1
 990 001c 52E8002F 		ldrex r2, [r2]
 991              	@ 0 "" 2
 992              		.thumb
 993              		.syntax unified
 994 0020 22F00102 		bic	r2, r2, #1
 995 0024 03F10800 		add	r0, r3, #8
 996              		.syntax unified
 997              	@ 1123 "Drivers/CMSIS/Include/cmsis_gcc.h" 1
 998 0028 40E80021 		strex r1, r2, [r0]
ARM GAS  /tmp/ccAEwYvH.s 			page 18


 999              	@ 0 "" 2
 1000              		.thumb
 1001              		.syntax unified
 1002 002c 0029     		cmp	r1, #0
 1003 002e F3D1     		bne	.L164
 1004 0030 226E     		ldr	r2, [r4, #96]
 1005 0032 012A     		cmp	r2, #1
 1006 0034 07D1     		bne	.L165
 1007              	.L166:
 1008              		.syntax unified
 1009              	@ 1072 "Drivers/CMSIS/Include/cmsis_gcc.h" 1
 1010 0036 53E8002F 		ldrex r2, [r3]
 1011              	@ 0 "" 2
 1012              		.thumb
 1013              		.syntax unified
 1014 003a 22F01002 		bic	r2, r2, #16
 1015              		.syntax unified
 1016              	@ 1123 "Drivers/CMSIS/Include/cmsis_gcc.h" 1
 1017 003e 43E80021 		strex r1, r2, [r3]
 1018              	@ 0 "" 2
 1019              		.thumb
 1020              		.syntax unified
 1021 0042 0029     		cmp	r1, #0
 1022 0044 F7D1     		bne	.L166
 1023              	.L165:
 1024 0046 9A68     		ldr	r2, [r3, #8]
 1025 0048 5206     		lsls	r2, r2, #25
 1026 004a 1BD5     		bpl	.L167
 1027              	.L168:
 1028 004c 03F10802 		add	r2, r3, #8
 1029              		.syntax unified
 1030              	@ 1072 "Drivers/CMSIS/Include/cmsis_gcc.h" 1
 1031 0050 52E8002F 		ldrex r2, [r2]
 1032              	@ 0 "" 2
 1033              		.thumb
 1034              		.syntax unified
 1035 0054 22F04002 		bic	r2, r2, #64
 1036 0058 03F10800 		add	r0, r3, #8
 1037              		.syntax unified
 1038              	@ 1123 "Drivers/CMSIS/Include/cmsis_gcc.h" 1
 1039 005c 40E80021 		strex r1, r2, [r0]
 1040              	@ 0 "" 2
 1041              		.thumb
 1042              		.syntax unified
 1043 0060 0029     		cmp	r1, #0
 1044 0062 F3D1     		bne	.L168
 1045 0064 606F     		ldr	r0, [r4, #116]
 1046 0066 68B1     		cbz	r0, .L167
 1047 0068 0165     		str	r1, [r0, #80]
 1048 006a FFF7FEFF 		bl	HAL_DMA_Abort
 1049 006e 48B1     		cbz	r0, .L167
 1050 0070 606F     		ldr	r0, [r4, #116]
 1051 0072 FFF7FEFF 		bl	HAL_DMA_GetError
 1052 0076 2028     		cmp	r0, #32
 1053 0078 04D1     		bne	.L167
 1054 007a 1023     		movs	r3, #16
 1055 007c 0320     		movs	r0, #3
ARM GAS  /tmp/ccAEwYvH.s 			page 19


 1056 007e C4F88430 		str	r3, [r4, #132]
 1057              	.L169:
 1058 0082 10BD     		pop	{r4, pc}
 1059              	.L167:
 1060 0084 2368     		ldr	r3, [r4]
 1061 0086 0020     		movs	r0, #0
 1062 0088 0F22     		movs	r2, #15
 1063 008a A4F85A00 		strh	r0, [r4, #90]	@ movhi
 1064 008e 1A62     		str	r2, [r3, #32]
 1065 0090 9A69     		ldr	r2, [r3, #24]
 1066 0092 42F00802 		orr	r2, r2, #8
 1067 0096 9A61     		str	r2, [r3, #24]
 1068 0098 2023     		movs	r3, #32
 1069 009a C4F88030 		str	r3, [r4, #128]
 1070 009e 2066     		str	r0, [r4, #96]
 1071 00a0 EFE7     		b	.L169
 1073              		.section	.text.HAL_UART_TxCpltCallback,"ax",%progbits
 1074              		.align	1
 1075              		.weak	HAL_UART_TxCpltCallback
 1076              		.syntax unified
 1077              		.thumb
 1078              		.thumb_func
 1079              		.fpu fpv5-sp-d16
 1081              	HAL_UART_TxCpltCallback:
 1082              		@ args = 0, pretend = 0, frame = 0
 1083              		@ frame_needed = 0, uses_anonymous_args = 0
 1084              		@ link register save eliminated.
 1085 0000 7047     		bx	lr
 1087              		.section	.text.UART_DMATransmitCplt,"ax",%progbits
 1088              		.align	1
 1089              		.syntax unified
 1090              		.thumb
 1091              		.thumb_func
 1092              		.fpu fpv5-sp-d16
 1094              	UART_DMATransmitCplt:
 1095              		@ args = 0, pretend = 0, frame = 0
 1096              		@ frame_needed = 0, uses_anonymous_args = 0
 1097 0000 08B5     		push	{r3, lr}
 1098 0002 0346     		mov	r3, r0
 1099 0004 806B     		ldr	r0, [r0, #56]
 1100 0006 DB69     		ldr	r3, [r3, #28]
 1101 0008 B3F5807F 		cmp	r3, #256
 1102 000c 18D0     		beq	.L185
 1103 000e 0023     		movs	r3, #0
 1104 0010 A0F85230 		strh	r3, [r0, #82]	@ movhi
 1105              	.L186:
 1106 0014 0268     		ldr	r2, [r0]
 1107 0016 02F10803 		add	r3, r2, #8
 1108              		.syntax unified
 1109              	@ 1072 "Drivers/CMSIS/Include/cmsis_gcc.h" 1
 1110 001a 53E8003F 		ldrex r3, [r3]
 1111              	@ 0 "" 2
 1112              		.thumb
 1113              		.syntax unified
 1114 001e 23F08003 		bic	r3, r3, #128
 1115 0022 0832     		adds	r2, r2, #8
 1116              		.syntax unified
ARM GAS  /tmp/ccAEwYvH.s 			page 20


 1117              	@ 1123 "Drivers/CMSIS/Include/cmsis_gcc.h" 1
 1118 0024 42E80031 		strex r1, r3, [r2]
 1119              	@ 0 "" 2
 1120              		.thumb
 1121              		.syntax unified
 1122 0028 0268     		ldr	r2, [r0]
 1123 002a 0029     		cmp	r1, #0
 1124 002c F2D1     		bne	.L186
 1125              	.L187:
 1126              		.syntax unified
 1127              	@ 1072 "Drivers/CMSIS/Include/cmsis_gcc.h" 1
 1128 002e 52E8003F 		ldrex r3, [r2]
 1129              	@ 0 "" 2
 1130              		.thumb
 1131              		.syntax unified
 1132 0032 43F04003 		orr	r3, r3, #64
 1133              		.syntax unified
 1134              	@ 1123 "Drivers/CMSIS/Include/cmsis_gcc.h" 1
 1135 0036 42E80031 		strex r1, r3, [r2]
 1136              	@ 0 "" 2
 1137              		.thumb
 1138              		.syntax unified
 1139 003a 0029     		cmp	r1, #0
 1140 003c F7D1     		bne	.L187
 1141              	.L184:
 1142 003e 08BD     		pop	{r3, pc}
 1143              	.L185:
 1144 0040 FFF7FEFF 		bl	HAL_UART_TxCpltCallback
 1145 0044 FBE7     		b	.L184
 1147              		.section	.text.HAL_UART_TxHalfCpltCallback,"ax",%progbits
 1148              		.align	1
 1149              		.weak	HAL_UART_TxHalfCpltCallback
 1150              		.syntax unified
 1151              		.thumb
 1152              		.thumb_func
 1153              		.fpu fpv5-sp-d16
 1155              	HAL_UART_TxHalfCpltCallback:
 1156              		@ args = 0, pretend = 0, frame = 0
 1157              		@ frame_needed = 0, uses_anonymous_args = 0
 1158              		@ link register save eliminated.
 1159 0000 7047     		bx	lr
 1161              		.section	.text.UART_DMATxHalfCplt,"ax",%progbits
 1162              		.align	1
 1163              		.syntax unified
 1164              		.thumb
 1165              		.thumb_func
 1166              		.fpu fpv5-sp-d16
 1168              	UART_DMATxHalfCplt:
 1169              		@ args = 0, pretend = 0, frame = 0
 1170              		@ frame_needed = 0, uses_anonymous_args = 0
 1171 0000 806B     		ldr	r0, [r0, #56]
 1172 0002 08B5     		push	{r3, lr}
 1173 0004 FFF7FEFF 		bl	HAL_UART_TxHalfCpltCallback
 1174 0008 08BD     		pop	{r3, pc}
 1176              		.section	.text.HAL_UART_RxCpltCallback,"ax",%progbits
 1177              		.align	1
 1178              		.weak	HAL_UART_RxCpltCallback
ARM GAS  /tmp/ccAEwYvH.s 			page 21


 1179              		.syntax unified
 1180              		.thumb
 1181              		.thumb_func
 1182              		.fpu fpv5-sp-d16
 1184              	HAL_UART_RxCpltCallback:
 1185              		@ args = 0, pretend = 0, frame = 0
 1186              		@ frame_needed = 0, uses_anonymous_args = 0
 1187              		@ link register save eliminated.
 1188 0000 7047     		bx	lr
 1190              		.section	.text.HAL_UART_RxHalfCpltCallback,"ax",%progbits
 1191              		.align	1
 1192              		.weak	HAL_UART_RxHalfCpltCallback
 1193              		.syntax unified
 1194              		.thumb
 1195              		.thumb_func
 1196              		.fpu fpv5-sp-d16
 1198              	HAL_UART_RxHalfCpltCallback:
 1199              		@ args = 0, pretend = 0, frame = 0
 1200              		@ frame_needed = 0, uses_anonymous_args = 0
 1201              		@ link register save eliminated.
 1202 0000 7047     		bx	lr
 1204              		.section	.text.HAL_UART_ErrorCallback,"ax",%progbits
 1205              		.align	1
 1206              		.weak	HAL_UART_ErrorCallback
 1207              		.syntax unified
 1208              		.thumb
 1209              		.thumb_func
 1210              		.fpu fpv5-sp-d16
 1212              	HAL_UART_ErrorCallback:
 1213              		@ args = 0, pretend = 0, frame = 0
 1214              		@ frame_needed = 0, uses_anonymous_args = 0
 1215              		@ link register save eliminated.
 1216 0000 7047     		bx	lr
 1218              		.section	.text.UART_DMAError,"ax",%progbits
 1219              		.align	1
 1220              		.syntax unified
 1221              		.thumb
 1222              		.thumb_func
 1223              		.fpu fpv5-sp-d16
 1225              	UART_DMAError:
 1226              		@ args = 0, pretend = 0, frame = 0
 1227              		@ frame_needed = 0, uses_anonymous_args = 0
 1228 0000 806B     		ldr	r0, [r0, #56]
 1229 0002 0368     		ldr	r3, [r0]
 1230 0004 C26F     		ldr	r2, [r0, #124]
 1231 0006 D0F88010 		ldr	r1, [r0, #128]
 1232 000a 10B5     		push	{r4, lr}
 1233 000c 9C68     		ldr	r4, [r3, #8]
 1234 000e 2406     		lsls	r4, r4, #24
 1235 0010 0ED5     		bpl	.L197
 1236 0012 212A     		cmp	r2, #33
 1237 0014 0CD1     		bne	.L197
 1238 0016 0022     		movs	r2, #0
 1239 0018 A0F85220 		strh	r2, [r0, #82]	@ movhi
 1240              	.L198:
 1241              		.syntax unified
 1242              	@ 1072 "Drivers/CMSIS/Include/cmsis_gcc.h" 1
ARM GAS  /tmp/ccAEwYvH.s 			page 22


 1243 001c 53E8002F 		ldrex r2, [r3]
 1244              	@ 0 "" 2
 1245              		.thumb
 1246              		.syntax unified
 1247 0020 22F0C002 		bic	r2, r2, #192
 1248              		.syntax unified
 1249              	@ 1123 "Drivers/CMSIS/Include/cmsis_gcc.h" 1
 1250 0024 43E80024 		strex r4, r2, [r3]
 1251              	@ 0 "" 2
 1252              		.thumb
 1253              		.syntax unified
 1254 0028 002C     		cmp	r4, #0
 1255 002a F7D1     		bne	.L198
 1256 002c 2022     		movs	r2, #32
 1257 002e C267     		str	r2, [r0, #124]
 1258              	.L197:
 1259 0030 9B68     		ldr	r3, [r3, #8]
 1260 0032 5B06     		lsls	r3, r3, #25
 1261 0034 06D5     		bpl	.L199
 1262 0036 2229     		cmp	r1, #34
 1263 0038 04D1     		bne	.L199
 1264 003a 0023     		movs	r3, #0
 1265 003c A0F85A30 		strh	r3, [r0, #90]	@ movhi
 1266 0040 FFF7FEFF 		bl	UART_EndRxTransfer
 1267              	.L199:
 1268 0044 D0F88430 		ldr	r3, [r0, #132]
 1269 0048 43F01003 		orr	r3, r3, #16
 1270 004c C0F88430 		str	r3, [r0, #132]
 1271 0050 FFF7FEFF 		bl	HAL_UART_ErrorCallback
 1272 0054 10BD     		pop	{r4, pc}
 1274              		.section	.text.UART_DMAAbortOnError,"ax",%progbits
 1275              		.align	1
 1276              		.syntax unified
 1277              		.thumb
 1278              		.thumb_func
 1279              		.fpu fpv5-sp-d16
 1281              	UART_DMAAbortOnError:
 1282              		@ args = 0, pretend = 0, frame = 0
 1283              		@ frame_needed = 0, uses_anonymous_args = 0
 1284 0000 08B5     		push	{r3, lr}
 1285 0002 806B     		ldr	r0, [r0, #56]
 1286 0004 0023     		movs	r3, #0
 1287 0006 A0F85A30 		strh	r3, [r0, #90]	@ movhi
 1288 000a A0F85230 		strh	r3, [r0, #82]	@ movhi
 1289 000e FFF7FEFF 		bl	HAL_UART_ErrorCallback
 1290 0012 08BD     		pop	{r3, pc}
 1292              		.section	.text.HAL_UART_AbortCpltCallback,"ax",%progbits
 1293              		.align	1
 1294              		.weak	HAL_UART_AbortCpltCallback
 1295              		.syntax unified
 1296              		.thumb
 1297              		.thumb_func
 1298              		.fpu fpv5-sp-d16
 1300              	HAL_UART_AbortCpltCallback:
 1301              		@ args = 0, pretend = 0, frame = 0
 1302              		@ frame_needed = 0, uses_anonymous_args = 0
 1303              		@ link register save eliminated.
ARM GAS  /tmp/ccAEwYvH.s 			page 23


 1304 0000 7047     		bx	lr
 1306              		.section	.text.HAL_UART_Abort_IT,"ax",%progbits
 1307              		.align	1
 1308              		.global	HAL_UART_Abort_IT
 1309              		.syntax unified
 1310              		.thumb
 1311              		.thumb_func
 1312              		.fpu fpv5-sp-d16
 1314              	HAL_UART_Abort_IT:
 1315              		@ args = 0, pretend = 0, frame = 0
 1316              		@ frame_needed = 0, uses_anonymous_args = 0
 1317 0000 70B5     		push	{r4, r5, r6, lr}
 1318 0002 0446     		mov	r4, r0
 1319              	.L210:
 1320 0004 2268     		ldr	r2, [r4]
 1321              		.syntax unified
 1322              	@ 1072 "Drivers/CMSIS/Include/cmsis_gcc.h" 1
 1323 0006 52E8003F 		ldrex r3, [r2]
 1324              	@ 0 "" 2
 1325              		.thumb
 1326              		.syntax unified
 1327 000a 23F4F073 		bic	r3, r3, #480
 1328              		.syntax unified
 1329              	@ 1123 "Drivers/CMSIS/Include/cmsis_gcc.h" 1
 1330 000e 42E80031 		strex r1, r3, [r2]
 1331              	@ 0 "" 2
 1332              		.thumb
 1333              		.syntax unified
 1334 0012 2368     		ldr	r3, [r4]
 1335 0014 0029     		cmp	r1, #0
 1336 0016 F5D1     		bne	.L210
 1337              	.L211:
 1338 0018 03F10802 		add	r2, r3, #8
 1339              		.syntax unified
 1340              	@ 1072 "Drivers/CMSIS/Include/cmsis_gcc.h" 1
 1341 001c 52E8002F 		ldrex r2, [r2]
 1342              	@ 0 "" 2
 1343              		.thumb
 1344              		.syntax unified
 1345 0020 22F00102 		bic	r2, r2, #1
 1346 0024 03F10800 		add	r0, r3, #8
 1347              		.syntax unified
 1348              	@ 1123 "Drivers/CMSIS/Include/cmsis_gcc.h" 1
 1349 0028 40E80021 		strex r1, r2, [r0]
 1350              	@ 0 "" 2
 1351              		.thumb
 1352              		.syntax unified
 1353 002c 0029     		cmp	r1, #0
 1354 002e F3D1     		bne	.L211
 1355 0030 226E     		ldr	r2, [r4, #96]
 1356 0032 012A     		cmp	r2, #1
 1357 0034 40D0     		beq	.L212
 1358              	.L215:
 1359 0036 206F     		ldr	r0, [r4, #112]
 1360 0038 0028     		cmp	r0, #0
 1361 003a 46D1     		bne	.L213
 1362              	.L214:
ARM GAS  /tmp/ccAEwYvH.s 			page 24


 1363 003c 616F     		ldr	r1, [r4, #116]
 1364 003e 29B1     		cbz	r1, .L217
 1365 0040 9A68     		ldr	r2, [r3, #8]
 1366 0042 12F04002 		ands	r2, r2, #64
 1367 0046 18BF     		it	ne
 1368 0048 304A     		ldrne	r2, .L252
 1369 004a 0A65     		str	r2, [r1, #80]
 1370              	.L217:
 1371 004c 9A68     		ldr	r2, [r3, #8]
 1372 004e 1206     		lsls	r2, r2, #24
 1373 0050 42D4     		bmi	.L219
 1374              	.L251:
 1375 0052 0125     		movs	r5, #1
 1376              	.L220:
 1377 0054 2268     		ldr	r2, [r4]
 1378 0056 9368     		ldr	r3, [r2, #8]
 1379 0058 5B06     		lsls	r3, r3, #25
 1380 005a 52D5     		bpl	.L222
 1381              	.L223:
 1382 005c 02F10803 		add	r3, r2, #8
 1383              		.syntax unified
 1384              	@ 1072 "Drivers/CMSIS/Include/cmsis_gcc.h" 1
 1385 0060 53E8003F 		ldrex r3, [r3]
 1386              	@ 0 "" 2
 1387              		.thumb
 1388              		.syntax unified
 1389 0064 23F04003 		bic	r3, r3, #64
 1390 0068 02F10801 		add	r1, r2, #8
 1391              		.syntax unified
 1392              	@ 1123 "Drivers/CMSIS/Include/cmsis_gcc.h" 1
 1393 006c 41E80036 		strex r6, r3, [r1]
 1394              	@ 0 "" 2
 1395              		.thumb
 1396              		.syntax unified
 1397 0070 002E     		cmp	r6, #0
 1398 0072 F3D1     		bne	.L223
 1399 0074 606F     		ldr	r0, [r4, #116]
 1400 0076 0028     		cmp	r0, #0
 1401 0078 43D0     		beq	.L222
 1402 007a FFF7FEFF 		bl	HAL_DMA_Abort_IT
 1403 007e 0028     		cmp	r0, #0
 1404 0080 41D0     		beq	.L225
 1405 0082 636F     		ldr	r3, [r4, #116]
 1406 0084 1E65     		str	r6, [r3, #80]
 1407              	.L226:
 1408 0086 0023     		movs	r3, #0
 1409 0088 2268     		ldr	r2, [r4]
 1410 008a 0F21     		movs	r1, #15
 1411 008c 2046     		mov	r0, r4
 1412 008e A4F85230 		strh	r3, [r4, #82]	@ movhi
 1413 0092 A4F85A30 		strh	r3, [r4, #90]	@ movhi
 1414 0096 C4F88430 		str	r3, [r4, #132]
 1415 009a C4E91A33 		strd	r3, r3, [r4, #104]
 1416 009e 1162     		str	r1, [r2, #32]
 1417 00a0 9169     		ldr	r1, [r2, #24]
 1418 00a2 41F00801 		orr	r1, r1, #8
 1419 00a6 9161     		str	r1, [r2, #24]
ARM GAS  /tmp/ccAEwYvH.s 			page 25


 1420 00a8 2022     		movs	r2, #32
 1421 00aa E267     		str	r2, [r4, #124]
 1422 00ac C4F88020 		str	r2, [r4, #128]
 1423 00b0 2366     		str	r3, [r4, #96]
 1424 00b2 FFF7FEFF 		bl	HAL_UART_AbortCpltCallback
 1425 00b6 26E0     		b	.L225
 1426              	.L212:
 1427              		.syntax unified
 1428              	@ 1072 "Drivers/CMSIS/Include/cmsis_gcc.h" 1
 1429 00b8 53E8002F 		ldrex r2, [r3]
 1430              	@ 0 "" 2
 1431              		.thumb
 1432              		.syntax unified
 1433 00bc 22F01002 		bic	r2, r2, #16
 1434              		.syntax unified
 1435              	@ 1123 "Drivers/CMSIS/Include/cmsis_gcc.h" 1
 1436 00c0 43E80021 		strex r1, r2, [r3]
 1437              	@ 0 "" 2
 1438              		.thumb
 1439              		.syntax unified
 1440 00c4 0029     		cmp	r1, #0
 1441 00c6 F7D1     		bne	.L212
 1442 00c8 B5E7     		b	.L215
 1443              	.L213:
 1444 00ca 9A68     		ldr	r2, [r3, #8]
 1445 00cc 12F08002 		ands	r2, r2, #128
 1446 00d0 18BF     		it	ne
 1447 00d2 0F4A     		ldrne	r2, .L252+4
 1448 00d4 0265     		str	r2, [r0, #80]
 1449 00d6 B1E7     		b	.L214
 1450              	.L219:
 1451 00d8 03F10802 		add	r2, r3, #8
 1452              		.syntax unified
 1453              	@ 1072 "Drivers/CMSIS/Include/cmsis_gcc.h" 1
 1454 00dc 52E8002F 		ldrex r2, [r2]
 1455              	@ 0 "" 2
 1456              		.thumb
 1457              		.syntax unified
 1458 00e0 22F08002 		bic	r2, r2, #128
 1459 00e4 03F10801 		add	r1, r3, #8
 1460              		.syntax unified
 1461              	@ 1123 "Drivers/CMSIS/Include/cmsis_gcc.h" 1
 1462 00e8 41E80025 		strex r5, r2, [r1]
 1463              	@ 0 "" 2
 1464              		.thumb
 1465              		.syntax unified
 1466 00ec 002D     		cmp	r5, #0
 1467 00ee F3D1     		bne	.L219
 1468 00f0 0028     		cmp	r0, #0
 1469 00f2 AED0     		beq	.L251
 1470 00f4 FFF7FEFF 		bl	HAL_DMA_Abort_IT
 1471 00f8 0028     		cmp	r0, #0
 1472 00fa ABD0     		beq	.L220
 1473 00fc 236F     		ldr	r3, [r4, #112]
 1474 00fe 1D65     		str	r5, [r3, #80]
 1475 0100 A7E7     		b	.L251
 1476              	.L222:
ARM GAS  /tmp/ccAEwYvH.s 			page 26


 1477 0102 012D     		cmp	r5, #1
 1478 0104 BFD0     		beq	.L226
 1479              	.L225:
 1480 0106 0020     		movs	r0, #0
 1481 0108 70BD     		pop	{r4, r5, r6, pc}
 1482              	.L253:
 1483 010a 00BF     		.align	2
 1484              	.L252:
 1485 010c 00000000 		.word	UART_DMARxAbortCallback
 1486 0110 00000000 		.word	UART_DMATxAbortCallback
 1488              		.section	.text.UART_DMARxAbortCallback,"ax",%progbits
 1489              		.align	1
 1490              		.syntax unified
 1491              		.thumb
 1492              		.thumb_func
 1493              		.fpu fpv5-sp-d16
 1495              	UART_DMARxAbortCallback:
 1496              		@ args = 0, pretend = 0, frame = 0
 1497              		@ frame_needed = 0, uses_anonymous_args = 0
 1498 0000 806B     		ldr	r0, [r0, #56]
 1499 0002 08B5     		push	{r3, lr}
 1500 0004 426F     		ldr	r2, [r0, #116]
 1501 0006 0023     		movs	r3, #0
 1502 0008 1365     		str	r3, [r2, #80]
 1503 000a 026F     		ldr	r2, [r0, #112]
 1504 000c 0AB1     		cbz	r2, .L255
 1505 000e 126D     		ldr	r2, [r2, #80]
 1506 0010 9AB9     		cbnz	r2, .L254
 1507              	.L255:
 1508 0012 0268     		ldr	r2, [r0]
 1509 0014 0F21     		movs	r1, #15
 1510 0016 A0F85230 		strh	r3, [r0, #82]	@ movhi
 1511 001a A0F85A30 		strh	r3, [r0, #90]	@ movhi
 1512 001e C0F88430 		str	r3, [r0, #132]
 1513 0022 1162     		str	r1, [r2, #32]
 1514 0024 9169     		ldr	r1, [r2, #24]
 1515 0026 41F00801 		orr	r1, r1, #8
 1516 002a 9161     		str	r1, [r2, #24]
 1517 002c 2022     		movs	r2, #32
 1518 002e C267     		str	r2, [r0, #124]
 1519 0030 C0F88020 		str	r2, [r0, #128]
 1520 0034 0366     		str	r3, [r0, #96]
 1521 0036 FFF7FEFF 		bl	HAL_UART_AbortCpltCallback
 1522              	.L254:
 1523 003a 08BD     		pop	{r3, pc}
 1525              		.section	.text.UART_DMATxAbortCallback,"ax",%progbits
 1526              		.align	1
 1527              		.syntax unified
 1528              		.thumb
 1529              		.thumb_func
 1530              		.fpu fpv5-sp-d16
 1532              	UART_DMATxAbortCallback:
 1533              		@ args = 0, pretend = 0, frame = 0
 1534              		@ frame_needed = 0, uses_anonymous_args = 0
 1535 0000 806B     		ldr	r0, [r0, #56]
 1536 0002 08B5     		push	{r3, lr}
 1537 0004 026F     		ldr	r2, [r0, #112]
ARM GAS  /tmp/ccAEwYvH.s 			page 27


 1538 0006 0023     		movs	r3, #0
 1539 0008 1365     		str	r3, [r2, #80]
 1540 000a 426F     		ldr	r2, [r0, #116]
 1541 000c 0AB1     		cbz	r2, .L261
 1542 000e 126D     		ldr	r2, [r2, #80]
 1543 0010 7AB9     		cbnz	r2, .L260
 1544              	.L261:
 1545 0012 0268     		ldr	r2, [r0]
 1546 0014 0F21     		movs	r1, #15
 1547 0016 A0F85230 		strh	r3, [r0, #82]	@ movhi
 1548 001a A0F85A30 		strh	r3, [r0, #90]	@ movhi
 1549 001e C0F88430 		str	r3, [r0, #132]
 1550 0022 1162     		str	r1, [r2, #32]
 1551 0024 2022     		movs	r2, #32
 1552 0026 C267     		str	r2, [r0, #124]
 1553 0028 C0F88020 		str	r2, [r0, #128]
 1554 002c 0366     		str	r3, [r0, #96]
 1555 002e FFF7FEFF 		bl	HAL_UART_AbortCpltCallback
 1556              	.L260:
 1557 0032 08BD     		pop	{r3, pc}
 1559              		.section	.text.HAL_UART_AbortTransmitCpltCallback,"ax",%progbits
 1560              		.align	1
 1561              		.weak	HAL_UART_AbortTransmitCpltCallback
 1562              		.syntax unified
 1563              		.thumb
 1564              		.thumb_func
 1565              		.fpu fpv5-sp-d16
 1567              	HAL_UART_AbortTransmitCpltCallback:
 1568              		@ args = 0, pretend = 0, frame = 0
 1569              		@ frame_needed = 0, uses_anonymous_args = 0
 1570              		@ link register save eliminated.
 1571 0000 7047     		bx	lr
 1573              		.section	.text.HAL_UART_AbortTransmit_IT,"ax",%progbits
 1574              		.align	1
 1575              		.global	HAL_UART_AbortTransmit_IT
 1576              		.syntax unified
 1577              		.thumb
 1578              		.thumb_func
 1579              		.fpu fpv5-sp-d16
 1581              	HAL_UART_AbortTransmit_IT:
 1582              		@ args = 0, pretend = 0, frame = 0
 1583              		@ frame_needed = 0, uses_anonymous_args = 0
 1584 0000 10B5     		push	{r4, lr}
 1585 0002 0446     		mov	r4, r0
 1586              	.L268:
 1587 0004 2268     		ldr	r2, [r4]
 1588              		.syntax unified
 1589              	@ 1072 "Drivers/CMSIS/Include/cmsis_gcc.h" 1
 1590 0006 52E8003F 		ldrex r3, [r2]
 1591              	@ 0 "" 2
 1592              		.thumb
 1593              		.syntax unified
 1594 000a 23F0C003 		bic	r3, r3, #192
 1595              		.syntax unified
 1596              	@ 1123 "Drivers/CMSIS/Include/cmsis_gcc.h" 1
 1597 000e 42E80031 		strex r1, r3, [r2]
 1598              	@ 0 "" 2
ARM GAS  /tmp/ccAEwYvH.s 			page 28


 1599              		.thumb
 1600              		.syntax unified
 1601 0012 2268     		ldr	r2, [r4]
 1602 0014 0029     		cmp	r1, #0
 1603 0016 F5D1     		bne	.L268
 1604 0018 9368     		ldr	r3, [r2, #8]
 1605 001a 13F08003 		ands	r3, r3, #128
 1606 001e 20D0     		beq	.L269
 1607              	.L270:
 1608 0020 02F10803 		add	r3, r2, #8
 1609              		.syntax unified
 1610              	@ 1072 "Drivers/CMSIS/Include/cmsis_gcc.h" 1
 1611 0024 53E8003F 		ldrex r3, [r3]
 1612              	@ 0 "" 2
 1613              		.thumb
 1614              		.syntax unified
 1615 0028 23F08003 		bic	r3, r3, #128
 1616 002c 02F10800 		add	r0, r2, #8
 1617              		.syntax unified
 1618              	@ 1123 "Drivers/CMSIS/Include/cmsis_gcc.h" 1
 1619 0030 40E80031 		strex r1, r3, [r0]
 1620              	@ 0 "" 2
 1621              		.thumb
 1622              		.syntax unified
 1623 0034 0029     		cmp	r1, #0
 1624 0036 F3D1     		bne	.L270
 1625 0038 206F     		ldr	r0, [r4, #112]
 1626 003a 48B1     		cbz	r0, .L271
 1627 003c 0B4B     		ldr	r3, .L279
 1628 003e 0365     		str	r3, [r0, #80]
 1629 0040 FFF7FEFF 		bl	HAL_DMA_Abort_IT
 1630 0044 10B1     		cbz	r0, .L272
 1631 0046 206F     		ldr	r0, [r4, #112]
 1632 0048 036D     		ldr	r3, [r0, #80]
 1633 004a 9847     		blx	r3
 1634              	.L272:
 1635 004c 0020     		movs	r0, #0
 1636 004e 10BD     		pop	{r4, pc}
 1637              	.L271:
 1638 0050 A4F85200 		strh	r0, [r4, #82]	@ movhi
 1639 0054 E066     		str	r0, [r4, #108]
 1640              	.L278:
 1641 0056 2023     		movs	r3, #32
 1642 0058 2046     		mov	r0, r4
 1643 005a E367     		str	r3, [r4, #124]
 1644 005c FFF7FEFF 		bl	HAL_UART_AbortTransmitCpltCallback
 1645 0060 F4E7     		b	.L272
 1646              	.L269:
 1647 0062 A4F85230 		strh	r3, [r4, #82]	@ movhi
 1648 0066 E366     		str	r3, [r4, #108]
 1649 0068 F5E7     		b	.L278
 1650              	.L280:
 1651 006a 00BF     		.align	2
 1652              	.L279:
 1653 006c 00000000 		.word	UART_DMATxOnlyAbortCallback
 1655              		.section	.text.UART_DMATxOnlyAbortCallback,"ax",%progbits
 1656              		.align	1
ARM GAS  /tmp/ccAEwYvH.s 			page 29


 1657              		.syntax unified
 1658              		.thumb
 1659              		.thumb_func
 1660              		.fpu fpv5-sp-d16
 1662              	UART_DMATxOnlyAbortCallback:
 1663              		@ args = 0, pretend = 0, frame = 0
 1664              		@ frame_needed = 0, uses_anonymous_args = 0
 1665 0000 08B5     		push	{r3, lr}
 1666 0002 806B     		ldr	r0, [r0, #56]
 1667 0004 0023     		movs	r3, #0
 1668 0006 A0F85230 		strh	r3, [r0, #82]	@ movhi
 1669 000a 2023     		movs	r3, #32
 1670 000c C367     		str	r3, [r0, #124]
 1671 000e FFF7FEFF 		bl	HAL_UART_AbortTransmitCpltCallback
 1672 0012 08BD     		pop	{r3, pc}
 1674              		.section	.text.HAL_UART_AbortReceiveCpltCallback,"ax",%progbits
 1675              		.align	1
 1676              		.weak	HAL_UART_AbortReceiveCpltCallback
 1677              		.syntax unified
 1678              		.thumb
 1679              		.thumb_func
 1680              		.fpu fpv5-sp-d16
 1682              	HAL_UART_AbortReceiveCpltCallback:
 1683              		@ args = 0, pretend = 0, frame = 0
 1684              		@ frame_needed = 0, uses_anonymous_args = 0
 1685              		@ link register save eliminated.
 1686 0000 7047     		bx	lr
 1688              		.section	.text.HAL_UART_AbortReceive_IT,"ax",%progbits
 1689              		.align	1
 1690              		.global	HAL_UART_AbortReceive_IT
 1691              		.syntax unified
 1692              		.thumb
 1693              		.thumb_func
 1694              		.fpu fpv5-sp-d16
 1696              	HAL_UART_AbortReceive_IT:
 1697              		@ args = 0, pretend = 0, frame = 0
 1698              		@ frame_needed = 0, uses_anonymous_args = 0
 1699 0000 10B5     		push	{r4, lr}
 1700 0002 0446     		mov	r4, r0
 1701              	.L284:
 1702 0004 2268     		ldr	r2, [r4]
 1703              		.syntax unified
 1704              	@ 1072 "Drivers/CMSIS/Include/cmsis_gcc.h" 1
 1705 0006 52E8003F 		ldrex r3, [r2]
 1706              	@ 0 "" 2
 1707              		.thumb
 1708              		.syntax unified
 1709 000a 23F49073 		bic	r3, r3, #288
 1710              		.syntax unified
 1711              	@ 1123 "Drivers/CMSIS/Include/cmsis_gcc.h" 1
 1712 000e 42E80031 		strex r1, r3, [r2]
 1713              	@ 0 "" 2
 1714              		.thumb
 1715              		.syntax unified
 1716 0012 2368     		ldr	r3, [r4]
 1717 0014 0029     		cmp	r1, #0
 1718 0016 F5D1     		bne	.L284
ARM GAS  /tmp/ccAEwYvH.s 			page 30


 1719              	.L285:
 1720 0018 03F10802 		add	r2, r3, #8
 1721              		.syntax unified
 1722              	@ 1072 "Drivers/CMSIS/Include/cmsis_gcc.h" 1
 1723 001c 52E8002F 		ldrex r2, [r2]
 1724              	@ 0 "" 2
 1725              		.thumb
 1726              		.syntax unified
 1727 0020 22F00102 		bic	r2, r2, #1
 1728 0024 03F10800 		add	r0, r3, #8
 1729              		.syntax unified
 1730              	@ 1123 "Drivers/CMSIS/Include/cmsis_gcc.h" 1
 1731 0028 40E80021 		strex r1, r2, [r0]
 1732              	@ 0 "" 2
 1733              		.thumb
 1734              		.syntax unified
 1735 002c 0029     		cmp	r1, #0
 1736 002e F3D1     		bne	.L285
 1737 0030 226E     		ldr	r2, [r4, #96]
 1738 0032 012A     		cmp	r2, #1
 1739 0034 07D1     		bne	.L286
 1740              	.L287:
 1741              		.syntax unified
 1742              	@ 1072 "Drivers/CMSIS/Include/cmsis_gcc.h" 1
 1743 0036 53E8002F 		ldrex r2, [r3]
 1744              	@ 0 "" 2
 1745              		.thumb
 1746              		.syntax unified
 1747 003a 22F01002 		bic	r2, r2, #16
 1748              		.syntax unified
 1749              	@ 1123 "Drivers/CMSIS/Include/cmsis_gcc.h" 1
 1750 003e 43E80021 		strex r1, r2, [r3]
 1751              	@ 0 "" 2
 1752              		.thumb
 1753              		.syntax unified
 1754 0042 0029     		cmp	r1, #0
 1755 0044 F7D1     		bne	.L287
 1756              	.L286:
 1757 0046 9A68     		ldr	r2, [r3, #8]
 1758 0048 12F04002 		ands	r2, r2, #64
 1759 004c 28D0     		beq	.L288
 1760              	.L289:
 1761 004e 03F10802 		add	r2, r3, #8
 1762              		.syntax unified
 1763              	@ 1072 "Drivers/CMSIS/Include/cmsis_gcc.h" 1
 1764 0052 52E8002F 		ldrex r2, [r2]
 1765              	@ 0 "" 2
 1766              		.thumb
 1767              		.syntax unified
 1768 0056 22F04002 		bic	r2, r2, #64
 1769 005a 03F10800 		add	r0, r3, #8
 1770              		.syntax unified
 1771              	@ 1123 "Drivers/CMSIS/Include/cmsis_gcc.h" 1
 1772 005e 40E80021 		strex r1, r2, [r0]
 1773              	@ 0 "" 2
 1774              		.thumb
 1775              		.syntax unified
ARM GAS  /tmp/ccAEwYvH.s 			page 31


 1776 0062 0029     		cmp	r1, #0
 1777 0064 F3D1     		bne	.L289
 1778 0066 606F     		ldr	r0, [r4, #116]
 1779 0068 48B1     		cbz	r0, .L290
 1780 006a 124B     		ldr	r3, .L300
 1781 006c 0365     		str	r3, [r0, #80]
 1782 006e FFF7FEFF 		bl	HAL_DMA_Abort_IT
 1783 0072 10B1     		cbz	r0, .L291
 1784 0074 606F     		ldr	r0, [r4, #116]
 1785 0076 036D     		ldr	r3, [r0, #80]
 1786 0078 9847     		blx	r3
 1787              	.L291:
 1788 007a 0020     		movs	r0, #0
 1789 007c 10BD     		pop	{r4, pc}
 1790              	.L290:
 1791 007e 0F22     		movs	r2, #15
 1792 0080 A4F85A00 		strh	r0, [r4, #90]	@ movhi
 1793 0084 6065     		str	r0, [r4, #84]
 1794 0086 1A62     		str	r2, [r3, #32]
 1795 0088 9A69     		ldr	r2, [r3, #24]
 1796 008a 42F00802 		orr	r2, r2, #8
 1797 008e 9A61     		str	r2, [r3, #24]
 1798 0090 2023     		movs	r3, #32
 1799 0092 C4F88030 		str	r3, [r4, #128]
 1800 0096 2066     		str	r0, [r4, #96]
 1801              	.L299:
 1802 0098 2046     		mov	r0, r4
 1803 009a FFF7FEFF 		bl	HAL_UART_AbortReceiveCpltCallback
 1804 009e ECE7     		b	.L291
 1805              	.L288:
 1806 00a0 0F21     		movs	r1, #15
 1807 00a2 A4F85A20 		strh	r2, [r4, #90]	@ movhi
 1808 00a6 6265     		str	r2, [r4, #84]
 1809 00a8 1962     		str	r1, [r3, #32]
 1810 00aa 2023     		movs	r3, #32
 1811 00ac C4F88030 		str	r3, [r4, #128]
 1812 00b0 2266     		str	r2, [r4, #96]
 1813 00b2 F1E7     		b	.L299
 1814              	.L301:
 1815              		.align	2
 1816              	.L300:
 1817 00b4 00000000 		.word	UART_DMARxOnlyAbortCallback
 1819              		.section	.text.UART_DMARxOnlyAbortCallback,"ax",%progbits
 1820              		.align	1
 1821              		.syntax unified
 1822              		.thumb
 1823              		.thumb_func
 1824              		.fpu fpv5-sp-d16
 1826              	UART_DMARxOnlyAbortCallback:
 1827              		@ args = 0, pretend = 0, frame = 0
 1828              		@ frame_needed = 0, uses_anonymous_args = 0
 1829 0000 806B     		ldr	r0, [r0, #56]
 1830 0002 0021     		movs	r1, #0
 1831 0004 0F22     		movs	r2, #15
 1832 0006 08B5     		push	{r3, lr}
 1833 0008 0368     		ldr	r3, [r0]
 1834 000a A0F85A10 		strh	r1, [r0, #90]	@ movhi
ARM GAS  /tmp/ccAEwYvH.s 			page 32


 1835 000e 1A62     		str	r2, [r3, #32]
 1836 0010 9A69     		ldr	r2, [r3, #24]
 1837 0012 42F00802 		orr	r2, r2, #8
 1838 0016 9A61     		str	r2, [r3, #24]
 1839 0018 2023     		movs	r3, #32
 1840 001a C0F88030 		str	r3, [r0, #128]
 1841 001e 0166     		str	r1, [r0, #96]
 1842 0020 FFF7FEFF 		bl	HAL_UART_AbortReceiveCpltCallback
 1843 0024 08BD     		pop	{r3, pc}
 1845              		.section	.text.HAL_UARTEx_RxEventCallback,"ax",%progbits
 1846              		.align	1
 1847              		.weak	HAL_UARTEx_RxEventCallback
 1848              		.syntax unified
 1849              		.thumb
 1850              		.thumb_func
 1851              		.fpu fpv5-sp-d16
 1853              	HAL_UARTEx_RxEventCallback:
 1854              		@ args = 0, pretend = 0, frame = 0
 1855              		@ frame_needed = 0, uses_anonymous_args = 0
 1856              		@ link register save eliminated.
 1857 0000 7047     		bx	lr
 1859              		.section	.text.HAL_UART_IRQHandler,"ax",%progbits
 1860              		.align	1
 1861              		.global	HAL_UART_IRQHandler
 1862              		.syntax unified
 1863              		.thumb
 1864              		.thumb_func
 1865              		.fpu fpv5-sp-d16
 1867              	HAL_UART_IRQHandler:
 1868              		@ args = 0, pretend = 0, frame = 0
 1869              		@ frame_needed = 0, uses_anonymous_args = 0
 1870 0000 0368     		ldr	r3, [r0]
 1871 0002 70B5     		push	{r4, r5, r6, lr}
 1872 0004 DA69     		ldr	r2, [r3, #28]
 1873 0006 40F60F06 		movw	r6, #2063
 1874 000a 1968     		ldr	r1, [r3]
 1875 000c 0446     		mov	r4, r0
 1876 000e 3242     		tst	r2, r6
 1877 0010 9D68     		ldr	r5, [r3, #8]
 1878 0012 0BD1     		bne	.L305
 1879 0014 9606     		lsls	r6, r2, #26
 1880 0016 40F18880 		bpl	.L306
 1881 001a 8D06     		lsls	r5, r1, #26
 1882 001c 40F18580 		bpl	.L306
 1883 0020 836E     		ldr	r3, [r0, #104]
 1884 0022 002B     		cmp	r3, #0
 1885 0024 7BD0     		beq	.L304
 1886              	.L434:
 1887 0026 BDE87040 		pop	{r4, r5, r6, lr}
 1888 002a 1847     		bx	r3	@ indirect register sibling call
 1889              	.L305:
 1890 002c 05F00100 		and	r0, r5, #1
 1891 0030 934D     		ldr	r5, .L435
 1892 0032 0D40     		ands	r5, r5, r1
 1893 0034 0543     		orrs	r5, r5, r0
 1894 0036 78D0     		beq	.L306
 1895 0038 D607     		lsls	r6, r2, #31
ARM GAS  /tmp/ccAEwYvH.s 			page 33


 1896 003a 09D5     		bpl	.L309
 1897 003c CD05     		lsls	r5, r1, #23
 1898 003e 07D5     		bpl	.L309
 1899 0040 0125     		movs	r5, #1
 1900 0042 1D62     		str	r5, [r3, #32]
 1901 0044 D4F88450 		ldr	r5, [r4, #132]
 1902 0048 45F00105 		orr	r5, r5, #1
 1903 004c C4F88450 		str	r5, [r4, #132]
 1904              	.L309:
 1905 0050 9607     		lsls	r6, r2, #30
 1906 0052 08D5     		bpl	.L310
 1907 0054 38B1     		cbz	r0, .L310
 1908 0056 0225     		movs	r5, #2
 1909 0058 1D62     		str	r5, [r3, #32]
 1910 005a D4F88450 		ldr	r5, [r4, #132]
 1911 005e 45F00405 		orr	r5, r5, #4
 1912 0062 C4F88450 		str	r5, [r4, #132]
 1913              	.L310:
 1914 0066 5507     		lsls	r5, r2, #29
 1915 0068 08D5     		bpl	.L311
 1916 006a 38B1     		cbz	r0, .L311
 1917 006c 0425     		movs	r5, #4
 1918 006e 1D62     		str	r5, [r3, #32]
 1919 0070 D4F88450 		ldr	r5, [r4, #132]
 1920 0074 45F00205 		orr	r5, r5, #2
 1921 0078 C4F88450 		str	r5, [r4, #132]
 1922              	.L311:
 1923 007c 1607     		lsls	r6, r2, #28
 1924 007e 0BD5     		bpl	.L312
 1925 0080 01F02005 		and	r5, r1, #32
 1926 0084 2843     		orrs	r0, r5, r0
 1927 0086 07D0     		beq	.L312
 1928 0088 0820     		movs	r0, #8
 1929 008a 1862     		str	r0, [r3, #32]
 1930 008c D4F88400 		ldr	r0, [r4, #132]
 1931 0090 40F00800 		orr	r0, r0, #8
 1932 0094 C4F88400 		str	r0, [r4, #132]
 1933              	.L312:
 1934 0098 1505     		lsls	r5, r2, #20
 1935 009a 0AD5     		bpl	.L313
 1936 009c 4801     		lsls	r0, r1, #5
 1937 009e 08D5     		bpl	.L313
 1938 00a0 4FF40060 		mov	r0, #2048
 1939 00a4 1862     		str	r0, [r3, #32]
 1940 00a6 D4F88430 		ldr	r3, [r4, #132]
 1941 00aa 43F02003 		orr	r3, r3, #32
 1942 00ae C4F88430 		str	r3, [r4, #132]
 1943              	.L313:
 1944 00b2 D4F88430 		ldr	r3, [r4, #132]
 1945 00b6 002B     		cmp	r3, #0
 1946 00b8 31D0     		beq	.L304
 1947 00ba 9206     		lsls	r2, r2, #26
 1948 00bc 05D5     		bpl	.L315
 1949 00be 8B06     		lsls	r3, r1, #26
 1950 00c0 03D5     		bpl	.L315
 1951 00c2 A36E     		ldr	r3, [r4, #104]
 1952 00c4 0BB1     		cbz	r3, .L315
ARM GAS  /tmp/ccAEwYvH.s 			page 34


 1953 00c6 2046     		mov	r0, r4
 1954 00c8 9847     		blx	r3
 1955              	.L315:
 1956 00ca 2368     		ldr	r3, [r4]
 1957 00cc 2046     		mov	r0, r4
 1958 00ce D4F88450 		ldr	r5, [r4, #132]
 1959 00d2 9B68     		ldr	r3, [r3, #8]
 1960 00d4 05F02805 		and	r5, r5, #40
 1961 00d8 03F04003 		and	r3, r3, #64
 1962 00dc 1D43     		orrs	r5, r5, r3
 1963 00de 1FD0     		beq	.L316
 1964 00e0 FFF7FEFF 		bl	UART_EndRxTransfer
 1965 00e4 2268     		ldr	r2, [r4]
 1966 00e6 9368     		ldr	r3, [r2, #8]
 1967 00e8 5E06     		lsls	r6, r3, #25
 1968 00ea 15D5     		bpl	.L317
 1969              	.L318:
 1970 00ec 02F10803 		add	r3, r2, #8
 1971              		.syntax unified
 1972              	@ 1072 "Drivers/CMSIS/Include/cmsis_gcc.h" 1
 1973 00f0 53E8003F 		ldrex r3, [r3]
 1974              	@ 0 "" 2
 1975              		.thumb
 1976              		.syntax unified
 1977 00f4 23F04003 		bic	r3, r3, #64
 1978 00f8 02F10800 		add	r0, r2, #8
 1979              		.syntax unified
 1980              	@ 1123 "Drivers/CMSIS/Include/cmsis_gcc.h" 1
 1981 00fc 40E80031 		strex r1, r3, [r0]
 1982              	@ 0 "" 2
 1983              		.thumb
 1984              		.syntax unified
 1985 0100 0029     		cmp	r1, #0
 1986 0102 F3D1     		bne	.L318
 1987 0104 606F     		ldr	r0, [r4, #116]
 1988 0106 38B1     		cbz	r0, .L317
 1989 0108 5E4B     		ldr	r3, .L435+4
 1990 010a 0365     		str	r3, [r0, #80]
 1991 010c FFF7FEFF 		bl	HAL_DMA_Abort_IT
 1992 0110 28B1     		cbz	r0, .L304
 1993 0112 606F     		ldr	r0, [r4, #116]
 1994 0114 036D     		ldr	r3, [r0, #80]
 1995 0116 86E7     		b	.L434
 1996              	.L317:
 1997 0118 2046     		mov	r0, r4
 1998 011a FFF7FEFF 		bl	HAL_UART_ErrorCallback
 1999              	.L304:
 2000 011e 70BD     		pop	{r4, r5, r6, pc}
 2001              	.L316:
 2002 0120 FFF7FEFF 		bl	HAL_UART_ErrorCallback
 2003 0124 C4F88450 		str	r5, [r4, #132]
 2004 0128 F9E7     		b	.L304
 2005              	.L306:
 2006 012a 206E     		ldr	r0, [r4, #96]
 2007 012c 0128     		cmp	r0, #1
 2008 012e 40F08880 		bne	.L319
 2009 0132 D506     		lsls	r5, r2, #27
ARM GAS  /tmp/ccAEwYvH.s 			page 35


 2010 0134 40F18580 		bpl	.L319
 2011 0138 C806     		lsls	r0, r1, #27
 2012 013a 40F18280 		bpl	.L319
 2013 013e 1022     		movs	r2, #16
 2014 0140 1A62     		str	r2, [r3, #32]
 2015 0142 9A68     		ldr	r2, [r3, #8]
 2016 0144 5206     		lsls	r2, r2, #25
 2017 0146 4AD5     		bpl	.L320
 2018 0148 616F     		ldr	r1, [r4, #116]
 2019 014a 0A68     		ldr	r2, [r1]
 2020 014c 5268     		ldr	r2, [r2, #4]
 2021 014e 92B2     		uxth	r2, r2
 2022 0150 002A     		cmp	r2, #0
 2023 0152 E4D0     		beq	.L304
 2024 0154 B4F85800 		ldrh	r0, [r4, #88]
 2025 0158 9042     		cmp	r0, r2
 2026 015a E0D9     		bls	.L304
 2027 015c A4F85A20 		strh	r2, [r4, #90]	@ movhi
 2028 0160 CA69     		ldr	r2, [r1, #28]
 2029 0162 B2F5807F 		cmp	r2, #256
 2030 0166 2ED0     		beq	.L321
 2031              	.L322:
 2032              		.syntax unified
 2033              	@ 1072 "Drivers/CMSIS/Include/cmsis_gcc.h" 1
 2034 0168 53E8002F 		ldrex r2, [r3]
 2035              	@ 0 "" 2
 2036              		.thumb
 2037              		.syntax unified
 2038 016c 22F48072 		bic	r2, r2, #256
 2039              		.syntax unified
 2040              	@ 1123 "Drivers/CMSIS/Include/cmsis_gcc.h" 1
 2041 0170 43E80021 		strex r1, r2, [r3]
 2042              	@ 0 "" 2
 2043              		.thumb
 2044              		.syntax unified
 2045 0174 0029     		cmp	r1, #0
 2046 0176 F7D1     		bne	.L322
 2047              	.L323:
 2048 0178 03F10802 		add	r2, r3, #8
 2049              		.syntax unified
 2050              	@ 1072 "Drivers/CMSIS/Include/cmsis_gcc.h" 1
 2051 017c 52E8002F 		ldrex r2, [r2]
 2052              	@ 0 "" 2
 2053              		.thumb
 2054              		.syntax unified
 2055 0180 22F00102 		bic	r2, r2, #1
 2056 0184 03F10800 		add	r0, r3, #8
 2057              		.syntax unified
 2058              	@ 1123 "Drivers/CMSIS/Include/cmsis_gcc.h" 1
 2059 0188 40E80021 		strex r1, r2, [r0]
 2060              	@ 0 "" 2
 2061              		.thumb
 2062              		.syntax unified
 2063 018c 0029     		cmp	r1, #0
 2064 018e F3D1     		bne	.L323
 2065              	.L324:
 2066 0190 03F10802 		add	r2, r3, #8
ARM GAS  /tmp/ccAEwYvH.s 			page 36


 2067              		.syntax unified
 2068              	@ 1072 "Drivers/CMSIS/Include/cmsis_gcc.h" 1
 2069 0194 52E8002F 		ldrex r2, [r2]
 2070              	@ 0 "" 2
 2071              		.thumb
 2072              		.syntax unified
 2073 0198 22F04002 		bic	r2, r2, #64
 2074 019c 03F10800 		add	r0, r3, #8
 2075              		.syntax unified
 2076              	@ 1123 "Drivers/CMSIS/Include/cmsis_gcc.h" 1
 2077 01a0 40E80021 		strex r1, r2, [r0]
 2078              	@ 0 "" 2
 2079              		.thumb
 2080              		.syntax unified
 2081 01a4 0029     		cmp	r1, #0
 2082 01a6 F3D1     		bne	.L324
 2083 01a8 2022     		movs	r2, #32
 2084 01aa C4F88020 		str	r2, [r4, #128]
 2085 01ae 2166     		str	r1, [r4, #96]
 2086              	.L325:
 2087              		.syntax unified
 2088              	@ 1072 "Drivers/CMSIS/Include/cmsis_gcc.h" 1
 2089 01b0 53E8002F 		ldrex r2, [r3]
 2090              	@ 0 "" 2
 2091              		.thumb
 2092              		.syntax unified
 2093 01b4 22F01002 		bic	r2, r2, #16
 2094              		.syntax unified
 2095              	@ 1123 "Drivers/CMSIS/Include/cmsis_gcc.h" 1
 2096 01b8 43E80021 		strex r1, r2, [r3]
 2097              	@ 0 "" 2
 2098              		.thumb
 2099              		.syntax unified
 2100 01bc 0029     		cmp	r1, #0
 2101 01be F7D1     		bne	.L325
 2102 01c0 606F     		ldr	r0, [r4, #116]
 2103 01c2 FFF7FEFF 		bl	HAL_DMA_Abort
 2104              	.L321:
 2105 01c6 0223     		movs	r3, #2
 2106 01c8 B4F85810 		ldrh	r1, [r4, #88]
 2107 01cc 6366     		str	r3, [r4, #100]
 2108 01ce B4F85A30 		ldrh	r3, [r4, #90]
 2109 01d2 C91A     		subs	r1, r1, r3
 2110 01d4 89B2     		uxth	r1, r1
 2111              	.L433:
 2112 01d6 2046     		mov	r0, r4
 2113 01d8 FFF7FEFF 		bl	HAL_UARTEx_RxEventCallback
 2114 01dc 9FE7     		b	.L304
 2115              	.L320:
 2116 01de B4F85A10 		ldrh	r1, [r4, #90]
 2117 01e2 8AB2     		uxth	r2, r1
 2118 01e4 B4F85A10 		ldrh	r1, [r4, #90]
 2119 01e8 89B2     		uxth	r1, r1
 2120 01ea 0029     		cmp	r1, #0
 2121 01ec 97D0     		beq	.L304
 2122 01ee B4F85810 		ldrh	r1, [r4, #88]
 2123 01f2 891A     		subs	r1, r1, r2
ARM GAS  /tmp/ccAEwYvH.s 			page 37


 2124 01f4 89B2     		uxth	r1, r1
 2125 01f6 0029     		cmp	r1, #0
 2126 01f8 91D0     		beq	.L304
 2127              	.L326:
 2128              		.syntax unified
 2129              	@ 1072 "Drivers/CMSIS/Include/cmsis_gcc.h" 1
 2130 01fa 53E8002F 		ldrex r2, [r3]
 2131              	@ 0 "" 2
 2132              		.thumb
 2133              		.syntax unified
 2134 01fe 22F49072 		bic	r2, r2, #288
 2135              		.syntax unified
 2136              	@ 1123 "Drivers/CMSIS/Include/cmsis_gcc.h" 1
 2137 0202 43E80020 		strex r0, r2, [r3]
 2138              	@ 0 "" 2
 2139              		.thumb
 2140              		.syntax unified
 2141 0206 0028     		cmp	r0, #0
 2142 0208 F7D1     		bne	.L326
 2143              	.L327:
 2144 020a 03F10802 		add	r2, r3, #8
 2145              		.syntax unified
 2146              	@ 1072 "Drivers/CMSIS/Include/cmsis_gcc.h" 1
 2147 020e 52E8002F 		ldrex r2, [r2]
 2148              	@ 0 "" 2
 2149              		.thumb
 2150              		.syntax unified
 2151 0212 22F00102 		bic	r2, r2, #1
 2152 0216 03F10805 		add	r5, r3, #8
 2153              		.syntax unified
 2154              	@ 1123 "Drivers/CMSIS/Include/cmsis_gcc.h" 1
 2155 021a 45E80020 		strex r0, r2, [r5]
 2156              	@ 0 "" 2
 2157              		.thumb
 2158              		.syntax unified
 2159 021e 0028     		cmp	r0, #0
 2160 0220 F3D1     		bne	.L327
 2161 0222 2022     		movs	r2, #32
 2162 0224 A066     		str	r0, [r4, #104]
 2163 0226 C4F88020 		str	r2, [r4, #128]
 2164 022a 2066     		str	r0, [r4, #96]
 2165              	.L328:
 2166              		.syntax unified
 2167              	@ 1072 "Drivers/CMSIS/Include/cmsis_gcc.h" 1
 2168 022c 53E8002F 		ldrex r2, [r3]
 2169              	@ 0 "" 2
 2170              		.thumb
 2171              		.syntax unified
 2172 0230 22F01002 		bic	r2, r2, #16
 2173              		.syntax unified
 2174              	@ 1123 "Drivers/CMSIS/Include/cmsis_gcc.h" 1
 2175 0234 43E80020 		strex r0, r2, [r3]
 2176              	@ 0 "" 2
 2177              		.thumb
 2178              		.syntax unified
 2179 0238 0028     		cmp	r0, #0
 2180 023a F7D1     		bne	.L328
ARM GAS  /tmp/ccAEwYvH.s 			page 38


 2181 023c 0223     		movs	r3, #2
 2182 023e 6366     		str	r3, [r4, #100]
 2183 0240 C9E7     		b	.L433
 2184              	.L319:
 2185 0242 1606     		lsls	r6, r2, #24
 2186 0244 07D5     		bpl	.L329
 2187 0246 0D06     		lsls	r5, r1, #24
 2188 0248 05D5     		bpl	.L329
 2189 024a E36E     		ldr	r3, [r4, #108]
 2190 024c 002B     		cmp	r3, #0
 2191 024e 3FF466AF 		beq	.L304
 2192 0252 2046     		mov	r0, r4
 2193 0254 E7E6     		b	.L434
 2194              	.L329:
 2195 0256 5006     		lsls	r0, r2, #25
 2196 0258 7FF561AF 		bpl	.L304
 2197 025c 4A06     		lsls	r2, r1, #25
 2198 025e 7FF55EAF 		bpl	.L304
 2199              	.L330:
 2200              		.syntax unified
 2201              	@ 1072 "Drivers/CMSIS/Include/cmsis_gcc.h" 1
 2202 0262 53E8002F 		ldrex r2, [r3]
 2203              	@ 0 "" 2
 2204              		.thumb
 2205              		.syntax unified
 2206 0266 22F04002 		bic	r2, r2, #64
 2207              		.syntax unified
 2208              	@ 1123 "Drivers/CMSIS/Include/cmsis_gcc.h" 1
 2209 026a 43E80021 		strex r1, r2, [r3]
 2210              	@ 0 "" 2
 2211              		.thumb
 2212              		.syntax unified
 2213 026e 0029     		cmp	r1, #0
 2214 0270 F7D1     		bne	.L330
 2215 0272 2023     		movs	r3, #32
 2216 0274 2046     		mov	r0, r4
 2217 0276 E166     		str	r1, [r4, #108]
 2218 0278 E367     		str	r3, [r4, #124]
 2219 027a FFF7FEFF 		bl	HAL_UART_TxCpltCallback
 2220 027e 4EE7     		b	.L304
 2221              	.L436:
 2222              		.align	2
 2223              	.L435:
 2224 0280 20010004 		.word	67109152
 2225 0284 00000000 		.word	UART_DMAAbortOnError
 2227              		.section	.text.UART_RxISR_8BIT,"ax",%progbits
 2228              		.align	1
 2229              		.syntax unified
 2230              		.thumb
 2231              		.thumb_func
 2232              		.fpu fpv5-sp-d16
 2234              	UART_RxISR_8BIT:
 2235              		@ args = 0, pretend = 0, frame = 0
 2236              		@ frame_needed = 0, uses_anonymous_args = 0
 2237 0000 D0F88020 		ldr	r2, [r0, #128]
 2238 0004 222A     		cmp	r2, #34
 2239 0006 08B5     		push	{r3, lr}
ARM GAS  /tmp/ccAEwYvH.s 			page 39


 2240 0008 0368     		ldr	r3, [r0]
 2241 000a 45D1     		bne	.L438
 2242 000c 5B6A     		ldr	r3, [r3, #36]
 2243 000e B0F85C10 		ldrh	r1, [r0, #92]
 2244 0012 426D     		ldr	r2, [r0, #84]
 2245 0014 0B40     		ands	r3, r3, r1
 2246 0016 1370     		strb	r3, [r2]
 2247 0018 436D     		ldr	r3, [r0, #84]
 2248 001a 0133     		adds	r3, r3, #1
 2249 001c 4365     		str	r3, [r0, #84]
 2250 001e B0F85A30 		ldrh	r3, [r0, #90]
 2251 0022 013B     		subs	r3, r3, #1
 2252 0024 9BB2     		uxth	r3, r3
 2253 0026 A0F85A30 		strh	r3, [r0, #90]	@ movhi
 2254 002a B0F85A30 		ldrh	r3, [r0, #90]
 2255 002e 9BB2     		uxth	r3, r3
 2256 0030 73BB     		cbnz	r3, .L437
 2257              	.L440:
 2258 0032 0268     		ldr	r2, [r0]
 2259              		.syntax unified
 2260              	@ 1072 "Drivers/CMSIS/Include/cmsis_gcc.h" 1
 2261 0034 52E8003F 		ldrex r3, [r2]
 2262              	@ 0 "" 2
 2263              		.thumb
 2264              		.syntax unified
 2265 0038 23F49073 		bic	r3, r3, #288
 2266              		.syntax unified
 2267              	@ 1123 "Drivers/CMSIS/Include/cmsis_gcc.h" 1
 2268 003c 42E80031 		strex r1, r3, [r2]
 2269              	@ 0 "" 2
 2270              		.thumb
 2271              		.syntax unified
 2272 0040 0368     		ldr	r3, [r0]
 2273 0042 0029     		cmp	r1, #0
 2274 0044 F5D1     		bne	.L440
 2275              	.L441:
 2276 0046 03F10802 		add	r2, r3, #8
 2277              		.syntax unified
 2278              	@ 1072 "Drivers/CMSIS/Include/cmsis_gcc.h" 1
 2279 004a 52E8001F 		ldrex r1, [r2]
 2280              	@ 0 "" 2
 2281              		.thumb
 2282              		.syntax unified
 2283 004e 21F00101 		bic	r1, r1, #1
 2284 0052 9446     		mov	ip, r2
 2285              		.syntax unified
 2286              	@ 1123 "Drivers/CMSIS/Include/cmsis_gcc.h" 1
 2287 0054 4CE80012 		strex r2, r1, [ip]
 2288              	@ 0 "" 2
 2289              		.thumb
 2290              		.syntax unified
 2291 0058 002A     		cmp	r2, #0
 2292 005a F4D1     		bne	.L441
 2293 005c 2021     		movs	r1, #32
 2294 005e 8266     		str	r2, [r0, #104]
 2295 0060 C0F88010 		str	r1, [r0, #128]
 2296 0064 4266     		str	r2, [r0, #100]
ARM GAS  /tmp/ccAEwYvH.s 			page 40


 2297 0066 016E     		ldr	r1, [r0, #96]
 2298 0068 0129     		cmp	r1, #1
 2299 006a 12D1     		bne	.L442
 2300 006c 0266     		str	r2, [r0, #96]
 2301              	.L443:
 2302              		.syntax unified
 2303              	@ 1072 "Drivers/CMSIS/Include/cmsis_gcc.h" 1
 2304 006e 53E8002F 		ldrex r2, [r3]
 2305              	@ 0 "" 2
 2306              		.thumb
 2307              		.syntax unified
 2308 0072 22F01002 		bic	r2, r2, #16
 2309              		.syntax unified
 2310              	@ 1123 "Drivers/CMSIS/Include/cmsis_gcc.h" 1
 2311 0076 43E80021 		strex r1, r2, [r3]
 2312              	@ 0 "" 2
 2313              		.thumb
 2314              		.syntax unified
 2315 007a 0029     		cmp	r1, #0
 2316 007c F7D1     		bne	.L443
 2317 007e DA69     		ldr	r2, [r3, #28]
 2318 0080 D206     		lsls	r2, r2, #27
 2319 0082 01D5     		bpl	.L444
 2320 0084 1022     		movs	r2, #16
 2321 0086 1A62     		str	r2, [r3, #32]
 2322              	.L444:
 2323 0088 B0F85810 		ldrh	r1, [r0, #88]
 2324 008c FFF7FEFF 		bl	HAL_UARTEx_RxEventCallback
 2325              	.L437:
 2326 0090 08BD     		pop	{r3, pc}
 2327              	.L442:
 2328 0092 FFF7FEFF 		bl	HAL_UART_RxCpltCallback
 2329 0096 FBE7     		b	.L437
 2330              	.L438:
 2331 0098 9A69     		ldr	r2, [r3, #24]
 2332 009a 42F00802 		orr	r2, r2, #8
 2333 009e 9A61     		str	r2, [r3, #24]
 2334 00a0 F6E7     		b	.L437
 2336              		.section	.text.UART_RxISR_16BIT,"ax",%progbits
 2337              		.align	1
 2338              		.syntax unified
 2339              		.thumb
 2340              		.thumb_func
 2341              		.fpu fpv5-sp-d16
 2343              	UART_RxISR_16BIT:
 2344              		@ args = 0, pretend = 0, frame = 0
 2345              		@ frame_needed = 0, uses_anonymous_args = 0
 2346 0000 D0F88020 		ldr	r2, [r0, #128]
 2347 0004 222A     		cmp	r2, #34
 2348 0006 08B5     		push	{r3, lr}
 2349 0008 0368     		ldr	r3, [r0]
 2350 000a 42D1     		bne	.L452
 2351 000c 596A     		ldr	r1, [r3, #36]
 2352 000e B0F85C20 		ldrh	r2, [r0, #92]
 2353 0012 1140     		ands	r1, r1, r2
 2354 0014 426D     		ldr	r2, [r0, #84]
 2355 0016 22F8021B 		strh	r1, [r2], #2	@ movhi
ARM GAS  /tmp/ccAEwYvH.s 			page 41


 2356 001a 4265     		str	r2, [r0, #84]
 2357 001c B0F85A20 		ldrh	r2, [r0, #90]
 2358 0020 013A     		subs	r2, r2, #1
 2359 0022 92B2     		uxth	r2, r2
 2360 0024 A0F85A20 		strh	r2, [r0, #90]	@ movhi
 2361 0028 B0F85A20 		ldrh	r2, [r0, #90]
 2362 002c 92B2     		uxth	r2, r2
 2363 002e 62BB     		cbnz	r2, .L451
 2364              	.L454:
 2365              		.syntax unified
 2366              	@ 1072 "Drivers/CMSIS/Include/cmsis_gcc.h" 1
 2367 0030 53E8002F 		ldrex r2, [r3]
 2368              	@ 0 "" 2
 2369              		.thumb
 2370              		.syntax unified
 2371 0034 22F49072 		bic	r2, r2, #288
 2372              		.syntax unified
 2373              	@ 1123 "Drivers/CMSIS/Include/cmsis_gcc.h" 1
 2374 0038 43E80021 		strex r1, r2, [r3]
 2375              	@ 0 "" 2
 2376              		.thumb
 2377              		.syntax unified
 2378 003c 0029     		cmp	r1, #0
 2379 003e F7D1     		bne	.L454
 2380              	.L455:
 2381 0040 03F10802 		add	r2, r3, #8
 2382              		.syntax unified
 2383              	@ 1072 "Drivers/CMSIS/Include/cmsis_gcc.h" 1
 2384 0044 52E8001F 		ldrex r1, [r2]
 2385              	@ 0 "" 2
 2386              		.thumb
 2387              		.syntax unified
 2388 0048 21F00101 		bic	r1, r1, #1
 2389 004c 9446     		mov	ip, r2
 2390              		.syntax unified
 2391              	@ 1123 "Drivers/CMSIS/Include/cmsis_gcc.h" 1
 2392 004e 4CE80012 		strex r2, r1, [ip]
 2393              	@ 0 "" 2
 2394              		.thumb
 2395              		.syntax unified
 2396 0052 002A     		cmp	r2, #0
 2397 0054 F4D1     		bne	.L455
 2398 0056 2021     		movs	r1, #32
 2399 0058 8266     		str	r2, [r0, #104]
 2400 005a C0F88010 		str	r1, [r0, #128]
 2401 005e 4266     		str	r2, [r0, #100]
 2402 0060 016E     		ldr	r1, [r0, #96]
 2403 0062 0129     		cmp	r1, #1
 2404 0064 12D1     		bne	.L456
 2405 0066 0266     		str	r2, [r0, #96]
 2406              	.L457:
 2407              		.syntax unified
 2408              	@ 1072 "Drivers/CMSIS/Include/cmsis_gcc.h" 1
 2409 0068 53E8002F 		ldrex r2, [r3]
 2410              	@ 0 "" 2
 2411              		.thumb
 2412              		.syntax unified
ARM GAS  /tmp/ccAEwYvH.s 			page 42


 2413 006c 22F01002 		bic	r2, r2, #16
 2414              		.syntax unified
 2415              	@ 1123 "Drivers/CMSIS/Include/cmsis_gcc.h" 1
 2416 0070 43E80021 		strex r1, r2, [r3]
 2417              	@ 0 "" 2
 2418              		.thumb
 2419              		.syntax unified
 2420 0074 0029     		cmp	r1, #0
 2421 0076 F7D1     		bne	.L457
 2422 0078 DA69     		ldr	r2, [r3, #28]
 2423 007a D206     		lsls	r2, r2, #27
 2424 007c 01D5     		bpl	.L458
 2425 007e 1022     		movs	r2, #16
 2426 0080 1A62     		str	r2, [r3, #32]
 2427              	.L458:
 2428 0082 B0F85810 		ldrh	r1, [r0, #88]
 2429 0086 FFF7FEFF 		bl	HAL_UARTEx_RxEventCallback
 2430              	.L451:
 2431 008a 08BD     		pop	{r3, pc}
 2432              	.L456:
 2433 008c FFF7FEFF 		bl	HAL_UART_RxCpltCallback
 2434 0090 FBE7     		b	.L451
 2435              	.L452:
 2436 0092 9A69     		ldr	r2, [r3, #24]
 2437 0094 42F00802 		orr	r2, r2, #8
 2438 0098 9A61     		str	r2, [r3, #24]
 2439 009a F6E7     		b	.L451
 2441              		.section	.text.UART_DMARxHalfCplt,"ax",%progbits
 2442              		.align	1
 2443              		.syntax unified
 2444              		.thumb
 2445              		.thumb_func
 2446              		.fpu fpv5-sp-d16
 2448              	UART_DMARxHalfCplt:
 2449              		@ args = 0, pretend = 0, frame = 0
 2450              		@ frame_needed = 0, uses_anonymous_args = 0
 2451 0000 806B     		ldr	r0, [r0, #56]
 2452 0002 08B5     		push	{r3, lr}
 2453 0004 0123     		movs	r3, #1
 2454 0006 4366     		str	r3, [r0, #100]
 2455 0008 036E     		ldr	r3, [r0, #96]
 2456 000a 012B     		cmp	r3, #1
 2457 000c 05D1     		bne	.L466
 2458 000e B0F85810 		ldrh	r1, [r0, #88]
 2459 0012 4908     		lsrs	r1, r1, #1
 2460 0014 FFF7FEFF 		bl	HAL_UARTEx_RxEventCallback
 2461              	.L465:
 2462 0018 08BD     		pop	{r3, pc}
 2463              	.L466:
 2464 001a FFF7FEFF 		bl	HAL_UART_RxHalfCpltCallback
 2465 001e FBE7     		b	.L465
 2467              		.section	.text.UART_DMAReceiveCplt,"ax",%progbits
 2468              		.align	1
 2469              		.syntax unified
 2470              		.thumb
 2471              		.thumb_func
 2472              		.fpu fpv5-sp-d16
ARM GAS  /tmp/ccAEwYvH.s 			page 43


 2474              	UART_DMAReceiveCplt:
 2475              		@ args = 0, pretend = 0, frame = 0
 2476              		@ frame_needed = 0, uses_anonymous_args = 0
 2477 0000 08B5     		push	{r3, lr}
 2478 0002 0346     		mov	r3, r0
 2479 0004 806B     		ldr	r0, [r0, #56]
 2480 0006 DB69     		ldr	r3, [r3, #28]
 2481 0008 B3F5807F 		cmp	r3, #256
 2482 000c 32D0     		beq	.L469
 2483 000e 0023     		movs	r3, #0
 2484 0010 A0F85A30 		strh	r3, [r0, #90]	@ movhi
 2485              	.L470:
 2486 0014 0268     		ldr	r2, [r0]
 2487              		.syntax unified
 2488              	@ 1072 "Drivers/CMSIS/Include/cmsis_gcc.h" 1
 2489 0016 52E8003F 		ldrex r3, [r2]
 2490              	@ 0 "" 2
 2491              		.thumb
 2492              		.syntax unified
 2493 001a 23F48073 		bic	r3, r3, #256
 2494              		.syntax unified
 2495              	@ 1123 "Drivers/CMSIS/Include/cmsis_gcc.h" 1
 2496 001e 42E80031 		strex r1, r3, [r2]
 2497              	@ 0 "" 2
 2498              		.thumb
 2499              		.syntax unified
 2500 0022 0368     		ldr	r3, [r0]
 2501 0024 0029     		cmp	r1, #0
 2502 0026 F5D1     		bne	.L470
 2503              	.L471:
 2504 0028 03F10802 		add	r2, r3, #8
 2505              		.syntax unified
 2506              	@ 1072 "Drivers/CMSIS/Include/cmsis_gcc.h" 1
 2507 002c 52E8002F 		ldrex r2, [r2]
 2508              	@ 0 "" 2
 2509              		.thumb
 2510              		.syntax unified
 2511 0030 22F00102 		bic	r2, r2, #1
 2512 0034 03F1080C 		add	ip, r3, #8
 2513              		.syntax unified
 2514              	@ 1123 "Drivers/CMSIS/Include/cmsis_gcc.h" 1
 2515 0038 4CE80021 		strex r1, r2, [ip]
 2516              	@ 0 "" 2
 2517              		.thumb
 2518              		.syntax unified
 2519 003c 0029     		cmp	r1, #0
 2520 003e F3D1     		bne	.L471
 2521              	.L472:
 2522 0040 03F10802 		add	r2, r3, #8
 2523              		.syntax unified
 2524              	@ 1072 "Drivers/CMSIS/Include/cmsis_gcc.h" 1
 2525 0044 52E8002F 		ldrex r2, [r2]
 2526              	@ 0 "" 2
 2527              		.thumb
 2528              		.syntax unified
 2529 0048 22F04002 		bic	r2, r2, #64
 2530 004c 03F1080C 		add	ip, r3, #8
ARM GAS  /tmp/ccAEwYvH.s 			page 44


 2531              		.syntax unified
 2532              	@ 1123 "Drivers/CMSIS/Include/cmsis_gcc.h" 1
 2533 0050 4CE80021 		strex r1, r2, [ip]
 2534              	@ 0 "" 2
 2535              		.thumb
 2536              		.syntax unified
 2537 0054 0029     		cmp	r1, #0
 2538 0056 F3D1     		bne	.L472
 2539 0058 2022     		movs	r2, #32
 2540 005a C0F88020 		str	r2, [r0, #128]
 2541 005e 026E     		ldr	r2, [r0, #96]
 2542 0060 012A     		cmp	r2, #1
 2543 0062 07D1     		bne	.L469
 2544              	.L473:
 2545              		.syntax unified
 2546              	@ 1072 "Drivers/CMSIS/Include/cmsis_gcc.h" 1
 2547 0064 53E8002F 		ldrex r2, [r3]
 2548              	@ 0 "" 2
 2549              		.thumb
 2550              		.syntax unified
 2551 0068 22F01002 		bic	r2, r2, #16
 2552              		.syntax unified
 2553              	@ 1123 "Drivers/CMSIS/Include/cmsis_gcc.h" 1
 2554 006c 43E80021 		strex r1, r2, [r3]
 2555              	@ 0 "" 2
 2556              		.thumb
 2557              		.syntax unified
 2558 0070 0029     		cmp	r1, #0
 2559 0072 F7D1     		bne	.L473
 2560              	.L469:
 2561 0074 0023     		movs	r3, #0
 2562 0076 4366     		str	r3, [r0, #100]
 2563 0078 036E     		ldr	r3, [r0, #96]
 2564 007a 012B     		cmp	r3, #1
 2565 007c 04D1     		bne	.L474
 2566 007e B0F85810 		ldrh	r1, [r0, #88]
 2567 0082 FFF7FEFF 		bl	HAL_UARTEx_RxEventCallback
 2568              	.L468:
 2569 0086 08BD     		pop	{r3, pc}
 2570              	.L474:
 2571 0088 FFF7FEFF 		bl	HAL_UART_RxCpltCallback
 2572 008c FBE7     		b	.L468
 2574              		.section	.text.HAL_UART_ReceiverTimeout_Config,"ax",%progbits
 2575              		.align	1
 2576              		.global	HAL_UART_ReceiverTimeout_Config
 2577              		.syntax unified
 2578              		.thumb
 2579              		.thumb_func
 2580              		.fpu fpv5-sp-d16
 2582              	HAL_UART_ReceiverTimeout_Config:
 2583              		@ args = 0, pretend = 0, frame = 0
 2584              		@ frame_needed = 0, uses_anonymous_args = 0
 2585              		@ link register save eliminated.
 2586 0000 0268     		ldr	r2, [r0]
 2587 0002 5369     		ldr	r3, [r2, #20]
 2588 0004 03F07F43 		and	r3, r3, #-16777216
 2589 0008 1943     		orrs	r1, r1, r3
ARM GAS  /tmp/ccAEwYvH.s 			page 45


 2590 000a 5161     		str	r1, [r2, #20]
 2591 000c 7047     		bx	lr
 2593              		.section	.text.HAL_UART_EnableReceiverTimeout,"ax",%progbits
 2594              		.align	1
 2595              		.global	HAL_UART_EnableReceiverTimeout
 2596              		.syntax unified
 2597              		.thumb
 2598              		.thumb_func
 2599              		.fpu fpv5-sp-d16
 2601              	HAL_UART_EnableReceiverTimeout:
 2602              		@ args = 0, pretend = 0, frame = 0
 2603              		@ frame_needed = 0, uses_anonymous_args = 0
 2604              		@ link register save eliminated.
 2605 0000 C26F     		ldr	r2, [r0, #124]
 2606 0002 202A     		cmp	r2, #32
 2607 0004 10D1     		bne	.L487
 2608 0006 90F87830 		ldrb	r3, [r0, #120]	@ zero_extendqisi2
 2609 000a 012B     		cmp	r3, #1
 2610 000c 0CD0     		beq	.L487
 2611 000e 0168     		ldr	r1, [r0]
 2612 0010 2423     		movs	r3, #36
 2613 0012 C367     		str	r3, [r0, #124]
 2614 0014 4B68     		ldr	r3, [r1, #4]
 2615 0016 43F40003 		orr	r3, r3, #8388608
 2616 001a 4B60     		str	r3, [r1, #4]
 2617 001c 0023     		movs	r3, #0
 2618 001e C267     		str	r2, [r0, #124]
 2619 0020 80F87830 		strb	r3, [r0, #120]
 2620 0024 1846     		mov	r0, r3
 2621 0026 7047     		bx	lr
 2622              	.L487:
 2623 0028 0220     		movs	r0, #2
 2624 002a 7047     		bx	lr
 2626              		.section	.text.HAL_UART_DisableReceiverTimeout,"ax",%progbits
 2627              		.align	1
 2628              		.global	HAL_UART_DisableReceiverTimeout
 2629              		.syntax unified
 2630              		.thumb
 2631              		.thumb_func
 2632              		.fpu fpv5-sp-d16
 2634              	HAL_UART_DisableReceiverTimeout:
 2635              		@ args = 0, pretend = 0, frame = 0
 2636              		@ frame_needed = 0, uses_anonymous_args = 0
 2637              		@ link register save eliminated.
 2638 0000 C26F     		ldr	r2, [r0, #124]
 2639 0002 202A     		cmp	r2, #32
 2640 0004 10D1     		bne	.L491
 2641 0006 90F87830 		ldrb	r3, [r0, #120]	@ zero_extendqisi2
 2642 000a 012B     		cmp	r3, #1
 2643 000c 0CD0     		beq	.L491
 2644 000e 0168     		ldr	r1, [r0]
 2645 0010 2423     		movs	r3, #36
 2646 0012 C367     		str	r3, [r0, #124]
 2647 0014 4B68     		ldr	r3, [r1, #4]
 2648 0016 23F40003 		bic	r3, r3, #8388608
 2649 001a 4B60     		str	r3, [r1, #4]
 2650 001c 0023     		movs	r3, #0
ARM GAS  /tmp/ccAEwYvH.s 			page 46


 2651 001e C267     		str	r2, [r0, #124]
 2652 0020 80F87830 		strb	r3, [r0, #120]
 2653 0024 1846     		mov	r0, r3
 2654 0026 7047     		bx	lr
 2655              	.L491:
 2656 0028 0220     		movs	r0, #2
 2657 002a 7047     		bx	lr
 2659              		.section	.text.HAL_MultiProcessor_EnterMuteMode,"ax",%progbits
 2660              		.align	1
 2661              		.global	HAL_MultiProcessor_EnterMuteMode
 2662              		.syntax unified
 2663              		.thumb
 2664              		.thumb_func
 2665              		.fpu fpv5-sp-d16
 2667              	HAL_MultiProcessor_EnterMuteMode:
 2668              		@ args = 0, pretend = 0, frame = 0
 2669              		@ frame_needed = 0, uses_anonymous_args = 0
 2670              		@ link register save eliminated.
 2671 0000 0268     		ldr	r2, [r0]
 2672 0002 9369     		ldr	r3, [r2, #24]
 2673 0004 43F00403 		orr	r3, r3, #4
 2674 0008 9361     		str	r3, [r2, #24]
 2675 000a 7047     		bx	lr
 2677              		.section	.text.HAL_HalfDuplex_EnableTransmitter,"ax",%progbits
 2678              		.align	1
 2679              		.global	HAL_HalfDuplex_EnableTransmitter
 2680              		.syntax unified
 2681              		.thumb
 2682              		.thumb_func
 2683              		.fpu fpv5-sp-d16
 2685              	HAL_HalfDuplex_EnableTransmitter:
 2686              		@ args = 0, pretend = 0, frame = 0
 2687              		@ frame_needed = 0, uses_anonymous_args = 0
 2688 0000 10B5     		push	{r4, lr}
 2689 0002 90F87830 		ldrb	r3, [r0, #120]	@ zero_extendqisi2
 2690 0006 012B     		cmp	r3, #1
 2691 0008 1CD0     		beq	.L497
 2692 000a 0123     		movs	r3, #1
 2693 000c 80F87830 		strb	r3, [r0, #120]
 2694 0010 2423     		movs	r3, #36
 2695 0012 C367     		str	r3, [r0, #124]
 2696              	.L495:
 2697 0014 0268     		ldr	r2, [r0]
 2698              		.syntax unified
 2699              	@ 1072 "Drivers/CMSIS/Include/cmsis_gcc.h" 1
 2700 0016 52E8003F 		ldrex r3, [r2]
 2701              	@ 0 "" 2
 2702              		.thumb
 2703              		.syntax unified
 2704 001a 23F00C03 		bic	r3, r3, #12
 2705              		.syntax unified
 2706              	@ 1123 "Drivers/CMSIS/Include/cmsis_gcc.h" 1
 2707 001e 42E80034 		strex r4, r3, [r2]
 2708              	@ 0 "" 2
 2709              		.thumb
 2710              		.syntax unified
 2711 0022 0168     		ldr	r1, [r0]
ARM GAS  /tmp/ccAEwYvH.s 			page 47


 2712 0024 002C     		cmp	r4, #0
 2713 0026 F5D1     		bne	.L495
 2714              	.L496:
 2715              		.syntax unified
 2716              	@ 1072 "Drivers/CMSIS/Include/cmsis_gcc.h" 1
 2717 0028 51E8002F 		ldrex r2, [r1]
 2718              	@ 0 "" 2
 2719              		.thumb
 2720              		.syntax unified
 2721 002c 42F00802 		orr	r2, r2, #8
 2722              		.syntax unified
 2723              	@ 1123 "Drivers/CMSIS/Include/cmsis_gcc.h" 1
 2724 0030 41E80023 		strex r3, r2, [r1]
 2725              	@ 0 "" 2
 2726              		.thumb
 2727              		.syntax unified
 2728 0034 002B     		cmp	r3, #0
 2729 0036 F7D1     		bne	.L496
 2730 0038 2022     		movs	r2, #32
 2731 003a 80F87830 		strb	r3, [r0, #120]
 2732 003e C267     		str	r2, [r0, #124]
 2733 0040 1846     		mov	r0, r3
 2734              	.L494:
 2735 0042 10BD     		pop	{r4, pc}
 2736              	.L497:
 2737 0044 0220     		movs	r0, #2
 2738 0046 FCE7     		b	.L494
 2740              		.section	.text.HAL_HalfDuplex_EnableReceiver,"ax",%progbits
 2741              		.align	1
 2742              		.global	HAL_HalfDuplex_EnableReceiver
 2743              		.syntax unified
 2744              		.thumb
 2745              		.thumb_func
 2746              		.fpu fpv5-sp-d16
 2748              	HAL_HalfDuplex_EnableReceiver:
 2749              		@ args = 0, pretend = 0, frame = 0
 2750              		@ frame_needed = 0, uses_anonymous_args = 0
 2751 0000 10B5     		push	{r4, lr}
 2752 0002 90F87830 		ldrb	r3, [r0, #120]	@ zero_extendqisi2
 2753 0006 012B     		cmp	r3, #1
 2754 0008 1CD0     		beq	.L504
 2755 000a 0123     		movs	r3, #1
 2756 000c 80F87830 		strb	r3, [r0, #120]
 2757 0010 2423     		movs	r3, #36
 2758 0012 C367     		str	r3, [r0, #124]
 2759              	.L502:
 2760 0014 0268     		ldr	r2, [r0]
 2761              		.syntax unified
 2762              	@ 1072 "Drivers/CMSIS/Include/cmsis_gcc.h" 1
 2763 0016 52E8003F 		ldrex r3, [r2]
 2764              	@ 0 "" 2
 2765              		.thumb
 2766              		.syntax unified
 2767 001a 23F00C03 		bic	r3, r3, #12
 2768              		.syntax unified
 2769              	@ 1123 "Drivers/CMSIS/Include/cmsis_gcc.h" 1
 2770 001e 42E80034 		strex r4, r3, [r2]
ARM GAS  /tmp/ccAEwYvH.s 			page 48


 2771              	@ 0 "" 2
 2772              		.thumb
 2773              		.syntax unified
 2774 0022 0168     		ldr	r1, [r0]
 2775 0024 002C     		cmp	r4, #0
 2776 0026 F5D1     		bne	.L502
 2777              	.L503:
 2778              		.syntax unified
 2779              	@ 1072 "Drivers/CMSIS/Include/cmsis_gcc.h" 1
 2780 0028 51E8002F 		ldrex r2, [r1]
 2781              	@ 0 "" 2
 2782              		.thumb
 2783              		.syntax unified
 2784 002c 42F00402 		orr	r2, r2, #4
 2785              		.syntax unified
 2786              	@ 1123 "Drivers/CMSIS/Include/cmsis_gcc.h" 1
 2787 0030 41E80023 		strex r3, r2, [r1]
 2788              	@ 0 "" 2
 2789              		.thumb
 2790              		.syntax unified
 2791 0034 002B     		cmp	r3, #0
 2792 0036 F7D1     		bne	.L503
 2793 0038 2022     		movs	r2, #32
 2794 003a 80F87830 		strb	r3, [r0, #120]
 2795 003e C267     		str	r2, [r0, #124]
 2796 0040 1846     		mov	r0, r3
 2797              	.L501:
 2798 0042 10BD     		pop	{r4, pc}
 2799              	.L504:
 2800 0044 0220     		movs	r0, #2
 2801 0046 FCE7     		b	.L501
 2803              		.section	.text.HAL_LIN_SendBreak,"ax",%progbits
 2804              		.align	1
 2805              		.global	HAL_LIN_SendBreak
 2806              		.syntax unified
 2807              		.thumb
 2808              		.thumb_func
 2809              		.fpu fpv5-sp-d16
 2811              	HAL_LIN_SendBreak:
 2812              		@ args = 0, pretend = 0, frame = 0
 2813              		@ frame_needed = 0, uses_anonymous_args = 0
 2814              		@ link register save eliminated.
 2815 0000 90F87830 		ldrb	r3, [r0, #120]	@ zero_extendqisi2
 2816 0004 012B     		cmp	r3, #1
 2817 0006 0DD0     		beq	.L509
 2818 0008 0268     		ldr	r2, [r0]
 2819 000a 2423     		movs	r3, #36
 2820 000c C367     		str	r3, [r0, #124]
 2821 000e 9369     		ldr	r3, [r2, #24]
 2822 0010 43F00203 		orr	r3, r3, #2
 2823 0014 9361     		str	r3, [r2, #24]
 2824 0016 2023     		movs	r3, #32
 2825 0018 C367     		str	r3, [r0, #124]
 2826 001a 0023     		movs	r3, #0
 2827 001c 80F87830 		strb	r3, [r0, #120]
 2828 0020 1846     		mov	r0, r3
 2829 0022 7047     		bx	lr
ARM GAS  /tmp/ccAEwYvH.s 			page 49


 2830              	.L509:
 2831 0024 0220     		movs	r0, #2
 2832 0026 7047     		bx	lr
 2834              		.section	.text.HAL_UART_GetState,"ax",%progbits
 2835              		.align	1
 2836              		.global	HAL_UART_GetState
 2837              		.syntax unified
 2838              		.thumb
 2839              		.thumb_func
 2840              		.fpu fpv5-sp-d16
 2842              	HAL_UART_GetState:
 2843              		@ args = 0, pretend = 0, frame = 0
 2844              		@ frame_needed = 0, uses_anonymous_args = 0
 2845              		@ link register save eliminated.
 2846 0000 C26F     		ldr	r2, [r0, #124]
 2847 0002 D0F88000 		ldr	r0, [r0, #128]
 2848 0006 1043     		orrs	r0, r0, r2
 2849 0008 7047     		bx	lr
 2851              		.section	.text.HAL_UART_GetError,"ax",%progbits
 2852              		.align	1
 2853              		.global	HAL_UART_GetError
 2854              		.syntax unified
 2855              		.thumb
 2856              		.thumb_func
 2857              		.fpu fpv5-sp-d16
 2859              	HAL_UART_GetError:
 2860              		@ args = 0, pretend = 0, frame = 0
 2861              		@ frame_needed = 0, uses_anonymous_args = 0
 2862              		@ link register save eliminated.
 2863 0000 D0F88400 		ldr	r0, [r0, #132]
 2864 0004 7047     		bx	lr
 2866              		.section	.text.UART_SetConfig,"ax",%progbits
 2867              		.align	1
 2868              		.global	UART_SetConfig
 2869              		.syntax unified
 2870              		.thumb
 2871              		.thumb_func
 2872              		.fpu fpv5-sp-d16
 2874              	UART_SetConfig:
 2875              		@ args = 0, pretend = 0, frame = 0
 2876              		@ frame_needed = 0, uses_anonymous_args = 0
 2877 0000 38B5     		push	{r3, r4, r5, lr}
 2878 0002 0446     		mov	r4, r0
 2879 0004 C069     		ldr	r0, [r0, #28]
 2880 0006 2169     		ldr	r1, [r4, #16]
 2881 0008 A268     		ldr	r2, [r4, #8]
 2882 000a 2368     		ldr	r3, [r4]
 2883 000c 0A43     		orrs	r2, r2, r1
 2884 000e 6169     		ldr	r1, [r4, #20]
 2885 0010 1D68     		ldr	r5, [r3]
 2886 0012 0A43     		orrs	r2, r2, r1
 2887 0014 8E49     		ldr	r1, .L682
 2888 0016 0243     		orrs	r2, r2, r0
 2889 0018 2940     		ands	r1, r1, r5
 2890 001a 256A     		ldr	r5, [r4, #32]
 2891 001c 0A43     		orrs	r2, r2, r1
 2892 001e E168     		ldr	r1, [r4, #12]
ARM GAS  /tmp/ccAEwYvH.s 			page 50


 2893 0020 1A60     		str	r2, [r3]
 2894 0022 5A68     		ldr	r2, [r3, #4]
 2895 0024 22F44052 		bic	r2, r2, #12288
 2896 0028 0A43     		orrs	r2, r2, r1
 2897 002a 5A60     		str	r2, [r3, #4]
 2898 002c A269     		ldr	r2, [r4, #24]
 2899 002e 9968     		ldr	r1, [r3, #8]
 2900 0030 2A43     		orrs	r2, r2, r5
 2901 0032 21F43061 		bic	r1, r1, #2816
 2902 0036 0A43     		orrs	r2, r2, r1
 2903 0038 9A60     		str	r2, [r3, #8]
 2904 003a 864A     		ldr	r2, .L682+4
 2905 003c 9342     		cmp	r3, r2
 2906 003e 17D1     		bne	.L513
 2907 0040 854B     		ldr	r3, .L682+8
 2908 0042 D3F89030 		ldr	r3, [r3, #144]
 2909 0046 03F00303 		and	r3, r3, #3
 2910 004a 013B     		subs	r3, r3, #1
 2911 004c 022B     		cmp	r3, #2
 2912 004e 00F2E280 		bhi	.L532
 2913 0052 824A     		ldr	r2, .L682+12
 2914              	.L657:
 2915 0054 B0F5004F 		cmp	r0, #32768
 2916 0058 D35C     		ldrb	r3, [r2, r3]	@ zero_extendqisi2
 2917 005a 40F0B380 		bne	.L538
 2918 005e 082B     		cmp	r3, #8
 2919 0060 22D8     		bhi	.L556
 2920 0062 DFE803F0 		tbb	[pc, r3]
 2921              	.L541:
 2922 0066 90       		.byte	(.L545-.L541)/2
 2923 0067 DB       		.byte	(.L544-.L541)/2
 2924 0068 98       		.byte	(.L559-.L541)/2
 2925 0069 21       		.byte	(.L556-.L541)/2
 2926 006a D5       		.byte	(.L542-.L541)/2
 2927 006b 21       		.byte	(.L556-.L541)/2
 2928 006c 21       		.byte	(.L556-.L541)/2
 2929 006d 21       		.byte	(.L556-.L541)/2
 2930 006e 99       		.byte	(.L540-.L541)/2
 2931 006f 00       		.p2align 1
 2932              	.L513:
 2933 0070 7B4A     		ldr	r2, .L682+16
 2934 0072 9342     		cmp	r3, r2
 2935 0074 06D1     		bne	.L516
 2936 0076 784B     		ldr	r3, .L682+8
 2937 0078 7A4A     		ldr	r2, .L682+20
 2938 007a D3F89030 		ldr	r3, [r3, #144]
 2939 007e 03F00C03 		and	r3, r3, #12
 2940 0082 E7E7     		b	.L657
 2941              	.L516:
 2942 0084 784A     		ldr	r2, .L682+24
 2943 0086 9342     		cmp	r3, r2
 2944 0088 18D1     		bne	.L517
 2945 008a 734B     		ldr	r3, .L682+8
 2946 008c D3F89030 		ldr	r3, [r3, #144]
 2947 0090 03F03003 		and	r3, r3, #48
 2948 0094 202B     		cmp	r3, #32
 2949 0096 00F0B380 		beq	.L518
ARM GAS  /tmp/ccAEwYvH.s 			page 51


 2950 009a 07D8     		bhi	.L519
 2951 009c 002B     		cmp	r3, #0
 2952 009e 00F0C080 		beq	.L520
 2953 00a2 102B     		cmp	r3, #16
 2954              	.L668:
 2955 00a4 00F0B180 		beq	.L533
 2956              	.L556:
 2957 00a8 0120     		movs	r0, #1
 2958 00aa 70E0     		b	.L539
 2959              	.L519:
 2960 00ac 302B     		cmp	r3, #48
 2961              	.L664:
 2962 00ae FBD1     		bne	.L556
 2963 00b0 B0F5004F 		cmp	r0, #32768
 2964 00b4 70D0     		beq	.L540
 2965              	.L557:
 2966 00b6 4FF40040 		mov	r0, #32768
 2967 00ba B9E0     		b	.L547
 2968              	.L517:
 2969 00bc 6B4A     		ldr	r2, .L682+28
 2970 00be 9342     		cmp	r3, r2
 2971 00c0 0FD1     		bne	.L524
 2972 00c2 654B     		ldr	r3, .L682+8
 2973 00c4 D3F89030 		ldr	r3, [r3, #144]
 2974 00c8 03F0C003 		and	r3, r3, #192
 2975 00cc 802B     		cmp	r3, #128
 2976 00ce 00F09780 		beq	.L518
 2977 00d2 04D8     		bhi	.L525
 2978 00d4 002B     		cmp	r3, #0
 2979 00d6 00F0A480 		beq	.L520
 2980 00da 402B     		cmp	r3, #64
 2981 00dc E2E7     		b	.L668
 2982              	.L525:
 2983 00de C02B     		cmp	r3, #192
 2984 00e0 E5E7     		b	.L664
 2985              	.L524:
 2986 00e2 634A     		ldr	r2, .L682+32
 2987 00e4 9342     		cmp	r3, r2
 2988 00e6 12D1     		bne	.L526
 2989 00e8 5B4B     		ldr	r3, .L682+8
 2990 00ea D3F89030 		ldr	r3, [r3, #144]
 2991 00ee 03F44073 		and	r3, r3, #768
 2992 00f2 B3F5007F 		cmp	r3, #512
 2993 00f6 00F08380 		beq	.L518
 2994 00fa 05D8     		bhi	.L527
 2995 00fc 002B     		cmp	r3, #0
 2996 00fe 00F09080 		beq	.L520
 2997 0102 B3F5807F 		cmp	r3, #256
 2998 0106 CDE7     		b	.L668
 2999              	.L527:
 3000 0108 B3F5407F 		cmp	r3, #768
 3001 010c CFE7     		b	.L664
 3002              	.L526:
 3003 010e 594A     		ldr	r2, .L682+36
 3004 0110 9342     		cmp	r3, r2
 3005 0112 10D1     		bne	.L529
 3006 0114 504B     		ldr	r3, .L682+8
ARM GAS  /tmp/ccAEwYvH.s 			page 52


 3007 0116 D3F89030 		ldr	r3, [r3, #144]
 3008 011a 03F44063 		and	r3, r3, #3072
 3009 011e B3F5006F 		cmp	r3, #2048
 3010 0122 6DD0     		beq	.L518
 3011 0124 04D8     		bhi	.L531
 3012 0126 002B     		cmp	r3, #0
 3013 0128 75D0     		beq	.L532
 3014 012a B3F5806F 		cmp	r3, #1024
 3015 012e B9E7     		b	.L668
 3016              	.L531:
 3017 0130 B3F5406F 		cmp	r3, #3072
 3018 0134 BBE7     		b	.L664
 3019              	.L529:
 3020 0136 504A     		ldr	r2, .L682+40
 3021 0138 9342     		cmp	r3, r2
 3022 013a 10D1     		bne	.L534
 3023 013c 464B     		ldr	r3, .L682+8
 3024 013e D3F89030 		ldr	r3, [r3, #144]
 3025 0142 03F44053 		and	r3, r3, #12288
 3026 0146 B3F5005F 		cmp	r3, #8192
 3027 014a 59D0     		beq	.L518
 3028 014c 04D8     		bhi	.L535
 3029 014e 002B     		cmp	r3, #0
 3030 0150 67D0     		beq	.L520
 3031 0152 B3F5805F 		cmp	r3, #4096
 3032 0156 A5E7     		b	.L668
 3033              	.L535:
 3034 0158 B3F5405F 		cmp	r3, #12288
 3035 015c A7E7     		b	.L664
 3036              	.L534:
 3037 015e 474A     		ldr	r2, .L682+44
 3038 0160 9342     		cmp	r3, r2
 3039 0162 A1D1     		bne	.L556
 3040 0164 3C4B     		ldr	r3, .L682+8
 3041 0166 D3F89030 		ldr	r3, [r3, #144]
 3042 016a 03F44043 		and	r3, r3, #49152
 3043 016e B3F5004F 		cmp	r3, #32768
 3044 0172 45D0     		beq	.L518
 3045 0174 04D8     		bhi	.L537
 3046 0176 002B     		cmp	r3, #0
 3047 0178 53D0     		beq	.L520
 3048 017a B3F5804F 		cmp	r3, #16384
 3049 017e 91E7     		b	.L668
 3050              	.L537:
 3051 0180 B3F5404F 		cmp	r3, #49152
 3052 0184 93E7     		b	.L664
 3053              	.L545:
 3054 0186 FFF7FEFF 		bl	HAL_RCC_GetPCLK1Freq
 3055              	.L546:
 3056 018a 28B9     		cbnz	r0, .L540
 3057              	.L674:
 3058 018c 0020     		movs	r0, #0
 3059              	.L539:
 3060 018e 0023     		movs	r3, #0
 3061 0190 C4E91A33 		strd	r3, r3, [r4, #104]
 3062 0194 38BD     		pop	{r3, r4, r5, pc}
 3063              	.L559:
ARM GAS  /tmp/ccAEwYvH.s 			page 53


 3064 0196 3A48     		ldr	r0, .L682+48
 3065              	.L540:
 3066 0198 6268     		ldr	r2, [r4, #4]
 3067 019a 5308     		lsrs	r3, r2, #1
 3068 019c 03EB4000 		add	r0, r3, r0, lsl #1
 3069 01a0 4FF6EF73 		movw	r3, #65519
 3070 01a4 B0FBF2F0 		udiv	r0, r0, r2
 3071 01a8 A0F11002 		sub	r2, r0, #16
 3072 01ac 9A42     		cmp	r2, r3
 3073 01ae 3FF67BAF 		bhi	.L556
 3074 01b2 20F00F03 		bic	r3, r0, #15
 3075 01b6 C0F34200 		ubfx	r0, r0, #1, #3
 3076 01ba 2268     		ldr	r2, [r4]
 3077 01bc 9BB2     		uxth	r3, r3
 3078 01be 1843     		orrs	r0, r0, r3
 3079 01c0 D060     		str	r0, [r2, #12]
 3080 01c2 E3E7     		b	.L674
 3081              	.L538:
 3082 01c4 082B     		cmp	r3, #8
 3083 01c6 3FF66FAF 		bhi	.L556
 3084 01ca 01A2     		adr	r2, .L548
 3085 01cc 52F823F0 		ldr	pc, [r2, r3, lsl #2]
 3086              		.p2align 2
 3087              	.L548:
 3088 01d0 29020000 		.word	.L552+1
 3089 01d4 F5010000 		.word	.L551+1
 3090 01d8 07020000 		.word	.L672+1
 3091 01dc A9000000 		.word	.L556+1
 3092 01e0 FB010000 		.word	.L549+1
 3093 01e4 A9000000 		.word	.L556+1
 3094 01e8 A9000000 		.word	.L556+1
 3095 01ec A9000000 		.word	.L556+1
 3096 01f0 B7000000 		.word	.L557+1
 3097              		.p2align 1
 3098              	.L551:
 3099 01f4 FFF7FEFF 		bl	HAL_RCC_GetPCLK2Freq
 3100 01f8 18E0     		b	.L553
 3101              	.L549:
 3102 01fa FFF7FEFF 		bl	HAL_RCC_GetSysClockFreq
 3103 01fe 15E0     		b	.L553
 3104              	.L518:
 3105 0200 B0F5004F 		cmp	r0, #32768
 3106 0204 C7D0     		beq	.L559
 3107              	.L672:
 3108 0206 1E48     		ldr	r0, .L682+48
 3109 0208 12E0     		b	.L547
 3110              	.L533:
 3111 020a B0F5004F 		cmp	r0, #32768
 3112 020e F4D1     		bne	.L549
 3113              	.L542:
 3114 0210 FFF7FEFF 		bl	HAL_RCC_GetSysClockFreq
 3115 0214 B9E7     		b	.L546
 3116              	.L532:
 3117 0216 B0F5004F 		cmp	r0, #32768
 3118 021a EBD1     		bne	.L551
 3119              	.L544:
 3120 021c FFF7FEFF 		bl	HAL_RCC_GetPCLK2Freq
ARM GAS  /tmp/ccAEwYvH.s 			page 54


 3121 0220 B3E7     		b	.L546
 3122              	.L520:
 3123 0222 B0F5004F 		cmp	r0, #32768
 3124 0226 AED0     		beq	.L545
 3125              	.L552:
 3126 0228 FFF7FEFF 		bl	HAL_RCC_GetPCLK1Freq
 3127              	.L553:
 3128 022c 0028     		cmp	r0, #0
 3129 022e ADD0     		beq	.L674
 3130              	.L547:
 3131 0230 6268     		ldr	r2, [r4, #4]
 3132 0232 00EB5203 		add	r3, r0, r2, lsr #1
 3133 0236 B3FBF2F3 		udiv	r3, r3, r2
 3134 023a 4FF6EF72 		movw	r2, #65519
 3135 023e A3F11001 		sub	r1, r3, #16
 3136 0242 9142     		cmp	r1, r2
 3137 0244 3FF630AF 		bhi	.L556
 3138 0248 2268     		ldr	r2, [r4]
 3139 024a D360     		str	r3, [r2, #12]
 3140 024c 9EE7     		b	.L674
 3141              	.L683:
 3142 024e 00BF     		.align	2
 3143              	.L682:
 3144 0250 F369FFEF 		.word	-268473869
 3145 0254 00100140 		.word	1073811456
 3146 0258 00380240 		.word	1073887232
 3147 025c 00000000 		.word	.LANCHOR0
 3148 0260 00440040 		.word	1073759232
 3149 0264 00000000 		.word	.LANCHOR1
 3150 0268 00480040 		.word	1073760256
 3151 026c 004C0040 		.word	1073761280
 3152 0270 00500040 		.word	1073762304
 3153 0274 00140140 		.word	1073812480
 3154 0278 00780040 		.word	1073772544
 3155 027c 007C0040 		.word	1073773568
 3156 0280 0024F400 		.word	16000000
 3158              		.section	.text.UART_AdvFeatureConfig,"ax",%progbits
 3159              		.align	1
 3160              		.global	UART_AdvFeatureConfig
 3161              		.syntax unified
 3162              		.thumb
 3163              		.thumb_func
 3164              		.fpu fpv5-sp-d16
 3166              	UART_AdvFeatureConfig:
 3167              		@ args = 0, pretend = 0, frame = 0
 3168              		@ frame_needed = 0, uses_anonymous_args = 0
 3169 0000 436A     		ldr	r3, [r0, #36]
 3170 0002 DA07     		lsls	r2, r3, #31
 3171 0004 10B5     		push	{r4, lr}
 3172 0006 06D5     		bpl	.L685
 3173 0008 0168     		ldr	r1, [r0]
 3174 000a 846A     		ldr	r4, [r0, #40]
 3175 000c 4A68     		ldr	r2, [r1, #4]
 3176 000e 22F40032 		bic	r2, r2, #131072
 3177 0012 2243     		orrs	r2, r2, r4
 3178 0014 4A60     		str	r2, [r1, #4]
 3179              	.L685:
ARM GAS  /tmp/ccAEwYvH.s 			page 55


 3180 0016 9C07     		lsls	r4, r3, #30
 3181 0018 06D5     		bpl	.L686
 3182 001a 0168     		ldr	r1, [r0]
 3183 001c C46A     		ldr	r4, [r0, #44]
 3184 001e 4A68     		ldr	r2, [r1, #4]
 3185 0020 22F48032 		bic	r2, r2, #65536
 3186 0024 2243     		orrs	r2, r2, r4
 3187 0026 4A60     		str	r2, [r1, #4]
 3188              	.L686:
 3189 0028 5907     		lsls	r1, r3, #29
 3190 002a 06D5     		bpl	.L687
 3191 002c 0168     		ldr	r1, [r0]
 3192 002e 046B     		ldr	r4, [r0, #48]
 3193 0030 4A68     		ldr	r2, [r1, #4]
 3194 0032 22F48022 		bic	r2, r2, #262144
 3195 0036 2243     		orrs	r2, r2, r4
 3196 0038 4A60     		str	r2, [r1, #4]
 3197              	.L687:
 3198 003a 1A07     		lsls	r2, r3, #28
 3199 003c 06D5     		bpl	.L688
 3200 003e 0168     		ldr	r1, [r0]
 3201 0040 446B     		ldr	r4, [r0, #52]
 3202 0042 4A68     		ldr	r2, [r1, #4]
 3203 0044 22F40042 		bic	r2, r2, #32768
 3204 0048 2243     		orrs	r2, r2, r4
 3205 004a 4A60     		str	r2, [r1, #4]
 3206              	.L688:
 3207 004c DC06     		lsls	r4, r3, #27
 3208 004e 06D5     		bpl	.L689
 3209 0050 0168     		ldr	r1, [r0]
 3210 0052 846B     		ldr	r4, [r0, #56]
 3211 0054 8A68     		ldr	r2, [r1, #8]
 3212 0056 22F48052 		bic	r2, r2, #4096
 3213 005a 2243     		orrs	r2, r2, r4
 3214 005c 8A60     		str	r2, [r1, #8]
 3215              	.L689:
 3216 005e 9906     		lsls	r1, r3, #26
 3217 0060 06D5     		bpl	.L690
 3218 0062 0168     		ldr	r1, [r0]
 3219 0064 C46B     		ldr	r4, [r0, #60]
 3220 0066 8A68     		ldr	r2, [r1, #8]
 3221 0068 22F40052 		bic	r2, r2, #8192
 3222 006c 2243     		orrs	r2, r2, r4
 3223 006e 8A60     		str	r2, [r1, #8]
 3224              	.L690:
 3225 0070 5A06     		lsls	r2, r3, #25
 3226 0072 10D5     		bpl	.L692
 3227 0074 0168     		ldr	r1, [r0]
 3228 0076 046C     		ldr	r4, [r0, #64]
 3229 0078 4A68     		ldr	r2, [r1, #4]
 3230 007a B4F5801F 		cmp	r4, #1048576
 3231 007e 22F48012 		bic	r2, r2, #1048576
 3232 0082 42EA0402 		orr	r2, r2, r4
 3233 0086 4A60     		str	r2, [r1, #4]
 3234 0088 05D1     		bne	.L692
 3235 008a 4A68     		ldr	r2, [r1, #4]
 3236 008c 446C     		ldr	r4, [r0, #68]
ARM GAS  /tmp/ccAEwYvH.s 			page 56


 3237 008e 22F4C002 		bic	r2, r2, #6291456
 3238 0092 2243     		orrs	r2, r2, r4
 3239 0094 4A60     		str	r2, [r1, #4]
 3240              	.L692:
 3241 0096 1B06     		lsls	r3, r3, #24
 3242 0098 06D5     		bpl	.L684
 3243 009a 0268     		ldr	r2, [r0]
 3244 009c 816C     		ldr	r1, [r0, #72]
 3245 009e 5368     		ldr	r3, [r2, #4]
 3246 00a0 23F40023 		bic	r3, r3, #524288
 3247 00a4 0B43     		orrs	r3, r3, r1
 3248 00a6 5360     		str	r3, [r2, #4]
 3249              	.L684:
 3250 00a8 10BD     		pop	{r4, pc}
 3252              		.section	.text.UART_WaitOnFlagUntilTimeout,"ax",%progbits
 3253              		.align	1
 3254              		.global	UART_WaitOnFlagUntilTimeout
 3255              		.syntax unified
 3256              		.thumb
 3257              		.thumb_func
 3258              		.fpu fpv5-sp-d16
 3260              	UART_WaitOnFlagUntilTimeout:
 3261              		@ args = 4, pretend = 0, frame = 0
 3262              		@ frame_needed = 0, uses_anonymous_args = 0
 3263 0000 2DE9F041 		push	{r4, r5, r6, r7, r8, lr}
 3264 0004 DDF81880 		ldr	r8, [sp, #24]
 3265 0008 0446     		mov	r4, r0
 3266 000a 0E46     		mov	r6, r1
 3267 000c 1546     		mov	r5, r2
 3268 000e 1F46     		mov	r7, r3
 3269              	.L734:
 3270 0010 2268     		ldr	r2, [r4]
 3271              	.L718:
 3272 0012 D369     		ldr	r3, [r2, #28]
 3273 0014 36EA0303 		bics	r3, r6, r3
 3274 0018 0CBF     		ite	eq
 3275 001a 0123     		moveq	r3, #1
 3276 001c 0023     		movne	r3, #0
 3277 001e AB42     		cmp	r3, r5
 3278 0020 01D0     		beq	.L726
 3279 0022 0020     		movs	r0, #0
 3280 0024 26E0     		b	.L723
 3281              	.L726:
 3282 0026 B8F1FF3F 		cmp	r8, #-1
 3283 002a F2D0     		beq	.L718
 3284 002c FFF7FEFF 		bl	HAL_GetTick
 3285 0030 C01B     		subs	r0, r0, r7
 3286 0032 4045     		cmp	r0, r8
 3287 0034 2068     		ldr	r0, [r4]
 3288 0036 02D8     		bhi	.L721
 3289 0038 B8F1000F 		cmp	r8, #0
 3290 003c 1CD1     		bne	.L720
 3291              	.L721:
 3292              		.syntax unified
 3293              	@ 1072 "Drivers/CMSIS/Include/cmsis_gcc.h" 1
 3294 003e 50E8003F 		ldrex r3, [r0]
 3295              	@ 0 "" 2
ARM GAS  /tmp/ccAEwYvH.s 			page 57


 3296              		.thumb
 3297              		.syntax unified
 3298 0042 23F4D073 		bic	r3, r3, #416
 3299              		.syntax unified
 3300              	@ 1123 "Drivers/CMSIS/Include/cmsis_gcc.h" 1
 3301 0046 40E80032 		strex r2, r3, [r0]
 3302              	@ 0 "" 2
 3303              		.thumb
 3304              		.syntax unified
 3305 004a 002A     		cmp	r2, #0
 3306 004c F7D1     		bne	.L721
 3307              	.L722:
 3308 004e 00F10803 		add	r3, r0, #8
 3309              		.syntax unified
 3310              	@ 1072 "Drivers/CMSIS/Include/cmsis_gcc.h" 1
 3311 0052 53E8003F 		ldrex r3, [r3]
 3312              	@ 0 "" 2
 3313              		.thumb
 3314              		.syntax unified
 3315 0056 23F00103 		bic	r3, r3, #1
 3316 005a 00F10801 		add	r1, r0, #8
 3317              		.syntax unified
 3318              	@ 1123 "Drivers/CMSIS/Include/cmsis_gcc.h" 1
 3319 005e 41E80032 		strex r2, r3, [r1]
 3320              	@ 0 "" 2
 3321              		.thumb
 3322              		.syntax unified
 3323 0062 002A     		cmp	r2, #0
 3324 0064 F3D1     		bne	.L722
 3325 0066 2023     		movs	r3, #32
 3326 0068 E367     		str	r3, [r4, #124]
 3327 006a C4F88030 		str	r3, [r4, #128]
 3328              	.L738:
 3329 006e 0320     		movs	r0, #3
 3330 0070 84F87820 		strb	r2, [r4, #120]
 3331              	.L723:
 3332 0074 BDE8F081 		pop	{r4, r5, r6, r7, r8, pc}
 3333              	.L720:
 3334 0078 0368     		ldr	r3, [r0]
 3335 007a 5A07     		lsls	r2, r3, #29
 3336 007c C8D5     		bpl	.L734
 3337 007e C369     		ldr	r3, [r0, #28]
 3338 0080 1B05     		lsls	r3, r3, #20
 3339 0082 C5D5     		bpl	.L734
 3340 0084 4FF40063 		mov	r3, #2048
 3341 0088 0362     		str	r3, [r0, #32]
 3342              	.L724:
 3343              		.syntax unified
 3344              	@ 1072 "Drivers/CMSIS/Include/cmsis_gcc.h" 1
 3345 008a 50E8003F 		ldrex r3, [r0]
 3346              	@ 0 "" 2
 3347              		.thumb
 3348              		.syntax unified
 3349 008e 23F4D073 		bic	r3, r3, #416
 3350              		.syntax unified
 3351              	@ 1123 "Drivers/CMSIS/Include/cmsis_gcc.h" 1
 3352 0092 40E80032 		strex r2, r3, [r0]
ARM GAS  /tmp/ccAEwYvH.s 			page 58


 3353              	@ 0 "" 2
 3354              		.thumb
 3355              		.syntax unified
 3356 0096 002A     		cmp	r2, #0
 3357 0098 F7D1     		bne	.L724
 3358              	.L725:
 3359 009a 00F10803 		add	r3, r0, #8
 3360              		.syntax unified
 3361              	@ 1072 "Drivers/CMSIS/Include/cmsis_gcc.h" 1
 3362 009e 53E8003F 		ldrex r3, [r3]
 3363              	@ 0 "" 2
 3364              		.thumb
 3365              		.syntax unified
 3366 00a2 23F00103 		bic	r3, r3, #1
 3367 00a6 00F10801 		add	r1, r0, #8
 3368              		.syntax unified
 3369              	@ 1123 "Drivers/CMSIS/Include/cmsis_gcc.h" 1
 3370 00aa 41E80032 		strex r2, r3, [r1]
 3371              	@ 0 "" 2
 3372              		.thumb
 3373              		.syntax unified
 3374 00ae 002A     		cmp	r2, #0
 3375 00b0 F3D1     		bne	.L725
 3376 00b2 2023     		movs	r3, #32
 3377 00b4 E367     		str	r3, [r4, #124]
 3378 00b6 C4F88030 		str	r3, [r4, #128]
 3379 00ba C4F88430 		str	r3, [r4, #132]
 3380 00be D6E7     		b	.L738
 3382              		.section	.text.HAL_UART_Transmit,"ax",%progbits
 3383              		.align	1
 3384              		.global	HAL_UART_Transmit
 3385              		.syntax unified
 3386              		.thumb
 3387              		.thumb_func
 3388              		.fpu fpv5-sp-d16
 3390              	HAL_UART_Transmit:
 3391              		@ args = 0, pretend = 0, frame = 8
 3392              		@ frame_needed = 0, uses_anonymous_args = 0
 3393 0000 2DE9FF41 		push	{r0, r1, r2, r3, r4, r5, r6, r7, r8, lr}
 3394 0004 9846     		mov	r8, r3
 3395 0006 C36F     		ldr	r3, [r0, #124]
 3396 0008 0446     		mov	r4, r0
 3397 000a 0E46     		mov	r6, r1
 3398 000c 202B     		cmp	r3, #32
 3399 000e 1746     		mov	r7, r2
 3400 0010 42D1     		bne	.L748
 3401 0012 0029     		cmp	r1, #0
 3402 0014 42D0     		beq	.L750
 3403 0016 002A     		cmp	r2, #0
 3404 0018 40D0     		beq	.L750
 3405 001a 2123     		movs	r3, #33
 3406 001c 0025     		movs	r5, #0
 3407 001e C0F88450 		str	r5, [r0, #132]
 3408 0022 C367     		str	r3, [r0, #124]
 3409 0024 FFF7FEFF 		bl	HAL_GetTick
 3410 0028 A268     		ldr	r2, [r4, #8]
 3411 002a 0346     		mov	r3, r0
ARM GAS  /tmp/ccAEwYvH.s 			page 59


 3412 002c A4F85070 		strh	r7, [r4, #80]	@ movhi
 3413 0030 B2F5805F 		cmp	r2, #4096
 3414 0034 A4F85270 		strh	r7, [r4, #82]	@ movhi
 3415 0038 03D1     		bne	.L742
 3416 003a 2269     		ldr	r2, [r4, #16]
 3417 003c 0AB9     		cbnz	r2, .L742
 3418 003e 3546     		mov	r5, r6
 3419 0040 1646     		mov	r6, r2
 3420              	.L742:
 3421 0042 B4F85220 		ldrh	r2, [r4, #82]
 3422 0046 CDF80080 		str	r8, [sp]
 3423 004a 92B2     		uxth	r2, r2
 3424 004c 3AB9     		cbnz	r2, .L746
 3425 004e 4021     		movs	r1, #64
 3426 0050 2046     		mov	r0, r4
 3427 0052 FFF7FEFF 		bl	UART_WaitOnFlagUntilTimeout
 3428 0056 50B9     		cbnz	r0, .L747
 3429 0058 2023     		movs	r3, #32
 3430 005a E367     		str	r3, [r4, #124]
 3431 005c 08E0     		b	.L740
 3432              	.L746:
 3433 005e 0022     		movs	r2, #0
 3434 0060 8021     		movs	r1, #128
 3435 0062 2046     		mov	r0, r4
 3436 0064 0393     		str	r3, [sp, #12]
 3437 0066 FFF7FEFF 		bl	UART_WaitOnFlagUntilTimeout
 3438 006a 039B     		ldr	r3, [sp, #12]
 3439 006c 18B1     		cbz	r0, .L743
 3440              	.L747:
 3441 006e 0320     		movs	r0, #3
 3442              	.L740:
 3443 0070 04B0     		add	sp, sp, #16
 3444              		@ sp needed
 3445 0072 BDE8F081 		pop	{r4, r5, r6, r7, r8, pc}
 3446              	.L743:
 3447 0076 2168     		ldr	r1, [r4]
 3448 0078 5EB9     		cbnz	r6, .L744
 3449 007a 35F8022B 		ldrh	r2, [r5], #2
 3450 007e C2F30802 		ubfx	r2, r2, #0, #9
 3451              	.L753:
 3452 0082 8A62     		str	r2, [r1, #40]
 3453 0084 B4F85220 		ldrh	r2, [r4, #82]
 3454 0088 013A     		subs	r2, r2, #1
 3455 008a 92B2     		uxth	r2, r2
 3456 008c A4F85220 		strh	r2, [r4, #82]	@ movhi
 3457 0090 D7E7     		b	.L742
 3458              	.L744:
 3459 0092 16F8012B 		ldrb	r2, [r6], #1	@ zero_extendqisi2
 3460 0096 F4E7     		b	.L753
 3461              	.L748:
 3462 0098 0220     		movs	r0, #2
 3463 009a E9E7     		b	.L740
 3464              	.L750:
 3465 009c 0120     		movs	r0, #1
 3466 009e E7E7     		b	.L740
 3468              		.section	.text.HAL_UART_Receive,"ax",%progbits
 3469              		.align	1
ARM GAS  /tmp/ccAEwYvH.s 			page 60


 3470              		.global	HAL_UART_Receive
 3471              		.syntax unified
 3472              		.thumb
 3473              		.thumb_func
 3474              		.fpu fpv5-sp-d16
 3476              	HAL_UART_Receive:
 3477              		@ args = 0, pretend = 0, frame = 0
 3478              		@ frame_needed = 0, uses_anonymous_args = 0
 3479 0000 2DE9F743 		push	{r0, r1, r2, r4, r5, r6, r7, r8, r9, lr}
 3480 0004 1F46     		mov	r7, r3
 3481 0006 D0F88030 		ldr	r3, [r0, #128]
 3482 000a 0446     		mov	r4, r0
 3483 000c 0D46     		mov	r5, r1
 3484 000e 202B     		cmp	r3, #32
 3485 0010 1646     		mov	r6, r2
 3486 0012 5ED1     		bne	.L767
 3487 0014 0029     		cmp	r1, #0
 3488 0016 5ED0     		beq	.L769
 3489 0018 002A     		cmp	r2, #0
 3490 001a 5CD0     		beq	.L769
 3491 001c 2223     		movs	r3, #34
 3492 001e 4FF00008 		mov	r8, #0
 3493 0022 C0F88480 		str	r8, [r0, #132]
 3494 0026 C0F88030 		str	r3, [r0, #128]
 3495 002a C0F86080 		str	r8, [r0, #96]
 3496 002e FFF7FEFF 		bl	HAL_GetTick
 3497 0032 A368     		ldr	r3, [r4, #8]
 3498 0034 8146     		mov	r9, r0
 3499 0036 A4F85860 		strh	r6, [r4, #88]	@ movhi
 3500 003a B3F5805F 		cmp	r3, #4096
 3501 003e A4F85A60 		strh	r6, [r4, #90]	@ movhi
 3502 0042 1AD1     		bne	.L756
 3503 0044 2269     		ldr	r2, [r4, #16]
 3504 0046 B2B9     		cbnz	r2, .L757
 3505 0048 40F2FF12 		movw	r2, #511
 3506              	.L779:
 3507 004c A4F85C20 		strh	r2, [r4, #92]	@ movhi
 3508              	.L758:
 3509 0050 B3F5805F 		cmp	r3, #4096
 3510 0054 B4F85C80 		ldrh	r8, [r4, #92]
 3511 0058 20D1     		bne	.L771
 3512 005a 2369     		ldr	r3, [r4, #16]
 3513 005c F3B9     		cbnz	r3, .L771
 3514 005e 2E46     		mov	r6, r5
 3515 0060 1D46     		mov	r5, r3
 3516              	.L763:
 3517 0062 B4F85A20 		ldrh	r2, [r4, #90]
 3518 0066 90B2     		uxth	r0, r2
 3519 0068 D0B9     		cbnz	r0, .L766
 3520 006a 2023     		movs	r3, #32
 3521 006c C4F88030 		str	r3, [r4, #128]
 3522              	.L755:
 3523 0070 03B0     		add	sp, sp, #12
 3524              		@ sp needed
 3525 0072 BDE8F083 		pop	{r4, r5, r6, r7, r8, r9, pc}
 3526              	.L757:
 3527 0076 FF22     		movs	r2, #255
ARM GAS  /tmp/ccAEwYvH.s 			page 61


 3528 0078 E8E7     		b	.L779
 3529              	.L756:
 3530 007a 23B9     		cbnz	r3, .L759
 3531 007c 2269     		ldr	r2, [r4, #16]
 3532 007e 002A     		cmp	r2, #0
 3533 0080 F9D0     		beq	.L757
 3534              	.L761:
 3535 0082 7F22     		movs	r2, #127
 3536 0084 E2E7     		b	.L779
 3537              	.L759:
 3538 0086 B3F1805F 		cmp	r3, #268435456
 3539 008a 04D1     		bne	.L760
 3540 008c 2269     		ldr	r2, [r4, #16]
 3541 008e 002A     		cmp	r2, #0
 3542 0090 F7D0     		beq	.L761
 3543 0092 3F22     		movs	r2, #63
 3544 0094 DAE7     		b	.L779
 3545              	.L760:
 3546 0096 A4F85C80 		strh	r8, [r4, #92]	@ movhi
 3547 009a D9E7     		b	.L758
 3548              	.L771:
 3549 009c 0026     		movs	r6, #0
 3550 009e E0E7     		b	.L763
 3551              	.L766:
 3552 00a0 4B46     		mov	r3, r9
 3553 00a2 0022     		movs	r2, #0
 3554 00a4 2021     		movs	r1, #32
 3555 00a6 2046     		mov	r0, r4
 3556 00a8 0097     		str	r7, [sp]
 3557 00aa FFF7FEFF 		bl	UART_WaitOnFlagUntilTimeout
 3558 00ae A0B9     		cbnz	r0, .L772
 3559 00b0 2368     		ldr	r3, [r4]
 3560 00b2 5B6A     		ldr	r3, [r3, #36]
 3561 00b4 08EA0303 		and	r3, r8, r3
 3562 00b8 45B9     		cbnz	r5, .L764
 3563 00ba 26F8023B 		strh	r3, [r6], #2	@ movhi
 3564              	.L765:
 3565 00be B4F85A20 		ldrh	r2, [r4, #90]
 3566 00c2 013A     		subs	r2, r2, #1
 3567 00c4 92B2     		uxth	r2, r2
 3568 00c6 A4F85A20 		strh	r2, [r4, #90]	@ movhi
 3569 00ca CAE7     		b	.L763
 3570              	.L764:
 3571 00cc 05F8013B 		strb	r3, [r5], #1
 3572 00d0 F5E7     		b	.L765
 3573              	.L767:
 3574 00d2 0220     		movs	r0, #2
 3575 00d4 CCE7     		b	.L755
 3576              	.L769:
 3577 00d6 0120     		movs	r0, #1
 3578 00d8 CAE7     		b	.L755
 3579              	.L772:
 3580 00da 0320     		movs	r0, #3
 3581 00dc C8E7     		b	.L755
 3583              		.section	.text.UART_CheckIdleState,"ax",%progbits
 3584              		.align	1
 3585              		.global	UART_CheckIdleState
ARM GAS  /tmp/ccAEwYvH.s 			page 62


 3586              		.syntax unified
 3587              		.thumb
 3588              		.thumb_func
 3589              		.fpu fpv5-sp-d16
 3591              	UART_CheckIdleState:
 3592              		@ args = 0, pretend = 0, frame = 0
 3593              		@ frame_needed = 0, uses_anonymous_args = 0
 3594 0000 37B5     		push	{r0, r1, r2, r4, r5, lr}
 3595 0002 0025     		movs	r5, #0
 3596 0004 0446     		mov	r4, r0
 3597 0006 C0F88450 		str	r5, [r0, #132]
 3598 000a FFF7FEFF 		bl	HAL_GetTick
 3599 000e 2268     		ldr	r2, [r4]
 3600 0010 0346     		mov	r3, r0
 3601 0012 1268     		ldr	r2, [r2]
 3602 0014 1207     		lsls	r2, r2, #28
 3603 0016 0AD4     		bmi	.L781
 3604              	.L783:
 3605 0018 0020     		movs	r0, #0
 3606 001a 2023     		movs	r3, #32
 3607 001c 84F87800 		strb	r0, [r4, #120]
 3608 0020 E367     		str	r3, [r4, #124]
 3609 0022 C4F88030 		str	r3, [r4, #128]
 3610 0026 2066     		str	r0, [r4, #96]
 3611 0028 6066     		str	r0, [r4, #100]
 3612              	.L782:
 3613 002a 03B0     		add	sp, sp, #12
 3614              		@ sp needed
 3615 002c 30BD     		pop	{r4, r5, pc}
 3616              	.L781:
 3617 002e 6FF07E42 		mvn	r2, #-33554432
 3618 0032 4FF40011 		mov	r1, #2097152
 3619 0036 2046     		mov	r0, r4
 3620 0038 0092     		str	r2, [sp]
 3621 003a 2A46     		mov	r2, r5
 3622 003c FFF7FEFF 		bl	UART_WaitOnFlagUntilTimeout
 3623 0040 0028     		cmp	r0, #0
 3624 0042 E9D0     		beq	.L783
 3625 0044 0320     		movs	r0, #3
 3626 0046 F0E7     		b	.L782
 3628              		.section	.text.HAL_UART_Init,"ax",%progbits
 3629              		.align	1
 3630              		.global	HAL_UART_Init
 3631              		.syntax unified
 3632              		.thumb
 3633              		.thumb_func
 3634              		.fpu fpv5-sp-d16
 3636              	HAL_UART_Init:
 3637              		@ args = 0, pretend = 0, frame = 0
 3638              		@ frame_needed = 0, uses_anonymous_args = 0
 3639 0000 10B5     		push	{r4, lr}
 3640 0002 0446     		mov	r4, r0
 3641 0004 40B3     		cbz	r0, .L789
 3642 0006 C36F     		ldr	r3, [r0, #124]
 3643 0008 1BB9     		cbnz	r3, .L790
 3644 000a 80F87830 		strb	r3, [r0, #120]
 3645 000e FFF7FEFF 		bl	HAL_UART_MspInit
ARM GAS  /tmp/ccAEwYvH.s 			page 63


 3646              	.L790:
 3647 0012 2268     		ldr	r2, [r4]
 3648 0014 2423     		movs	r3, #36
 3649 0016 2046     		mov	r0, r4
 3650 0018 E367     		str	r3, [r4, #124]
 3651 001a 1368     		ldr	r3, [r2]
 3652 001c 23F00103 		bic	r3, r3, #1
 3653 0020 1360     		str	r3, [r2]
 3654 0022 FFF7FEFF 		bl	UART_SetConfig
 3655 0026 0128     		cmp	r0, #1
 3656 0028 16D0     		beq	.L789
 3657 002a 636A     		ldr	r3, [r4, #36]
 3658 002c 13B1     		cbz	r3, .L792
 3659 002e 2046     		mov	r0, r4
 3660 0030 FFF7FEFF 		bl	UART_AdvFeatureConfig
 3661              	.L792:
 3662 0034 2368     		ldr	r3, [r4]
 3663 0036 2046     		mov	r0, r4
 3664 0038 5A68     		ldr	r2, [r3, #4]
 3665 003a 22F49042 		bic	r2, r2, #18432
 3666 003e 5A60     		str	r2, [r3, #4]
 3667 0040 9A68     		ldr	r2, [r3, #8]
 3668 0042 22F02A02 		bic	r2, r2, #42
 3669 0046 9A60     		str	r2, [r3, #8]
 3670 0048 1A68     		ldr	r2, [r3]
 3671 004a 42F00102 		orr	r2, r2, #1
 3672 004e BDE81040 		pop	{r4, lr}
 3673 0052 1A60     		str	r2, [r3]
 3674 0054 FFF7FEBF 		b	UART_CheckIdleState
 3675              	.L789:
 3676 0058 0120     		movs	r0, #1
 3677 005a 10BD     		pop	{r4, pc}
 3679              		.section	.text.HAL_HalfDuplex_Init,"ax",%progbits
 3680              		.align	1
 3681              		.global	HAL_HalfDuplex_Init
 3682              		.syntax unified
 3683              		.thumb
 3684              		.thumb_func
 3685              		.fpu fpv5-sp-d16
 3687              	HAL_HalfDuplex_Init:
 3688              		@ args = 0, pretend = 0, frame = 0
 3689              		@ frame_needed = 0, uses_anonymous_args = 0
 3690 0000 10B5     		push	{r4, lr}
 3691 0002 0446     		mov	r4, r0
 3692 0004 60B3     		cbz	r0, .L801
 3693 0006 C36F     		ldr	r3, [r0, #124]
 3694 0008 1BB9     		cbnz	r3, .L802
 3695 000a 80F87830 		strb	r3, [r0, #120]
 3696 000e FFF7FEFF 		bl	HAL_UART_MspInit
 3697              	.L802:
 3698 0012 2268     		ldr	r2, [r4]
 3699 0014 2423     		movs	r3, #36
 3700 0016 2046     		mov	r0, r4
 3701 0018 E367     		str	r3, [r4, #124]
 3702 001a 1368     		ldr	r3, [r2]
 3703 001c 23F00103 		bic	r3, r3, #1
 3704 0020 1360     		str	r3, [r2]
ARM GAS  /tmp/ccAEwYvH.s 			page 64


 3705 0022 FFF7FEFF 		bl	UART_SetConfig
 3706 0026 0128     		cmp	r0, #1
 3707 0028 1AD0     		beq	.L801
 3708 002a 636A     		ldr	r3, [r4, #36]
 3709 002c 13B1     		cbz	r3, .L804
 3710 002e 2046     		mov	r0, r4
 3711 0030 FFF7FEFF 		bl	UART_AdvFeatureConfig
 3712              	.L804:
 3713 0034 2368     		ldr	r3, [r4]
 3714 0036 2046     		mov	r0, r4
 3715 0038 5A68     		ldr	r2, [r3, #4]
 3716 003a 22F49042 		bic	r2, r2, #18432
 3717 003e 5A60     		str	r2, [r3, #4]
 3718 0040 9A68     		ldr	r2, [r3, #8]
 3719 0042 22F02202 		bic	r2, r2, #34
 3720 0046 9A60     		str	r2, [r3, #8]
 3721 0048 9A68     		ldr	r2, [r3, #8]
 3722 004a 42F00802 		orr	r2, r2, #8
 3723 004e 9A60     		str	r2, [r3, #8]
 3724 0050 1A68     		ldr	r2, [r3]
 3725 0052 42F00102 		orr	r2, r2, #1
 3726 0056 BDE81040 		pop	{r4, lr}
 3727 005a 1A60     		str	r2, [r3]
 3728 005c FFF7FEBF 		b	UART_CheckIdleState
 3729              	.L801:
 3730 0060 0120     		movs	r0, #1
 3731 0062 10BD     		pop	{r4, pc}
 3733              		.section	.text.HAL_LIN_Init,"ax",%progbits
 3734              		.align	1
 3735              		.global	HAL_LIN_Init
 3736              		.syntax unified
 3737              		.thumb
 3738              		.thumb_func
 3739              		.fpu fpv5-sp-d16
 3741              	HAL_LIN_Init:
 3742              		@ args = 0, pretend = 0, frame = 0
 3743              		@ frame_needed = 0, uses_anonymous_args = 0
 3744 0000 38B5     		push	{r3, r4, r5, lr}
 3745 0002 0D46     		mov	r5, r1
 3746 0004 0446     		mov	r4, r0
 3747 0006 0028     		cmp	r0, #0
 3748 0008 38D0     		beq	.L813
 3749 000a C369     		ldr	r3, [r0, #28]
 3750 000c B3F5004F 		cmp	r3, #32768
 3751 0010 34D0     		beq	.L813
 3752 0012 8368     		ldr	r3, [r0, #8]
 3753 0014 002B     		cmp	r3, #0
 3754 0016 31D1     		bne	.L813
 3755 0018 C36F     		ldr	r3, [r0, #124]
 3756 001a 1BB9     		cbnz	r3, .L815
 3757 001c 80F87830 		strb	r3, [r0, #120]
 3758 0020 FFF7FEFF 		bl	HAL_UART_MspInit
 3759              	.L815:
 3760 0024 2268     		ldr	r2, [r4]
 3761 0026 2423     		movs	r3, #36
 3762 0028 2046     		mov	r0, r4
 3763 002a E367     		str	r3, [r4, #124]
ARM GAS  /tmp/ccAEwYvH.s 			page 65


 3764 002c 1368     		ldr	r3, [r2]
 3765 002e 23F00103 		bic	r3, r3, #1
 3766 0032 1360     		str	r3, [r2]
 3767 0034 FFF7FEFF 		bl	UART_SetConfig
 3768 0038 0128     		cmp	r0, #1
 3769 003a 1FD0     		beq	.L813
 3770 003c 636A     		ldr	r3, [r4, #36]
 3771 003e 13B1     		cbz	r3, .L816
 3772 0040 2046     		mov	r0, r4
 3773 0042 FFF7FEFF 		bl	UART_AdvFeatureConfig
 3774              	.L816:
 3775 0046 2368     		ldr	r3, [r4]
 3776 0048 2046     		mov	r0, r4
 3777 004a 5A68     		ldr	r2, [r3, #4]
 3778 004c 22F40062 		bic	r2, r2, #2048
 3779 0050 5A60     		str	r2, [r3, #4]
 3780 0052 9A68     		ldr	r2, [r3, #8]
 3781 0054 22F02A02 		bic	r2, r2, #42
 3782 0058 9A60     		str	r2, [r3, #8]
 3783 005a 5A68     		ldr	r2, [r3, #4]
 3784 005c 42F48042 		orr	r2, r2, #16384
 3785 0060 5A60     		str	r2, [r3, #4]
 3786 0062 5A68     		ldr	r2, [r3, #4]
 3787 0064 22F02002 		bic	r2, r2, #32
 3788 0068 2A43     		orrs	r2, r2, r5
 3789 006a 5A60     		str	r2, [r3, #4]
 3790 006c 1A68     		ldr	r2, [r3]
 3791 006e 42F00102 		orr	r2, r2, #1
 3792 0072 1A60     		str	r2, [r3]
 3793 0074 BDE83840 		pop	{r3, r4, r5, lr}
 3794 0078 FFF7FEBF 		b	UART_CheckIdleState
 3795              	.L813:
 3796 007c 0120     		movs	r0, #1
 3797 007e 38BD     		pop	{r3, r4, r5, pc}
 3799              		.section	.text.HAL_MultiProcessor_Init,"ax",%progbits
 3800              		.align	1
 3801              		.global	HAL_MultiProcessor_Init
 3802              		.syntax unified
 3803              		.thumb
 3804              		.thumb_func
 3805              		.fpu fpv5-sp-d16
 3807              	HAL_MultiProcessor_Init:
 3808              		@ args = 0, pretend = 0, frame = 0
 3809              		@ frame_needed = 0, uses_anonymous_args = 0
 3810 0000 70B5     		push	{r4, r5, r6, lr}
 3811 0002 0E46     		mov	r6, r1
 3812 0004 1546     		mov	r5, r2
 3813 0006 0446     		mov	r4, r0
 3814 0008 0028     		cmp	r0, #0
 3815 000a 36D0     		beq	.L828
 3816 000c C36F     		ldr	r3, [r0, #124]
 3817 000e 1BB9     		cbnz	r3, .L829
 3818 0010 80F87830 		strb	r3, [r0, #120]
 3819 0014 FFF7FEFF 		bl	HAL_UART_MspInit
 3820              	.L829:
 3821 0018 2268     		ldr	r2, [r4]
 3822 001a 2423     		movs	r3, #36
ARM GAS  /tmp/ccAEwYvH.s 			page 66


 3823 001c 2046     		mov	r0, r4
 3824 001e E367     		str	r3, [r4, #124]
 3825 0020 1368     		ldr	r3, [r2]
 3826 0022 23F00103 		bic	r3, r3, #1
 3827 0026 1360     		str	r3, [r2]
 3828 0028 FFF7FEFF 		bl	UART_SetConfig
 3829 002c 0128     		cmp	r0, #1
 3830 002e 24D0     		beq	.L828
 3831 0030 636A     		ldr	r3, [r4, #36]
 3832 0032 13B1     		cbz	r3, .L831
 3833 0034 2046     		mov	r0, r4
 3834 0036 FFF7FEFF 		bl	UART_AdvFeatureConfig
 3835              	.L831:
 3836 003a 2368     		ldr	r3, [r4]
 3837 003c B5F5006F 		cmp	r5, #2048
 3838 0040 5A68     		ldr	r2, [r3, #4]
 3839 0042 22F49042 		bic	r2, r2, #18432
 3840 0046 5A60     		str	r2, [r3, #4]
 3841 0048 9A68     		ldr	r2, [r3, #8]
 3842 004a 22F02A02 		bic	r2, r2, #42
 3843 004e 9A60     		str	r2, [r3, #8]
 3844 0050 05D1     		bne	.L832
 3845 0052 5868     		ldr	r0, [r3, #4]
 3846 0054 20F07F40 		bic	r0, r0, #-16777216
 3847 0058 40EA0660 		orr	r0, r0, r6, lsl #24
 3848 005c 5860     		str	r0, [r3, #4]
 3849              	.L832:
 3850 005e 1968     		ldr	r1, [r3]
 3851 0060 2046     		mov	r0, r4
 3852 0062 21F40061 		bic	r1, r1, #2048
 3853 0066 2943     		orrs	r1, r1, r5
 3854 0068 1960     		str	r1, [r3]
 3855 006a 1A68     		ldr	r2, [r3]
 3856 006c 42F00102 		orr	r2, r2, #1
 3857 0070 BDE87040 		pop	{r4, r5, r6, lr}
 3858 0074 1A60     		str	r2, [r3]
 3859 0076 FFF7FEBF 		b	UART_CheckIdleState
 3860              	.L828:
 3861 007a 0120     		movs	r0, #1
 3862 007c 70BD     		pop	{r4, r5, r6, pc}
 3864              		.section	.text.HAL_MultiProcessor_EnableMuteMode,"ax",%progbits
 3865              		.align	1
 3866              		.global	HAL_MultiProcessor_EnableMuteMode
 3867              		.syntax unified
 3868              		.thumb
 3869              		.thumb_func
 3870              		.fpu fpv5-sp-d16
 3872              	HAL_MultiProcessor_EnableMuteMode:
 3873              		@ args = 0, pretend = 0, frame = 0
 3874              		@ frame_needed = 0, uses_anonymous_args = 0
 3875              		@ link register save eliminated.
 3876 0000 90F87830 		ldrb	r3, [r0, #120]	@ zero_extendqisi2
 3877 0004 012B     		cmp	r3, #1
 3878 0006 11D0     		beq	.L840
 3879 0008 0123     		movs	r3, #1
 3880 000a 80F87830 		strb	r3, [r0, #120]
 3881 000e 2423     		movs	r3, #36
ARM GAS  /tmp/ccAEwYvH.s 			page 67


 3882 0010 C367     		str	r3, [r0, #124]
 3883              	.L841:
 3884 0012 0268     		ldr	r2, [r0]
 3885              		.syntax unified
 3886              	@ 1072 "Drivers/CMSIS/Include/cmsis_gcc.h" 1
 3887 0014 52E8003F 		ldrex r3, [r2]
 3888              	@ 0 "" 2
 3889              		.thumb
 3890              		.syntax unified
 3891 0018 43F40053 		orr	r3, r3, #8192
 3892              		.syntax unified
 3893              	@ 1123 "Drivers/CMSIS/Include/cmsis_gcc.h" 1
 3894 001c 42E80031 		strex r1, r3, [r2]
 3895              	@ 0 "" 2
 3896              		.thumb
 3897              		.syntax unified
 3898 0020 0029     		cmp	r1, #0
 3899 0022 F6D1     		bne	.L841
 3900 0024 2023     		movs	r3, #32
 3901 0026 C367     		str	r3, [r0, #124]
 3902 0028 FFF7FEBF 		b	UART_CheckIdleState
 3903              	.L840:
 3904 002c 0220     		movs	r0, #2
 3905 002e 7047     		bx	lr
 3907              		.section	.text.HAL_MultiProcessor_DisableMuteMode,"ax",%progbits
 3908              		.align	1
 3909              		.global	HAL_MultiProcessor_DisableMuteMode
 3910              		.syntax unified
 3911              		.thumb
 3912              		.thumb_func
 3913              		.fpu fpv5-sp-d16
 3915              	HAL_MultiProcessor_DisableMuteMode:
 3916              		@ args = 0, pretend = 0, frame = 0
 3917              		@ frame_needed = 0, uses_anonymous_args = 0
 3918              		@ link register save eliminated.
 3919 0000 90F87830 		ldrb	r3, [r0, #120]	@ zero_extendqisi2
 3920 0004 012B     		cmp	r3, #1
 3921 0006 11D0     		beq	.L844
 3922 0008 0123     		movs	r3, #1
 3923 000a 80F87830 		strb	r3, [r0, #120]
 3924 000e 2423     		movs	r3, #36
 3925 0010 C367     		str	r3, [r0, #124]
 3926              	.L845:
 3927 0012 0268     		ldr	r2, [r0]
 3928              		.syntax unified
 3929              	@ 1072 "Drivers/CMSIS/Include/cmsis_gcc.h" 1
 3930 0014 52E8003F 		ldrex r3, [r2]
 3931              	@ 0 "" 2
 3932              		.thumb
 3933              		.syntax unified
 3934 0018 23F40053 		bic	r3, r3, #8192
 3935              		.syntax unified
 3936              	@ 1123 "Drivers/CMSIS/Include/cmsis_gcc.h" 1
 3937 001c 42E80031 		strex r1, r3, [r2]
 3938              	@ 0 "" 2
 3939              		.thumb
 3940              		.syntax unified
ARM GAS  /tmp/ccAEwYvH.s 			page 68


 3941 0020 0029     		cmp	r1, #0
 3942 0022 F6D1     		bne	.L845
 3943 0024 2023     		movs	r3, #32
 3944 0026 C367     		str	r3, [r0, #124]
 3945 0028 FFF7FEBF 		b	UART_CheckIdleState
 3946              	.L844:
 3947 002c 0220     		movs	r0, #2
 3948 002e 7047     		bx	lr
 3950              		.section	.text.UART_Start_Receive_IT,"ax",%progbits
 3951              		.align	1
 3952              		.global	UART_Start_Receive_IT
 3953              		.syntax unified
 3954              		.thumb
 3955              		.thumb_func
 3956              		.fpu fpv5-sp-d16
 3958              	UART_Start_Receive_IT:
 3959              		@ args = 0, pretend = 0, frame = 0
 3960              		@ frame_needed = 0, uses_anonymous_args = 0
 3961 0000 8368     		ldr	r3, [r0, #8]
 3962 0002 10B5     		push	{r4, lr}
 3963 0004 B3F5805F 		cmp	r3, #4096
 3964 0008 A0F85820 		strh	r2, [r0, #88]	@ movhi
 3965 000c A0F85A20 		strh	r2, [r0, #90]	@ movhi
 3966 0010 4FF00002 		mov	r2, #0
 3967 0014 4165     		str	r1, [r0, #84]
 3968 0016 8266     		str	r2, [r0, #104]
 3969 0018 30D1     		bne	.L848
 3970 001a 0369     		ldr	r3, [r0, #16]
 3971 001c 63BB     		cbnz	r3, .L849
 3972 001e 40F2FF13 		movw	r3, #511
 3973              	.L873:
 3974 0022 A0F85C30 		strh	r3, [r0, #92]	@ movhi
 3975              	.L850:
 3976 0026 0023     		movs	r3, #0
 3977 0028 C0F88430 		str	r3, [r0, #132]
 3978 002c 2223     		movs	r3, #34
 3979 002e C0F88030 		str	r3, [r0, #128]
 3980              	.L854:
 3981 0032 0268     		ldr	r2, [r0]
 3982 0034 02F10803 		add	r3, r2, #8
 3983              		.syntax unified
 3984              	@ 1072 "Drivers/CMSIS/Include/cmsis_gcc.h" 1
 3985 0038 53E8003F 		ldrex r3, [r3]
 3986              	@ 0 "" 2
 3987              		.thumb
 3988              		.syntax unified
 3989 003c 43F00103 		orr	r3, r3, #1
 3990 0040 0832     		adds	r2, r2, #8
 3991              		.syntax unified
 3992              	@ 1123 "Drivers/CMSIS/Include/cmsis_gcc.h" 1
 3993 0042 42E80031 		strex r1, r3, [r2]
 3994              	@ 0 "" 2
 3995              		.thumb
 3996              		.syntax unified
 3997 0046 0268     		ldr	r2, [r0]
 3998 0048 0029     		cmp	r1, #0
 3999 004a F2D1     		bne	.L854
ARM GAS  /tmp/ccAEwYvH.s 			page 69


 4000 004c 8368     		ldr	r3, [r0, #8]
 4001 004e 0169     		ldr	r1, [r0, #16]
 4002 0050 B3F5805F 		cmp	r3, #4096
 4003 0054 23D1     		bne	.L859
 4004 0056 174B     		ldr	r3, .L874
 4005 0058 174C     		ldr	r4, .L874+4
 4006 005a 0029     		cmp	r1, #0
 4007 005c 18BF     		it	ne
 4008 005e 2346     		movne	r3, r4
 4009              	.L855:
 4010 0060 8366     		str	r3, [r0, #104]
 4011 0062 F1B1     		cbz	r1, .L856
 4012              	.L857:
 4013              		.syntax unified
 4014              	@ 1072 "Drivers/CMSIS/Include/cmsis_gcc.h" 1
 4015 0064 52E8003F 		ldrex r3, [r2]
 4016              	@ 0 "" 2
 4017              		.thumb
 4018              		.syntax unified
 4019 0068 43F49073 		orr	r3, r3, #288
 4020              		.syntax unified
 4021              	@ 1123 "Drivers/CMSIS/Include/cmsis_gcc.h" 1
 4022 006c 42E80031 		strex r1, r3, [r2]
 4023              	@ 0 "" 2
 4024              		.thumb
 4025              		.syntax unified
 4026 0070 0029     		cmp	r1, #0
 4027 0072 F7D1     		bne	.L857
 4028              	.L872:
 4029 0074 0020     		movs	r0, #0
 4030 0076 10BD     		pop	{r4, pc}
 4031              	.L849:
 4032 0078 FF23     		movs	r3, #255
 4033 007a D2E7     		b	.L873
 4034              	.L848:
 4035 007c 23B9     		cbnz	r3, .L851
 4036 007e 0369     		ldr	r3, [r0, #16]
 4037 0080 002B     		cmp	r3, #0
 4038 0082 F9D0     		beq	.L849
 4039              	.L853:
 4040 0084 7F23     		movs	r3, #127
 4041 0086 CCE7     		b	.L873
 4042              	.L851:
 4043 0088 B3F1805F 		cmp	r3, #268435456
 4044 008c 04D1     		bne	.L852
 4045 008e 0369     		ldr	r3, [r0, #16]
 4046 0090 002B     		cmp	r3, #0
 4047 0092 F7D0     		beq	.L853
 4048 0094 3F23     		movs	r3, #63
 4049 0096 C4E7     		b	.L873
 4050              	.L852:
 4051 0098 A0F85C20 		strh	r2, [r0, #92]	@ movhi
 4052 009c C3E7     		b	.L850
 4053              	.L859:
 4054 009e 064B     		ldr	r3, .L874+4
 4055 00a0 DEE7     		b	.L855
 4056              	.L856:
ARM GAS  /tmp/ccAEwYvH.s 			page 70


 4057              		.syntax unified
 4058              	@ 1072 "Drivers/CMSIS/Include/cmsis_gcc.h" 1
 4059 00a2 52E8003F 		ldrex r3, [r2]
 4060              	@ 0 "" 2
 4061              		.thumb
 4062              		.syntax unified
 4063 00a6 43F02003 		orr	r3, r3, #32
 4064              		.syntax unified
 4065              	@ 1123 "Drivers/CMSIS/Include/cmsis_gcc.h" 1
 4066 00aa 42E80031 		strex r1, r3, [r2]
 4067              	@ 0 "" 2
 4068              		.thumb
 4069              		.syntax unified
 4070 00ae 0029     		cmp	r1, #0
 4071 00b0 F7D1     		bne	.L856
 4072 00b2 DFE7     		b	.L872
 4073              	.L875:
 4074              		.align	2
 4075              	.L874:
 4076 00b4 00000000 		.word	UART_RxISR_16BIT
 4077 00b8 00000000 		.word	UART_RxISR_8BIT
 4079              		.section	.text.HAL_UART_Receive_IT,"ax",%progbits
 4080              		.align	1
 4081              		.global	HAL_UART_Receive_IT
 4082              		.syntax unified
 4083              		.thumb
 4084              		.thumb_func
 4085              		.fpu fpv5-sp-d16
 4087              	HAL_UART_Receive_IT:
 4088              		@ args = 0, pretend = 0, frame = 0
 4089              		@ frame_needed = 0, uses_anonymous_args = 0
 4090              		@ link register save eliminated.
 4091 0000 D0F88030 		ldr	r3, [r0, #128]
 4092 0004 202B     		cmp	r3, #32
 4093 0006 30B4     		push	{r4, r5}
 4094 0008 12D1     		bne	.L880
 4095 000a A1B1     		cbz	r1, .L882
 4096 000c 9AB1     		cbz	r2, .L882
 4097 000e 0023     		movs	r3, #0
 4098 0010 0468     		ldr	r4, [r0]
 4099 0012 0366     		str	r3, [r0, #96]
 4100 0014 6368     		ldr	r3, [r4, #4]
 4101 0016 1B02     		lsls	r3, r3, #8
 4102 0018 07D5     		bpl	.L878
 4103              	.L879:
 4104              		.syntax unified
 4105              	@ 1072 "Drivers/CMSIS/Include/cmsis_gcc.h" 1
 4106 001a 54E8003F 		ldrex r3, [r4]
 4107              	@ 0 "" 2
 4108              		.thumb
 4109              		.syntax unified
 4110 001e 43F08063 		orr	r3, r3, #67108864
 4111              		.syntax unified
 4112              	@ 1123 "Drivers/CMSIS/Include/cmsis_gcc.h" 1
 4113 0022 44E80035 		strex r5, r3, [r4]
 4114              	@ 0 "" 2
 4115              		.thumb
ARM GAS  /tmp/ccAEwYvH.s 			page 71


 4116              		.syntax unified
 4117 0026 002D     		cmp	r5, #0
 4118 0028 F7D1     		bne	.L879
 4119              	.L878:
 4120 002a 30BC     		pop	{r4, r5}
 4121 002c FFF7FEBF 		b	UART_Start_Receive_IT
 4122              	.L880:
 4123 0030 0220     		movs	r0, #2
 4124              	.L877:
 4125 0032 30BC     		pop	{r4, r5}
 4126 0034 7047     		bx	lr
 4127              	.L882:
 4128 0036 0120     		movs	r0, #1
 4129 0038 FBE7     		b	.L877
 4131              		.section	.text.UART_Start_Receive_DMA,"ax",%progbits
 4132              		.align	1
 4133              		.global	UART_Start_Receive_DMA
 4134              		.syntax unified
 4135              		.thumb
 4136              		.thumb_func
 4137              		.fpu fpv5-sp-d16
 4139              	UART_Start_Receive_DMA:
 4140              		@ args = 0, pretend = 0, frame = 0
 4141              		@ frame_needed = 0, uses_anonymous_args = 0
 4142 0000 0023     		movs	r3, #0
 4143 0002 70B5     		push	{r4, r5, r6, lr}
 4144 0004 0446     		mov	r4, r0
 4145 0006 4165     		str	r1, [r0, #84]
 4146 0008 A0F85820 		strh	r2, [r0, #88]	@ movhi
 4147 000c C0F88430 		str	r3, [r0, #132]
 4148 0010 2220     		movs	r0, #34
 4149 0012 C4F88000 		str	r0, [r4, #128]
 4150 0016 606F     		ldr	r0, [r4, #116]
 4151 0018 B0B1     		cbz	r0, .L888
 4152 001a 1D4E     		ldr	r6, .L904
 4153 001c 2568     		ldr	r5, [r4]
 4154 001e C663     		str	r6, [r0, #60]
 4155 0020 1C4E     		ldr	r6, .L904+4
 4156 0022 0664     		str	r6, [r0, #64]
 4157 0024 1C4E     		ldr	r6, .L904+8
 4158 0026 C0E91363 		strd	r6, r3, [r0, #76]
 4159 002a 1346     		mov	r3, r2
 4160 002c 0A46     		mov	r2, r1
 4161 002e 05F12401 		add	r1, r5, #36
 4162 0032 FFF7FEFF 		bl	HAL_DMA_Start_IT
 4163 0036 38B1     		cbz	r0, .L888
 4164 0038 1023     		movs	r3, #16
 4165 003a 0120     		movs	r0, #1
 4166 003c C4F88430 		str	r3, [r4, #132]
 4167 0040 2023     		movs	r3, #32
 4168 0042 C4F88030 		str	r3, [r4, #128]
 4169              	.L889:
 4170 0046 70BD     		pop	{r4, r5, r6, pc}
 4171              	.L888:
 4172 0048 2269     		ldr	r2, [r4, #16]
 4173 004a 2368     		ldr	r3, [r4]
 4174 004c 3AB1     		cbz	r2, .L891
ARM GAS  /tmp/ccAEwYvH.s 			page 72


 4175              	.L890:
 4176              		.syntax unified
 4177              	@ 1072 "Drivers/CMSIS/Include/cmsis_gcc.h" 1
 4178 004e 53E8002F 		ldrex r2, [r3]
 4179              	@ 0 "" 2
 4180              		.thumb
 4181              		.syntax unified
 4182 0052 42F48072 		orr	r2, r2, #256
 4183              		.syntax unified
 4184              	@ 1123 "Drivers/CMSIS/Include/cmsis_gcc.h" 1
 4185 0056 43E80021 		strex r1, r2, [r3]
 4186              	@ 0 "" 2
 4187              		.thumb
 4188              		.syntax unified
 4189 005a 0029     		cmp	r1, #0
 4190 005c F7D1     		bne	.L890
 4191              	.L891:
 4192 005e 03F10802 		add	r2, r3, #8
 4193              		.syntax unified
 4194              	@ 1072 "Drivers/CMSIS/Include/cmsis_gcc.h" 1
 4195 0062 52E8002F 		ldrex r2, [r2]
 4196              	@ 0 "" 2
 4197              		.thumb
 4198              		.syntax unified
 4199 0066 42F00102 		orr	r2, r2, #1
 4200 006a 03F10800 		add	r0, r3, #8
 4201              		.syntax unified
 4202              	@ 1123 "Drivers/CMSIS/Include/cmsis_gcc.h" 1
 4203 006e 40E80021 		strex r1, r2, [r0]
 4204              	@ 0 "" 2
 4205              		.thumb
 4206              		.syntax unified
 4207 0072 0029     		cmp	r1, #0
 4208 0074 F3D1     		bne	.L891
 4209              	.L893:
 4210 0076 03F10802 		add	r2, r3, #8
 4211              		.syntax unified
 4212              	@ 1072 "Drivers/CMSIS/Include/cmsis_gcc.h" 1
 4213 007a 52E8002F 		ldrex r2, [r2]
 4214              	@ 0 "" 2
 4215              		.thumb
 4216              		.syntax unified
 4217 007e 42F04002 		orr	r2, r2, #64
 4218 0082 03F10801 		add	r1, r3, #8
 4219              		.syntax unified
 4220              	@ 1123 "Drivers/CMSIS/Include/cmsis_gcc.h" 1
 4221 0086 41E80020 		strex r0, r2, [r1]
 4222              	@ 0 "" 2
 4223              		.thumb
 4224              		.syntax unified
 4225 008a 0028     		cmp	r0, #0
 4226 008c F3D1     		bne	.L893
 4227 008e DAE7     		b	.L889
 4228              	.L905:
 4229              		.align	2
 4230              	.L904:
 4231 0090 00000000 		.word	UART_DMAReceiveCplt
ARM GAS  /tmp/ccAEwYvH.s 			page 73


 4232 0094 00000000 		.word	UART_DMARxHalfCplt
 4233 0098 00000000 		.word	UART_DMAError
 4235              		.section	.text.HAL_UART_Receive_DMA,"ax",%progbits
 4236              		.align	1
 4237              		.global	HAL_UART_Receive_DMA
 4238              		.syntax unified
 4239              		.thumb
 4240              		.thumb_func
 4241              		.fpu fpv5-sp-d16
 4243              	HAL_UART_Receive_DMA:
 4244              		@ args = 0, pretend = 0, frame = 0
 4245              		@ frame_needed = 0, uses_anonymous_args = 0
 4246              		@ link register save eliminated.
 4247 0000 D0F88030 		ldr	r3, [r0, #128]
 4248 0004 202B     		cmp	r3, #32
 4249 0006 30B4     		push	{r4, r5}
 4250 0008 12D1     		bne	.L910
 4251 000a A1B1     		cbz	r1, .L912
 4252 000c 9AB1     		cbz	r2, .L912
 4253 000e 0023     		movs	r3, #0
 4254 0010 0468     		ldr	r4, [r0]
 4255 0012 0366     		str	r3, [r0, #96]
 4256 0014 6368     		ldr	r3, [r4, #4]
 4257 0016 1B02     		lsls	r3, r3, #8
 4258 0018 07D5     		bpl	.L908
 4259              	.L909:
 4260              		.syntax unified
 4261              	@ 1072 "Drivers/CMSIS/Include/cmsis_gcc.h" 1
 4262 001a 54E8003F 		ldrex r3, [r4]
 4263              	@ 0 "" 2
 4264              		.thumb
 4265              		.syntax unified
 4266 001e 43F08063 		orr	r3, r3, #67108864
 4267              		.syntax unified
 4268              	@ 1123 "Drivers/CMSIS/Include/cmsis_gcc.h" 1
 4269 0022 44E80035 		strex r5, r3, [r4]
 4270              	@ 0 "" 2
 4271              		.thumb
 4272              		.syntax unified
 4273 0026 002D     		cmp	r5, #0
 4274 0028 F7D1     		bne	.L909
 4275              	.L908:
 4276 002a 30BC     		pop	{r4, r5}
 4277 002c FFF7FEBF 		b	UART_Start_Receive_DMA
 4278              	.L910:
 4279 0030 0220     		movs	r0, #2
 4280              	.L907:
 4281 0032 30BC     		pop	{r4, r5}
 4282 0034 7047     		bx	lr
 4283              	.L912:
 4284 0036 0120     		movs	r0, #1
 4285 0038 FBE7     		b	.L907
 4287              		.section	.rodata.CSWTCH.53,"a"
 4288              		.set	.LANCHOR0,. + 0
 4291              	CSWTCH.53:
 4292 0000 04       		.byte	4
 4293 0001 02       		.byte	2
ARM GAS  /tmp/ccAEwYvH.s 			page 74


 4294 0002 08       		.byte	8
 4295              		.section	.rodata.CSWTCH.54,"a"
 4296              		.set	.LANCHOR1,. + 0
 4299              	CSWTCH.54:
 4300 0000 00       		.byte	0
 4301 0001 10       		.byte	16
 4302 0002 10       		.byte	16
 4303 0003 10       		.byte	16
 4304 0004 04       		.byte	4
 4305 0005 10       		.byte	16
 4306 0006 10       		.byte	16
 4307 0007 10       		.byte	16
 4308 0008 02       		.byte	2
 4309 0009 10       		.byte	16
 4310 000a 10       		.byte	16
 4311 000b 10       		.byte	16
 4312 000c 08       		.byte	8
 4313              		.ident	"GCC: (15:10.3-2021.07-4) 10.3.1 20210621 (release)"
ARM GAS  /tmp/ccAEwYvH.s 			page 75


DEFINED SYMBOLS
                            *ABS*:0000000000000000 stm32f7xx_hal_uart.c
     /tmp/ccAEwYvH.s:15     .text.UART_EndRxTransfer:0000000000000000 $t
     /tmp/ccAEwYvH.s:22     .text.UART_EndRxTransfer:0000000000000000 UART_EndRxTransfer
     /tmp/ccAEwYvH.s:90     .text.UART_TxISR_8BIT.part.0:0000000000000000 $t
     /tmp/ccAEwYvH.s:96     .text.UART_TxISR_8BIT.part.0:0000000000000000 UART_TxISR_8BIT.part.0
     /tmp/ccAEwYvH.s:96     .text.UART_TxISR_8BIT.part.0:0000000000000000 UART_TxISR_16BIT.part.0
     /tmp/ccAEwYvH.s:138    .text.UART_TxISR_8BIT:0000000000000000 $t
     /tmp/ccAEwYvH.s:144    .text.UART_TxISR_8BIT:0000000000000000 UART_TxISR_8BIT
     /tmp/ccAEwYvH.s:170    .text.UART_TxISR_16BIT:0000000000000000 $t
     /tmp/ccAEwYvH.s:176    .text.UART_TxISR_16BIT:0000000000000000 UART_TxISR_16BIT
     /tmp/ccAEwYvH.s:203    .text.HAL_UART_MspInit:0000000000000000 $t
     /tmp/ccAEwYvH.s:210    .text.HAL_UART_MspInit:0000000000000000 HAL_UART_MspInit
     /tmp/ccAEwYvH.s:217    .text.HAL_UART_MspDeInit:0000000000000000 $t
     /tmp/ccAEwYvH.s:224    .text.HAL_UART_MspDeInit:0000000000000000 HAL_UART_MspDeInit
     /tmp/ccAEwYvH.s:231    .text.HAL_UART_DeInit:0000000000000000 $t
     /tmp/ccAEwYvH.s:238    .text.HAL_UART_DeInit:0000000000000000 HAL_UART_DeInit
     /tmp/ccAEwYvH.s:269    .text.HAL_UART_Transmit_IT:0000000000000000 $t
     /tmp/ccAEwYvH.s:276    .text.HAL_UART_Transmit_IT:0000000000000000 HAL_UART_Transmit_IT
     /tmp/ccAEwYvH.s:334    .text.HAL_UART_Transmit_IT:0000000000000058 $d
     /tmp/ccAEwYvH.s:338    .text.HAL_UART_Transmit_DMA:0000000000000000 $t
     /tmp/ccAEwYvH.s:345    .text.HAL_UART_Transmit_DMA:0000000000000000 HAL_UART_Transmit_DMA
     /tmp/ccAEwYvH.s:412    .text.HAL_UART_Transmit_DMA:0000000000000074 $d
     /tmp/ccAEwYvH.s:1094   .text.UART_DMATransmitCplt:0000000000000000 UART_DMATransmitCplt
     /tmp/ccAEwYvH.s:1168   .text.UART_DMATxHalfCplt:0000000000000000 UART_DMATxHalfCplt
     /tmp/ccAEwYvH.s:1225   .text.UART_DMAError:0000000000000000 UART_DMAError
     /tmp/ccAEwYvH.s:417    .text.HAL_UART_DMAPause:0000000000000000 $t
     /tmp/ccAEwYvH.s:424    .text.HAL_UART_DMAPause:0000000000000000 HAL_UART_DMAPause
     /tmp/ccAEwYvH.s:517    .text.HAL_UART_DMAResume:0000000000000000 $t
     /tmp/ccAEwYvH.s:524    .text.HAL_UART_DMAResume:0000000000000000 HAL_UART_DMAResume
     /tmp/ccAEwYvH.s:617    .text.HAL_UART_DMAStop:0000000000000000 $t
     /tmp/ccAEwYvH.s:624    .text.HAL_UART_DMAStop:0000000000000000 HAL_UART_DMAStop
     /tmp/ccAEwYvH.s:729    .text.HAL_UART_Abort:0000000000000000 $t
     /tmp/ccAEwYvH.s:736    .text.HAL_UART_Abort:0000000000000000 HAL_UART_Abort
     /tmp/ccAEwYvH.s:883    .text.HAL_UART_AbortTransmit:0000000000000000 $t
     /tmp/ccAEwYvH.s:890    .text.HAL_UART_AbortTransmit:0000000000000000 HAL_UART_AbortTransmit
     /tmp/ccAEwYvH.s:956    .text.HAL_UART_AbortReceive:0000000000000000 $t
     /tmp/ccAEwYvH.s:963    .text.HAL_UART_AbortReceive:0000000000000000 HAL_UART_AbortReceive
     /tmp/ccAEwYvH.s:1074   .text.HAL_UART_TxCpltCallback:0000000000000000 $t
     /tmp/ccAEwYvH.s:1081   .text.HAL_UART_TxCpltCallback:0000000000000000 HAL_UART_TxCpltCallback
     /tmp/ccAEwYvH.s:1088   .text.UART_DMATransmitCplt:0000000000000000 $t
     /tmp/ccAEwYvH.s:1148   .text.HAL_UART_TxHalfCpltCallback:0000000000000000 $t
     /tmp/ccAEwYvH.s:1155   .text.HAL_UART_TxHalfCpltCallback:0000000000000000 HAL_UART_TxHalfCpltCallback
     /tmp/ccAEwYvH.s:1162   .text.UART_DMATxHalfCplt:0000000000000000 $t
     /tmp/ccAEwYvH.s:1177   .text.HAL_UART_RxCpltCallback:0000000000000000 $t
     /tmp/ccAEwYvH.s:1184   .text.HAL_UART_RxCpltCallback:0000000000000000 HAL_UART_RxCpltCallback
     /tmp/ccAEwYvH.s:1191   .text.HAL_UART_RxHalfCpltCallback:0000000000000000 $t
     /tmp/ccAEwYvH.s:1198   .text.HAL_UART_RxHalfCpltCallback:0000000000000000 HAL_UART_RxHalfCpltCallback
     /tmp/ccAEwYvH.s:1205   .text.HAL_UART_ErrorCallback:0000000000000000 $t
     /tmp/ccAEwYvH.s:1212   .text.HAL_UART_ErrorCallback:0000000000000000 HAL_UART_ErrorCallback
     /tmp/ccAEwYvH.s:1219   .text.UART_DMAError:0000000000000000 $t
     /tmp/ccAEwYvH.s:1275   .text.UART_DMAAbortOnError:0000000000000000 $t
     /tmp/ccAEwYvH.s:1281   .text.UART_DMAAbortOnError:0000000000000000 UART_DMAAbortOnError
     /tmp/ccAEwYvH.s:1293   .text.HAL_UART_AbortCpltCallback:0000000000000000 $t
     /tmp/ccAEwYvH.s:1300   .text.HAL_UART_AbortCpltCallback:0000000000000000 HAL_UART_AbortCpltCallback
     /tmp/ccAEwYvH.s:1307   .text.HAL_UART_Abort_IT:0000000000000000 $t
     /tmp/ccAEwYvH.s:1314   .text.HAL_UART_Abort_IT:0000000000000000 HAL_UART_Abort_IT
ARM GAS  /tmp/ccAEwYvH.s 			page 76


     /tmp/ccAEwYvH.s:1485   .text.HAL_UART_Abort_IT:000000000000010c $d
     /tmp/ccAEwYvH.s:1495   .text.UART_DMARxAbortCallback:0000000000000000 UART_DMARxAbortCallback
     /tmp/ccAEwYvH.s:1532   .text.UART_DMATxAbortCallback:0000000000000000 UART_DMATxAbortCallback
     /tmp/ccAEwYvH.s:1489   .text.UART_DMARxAbortCallback:0000000000000000 $t
     /tmp/ccAEwYvH.s:1526   .text.UART_DMATxAbortCallback:0000000000000000 $t
     /tmp/ccAEwYvH.s:1560   .text.HAL_UART_AbortTransmitCpltCallback:0000000000000000 $t
     /tmp/ccAEwYvH.s:1567   .text.HAL_UART_AbortTransmitCpltCallback:0000000000000000 HAL_UART_AbortTransmitCpltCallback
     /tmp/ccAEwYvH.s:1574   .text.HAL_UART_AbortTransmit_IT:0000000000000000 $t
     /tmp/ccAEwYvH.s:1581   .text.HAL_UART_AbortTransmit_IT:0000000000000000 HAL_UART_AbortTransmit_IT
     /tmp/ccAEwYvH.s:1653   .text.HAL_UART_AbortTransmit_IT:000000000000006c $d
     /tmp/ccAEwYvH.s:1662   .text.UART_DMATxOnlyAbortCallback:0000000000000000 UART_DMATxOnlyAbortCallback
     /tmp/ccAEwYvH.s:1656   .text.UART_DMATxOnlyAbortCallback:0000000000000000 $t
     /tmp/ccAEwYvH.s:1675   .text.HAL_UART_AbortReceiveCpltCallback:0000000000000000 $t
     /tmp/ccAEwYvH.s:1682   .text.HAL_UART_AbortReceiveCpltCallback:0000000000000000 HAL_UART_AbortReceiveCpltCallback
     /tmp/ccAEwYvH.s:1689   .text.HAL_UART_AbortReceive_IT:0000000000000000 $t
     /tmp/ccAEwYvH.s:1696   .text.HAL_UART_AbortReceive_IT:0000000000000000 HAL_UART_AbortReceive_IT
     /tmp/ccAEwYvH.s:1817   .text.HAL_UART_AbortReceive_IT:00000000000000b4 $d
     /tmp/ccAEwYvH.s:1826   .text.UART_DMARxOnlyAbortCallback:0000000000000000 UART_DMARxOnlyAbortCallback
     /tmp/ccAEwYvH.s:1820   .text.UART_DMARxOnlyAbortCallback:0000000000000000 $t
     /tmp/ccAEwYvH.s:1846   .text.HAL_UARTEx_RxEventCallback:0000000000000000 $t
     /tmp/ccAEwYvH.s:1853   .text.HAL_UARTEx_RxEventCallback:0000000000000000 HAL_UARTEx_RxEventCallback
     /tmp/ccAEwYvH.s:1860   .text.HAL_UART_IRQHandler:0000000000000000 $t
     /tmp/ccAEwYvH.s:1867   .text.HAL_UART_IRQHandler:0000000000000000 HAL_UART_IRQHandler
     /tmp/ccAEwYvH.s:2224   .text.HAL_UART_IRQHandler:0000000000000280 $d
     /tmp/ccAEwYvH.s:2228   .text.UART_RxISR_8BIT:0000000000000000 $t
     /tmp/ccAEwYvH.s:2234   .text.UART_RxISR_8BIT:0000000000000000 UART_RxISR_8BIT
     /tmp/ccAEwYvH.s:2337   .text.UART_RxISR_16BIT:0000000000000000 $t
     /tmp/ccAEwYvH.s:2343   .text.UART_RxISR_16BIT:0000000000000000 UART_RxISR_16BIT
     /tmp/ccAEwYvH.s:2442   .text.UART_DMARxHalfCplt:0000000000000000 $t
     /tmp/ccAEwYvH.s:2448   .text.UART_DMARxHalfCplt:0000000000000000 UART_DMARxHalfCplt
     /tmp/ccAEwYvH.s:2468   .text.UART_DMAReceiveCplt:0000000000000000 $t
     /tmp/ccAEwYvH.s:2474   .text.UART_DMAReceiveCplt:0000000000000000 UART_DMAReceiveCplt
     /tmp/ccAEwYvH.s:2575   .text.HAL_UART_ReceiverTimeout_Config:0000000000000000 $t
     /tmp/ccAEwYvH.s:2582   .text.HAL_UART_ReceiverTimeout_Config:0000000000000000 HAL_UART_ReceiverTimeout_Config
     /tmp/ccAEwYvH.s:2594   .text.HAL_UART_EnableReceiverTimeout:0000000000000000 $t
     /tmp/ccAEwYvH.s:2601   .text.HAL_UART_EnableReceiverTimeout:0000000000000000 HAL_UART_EnableReceiverTimeout
     /tmp/ccAEwYvH.s:2627   .text.HAL_UART_DisableReceiverTimeout:0000000000000000 $t
     /tmp/ccAEwYvH.s:2634   .text.HAL_UART_DisableReceiverTimeout:0000000000000000 HAL_UART_DisableReceiverTimeout
     /tmp/ccAEwYvH.s:2660   .text.HAL_MultiProcessor_EnterMuteMode:0000000000000000 $t
     /tmp/ccAEwYvH.s:2667   .text.HAL_MultiProcessor_EnterMuteMode:0000000000000000 HAL_MultiProcessor_EnterMuteMode
     /tmp/ccAEwYvH.s:2678   .text.HAL_HalfDuplex_EnableTransmitter:0000000000000000 $t
     /tmp/ccAEwYvH.s:2685   .text.HAL_HalfDuplex_EnableTransmitter:0000000000000000 HAL_HalfDuplex_EnableTransmitter
     /tmp/ccAEwYvH.s:2741   .text.HAL_HalfDuplex_EnableReceiver:0000000000000000 $t
     /tmp/ccAEwYvH.s:2748   .text.HAL_HalfDuplex_EnableReceiver:0000000000000000 HAL_HalfDuplex_EnableReceiver
     /tmp/ccAEwYvH.s:2804   .text.HAL_LIN_SendBreak:0000000000000000 $t
     /tmp/ccAEwYvH.s:2811   .text.HAL_LIN_SendBreak:0000000000000000 HAL_LIN_SendBreak
     /tmp/ccAEwYvH.s:2835   .text.HAL_UART_GetState:0000000000000000 $t
     /tmp/ccAEwYvH.s:2842   .text.HAL_UART_GetState:0000000000000000 HAL_UART_GetState
     /tmp/ccAEwYvH.s:2852   .text.HAL_UART_GetError:0000000000000000 $t
     /tmp/ccAEwYvH.s:2859   .text.HAL_UART_GetError:0000000000000000 HAL_UART_GetError
     /tmp/ccAEwYvH.s:2867   .text.UART_SetConfig:0000000000000000 $t
     /tmp/ccAEwYvH.s:2874   .text.UART_SetConfig:0000000000000000 UART_SetConfig
     /tmp/ccAEwYvH.s:2922   .text.UART_SetConfig:0000000000000066 $d
     /tmp/ccAEwYvH.s:3088   .text.UART_SetConfig:00000000000001d0 $d
     /tmp/ccAEwYvH.s:3097   .text.UART_SetConfig:00000000000001f4 $t
     /tmp/ccAEwYvH.s:3144   .text.UART_SetConfig:0000000000000250 $d
     /tmp/ccAEwYvH.s:3159   .text.UART_AdvFeatureConfig:0000000000000000 $t
ARM GAS  /tmp/ccAEwYvH.s 			page 77


     /tmp/ccAEwYvH.s:3166   .text.UART_AdvFeatureConfig:0000000000000000 UART_AdvFeatureConfig
     /tmp/ccAEwYvH.s:3253   .text.UART_WaitOnFlagUntilTimeout:0000000000000000 $t
     /tmp/ccAEwYvH.s:3260   .text.UART_WaitOnFlagUntilTimeout:0000000000000000 UART_WaitOnFlagUntilTimeout
     /tmp/ccAEwYvH.s:3383   .text.HAL_UART_Transmit:0000000000000000 $t
     /tmp/ccAEwYvH.s:3390   .text.HAL_UART_Transmit:0000000000000000 HAL_UART_Transmit
     /tmp/ccAEwYvH.s:3469   .text.HAL_UART_Receive:0000000000000000 $t
     /tmp/ccAEwYvH.s:3476   .text.HAL_UART_Receive:0000000000000000 HAL_UART_Receive
     /tmp/ccAEwYvH.s:3584   .text.UART_CheckIdleState:0000000000000000 $t
     /tmp/ccAEwYvH.s:3591   .text.UART_CheckIdleState:0000000000000000 UART_CheckIdleState
     /tmp/ccAEwYvH.s:3629   .text.HAL_UART_Init:0000000000000000 $t
     /tmp/ccAEwYvH.s:3636   .text.HAL_UART_Init:0000000000000000 HAL_UART_Init
     /tmp/ccAEwYvH.s:3680   .text.HAL_HalfDuplex_Init:0000000000000000 $t
     /tmp/ccAEwYvH.s:3687   .text.HAL_HalfDuplex_Init:0000000000000000 HAL_HalfDuplex_Init
     /tmp/ccAEwYvH.s:3734   .text.HAL_LIN_Init:0000000000000000 $t
     /tmp/ccAEwYvH.s:3741   .text.HAL_LIN_Init:0000000000000000 HAL_LIN_Init
     /tmp/ccAEwYvH.s:3800   .text.HAL_MultiProcessor_Init:0000000000000000 $t
     /tmp/ccAEwYvH.s:3807   .text.HAL_MultiProcessor_Init:0000000000000000 HAL_MultiProcessor_Init
     /tmp/ccAEwYvH.s:3865   .text.HAL_MultiProcessor_EnableMuteMode:0000000000000000 $t
     /tmp/ccAEwYvH.s:3872   .text.HAL_MultiProcessor_EnableMuteMode:0000000000000000 HAL_MultiProcessor_EnableMuteMode
     /tmp/ccAEwYvH.s:3908   .text.HAL_MultiProcessor_DisableMuteMode:0000000000000000 $t
     /tmp/ccAEwYvH.s:3915   .text.HAL_MultiProcessor_DisableMuteMode:0000000000000000 HAL_MultiProcessor_DisableMuteMode
     /tmp/ccAEwYvH.s:3951   .text.UART_Start_Receive_IT:0000000000000000 $t
     /tmp/ccAEwYvH.s:3958   .text.UART_Start_Receive_IT:0000000000000000 UART_Start_Receive_IT
     /tmp/ccAEwYvH.s:4076   .text.UART_Start_Receive_IT:00000000000000b4 $d
     /tmp/ccAEwYvH.s:4080   .text.HAL_UART_Receive_IT:0000000000000000 $t
     /tmp/ccAEwYvH.s:4087   .text.HAL_UART_Receive_IT:0000000000000000 HAL_UART_Receive_IT
     /tmp/ccAEwYvH.s:4132   .text.UART_Start_Receive_DMA:0000000000000000 $t
     /tmp/ccAEwYvH.s:4139   .text.UART_Start_Receive_DMA:0000000000000000 UART_Start_Receive_DMA
     /tmp/ccAEwYvH.s:4231   .text.UART_Start_Receive_DMA:0000000000000090 $d
     /tmp/ccAEwYvH.s:4236   .text.HAL_UART_Receive_DMA:0000000000000000 $t
     /tmp/ccAEwYvH.s:4243   .text.HAL_UART_Receive_DMA:0000000000000000 HAL_UART_Receive_DMA
     /tmp/ccAEwYvH.s:4291   .rodata.CSWTCH.53:0000000000000000 CSWTCH.53
     /tmp/ccAEwYvH.s:4299   .rodata.CSWTCH.54:0000000000000000 CSWTCH.54
     /tmp/ccAEwYvH.s:2931   .text.UART_SetConfig:000000000000006f $d
     /tmp/ccAEwYvH.s:2931   .text.UART_SetConfig:0000000000000070 $t

UNDEFINED SYMBOLS
HAL_DMA_Start_IT
HAL_DMA_Abort
HAL_DMA_GetError
HAL_DMA_Abort_IT
HAL_RCC_GetPCLK1Freq
HAL_RCC_GetPCLK2Freq
HAL_RCC_GetSysClockFreq
HAL_GetTick
