ARM GAS  /tmp/ccLu5zuK.s 			page 1


   1              		.cpu cortex-m7
   2              		.eabi_attribute 27, 1
   3              		.eabi_attribute 20, 1
   4              		.eabi_attribute 21, 1
   5              		.eabi_attribute 23, 3
   6              		.eabi_attribute 24, 1
   7              		.eabi_attribute 25, 1
   8              		.eabi_attribute 26, 1
   9              		.eabi_attribute 30, 4
  10              		.eabi_attribute 34, 1
  11              		.eabi_attribute 18, 4
  12              		.file	"stm32f7xx_hal_crc_ex.c"
  13              		.text
  14              		.section	.text.HAL_CRCEx_Polynomial_Set,"ax",%progbits
  15              		.align	1
  16              		.global	HAL_CRCEx_Polynomial_Set
  17              		.arch armv7e-m
  18              		.syntax unified
  19              		.thumb
  20              		.thumb_func
  21              		.fpu fpv5-sp-d16
  23              	HAL_CRCEx_Polynomial_Set:
  24              		@ args = 0, pretend = 0, frame = 0
  25              		@ frame_needed = 0, uses_anonymous_args = 0
  26 0000 1F23     		movs	r3, #31
  27 0002 10B5     		push	{r4, lr}
  28              	.L3:
  29 0004 013B     		subs	r3, r3, #1
  30 0006 1CD3     		bcc	.L2
  31 0008 21FA03F4 		lsr	r4, r1, r3
  32 000c E407     		lsls	r4, r4, #31
  33 000e F9D5     		bpl	.L3
  34 0010 102A     		cmp	r2, #16
  35 0012 12D0     		beq	.L4
  36 0014 04D8     		bhi	.L5
  37 0016 3AB1     		cbz	r2, .L6
  38 0018 082A     		cmp	r2, #8
  39 001a 10D0     		beq	.L7
  40              	.L23:
  41 001c 0120     		movs	r0, #1
  42 001e 0BE0     		b	.L22
  43              	.L5:
  44 0020 182A     		cmp	r2, #24
  45 0022 FBD1     		bne	.L23
  46 0024 062B     		cmp	r3, #6
  47              	.L24:
  48 0026 F9D8     		bhi	.L23
  49              	.L6:
  50 0028 0068     		ldr	r0, [r0]
  51 002a 4161     		str	r1, [r0, #20]
  52 002c 8368     		ldr	r3, [r0, #8]
  53 002e 23F01803 		bic	r3, r3, #24
  54 0032 1A43     		orrs	r2, r2, r3
  55 0034 8260     		str	r2, [r0, #8]
  56 0036 0020     		movs	r0, #0
  57              	.L22:
  58 0038 10BD     		pop	{r4, pc}
ARM GAS  /tmp/ccLu5zuK.s 			page 2


  59              	.L4:
  60 003a 072B     		cmp	r3, #7
  61 003c F3E7     		b	.L24
  62              	.L7:
  63 003e 0F2B     		cmp	r3, #15
  64 0040 F1E7     		b	.L24
  65              	.L2:
  66 0042 002A     		cmp	r2, #0
  67 0044 EAD1     		bne	.L23
  68 0046 EFE7     		b	.L6
  70              		.section	.text.HAL_CRCEx_Input_Data_Reverse,"ax",%progbits
  71              		.align	1
  72              		.global	HAL_CRCEx_Input_Data_Reverse
  73              		.syntax unified
  74              		.thumb
  75              		.thumb_func
  76              		.fpu fpv5-sp-d16
  78              	HAL_CRCEx_Input_Data_Reverse:
  79              		@ args = 0, pretend = 0, frame = 0
  80              		@ frame_needed = 0, uses_anonymous_args = 0
  81              		@ link register save eliminated.
  82 0000 0268     		ldr	r2, [r0]
  83 0002 0223     		movs	r3, #2
  84 0004 4377     		strb	r3, [r0, #29]
  85 0006 9368     		ldr	r3, [r2, #8]
  86 0008 23F06003 		bic	r3, r3, #96
  87 000c 1943     		orrs	r1, r1, r3
  88 000e 0123     		movs	r3, #1
  89 0010 9160     		str	r1, [r2, #8]
  90 0012 4377     		strb	r3, [r0, #29]
  91 0014 0020     		movs	r0, #0
  92 0016 7047     		bx	lr
  94              		.section	.text.HAL_CRCEx_Output_Data_Reverse,"ax",%progbits
  95              		.align	1
  96              		.global	HAL_CRCEx_Output_Data_Reverse
  97              		.syntax unified
  98              		.thumb
  99              		.thumb_func
 100              		.fpu fpv5-sp-d16
 102              	HAL_CRCEx_Output_Data_Reverse:
 103              		@ args = 0, pretend = 0, frame = 0
 104              		@ frame_needed = 0, uses_anonymous_args = 0
 105              		@ link register save eliminated.
 106 0000 0268     		ldr	r2, [r0]
 107 0002 0223     		movs	r3, #2
 108 0004 4377     		strb	r3, [r0, #29]
 109 0006 9368     		ldr	r3, [r2, #8]
 110 0008 23F08003 		bic	r3, r3, #128
 111 000c 1943     		orrs	r1, r1, r3
 112 000e 0123     		movs	r3, #1
 113 0010 9160     		str	r1, [r2, #8]
 114 0012 4377     		strb	r3, [r0, #29]
 115 0014 0020     		movs	r0, #0
 116 0016 7047     		bx	lr
 118              		.ident	"GCC: (15:10.3-2021.07-4) 10.3.1 20210621 (release)"
ARM GAS  /tmp/ccLu5zuK.s 			page 3

