ARM GAS  /tmp/ccsMVcda.s 			page 1


   1              		.cpu cortex-m7
   2              		.eabi_attribute 27, 1
   3              		.eabi_attribute 20, 1
   4              		.eabi_attribute 21, 1
   5              		.eabi_attribute 23, 3
   6              		.eabi_attribute 24, 1
   7              		.eabi_attribute 25, 1
   8              		.eabi_attribute 26, 1
   9              		.eabi_attribute 30, 4
  10              		.eabi_attribute 34, 1
  11              		.eabi_attribute 18, 4
  12              		.file	"stm32f7xx_hal_gpio.c"
  13              		.text
  14              		.section	.text.HAL_GPIO_Init,"ax",%progbits
  15              		.align	1
  16              		.global	HAL_GPIO_Init
  17              		.arch armv7e-m
  18              		.syntax unified
  19              		.thumb
  20              		.thumb_func
  21              		.fpu fpv5-sp-d16
  23              	HAL_GPIO_Init:
  24              		@ args = 0, pretend = 0, frame = 8
  25              		@ frame_needed = 0, uses_anonymous_args = 0
  26 0000 2DE9F74F 		push	{r0, r1, r2, r4, r5, r6, r7, r8, r9, r10, fp, lr}
  27 0004 0023     		movs	r3, #0
  28 0006 DFF8A491 		ldr	r9, .L31+8
  29 000a 664A     		ldr	r2, .L31
  30              	.L18:
  31 000c 0124     		movs	r4, #1
  32 000e 0D68     		ldr	r5, [r1]
  33 0010 9C40     		lsls	r4, r4, r3
  34 0012 04EA050C 		and	ip, r4, r5
  35 0016 AC43     		bics	r4, r4, r5
  36 0018 40F0AE80 		bne	.L3
  37 001c 4D68     		ldr	r5, [r1, #4]
  38 001e 4FEA4308 		lsl	r8, r3, #1
  39 0022 0326     		movs	r6, #3
  40 0024 05F00304 		and	r4, r5, #3
  41 0028 06FA08F6 		lsl	r6, r6, r8
  42 002c 671E     		subs	r7, r4, #1
  43 002e F643     		mvns	r6, r6
  44 0030 012F     		cmp	r7, #1
  45 0032 34D8     		bhi	.L4
  46 0034 8768     		ldr	r7, [r0, #8]
  47 0036 07EA060E 		and	lr, r7, r6
  48 003a CF68     		ldr	r7, [r1, #12]
  49 003c 07FA08F7 		lsl	r7, r7, r8
  50 0040 47EA0E07 		orr	r7, r7, lr
  51 0044 8760     		str	r7, [r0, #8]
  52 0046 4768     		ldr	r7, [r0, #4]
  53 0048 27EA0C0E 		bic	lr, r7, ip
  54 004c C5F30017 		ubfx	r7, r5, #4, #1
  55 0050 9F40     		lsls	r7, r7, r3
  56 0052 47EA0E07 		orr	r7, r7, lr
  57 0056 4760     		str	r7, [r0, #4]
  58              	.L5:
ARM GAS  /tmp/ccsMVcda.s 			page 2


  59 0058 C768     		ldr	r7, [r0, #12]
  60 005a 022C     		cmp	r4, #2
  61 005c 07EA060E 		and	lr, r7, r6
  62 0060 8F68     		ldr	r7, [r1, #8]
  63 0062 07FA08F7 		lsl	r7, r7, r8
  64 0066 47EA0E07 		orr	r7, r7, lr
  65 006a C760     		str	r7, [r0, #12]
  66 006c 19D1     		bne	.L6
  67 006e 4FEAD30A 		lsr	r10, r3, #3
  68 0072 03F0070B 		and	fp, r3, #7
  69 0076 4FF00F0E 		mov	lr, #15
  70 007a 00EB8A0A 		add	r10, r0, r10, lsl #2
  71 007e 4FEA8B0B 		lsl	fp, fp, #2
  72 0082 DAF82070 		ldr	r7, [r10, #32]
  73 0086 0EFA0BFE 		lsl	lr, lr, fp
  74 008a 27EA0E0E 		bic	lr, r7, lr
  75 008e 0F69     		ldr	r7, [r1, #16]
  76 0090 07FA0BF7 		lsl	r7, r7, fp
  77 0094 47EA0E07 		orr	r7, r7, lr
  78 0098 CAF82070 		str	r7, [r10, #32]
  79 009c 01E0     		b	.L6
  80              	.L4:
  81 009e 032C     		cmp	r4, #3
  82 00a0 DAD1     		bne	.L5
  83              	.L6:
  84 00a2 0768     		ldr	r7, [r0]
  85 00a4 04FA08F4 		lsl	r4, r4, r8
  86 00a8 15F4403F 		tst	r5, #196608
  87 00ac 06EA0706 		and	r6, r6, r7
  88 00b0 46EA0406 		orr	r6, r6, r4
  89 00b4 0660     		str	r6, [r0]
  90 00b6 5FD0     		beq	.L3
  91 00b8 D9F84440 		ldr	r4, [r9, #68]
  92 00bc 23F00306 		bic	r6, r3, #3
  93 00c0 03F00307 		and	r7, r3, #3
  94 00c4 4FF00F0E 		mov	lr, #15
  95 00c8 44F48044 		orr	r4, r4, #16384
  96 00cc 06F18046 		add	r6, r6, #1073741824
  97 00d0 BF00     		lsls	r7, r7, #2
  98 00d2 C9F84440 		str	r4, [r9, #68]
  99 00d6 06F59C36 		add	r6, r6, #79872
 100 00da D9F84440 		ldr	r4, [r9, #68]
 101 00de 04F48044 		and	r4, r4, #16384
 102 00e2 0194     		str	r4, [sp, #4]
 103 00e4 019C     		ldr	r4, [sp, #4]
 104 00e6 0EFA07F4 		lsl	r4, lr, r7
 105 00ea D6F80880 		ldr	r8, [r6, #8]
 106 00ee 28EA040E 		bic	lr, r8, r4
 107 00f2 2D4C     		ldr	r4, .L31+4
 108 00f4 A042     		cmp	r0, r4
 109 00f6 46D0     		beq	.L19
 110 00f8 04F58064 		add	r4, r4, #1024
 111 00fc A042     		cmp	r0, r4
 112 00fe 44D0     		beq	.L20
 113 0100 04F58064 		add	r4, r4, #1024
 114 0104 A042     		cmp	r0, r4
 115 0106 42D0     		beq	.L21
ARM GAS  /tmp/ccsMVcda.s 			page 3


 116 0108 04F58064 		add	r4, r4, #1024
 117 010c A042     		cmp	r0, r4
 118 010e 40D0     		beq	.L22
 119 0110 04F58064 		add	r4, r4, #1024
 120 0114 A042     		cmp	r0, r4
 121 0116 3ED0     		beq	.L23
 122 0118 04F58064 		add	r4, r4, #1024
 123 011c A042     		cmp	r0, r4
 124 011e 3CD0     		beq	.L24
 125 0120 04F58064 		add	r4, r4, #1024
 126 0124 A042     		cmp	r0, r4
 127 0126 3AD0     		beq	.L25
 128 0128 04F58064 		add	r4, r4, #1024
 129 012c A042     		cmp	r0, r4
 130 012e 0CBF     		ite	eq
 131 0130 0724     		moveq	r4, #7
 132 0132 0824     		movne	r4, #8
 133              	.L9:
 134 0134 BC40     		lsls	r4, r4, r7
 135 0136 EF02     		lsls	r7, r5, #11
 136 0138 44EA0E04 		orr	r4, r4, lr
 137 013c B460     		str	r4, [r6, #8]
 138 013e 6FEA0C06 		mvn	r6, ip
 139 0142 9468     		ldr	r4, [r2, #8]
 140 0144 54BF     		ite	pl
 141 0146 3440     		andpl	r4, r4, r6
 142 0148 4CEA0404 		orrmi	r4, ip, r4
 143 014c AF02     		lsls	r7, r5, #10
 144 014e 9460     		str	r4, [r2, #8]
 145 0150 D468     		ldr	r4, [r2, #12]
 146 0152 54BF     		ite	pl
 147 0154 3440     		andpl	r4, r4, r6
 148 0156 4CEA0404 		orrmi	r4, ip, r4
 149 015a AF03     		lsls	r7, r5, #14
 150 015c D460     		str	r4, [r2, #12]
 151 015e 5468     		ldr	r4, [r2, #4]
 152 0160 54BF     		ite	pl
 153 0162 3440     		andpl	r4, r4, r6
 154 0164 4CEA0404 		orrmi	r4, ip, r4
 155 0168 ED03     		lsls	r5, r5, #15
 156 016a 5460     		str	r4, [r2, #4]
 157 016c 1468     		ldr	r4, [r2]
 158 016e 54BF     		ite	pl
 159 0170 3440     		andpl	r4, r4, r6
 160 0172 4CEA0404 		orrmi	r4, ip, r4
 161 0176 1460     		str	r4, [r2]
 162              	.L3:
 163 0178 0133     		adds	r3, r3, #1
 164 017a 102B     		cmp	r3, #16
 165 017c 7FF446AF 		bne	.L18
 166 0180 03B0     		add	sp, sp, #12
 167              		@ sp needed
 168 0182 BDE8F08F 		pop	{r4, r5, r6, r7, r8, r9, r10, fp, pc}
 169              	.L19:
 170 0186 0024     		movs	r4, #0
 171 0188 D4E7     		b	.L9
 172              	.L20:
ARM GAS  /tmp/ccsMVcda.s 			page 4


 173 018a 0124     		movs	r4, #1
 174 018c D2E7     		b	.L9
 175              	.L21:
 176 018e 0224     		movs	r4, #2
 177 0190 D0E7     		b	.L9
 178              	.L22:
 179 0192 0324     		movs	r4, #3
 180 0194 CEE7     		b	.L9
 181              	.L23:
 182 0196 0424     		movs	r4, #4
 183 0198 CCE7     		b	.L9
 184              	.L24:
 185 019a 0524     		movs	r4, #5
 186 019c CAE7     		b	.L9
 187              	.L25:
 188 019e 0624     		movs	r4, #6
 189 01a0 C8E7     		b	.L9
 190              	.L32:
 191 01a2 00BF     		.align	2
 192              	.L31:
 193 01a4 003C0140 		.word	1073822720
 194 01a8 00000240 		.word	1073872896
 195 01ac 00380240 		.word	1073887232
 197              		.section	.text.HAL_GPIO_DeInit,"ax",%progbits
 198              		.align	1
 199              		.global	HAL_GPIO_DeInit
 200              		.syntax unified
 201              		.thumb
 202              		.thumb_func
 203              		.fpu fpv5-sp-d16
 205              	HAL_GPIO_DeInit:
 206              		@ args = 0, pretend = 0, frame = 0
 207              		@ frame_needed = 0, uses_anonymous_args = 0
 208 0000 2DE9F04F 		push	{r4, r5, r6, r7, r8, r9, r10, fp, lr}
 209 0004 0022     		movs	r2, #0
 210 0006 444C     		ldr	r4, .L47
 211 0008 DFF81491 		ldr	r9, .L47+8
 212 000c DFF814A1 		ldr	r10, .L47+12
 213 0010 DFF814B1 		ldr	fp, .L47+16
 214              	.L37:
 215 0014 0123     		movs	r3, #1
 216 0016 03FA02FE 		lsl	lr, r3, r2
 217 001a 3EEA0103 		bics	r3, lr, r1
 218 001e 0EEA0107 		and	r7, lr, r1
 219 0022 66D1     		bne	.L34
 220 0024 22F00305 		bic	r5, r2, #3
 221 0028 02F0030C 		and	ip, r2, #3
 222 002c 0F26     		movs	r6, #15
 223 002e 3B4B     		ldr	r3, .L47+4
 224 0030 05F18045 		add	r5, r5, #1073741824
 225 0034 4FEA8C0C 		lsl	ip, ip, #2
 226 0038 9842     		cmp	r0, r3
 227 003a 05F59C35 		add	r5, r5, #79872
 228 003e 06FA0CF6 		lsl	r6, r6, ip
 229 0042 D5F80880 		ldr	r8, [r5, #8]
 230 0046 06EA0808 		and	r8, r6, r8
 231 004a 57D0     		beq	.L38
ARM GAS  /tmp/ccsMVcda.s 			page 5


 232 004c 03F58063 		add	r3, r3, #1024
 233 0050 9842     		cmp	r0, r3
 234 0052 55D0     		beq	.L39
 235 0054 03F58063 		add	r3, r3, #1024
 236 0058 9842     		cmp	r0, r3
 237 005a 53D0     		beq	.L40
 238 005c 03F58063 		add	r3, r3, #1024
 239 0060 9842     		cmp	r0, r3
 240 0062 51D0     		beq	.L41
 241 0064 03F58063 		add	r3, r3, #1024
 242 0068 9842     		cmp	r0, r3
 243 006a 4FD0     		beq	.L42
 244 006c 4845     		cmp	r0, r9
 245 006e 4FD0     		beq	.L43
 246 0070 5045     		cmp	r0, r10
 247 0072 4FD0     		beq	.L44
 248 0074 5845     		cmp	r0, fp
 249 0076 0CBF     		ite	eq
 250 0078 0723     		moveq	r3, #7
 251 007a 0823     		movne	r3, #8
 252              	.L35:
 253 007c 03FA0CF3 		lsl	r3, r3, ip
 254 0080 4345     		cmp	r3, r8
 255 0082 13D1     		bne	.L36
 256 0084 2368     		ldr	r3, [r4]
 257 0086 23EA0703 		bic	r3, r3, r7
 258 008a 2360     		str	r3, [r4]
 259 008c 6368     		ldr	r3, [r4, #4]
 260 008e 23EA0703 		bic	r3, r3, r7
 261 0092 6360     		str	r3, [r4, #4]
 262 0094 E368     		ldr	r3, [r4, #12]
 263 0096 23EA0703 		bic	r3, r3, r7
 264 009a E360     		str	r3, [r4, #12]
 265 009c A368     		ldr	r3, [r4, #8]
 266 009e 23EA0703 		bic	r3, r3, r7
 267 00a2 A360     		str	r3, [r4, #8]
 268 00a4 AB68     		ldr	r3, [r5, #8]
 269 00a6 23EA0603 		bic	r3, r3, r6
 270 00aa AB60     		str	r3, [r5, #8]
 271              	.L36:
 272 00ac 0326     		movs	r6, #3
 273 00ae 5300     		lsls	r3, r2, #1
 274 00b0 0568     		ldr	r5, [r0]
 275 00b2 02F0070C 		and	ip, r2, #7
 276 00b6 06FA03F3 		lsl	r3, r6, r3
 277 00ba 0F27     		movs	r7, #15
 278 00bc 4FEA8C0C 		lsl	ip, ip, #2
 279 00c0 25EA0305 		bic	r5, r5, r3
 280 00c4 07FA0CF7 		lsl	r7, r7, ip
 281 00c8 0560     		str	r5, [r0]
 282 00ca 22FA06F5 		lsr	r5, r2, r6
 283 00ce 00EB8505 		add	r5, r0, r5, lsl #2
 284 00d2 2E6A     		ldr	r6, [r5, #32]
 285 00d4 26EA0707 		bic	r7, r6, r7
 286 00d8 2F62     		str	r7, [r5, #32]
 287 00da C568     		ldr	r5, [r0, #12]
 288 00dc 25EA0305 		bic	r5, r5, r3
ARM GAS  /tmp/ccsMVcda.s 			page 6


 289 00e0 C560     		str	r5, [r0, #12]
 290 00e2 4568     		ldr	r5, [r0, #4]
 291 00e4 25EA0E05 		bic	r5, r5, lr
 292 00e8 4560     		str	r5, [r0, #4]
 293 00ea 8568     		ldr	r5, [r0, #8]
 294 00ec 25EA0303 		bic	r3, r5, r3
 295 00f0 8360     		str	r3, [r0, #8]
 296              	.L34:
 297 00f2 0132     		adds	r2, r2, #1
 298 00f4 102A     		cmp	r2, #16
 299 00f6 8DD1     		bne	.L37
 300 00f8 BDE8F08F 		pop	{r4, r5, r6, r7, r8, r9, r10, fp, pc}
 301              	.L38:
 302 00fc 0023     		movs	r3, #0
 303 00fe BDE7     		b	.L35
 304              	.L39:
 305 0100 0123     		movs	r3, #1
 306 0102 BBE7     		b	.L35
 307              	.L40:
 308 0104 0223     		movs	r3, #2
 309 0106 B9E7     		b	.L35
 310              	.L41:
 311 0108 0323     		movs	r3, #3
 312 010a B7E7     		b	.L35
 313              	.L42:
 314 010c 0423     		movs	r3, #4
 315 010e B5E7     		b	.L35
 316              	.L43:
 317 0110 0523     		movs	r3, #5
 318 0112 B3E7     		b	.L35
 319              	.L44:
 320 0114 0623     		movs	r3, #6
 321 0116 B1E7     		b	.L35
 322              	.L48:
 323              		.align	2
 324              	.L47:
 325 0118 003C0140 		.word	1073822720
 326 011c 00000240 		.word	1073872896
 327 0120 00140240 		.word	1073878016
 328 0124 00180240 		.word	1073879040
 329 0128 001C0240 		.word	1073880064
 331              		.section	.text.HAL_GPIO_ReadPin,"ax",%progbits
 332              		.align	1
 333              		.global	HAL_GPIO_ReadPin
 334              		.syntax unified
 335              		.thumb
 336              		.thumb_func
 337              		.fpu fpv5-sp-d16
 339              	HAL_GPIO_ReadPin:
 340              		@ args = 0, pretend = 0, frame = 0
 341              		@ frame_needed = 0, uses_anonymous_args = 0
 342              		@ link register save eliminated.
 343 0000 0369     		ldr	r3, [r0, #16]
 344 0002 1942     		tst	r1, r3
 345 0004 14BF     		ite	ne
 346 0006 0120     		movne	r0, #1
 347 0008 0020     		moveq	r0, #0
ARM GAS  /tmp/ccsMVcda.s 			page 7


 348 000a 7047     		bx	lr
 350              		.section	.text.HAL_GPIO_WritePin,"ax",%progbits
 351              		.align	1
 352              		.global	HAL_GPIO_WritePin
 353              		.syntax unified
 354              		.thumb
 355              		.thumb_func
 356              		.fpu fpv5-sp-d16
 358              	HAL_GPIO_WritePin:
 359              		@ args = 0, pretend = 0, frame = 0
 360              		@ frame_needed = 0, uses_anonymous_args = 0
 361              		@ link register save eliminated.
 362 0000 0AB1     		cbz	r2, .L51
 363              	.L53:
 364 0002 8161     		str	r1, [r0, #24]
 365 0004 7047     		bx	lr
 366              	.L51:
 367 0006 0904     		lsls	r1, r1, #16
 368 0008 FBE7     		b	.L53
 370              		.section	.text.HAL_GPIO_TogglePin,"ax",%progbits
 371              		.align	1
 372              		.global	HAL_GPIO_TogglePin
 373              		.syntax unified
 374              		.thumb
 375              		.thumb_func
 376              		.fpu fpv5-sp-d16
 378              	HAL_GPIO_TogglePin:
 379              		@ args = 0, pretend = 0, frame = 0
 380              		@ frame_needed = 0, uses_anonymous_args = 0
 381              		@ link register save eliminated.
 382 0000 4369     		ldr	r3, [r0, #20]
 383 0002 01EA0302 		and	r2, r1, r3
 384 0006 21EA0301 		bic	r1, r1, r3
 385 000a 41EA0241 		orr	r1, r1, r2, lsl #16
 386 000e 8161     		str	r1, [r0, #24]
 387 0010 7047     		bx	lr
 389              		.section	.text.HAL_GPIO_LockPin,"ax",%progbits
 390              		.align	1
 391              		.global	HAL_GPIO_LockPin
 392              		.syntax unified
 393              		.thumb
 394              		.thumb_func
 395              		.fpu fpv5-sp-d16
 397              	HAL_GPIO_LockPin:
 398              		@ args = 0, pretend = 0, frame = 8
 399              		@ frame_needed = 0, uses_anonymous_args = 0
 400              		@ link register save eliminated.
 401 0000 82B0     		sub	sp, sp, #8
 402 0002 4FF48033 		mov	r3, #65536
 403 0006 0193     		str	r3, [sp, #4]
 404 0008 019B     		ldr	r3, [sp, #4]
 405 000a 0B43     		orrs	r3, r3, r1
 406 000c 0193     		str	r3, [sp, #4]
 407 000e 019B     		ldr	r3, [sp, #4]
 408 0010 C361     		str	r3, [r0, #28]
 409 0012 C161     		str	r1, [r0, #28]
 410 0014 019B     		ldr	r3, [sp, #4]
ARM GAS  /tmp/ccsMVcda.s 			page 8


 411 0016 C361     		str	r3, [r0, #28]
 412 0018 C369     		ldr	r3, [r0, #28]
 413 001a 0193     		str	r3, [sp, #4]
 414 001c C069     		ldr	r0, [r0, #28]
 415 001e 80F48030 		eor	r0, r0, #65536
 416 0022 C0F30040 		ubfx	r0, r0, #16, #1
 417 0026 02B0     		add	sp, sp, #8
 418              		@ sp needed
 419 0028 7047     		bx	lr
 421              		.section	.text.HAL_GPIO_EXTI_Callback,"ax",%progbits
 422              		.align	1
 423              		.weak	HAL_GPIO_EXTI_Callback
 424              		.syntax unified
 425              		.thumb
 426              		.thumb_func
 427              		.fpu fpv5-sp-d16
 429              	HAL_GPIO_EXTI_Callback:
 430              		@ args = 0, pretend = 0, frame = 0
 431              		@ frame_needed = 0, uses_anonymous_args = 0
 432              		@ link register save eliminated.
 433 0000 7047     		bx	lr
 435              		.section	.text.HAL_GPIO_EXTI_IRQHandler,"ax",%progbits
 436              		.align	1
 437              		.global	HAL_GPIO_EXTI_IRQHandler
 438              		.syntax unified
 439              		.thumb
 440              		.thumb_func
 441              		.fpu fpv5-sp-d16
 443              	HAL_GPIO_EXTI_IRQHandler:
 444              		@ args = 0, pretend = 0, frame = 0
 445              		@ frame_needed = 0, uses_anonymous_args = 0
 446 0000 044A     		ldr	r2, .L62
 447 0002 5169     		ldr	r1, [r2, #20]
 448 0004 0142     		tst	r1, r0
 449 0006 08B5     		push	{r3, lr}
 450 0008 02D0     		beq	.L57
 451 000a 5061     		str	r0, [r2, #20]
 452 000c FFF7FEFF 		bl	HAL_GPIO_EXTI_Callback
 453              	.L57:
 454 0010 08BD     		pop	{r3, pc}
 455              	.L63:
 456 0012 00BF     		.align	2
 457              	.L62:
 458 0014 003C0140 		.word	1073822720
 460              		.ident	"GCC: (15:10.3-2021.07-4) 10.3.1 20210621 (release)"
ARM GAS  /tmp/ccsMVcda.s 			page 9

