ARM GAS  /tmp/cceXdVbW.s 			page 1


   1              		.cpu cortex-m7
   2              		.eabi_attribute 27, 1
   3              		.eabi_attribute 20, 1
   4              		.eabi_attribute 21, 1
   5              		.eabi_attribute 23, 3
   6              		.eabi_attribute 24, 1
   7              		.eabi_attribute 25, 1
   8              		.eabi_attribute 26, 1
   9              		.eabi_attribute 30, 4
  10              		.eabi_attribute 34, 1
  11              		.eabi_attribute 18, 4
  12              		.file	"stm32f7xx_hal.c"
  13              		.text
  14              		.section	.text.HAL_MspInit,"ax",%progbits
  15              		.align	1
  16              		.weak	HAL_MspInit
  17              		.arch armv7e-m
  18              		.syntax unified
  19              		.thumb
  20              		.thumb_func
  21              		.fpu fpv5-sp-d16
  23              	HAL_MspInit:
  24              		@ args = 0, pretend = 0, frame = 0
  25              		@ frame_needed = 0, uses_anonymous_args = 0
  26              		@ link register save eliminated.
  27 0000 7047     		bx	lr
  29              		.section	.text.HAL_MspDeInit,"ax",%progbits
  30              		.align	1
  31              		.weak	HAL_MspDeInit
  32              		.syntax unified
  33              		.thumb
  34              		.thumb_func
  35              		.fpu fpv5-sp-d16
  37              	HAL_MspDeInit:
  38              		@ args = 0, pretend = 0, frame = 0
  39              		@ frame_needed = 0, uses_anonymous_args = 0
  40              		@ link register save eliminated.
  41 0000 7047     		bx	lr
  43              		.section	.text.HAL_DeInit,"ax",%progbits
  44              		.align	1
  45              		.global	HAL_DeInit
  46              		.syntax unified
  47              		.thumb
  48              		.thumb_func
  49              		.fpu fpv5-sp-d16
  51              	HAL_DeInit:
  52              		@ args = 0, pretend = 0, frame = 0
  53              		@ frame_needed = 0, uses_anonymous_args = 0
  54 0000 10B5     		push	{r4, lr}
  55 0002 094B     		ldr	r3, .L4
  56 0004 4FF0FF32 		mov	r2, #-1
  57 0008 0024     		movs	r4, #0
  58 000a 1A62     		str	r2, [r3, #32]
  59 000c 1C62     		str	r4, [r3, #32]
  60 000e 5A62     		str	r2, [r3, #36]
  61 0010 5C62     		str	r4, [r3, #36]
  62 0012 1A61     		str	r2, [r3, #16]
ARM GAS  /tmp/cceXdVbW.s 			page 2


  63 0014 1C61     		str	r4, [r3, #16]
  64 0016 5A61     		str	r2, [r3, #20]
  65 0018 5C61     		str	r4, [r3, #20]
  66 001a 9A61     		str	r2, [r3, #24]
  67 001c 9C61     		str	r4, [r3, #24]
  68 001e FFF7FEFF 		bl	HAL_MspDeInit
  69 0022 2046     		mov	r0, r4
  70 0024 10BD     		pop	{r4, pc}
  71              	.L5:
  72 0026 00BF     		.align	2
  73              	.L4:
  74 0028 00380240 		.word	1073887232
  76              		.section	.text.HAL_InitTick,"ax",%progbits
  77              		.align	1
  78              		.weak	HAL_InitTick
  79              		.syntax unified
  80              		.thumb
  81              		.thumb_func
  82              		.fpu fpv5-sp-d16
  84              	HAL_InitTick:
  85              		@ args = 0, pretend = 0, frame = 0
  86              		@ frame_needed = 0, uses_anonymous_args = 0
  87 0000 38B5     		push	{r3, r4, r5, lr}
  88 0002 0E4B     		ldr	r3, .L10
  89 0004 0546     		mov	r5, r0
  90 0006 0E4A     		ldr	r2, .L10+4
  91 0008 1878     		ldrb	r0, [r3]	@ zero_extendqisi2
  92 000a 4FF47A73 		mov	r3, #1000
  93 000e B3FBF0F3 		udiv	r3, r3, r0
  94 0012 1068     		ldr	r0, [r2]
  95 0014 B0FBF3F0 		udiv	r0, r0, r3
  96 0018 FFF7FEFF 		bl	HAL_SYSTICK_Config
  97 001c 0446     		mov	r4, r0
  98 001e 58B9     		cbnz	r0, .L9
  99 0020 0F2D     		cmp	r5, #15
 100 0022 09D8     		bhi	.L9
 101 0024 0246     		mov	r2, r0
 102 0026 2946     		mov	r1, r5
 103 0028 4FF0FF30 		mov	r0, #-1
 104 002c FFF7FEFF 		bl	HAL_NVIC_SetPriority
 105 0030 044B     		ldr	r3, .L10+8
 106 0032 2046     		mov	r0, r4
 107 0034 1D60     		str	r5, [r3]
 108              	.L7:
 109 0036 38BD     		pop	{r3, r4, r5, pc}
 110              	.L9:
 111 0038 0120     		movs	r0, #1
 112 003a FCE7     		b	.L7
 113              	.L11:
 114              		.align	2
 115              	.L10:
 116 003c 00000000 		.word	.LANCHOR0
 117 0040 00000000 		.word	SystemCoreClock
 118 0044 00000000 		.word	.LANCHOR1
 120              		.section	.text.HAL_Init,"ax",%progbits
 121              		.align	1
 122              		.global	HAL_Init
ARM GAS  /tmp/cceXdVbW.s 			page 3


 123              		.syntax unified
 124              		.thumb
 125              		.thumb_func
 126              		.fpu fpv5-sp-d16
 128              	HAL_Init:
 129              		@ args = 0, pretend = 0, frame = 0
 130              		@ frame_needed = 0, uses_anonymous_args = 0
 131 0000 074A     		ldr	r2, .L13
 132 0002 0320     		movs	r0, #3
 133 0004 08B5     		push	{r3, lr}
 134 0006 1368     		ldr	r3, [r2]
 135 0008 43F48073 		orr	r3, r3, #256
 136 000c 1360     		str	r3, [r2]
 137 000e FFF7FEFF 		bl	HAL_NVIC_SetPriorityGrouping
 138 0012 0020     		movs	r0, #0
 139 0014 FFF7FEFF 		bl	HAL_InitTick
 140 0018 FFF7FEFF 		bl	HAL_MspInit
 141 001c 0020     		movs	r0, #0
 142 001e 08BD     		pop	{r3, pc}
 143              	.L14:
 144              		.align	2
 145              	.L13:
 146 0020 003C0240 		.word	1073888256
 148              		.section	.text.HAL_IncTick,"ax",%progbits
 149              		.align	1
 150              		.weak	HAL_IncTick
 151              		.syntax unified
 152              		.thumb
 153              		.thumb_func
 154              		.fpu fpv5-sp-d16
 156              	HAL_IncTick:
 157              		@ args = 0, pretend = 0, frame = 0
 158              		@ frame_needed = 0, uses_anonymous_args = 0
 159              		@ link register save eliminated.
 160 0000 034A     		ldr	r2, .L16
 161 0002 044B     		ldr	r3, .L16+4
 162 0004 1168     		ldr	r1, [r2]
 163 0006 1B78     		ldrb	r3, [r3]	@ zero_extendqisi2
 164 0008 0B44     		add	r3, r3, r1
 165 000a 1360     		str	r3, [r2]
 166 000c 7047     		bx	lr
 167              	.L17:
 168 000e 00BF     		.align	2
 169              	.L16:
 170 0010 00000000 		.word	.LANCHOR2
 171 0014 00000000 		.word	.LANCHOR0
 173              		.section	.text.HAL_GetTick,"ax",%progbits
 174              		.align	1
 175              		.weak	HAL_GetTick
 176              		.syntax unified
 177              		.thumb
 178              		.thumb_func
 179              		.fpu fpv5-sp-d16
 181              	HAL_GetTick:
 182              		@ args = 0, pretend = 0, frame = 0
 183              		@ frame_needed = 0, uses_anonymous_args = 0
 184              		@ link register save eliminated.
ARM GAS  /tmp/cceXdVbW.s 			page 4


 185 0000 014B     		ldr	r3, .L19
 186 0002 1868     		ldr	r0, [r3]
 187 0004 7047     		bx	lr
 188              	.L20:
 189 0006 00BF     		.align	2
 190              	.L19:
 191 0008 00000000 		.word	.LANCHOR2
 193              		.section	.text.HAL_GetTickPrio,"ax",%progbits
 194              		.align	1
 195              		.global	HAL_GetTickPrio
 196              		.syntax unified
 197              		.thumb
 198              		.thumb_func
 199              		.fpu fpv5-sp-d16
 201              	HAL_GetTickPrio:
 202              		@ args = 0, pretend = 0, frame = 0
 203              		@ frame_needed = 0, uses_anonymous_args = 0
 204              		@ link register save eliminated.
 205 0000 014B     		ldr	r3, .L22
 206 0002 1868     		ldr	r0, [r3]
 207 0004 7047     		bx	lr
 208              	.L23:
 209 0006 00BF     		.align	2
 210              	.L22:
 211 0008 00000000 		.word	.LANCHOR1
 213              		.section	.text.HAL_SetTickFreq,"ax",%progbits
 214              		.align	1
 215              		.global	HAL_SetTickFreq
 216              		.syntax unified
 217              		.thumb
 218              		.thumb_func
 219              		.fpu fpv5-sp-d16
 221              	HAL_SetTickFreq:
 222              		@ args = 0, pretend = 0, frame = 0
 223              		@ frame_needed = 0, uses_anonymous_args = 0
 224 0000 38B5     		push	{r3, r4, r5, lr}
 225 0002 074C     		ldr	r4, .L30
 226 0004 2578     		ldrb	r5, [r4]	@ zero_extendqisi2
 227 0006 8542     		cmp	r5, r0
 228 0008 07D0     		beq	.L26
 229 000a 064B     		ldr	r3, .L30+4
 230 000c 2070     		strb	r0, [r4]
 231 000e 1868     		ldr	r0, [r3]
 232 0010 FFF7FEFF 		bl	HAL_InitTick
 233 0014 00B1     		cbz	r0, .L25
 234 0016 2570     		strb	r5, [r4]
 235              	.L25:
 236 0018 38BD     		pop	{r3, r4, r5, pc}
 237              	.L26:
 238 001a 0020     		movs	r0, #0
 239 001c FCE7     		b	.L25
 240              	.L31:
 241 001e 00BF     		.align	2
 242              	.L30:
 243 0020 00000000 		.word	.LANCHOR0
 244 0024 00000000 		.word	.LANCHOR1
 246              		.section	.text.HAL_GetTickFreq,"ax",%progbits
ARM GAS  /tmp/cceXdVbW.s 			page 5


 247              		.align	1
 248              		.global	HAL_GetTickFreq
 249              		.syntax unified
 250              		.thumb
 251              		.thumb_func
 252              		.fpu fpv5-sp-d16
 254              	HAL_GetTickFreq:
 255              		@ args = 0, pretend = 0, frame = 0
 256              		@ frame_needed = 0, uses_anonymous_args = 0
 257              		@ link register save eliminated.
 258 0000 014B     		ldr	r3, .L33
 259 0002 1878     		ldrb	r0, [r3]	@ zero_extendqisi2
 260 0004 7047     		bx	lr
 261              	.L34:
 262 0006 00BF     		.align	2
 263              	.L33:
 264 0008 00000000 		.word	.LANCHOR0
 266              		.section	.text.HAL_Delay,"ax",%progbits
 267              		.align	1
 268              		.weak	HAL_Delay
 269              		.syntax unified
 270              		.thumb
 271              		.thumb_func
 272              		.fpu fpv5-sp-d16
 274              	HAL_Delay:
 275              		@ args = 0, pretend = 0, frame = 0
 276              		@ frame_needed = 0, uses_anonymous_args = 0
 277 0000 38B5     		push	{r3, r4, r5, lr}
 278 0002 0446     		mov	r4, r0
 279 0004 FFF7FEFF 		bl	HAL_GetTick
 280 0008 0546     		mov	r5, r0
 281 000a 631C     		adds	r3, r4, #1
 282 000c 1EBF     		ittt	ne
 283 000e 044B     		ldrne	r3, .L42
 284 0010 1B78     		ldrbne	r3, [r3]	@ zero_extendqisi2
 285 0012 E418     		addne	r4, r4, r3
 286              	.L37:
 287 0014 FFF7FEFF 		bl	HAL_GetTick
 288 0018 431B     		subs	r3, r0, r5
 289 001a A342     		cmp	r3, r4
 290 001c FAD3     		bcc	.L37
 291 001e 38BD     		pop	{r3, r4, r5, pc}
 292              	.L43:
 293              		.align	2
 294              	.L42:
 295 0020 00000000 		.word	.LANCHOR0
 297              		.section	.text.HAL_SuspendTick,"ax",%progbits
 298              		.align	1
 299              		.weak	HAL_SuspendTick
 300              		.syntax unified
 301              		.thumb
 302              		.thumb_func
 303              		.fpu fpv5-sp-d16
 305              	HAL_SuspendTick:
 306              		@ args = 0, pretend = 0, frame = 0
 307              		@ frame_needed = 0, uses_anonymous_args = 0
 308              		@ link register save eliminated.
ARM GAS  /tmp/cceXdVbW.s 			page 6


 309 0000 4FF0E022 		mov	r2, #-536813568
 310 0004 1369     		ldr	r3, [r2, #16]
 311 0006 23F00203 		bic	r3, r3, #2
 312 000a 1361     		str	r3, [r2, #16]
 313 000c 7047     		bx	lr
 315              		.section	.text.HAL_ResumeTick,"ax",%progbits
 316              		.align	1
 317              		.weak	HAL_ResumeTick
 318              		.syntax unified
 319              		.thumb
 320              		.thumb_func
 321              		.fpu fpv5-sp-d16
 323              	HAL_ResumeTick:
 324              		@ args = 0, pretend = 0, frame = 0
 325              		@ frame_needed = 0, uses_anonymous_args = 0
 326              		@ link register save eliminated.
 327 0000 4FF0E022 		mov	r2, #-536813568
 328 0004 1369     		ldr	r3, [r2, #16]
 329 0006 43F00203 		orr	r3, r3, #2
 330 000a 1361     		str	r3, [r2, #16]
 331 000c 7047     		bx	lr
 333              		.section	.text.HAL_GetHalVersion,"ax",%progbits
 334              		.align	1
 335              		.global	HAL_GetHalVersion
 336              		.syntax unified
 337              		.thumb
 338              		.thumb_func
 339              		.fpu fpv5-sp-d16
 341              	HAL_GetHalVersion:
 342              		@ args = 0, pretend = 0, frame = 0
 343              		@ frame_needed = 0, uses_anonymous_args = 0
 344              		@ link register save eliminated.
 345 0000 0048     		ldr	r0, .L47
 346 0002 7047     		bx	lr
 347              	.L48:
 348              		.align	2
 349              	.L47:
 350 0004 00000301 		.word	16973824
 352              		.section	.text.HAL_GetREVID,"ax",%progbits
 353              		.align	1
 354              		.global	HAL_GetREVID
 355              		.syntax unified
 356              		.thumb
 357              		.thumb_func
 358              		.fpu fpv5-sp-d16
 360              	HAL_GetREVID:
 361              		@ args = 0, pretend = 0, frame = 0
 362              		@ frame_needed = 0, uses_anonymous_args = 0
 363              		@ link register save eliminated.
 364 0000 014B     		ldr	r3, .L50
 365 0002 1868     		ldr	r0, [r3]
 366 0004 000C     		lsrs	r0, r0, #16
 367 0006 7047     		bx	lr
 368              	.L51:
 369              		.align	2
 370              	.L50:
 371 0008 002004E0 		.word	-536600576
ARM GAS  /tmp/cceXdVbW.s 			page 7


 373              		.section	.text.HAL_GetDEVID,"ax",%progbits
 374              		.align	1
 375              		.global	HAL_GetDEVID
 376              		.syntax unified
 377              		.thumb
 378              		.thumb_func
 379              		.fpu fpv5-sp-d16
 381              	HAL_GetDEVID:
 382              		@ args = 0, pretend = 0, frame = 0
 383              		@ frame_needed = 0, uses_anonymous_args = 0
 384              		@ link register save eliminated.
 385 0000 024B     		ldr	r3, .L53
 386 0002 1868     		ldr	r0, [r3]
 387 0004 C0F30B00 		ubfx	r0, r0, #0, #12
 388 0008 7047     		bx	lr
 389              	.L54:
 390 000a 00BF     		.align	2
 391              	.L53:
 392 000c 002004E0 		.word	-536600576
 394              		.section	.text.HAL_GetUIDw0,"ax",%progbits
 395              		.align	1
 396              		.global	HAL_GetUIDw0
 397              		.syntax unified
 398              		.thumb
 399              		.thumb_func
 400              		.fpu fpv5-sp-d16
 402              	HAL_GetUIDw0:
 403              		@ args = 0, pretend = 0, frame = 0
 404              		@ frame_needed = 0, uses_anonymous_args = 0
 405              		@ link register save eliminated.
 406 0000 014B     		ldr	r3, .L56
 407 0002 D3F8100A 		ldr	r0, [r3, #2576]
 408 0006 7047     		bx	lr
 409              	.L57:
 410              		.align	2
 411              	.L56:
 412 0008 0070F01F 		.word	535851008
 414              		.section	.text.HAL_GetUIDw1,"ax",%progbits
 415              		.align	1
 416              		.global	HAL_GetUIDw1
 417              		.syntax unified
 418              		.thumb
 419              		.thumb_func
 420              		.fpu fpv5-sp-d16
 422              	HAL_GetUIDw1:
 423              		@ args = 0, pretend = 0, frame = 0
 424              		@ frame_needed = 0, uses_anonymous_args = 0
 425              		@ link register save eliminated.
 426 0000 014B     		ldr	r3, .L59
 427 0002 D3F8140A 		ldr	r0, [r3, #2580]
 428 0006 7047     		bx	lr
 429              	.L60:
 430              		.align	2
 431              	.L59:
 432 0008 0070F01F 		.word	535851008
 434              		.section	.text.HAL_GetUIDw2,"ax",%progbits
 435              		.align	1
ARM GAS  /tmp/cceXdVbW.s 			page 8


 436              		.global	HAL_GetUIDw2
 437              		.syntax unified
 438              		.thumb
 439              		.thumb_func
 440              		.fpu fpv5-sp-d16
 442              	HAL_GetUIDw2:
 443              		@ args = 0, pretend = 0, frame = 0
 444              		@ frame_needed = 0, uses_anonymous_args = 0
 445              		@ link register save eliminated.
 446 0000 014B     		ldr	r3, .L62
 447 0002 D3F8180A 		ldr	r0, [r3, #2584]
 448 0006 7047     		bx	lr
 449              	.L63:
 450              		.align	2
 451              	.L62:
 452 0008 0070F01F 		.word	535851008
 454              		.section	.text.HAL_DBGMCU_EnableDBGSleepMode,"ax",%progbits
 455              		.align	1
 456              		.global	HAL_DBGMCU_EnableDBGSleepMode
 457              		.syntax unified
 458              		.thumb
 459              		.thumb_func
 460              		.fpu fpv5-sp-d16
 462              	HAL_DBGMCU_EnableDBGSleepMode:
 463              		@ args = 0, pretend = 0, frame = 0
 464              		@ frame_needed = 0, uses_anonymous_args = 0
 465              		@ link register save eliminated.
 466 0000 024A     		ldr	r2, .L65
 467 0002 5368     		ldr	r3, [r2, #4]
 468 0004 43F00103 		orr	r3, r3, #1
 469 0008 5360     		str	r3, [r2, #4]
 470 000a 7047     		bx	lr
 471              	.L66:
 472              		.align	2
 473              	.L65:
 474 000c 002004E0 		.word	-536600576
 476              		.section	.text.HAL_DBGMCU_DisableDBGSleepMode,"ax",%progbits
 477              		.align	1
 478              		.global	HAL_DBGMCU_DisableDBGSleepMode
 479              		.syntax unified
 480              		.thumb
 481              		.thumb_func
 482              		.fpu fpv5-sp-d16
 484              	HAL_DBGMCU_DisableDBGSleepMode:
 485              		@ args = 0, pretend = 0, frame = 0
 486              		@ frame_needed = 0, uses_anonymous_args = 0
 487              		@ link register save eliminated.
 488 0000 024A     		ldr	r2, .L68
 489 0002 5368     		ldr	r3, [r2, #4]
 490 0004 23F00103 		bic	r3, r3, #1
 491 0008 5360     		str	r3, [r2, #4]
 492 000a 7047     		bx	lr
 493              	.L69:
 494              		.align	2
 495              	.L68:
 496 000c 002004E0 		.word	-536600576
 498              		.section	.text.HAL_DBGMCU_EnableDBGStopMode,"ax",%progbits
ARM GAS  /tmp/cceXdVbW.s 			page 9


 499              		.align	1
 500              		.global	HAL_DBGMCU_EnableDBGStopMode
 501              		.syntax unified
 502              		.thumb
 503              		.thumb_func
 504              		.fpu fpv5-sp-d16
 506              	HAL_DBGMCU_EnableDBGStopMode:
 507              		@ args = 0, pretend = 0, frame = 0
 508              		@ frame_needed = 0, uses_anonymous_args = 0
 509              		@ link register save eliminated.
 510 0000 024A     		ldr	r2, .L71
 511 0002 5368     		ldr	r3, [r2, #4]
 512 0004 43F00203 		orr	r3, r3, #2
 513 0008 5360     		str	r3, [r2, #4]
 514 000a 7047     		bx	lr
 515              	.L72:
 516              		.align	2
 517              	.L71:
 518 000c 002004E0 		.word	-536600576
 520              		.section	.text.HAL_DBGMCU_DisableDBGStopMode,"ax",%progbits
 521              		.align	1
 522              		.global	HAL_DBGMCU_DisableDBGStopMode
 523              		.syntax unified
 524              		.thumb
 525              		.thumb_func
 526              		.fpu fpv5-sp-d16
 528              	HAL_DBGMCU_DisableDBGStopMode:
 529              		@ args = 0, pretend = 0, frame = 0
 530              		@ frame_needed = 0, uses_anonymous_args = 0
 531              		@ link register save eliminated.
 532 0000 024A     		ldr	r2, .L74
 533 0002 5368     		ldr	r3, [r2, #4]
 534 0004 23F00203 		bic	r3, r3, #2
 535 0008 5360     		str	r3, [r2, #4]
 536 000a 7047     		bx	lr
 537              	.L75:
 538              		.align	2
 539              	.L74:
 540 000c 002004E0 		.word	-536600576
 542              		.section	.text.HAL_DBGMCU_EnableDBGStandbyMode,"ax",%progbits
 543              		.align	1
 544              		.global	HAL_DBGMCU_EnableDBGStandbyMode
 545              		.syntax unified
 546              		.thumb
 547              		.thumb_func
 548              		.fpu fpv5-sp-d16
 550              	HAL_DBGMCU_EnableDBGStandbyMode:
 551              		@ args = 0, pretend = 0, frame = 0
 552              		@ frame_needed = 0, uses_anonymous_args = 0
 553              		@ link register save eliminated.
 554 0000 024A     		ldr	r2, .L77
 555 0002 5368     		ldr	r3, [r2, #4]
 556 0004 43F00403 		orr	r3, r3, #4
 557 0008 5360     		str	r3, [r2, #4]
 558 000a 7047     		bx	lr
 559              	.L78:
 560              		.align	2
ARM GAS  /tmp/cceXdVbW.s 			page 10


 561              	.L77:
 562 000c 002004E0 		.word	-536600576
 564              		.section	.text.HAL_DBGMCU_DisableDBGStandbyMode,"ax",%progbits
 565              		.align	1
 566              		.global	HAL_DBGMCU_DisableDBGStandbyMode
 567              		.syntax unified
 568              		.thumb
 569              		.thumb_func
 570              		.fpu fpv5-sp-d16
 572              	HAL_DBGMCU_DisableDBGStandbyMode:
 573              		@ args = 0, pretend = 0, frame = 0
 574              		@ frame_needed = 0, uses_anonymous_args = 0
 575              		@ link register save eliminated.
 576 0000 024A     		ldr	r2, .L80
 577 0002 5368     		ldr	r3, [r2, #4]
 578 0004 23F00403 		bic	r3, r3, #4
 579 0008 5360     		str	r3, [r2, #4]
 580 000a 7047     		bx	lr
 581              	.L81:
 582              		.align	2
 583              	.L80:
 584 000c 002004E0 		.word	-536600576
 586              		.section	.text.HAL_EnableCompensationCell,"ax",%progbits
 587              		.align	1
 588              		.global	HAL_EnableCompensationCell
 589              		.syntax unified
 590              		.thumb
 591              		.thumb_func
 592              		.fpu fpv5-sp-d16
 594              	HAL_EnableCompensationCell:
 595              		@ args = 0, pretend = 0, frame = 0
 596              		@ frame_needed = 0, uses_anonymous_args = 0
 597              		@ link register save eliminated.
 598 0000 024A     		ldr	r2, .L83
 599 0002 136A     		ldr	r3, [r2, #32]
 600 0004 43F00103 		orr	r3, r3, #1
 601 0008 1362     		str	r3, [r2, #32]
 602 000a 7047     		bx	lr
 603              	.L84:
 604              		.align	2
 605              	.L83:
 606 000c 00380140 		.word	1073821696
 608              		.section	.text.HAL_DisableCompensationCell,"ax",%progbits
 609              		.align	1
 610              		.global	HAL_DisableCompensationCell
 611              		.syntax unified
 612              		.thumb
 613              		.thumb_func
 614              		.fpu fpv5-sp-d16
 616              	HAL_DisableCompensationCell:
 617              		@ args = 0, pretend = 0, frame = 0
 618              		@ frame_needed = 0, uses_anonymous_args = 0
 619              		@ link register save eliminated.
 620 0000 024A     		ldr	r2, .L86
 621 0002 136A     		ldr	r3, [r2, #32]
 622 0004 23F00103 		bic	r3, r3, #1
 623 0008 1362     		str	r3, [r2, #32]
ARM GAS  /tmp/cceXdVbW.s 			page 11


 624 000a 7047     		bx	lr
 625              	.L87:
 626              		.align	2
 627              	.L86:
 628 000c 00380140 		.word	1073821696
 630              		.section	.text.HAL_EnableFMCMemorySwapping,"ax",%progbits
 631              		.align	1
 632              		.global	HAL_EnableFMCMemorySwapping
 633              		.syntax unified
 634              		.thumb
 635              		.thumb_func
 636              		.fpu fpv5-sp-d16
 638              	HAL_EnableFMCMemorySwapping:
 639              		@ args = 0, pretend = 0, frame = 0
 640              		@ frame_needed = 0, uses_anonymous_args = 0
 641              		@ link register save eliminated.
 642 0000 024A     		ldr	r2, .L89
 643 0002 1368     		ldr	r3, [r2]
 644 0004 43F48063 		orr	r3, r3, #1024
 645 0008 1360     		str	r3, [r2]
 646 000a 7047     		bx	lr
 647              	.L90:
 648              		.align	2
 649              	.L89:
 650 000c 00380140 		.word	1073821696
 652              		.section	.text.HAL_DisableFMCMemorySwapping,"ax",%progbits
 653              		.align	1
 654              		.global	HAL_DisableFMCMemorySwapping
 655              		.syntax unified
 656              		.thumb
 657              		.thumb_func
 658              		.fpu fpv5-sp-d16
 660              	HAL_DisableFMCMemorySwapping:
 661              		@ args = 0, pretend = 0, frame = 0
 662              		@ frame_needed = 0, uses_anonymous_args = 0
 663              		@ link register save eliminated.
 664 0000 024A     		ldr	r2, .L92
 665 0002 1368     		ldr	r3, [r2]
 666 0004 23F44063 		bic	r3, r3, #3072
 667 0008 1360     		str	r3, [r2]
 668 000a 7047     		bx	lr
 669              	.L93:
 670              		.align	2
 671              	.L92:
 672 000c 00380140 		.word	1073821696
 674              		.global	uwTickFreq
 675              		.global	uwTickPrio
 676              		.global	uwTick
 677              		.section	.bss.uwTick,"aw",%nobits
 678              		.align	2
 679              		.set	.LANCHOR2,. + 0
 682              	uwTick:
 683 0000 00000000 		.space	4
 684              		.section	.data.uwTickFreq,"aw"
 685              		.set	.LANCHOR0,. + 0
 688              	uwTickFreq:
 689 0000 01       		.byte	1
ARM GAS  /tmp/cceXdVbW.s 			page 12


 690              		.section	.data.uwTickPrio,"aw"
 691              		.align	2
 692              		.set	.LANCHOR1,. + 0
 695              	uwTickPrio:
 696 0000 10000000 		.word	16
 697              		.ident	"GCC: (15:10.3-2021.07-4) 10.3.1 20210621 (release)"
ARM GAS  /tmp/cceXdVbW.s 			page 13

