ARM GAS  /tmp/ccH91rUp.s 			page 1


   1              		.cpu cortex-m7
   2              		.eabi_attribute 27, 1
   3              		.eabi_attribute 20, 1
   4              		.eabi_attribute 21, 1
   5              		.eabi_attribute 23, 3
   6              		.eabi_attribute 24, 1
   7              		.eabi_attribute 25, 1
   8              		.eabi_attribute 26, 1
   9              		.eabi_attribute 30, 4
  10              		.eabi_attribute 34, 1
  11              		.eabi_attribute 18, 4
  12              		.file	"stm32f7xx_hal_dma_ex.c"
  13              		.text
  14              		.section	.text.HAL_DMAEx_MultiBufferStart,"ax",%progbits
  15              		.align	1
  16              		.global	HAL_DMAEx_MultiBufferStart
  17              		.arch armv7e-m
  18              		.syntax unified
  19              		.thumb
  20              		.thumb_func
  21              		.fpu fpv5-sp-d16
  23              	HAL_DMAEx_MultiBufferStart:
  24              		@ args = 4, pretend = 0, frame = 0
  25              		@ frame_needed = 0, uses_anonymous_args = 0
  26 0000 30B5     		push	{r4, r5, lr}
  27 0002 8568     		ldr	r5, [r0, #8]
  28 0004 802D     		cmp	r5, #128
  29 0006 04D1     		bne	.L2
  30 0008 4FF48073 		mov	r3, #256
  31 000c 4365     		str	r3, [r0, #84]
  32 000e 0120     		movs	r0, #1
  33              	.L3:
  34 0010 30BD     		pop	{r4, r5, pc}
  35              	.L2:
  36 0012 90F83440 		ldrb	r4, [r0, #52]	@ zero_extendqisi2
  37 0016 012C     		cmp	r4, #1
  38 0018 01D1     		bne	.L4
  39              	.L5:
  40 001a 0220     		movs	r0, #2
  41 001c F8E7     		b	.L3
  42              	.L4:
  43 001e 0124     		movs	r4, #1
  44 0020 80F83440 		strb	r4, [r0, #52]
  45 0024 90F83540 		ldrb	r4, [r0, #53]	@ zero_extendqisi2
  46 0028 012C     		cmp	r4, #1
  47 002a F6D1     		bne	.L5
  48 002c 0224     		movs	r4, #2
  49 002e 402D     		cmp	r5, #64
  50 0030 80F83540 		strb	r4, [r0, #53]
  51 0034 0068     		ldr	r0, [r0]
  52 0036 0468     		ldr	r4, [r0]
  53 0038 44F48024 		orr	r4, r4, #262144
  54 003c 0460     		str	r4, [r0]
  55 003e 0361     		str	r3, [r0, #16]
  56 0040 039B     		ldr	r3, [sp, #12]
  57 0042 4360     		str	r3, [r0, #4]
  58 0044 07D1     		bne	.L6
ARM GAS  /tmp/ccH91rUp.s 			page 2


  59 0046 8260     		str	r2, [r0, #8]
  60 0048 C160     		str	r1, [r0, #12]
  61              	.L7:
  62 004a 0368     		ldr	r3, [r0]
  63 004c 43F00103 		orr	r3, r3, #1
  64 0050 0360     		str	r3, [r0]
  65 0052 0020     		movs	r0, #0
  66 0054 DCE7     		b	.L3
  67              	.L6:
  68 0056 8160     		str	r1, [r0, #8]
  69 0058 C260     		str	r2, [r0, #12]
  70 005a F6E7     		b	.L7
  72              		.section	.text.HAL_DMAEx_MultiBufferStart_IT,"ax",%progbits
  73              		.align	1
  74              		.global	HAL_DMAEx_MultiBufferStart_IT
  75              		.syntax unified
  76              		.thumb
  77              		.thumb_func
  78              		.fpu fpv5-sp-d16
  80              	HAL_DMAEx_MultiBufferStart_IT:
  81              		@ args = 4, pretend = 0, frame = 0
  82              		@ frame_needed = 0, uses_anonymous_args = 0
  83 0000 70B5     		push	{r4, r5, r6, lr}
  84 0002 8668     		ldr	r6, [r0, #8]
  85 0004 802E     		cmp	r6, #128
  86 0006 04D1     		bne	.L9
  87 0008 4FF48073 		mov	r3, #256
  88 000c 4365     		str	r3, [r0, #84]
  89 000e 0120     		movs	r0, #1
  90              	.L10:
  91 0010 70BD     		pop	{r4, r5, r6, pc}
  92              	.L9:
  93 0012 90F83440 		ldrb	r4, [r0, #52]	@ zero_extendqisi2
  94 0016 012C     		cmp	r4, #1
  95 0018 00F03785 		beq	.L56
  96 001c 0124     		movs	r4, #1
  97 001e 0025     		movs	r5, #0
  98 0020 80F83440 		strb	r4, [r0, #52]
  99 0024 90F83540 		ldrb	r4, [r0, #53]	@ zero_extendqisi2
 100 0028 012C     		cmp	r4, #1
 101 002a 4FF00204 		mov	r4, #2
 102 002e 40F02A85 		bne	.L11
 103 0032 80F83540 		strb	r4, [r0, #53]
 104 0036 402E     		cmp	r6, #64
 105 0038 0468     		ldr	r4, [r0]
 106 003a 4565     		str	r5, [r0, #84]
 107 003c 2568     		ldr	r5, [r4]
 108 003e 45F48025 		orr	r5, r5, #262144
 109 0042 2560     		str	r5, [r4]
 110 0044 2361     		str	r3, [r4, #16]
 111 0046 049B     		ldr	r3, [sp, #16]
 112 0048 6360     		str	r3, [r4, #4]
 113 004a 3ED1     		bne	.L12
 114 004c A260     		str	r2, [r4, #8]
 115 004e E160     		str	r1, [r4, #12]
 116              	.L13:
 117 0050 A74B     		ldr	r3, .L286
ARM GAS  /tmp/ccH91rUp.s 			page 3


 118 0052 9C42     		cmp	r4, r3
 119 0054 A3F58963 		sub	r3, r3, #1096
 120 0058 42D9     		bls	.L14
 121 005a 9C42     		cmp	r4, r3
 122 005c 38D0     		beq	.L60
 123 005e A54A     		ldr	r2, .L286+4
 124 0060 9442     		cmp	r4, r2
 125 0062 35D0     		beq	.L60
 126 0064 A2F56872 		sub	r2, r2, #928
 127 0068 9442     		cmp	r4, r2
 128 006a 31D0     		beq	.L60
 129 006c 02F58062 		add	r2, r2, #1024
 130 0070 9442     		cmp	r4, r2
 131 0072 2DD0     		beq	.L60
 132 0074 A2F58962 		sub	r2, r2, #1096
 133 0078 9442     		cmp	r4, r2
 134 007a 2BD0     		beq	.L64
 135 007c 02F58062 		add	r2, r2, #1024
 136 0080 9442     		cmp	r4, r2
 137 0082 27D0     		beq	.L64
 138 0084 A2F56872 		sub	r2, r2, #928
 139 0088 9442     		cmp	r4, r2
 140 008a 23D0     		beq	.L64
 141 008c 02F58062 		add	r2, r2, #1024
 142 0090 9442     		cmp	r4, r2
 143 0092 1FD0     		beq	.L64
 144 0094 A2F58962 		sub	r2, r2, #1096
 145 0098 9442     		cmp	r4, r2
 146 009a 1ED0     		beq	.L67
 147 009c 02F58062 		add	r2, r2, #1024
 148 00a0 9442     		cmp	r4, r2
 149 00a2 1AD0     		beq	.L67
 150 00a4 A2F56872 		sub	r2, r2, #928
 151 00a8 9442     		cmp	r4, r2
 152 00aa 16D0     		beq	.L67
 153 00ac 02F58062 		add	r2, r2, #1024
 154 00b0 9442     		cmp	r4, r2
 155 00b2 14BF     		ite	ne
 156 00b4 4FF00062 		movne	r2, #134217728
 157 00b8 4FF40012 		moveq	r2, #2097152
 158              	.L15:
 159 00bc 8E49     		ldr	r1, .L286+8
 160 00be 9C42     		cmp	r4, r3
 161 00c0 CA60     		str	r2, [r1, #12]
 162 00c2 40F0D580 		bne	.L16
 163              	.L107:
 164 00c6 1022     		movs	r2, #16
 165 00c8 04E1     		b	.L17
 166              	.L12:
 167 00ca A160     		str	r1, [r4, #8]
 168 00cc E260     		str	r2, [r4, #12]
 169 00ce BFE7     		b	.L13
 170              	.L60:
 171 00d0 2022     		movs	r2, #32
 172 00d2 F3E7     		b	.L15
 173              	.L64:
 174 00d4 4FF40062 		mov	r2, #2048
ARM GAS  /tmp/ccH91rUp.s 			page 4


 175 00d8 F0E7     		b	.L15
 176              	.L67:
 177 00da 4FF40012 		mov	r2, #2097152
 178 00de EDE7     		b	.L15
 179              	.L14:
 180 00e0 864A     		ldr	r2, .L286+12
 181 00e2 9442     		cmp	r4, r2
 182 00e4 40D9     		bls	.L18
 183 00e6 9C42     		cmp	r4, r3
 184 00e8 36D0     		beq	.L72
 185 00ea 02F55672 		add	r2, r2, #856
 186 00ee 9442     		cmp	r4, r2
 187 00f0 32D0     		beq	.L72
 188 00f2 A2F56872 		sub	r2, r2, #928
 189 00f6 9442     		cmp	r4, r2
 190 00f8 2ED0     		beq	.L72
 191 00fa 02F58062 		add	r2, r2, #1024
 192 00fe 9442     		cmp	r4, r2
 193 0100 2AD0     		beq	.L72
 194 0102 A2F58962 		sub	r2, r2, #1096
 195 0106 9442     		cmp	r4, r2
 196 0108 28D0     		beq	.L76
 197 010a 02F58062 		add	r2, r2, #1024
 198 010e 9442     		cmp	r4, r2
 199 0110 24D0     		beq	.L76
 200 0112 A2F56872 		sub	r2, r2, #928
 201 0116 9442     		cmp	r4, r2
 202 0118 20D0     		beq	.L76
 203 011a 02F58062 		add	r2, r2, #1024
 204 011e 9442     		cmp	r4, r2
 205 0120 1CD0     		beq	.L76
 206 0122 A2F58962 		sub	r2, r2, #1096
 207 0126 9442     		cmp	r4, r2
 208 0128 1BD0     		beq	.L79
 209 012a 02F58062 		add	r2, r2, #1024
 210 012e 9442     		cmp	r4, r2
 211 0130 17D0     		beq	.L79
 212 0132 A2F56872 		sub	r2, r2, #928
 213 0136 9442     		cmp	r4, r2
 214 0138 13D0     		beq	.L79
 215 013a 02F58062 		add	r2, r2, #1024
 216 013e 9442     		cmp	r4, r2
 217 0140 14BF     		ite	ne
 218 0142 4FF00062 		movne	r2, #134217728
 219 0146 4FF40012 		moveq	r2, #2097152
 220              	.L19:
 221 014a 6B49     		ldr	r1, .L286+8
 222 014c 9C42     		cmp	r4, r3
 223 014e 8A60     		str	r2, [r1, #8]
 224 0150 40F0DA80 		bne	.L20
 225              	.L118:
 226 0154 1022     		movs	r2, #16
 227 0156 09E1     		b	.L21
 228              	.L72:
 229 0158 2022     		movs	r2, #32
 230 015a F6E7     		b	.L19
 231              	.L76:
ARM GAS  /tmp/ccH91rUp.s 			page 5


 232 015c 4FF40062 		mov	r2, #2048
 233 0160 F3E7     		b	.L19
 234              	.L79:
 235 0162 4FF40012 		mov	r2, #2097152
 236 0166 F0E7     		b	.L19
 237              	.L18:
 238 0168 654A     		ldr	r2, .L286+16
 239 016a 9442     		cmp	r4, r2
 240 016c 40D9     		bls	.L22
 241 016e 9C42     		cmp	r4, r3
 242 0170 36D0     		beq	.L84
 243 0172 02F56E72 		add	r2, r2, #952
 244 0176 9442     		cmp	r4, r2
 245 0178 32D0     		beq	.L84
 246 017a A2F56872 		sub	r2, r2, #928
 247 017e 9442     		cmp	r4, r2
 248 0180 2ED0     		beq	.L84
 249 0182 02F58062 		add	r2, r2, #1024
 250 0186 9442     		cmp	r4, r2
 251 0188 2AD0     		beq	.L84
 252 018a A2F58962 		sub	r2, r2, #1096
 253 018e 9442     		cmp	r4, r2
 254 0190 28D0     		beq	.L88
 255 0192 02F58062 		add	r2, r2, #1024
 256 0196 9442     		cmp	r4, r2
 257 0198 24D0     		beq	.L88
 258 019a A2F56872 		sub	r2, r2, #928
 259 019e 9442     		cmp	r4, r2
 260 01a0 20D0     		beq	.L88
 261 01a2 02F58062 		add	r2, r2, #1024
 262 01a6 9442     		cmp	r4, r2
 263 01a8 1CD0     		beq	.L88
 264 01aa A2F58962 		sub	r2, r2, #1096
 265 01ae 9442     		cmp	r4, r2
 266 01b0 1BD0     		beq	.L91
 267 01b2 02F58062 		add	r2, r2, #1024
 268 01b6 9442     		cmp	r4, r2
 269 01b8 17D0     		beq	.L91
 270 01ba A2F56872 		sub	r2, r2, #928
 271 01be 9442     		cmp	r4, r2
 272 01c0 13D0     		beq	.L91
 273 01c2 02F58062 		add	r2, r2, #1024
 274 01c6 9442     		cmp	r4, r2
 275 01c8 14BF     		ite	ne
 276 01ca 4FF00062 		movne	r2, #134217728
 277 01ce 4FF40012 		moveq	r2, #2097152
 278              	.L23:
 279 01d2 4C49     		ldr	r1, .L286+20
 280 01d4 9C42     		cmp	r4, r3
 281 01d6 CA60     		str	r2, [r1, #12]
 282 01d8 40F0D580 		bne	.L24
 283              	.L129:
 284 01dc 1022     		movs	r2, #16
 285 01de 04E1     		b	.L25
 286              	.L84:
 287 01e0 2022     		movs	r2, #32
 288 01e2 F6E7     		b	.L23
ARM GAS  /tmp/ccH91rUp.s 			page 6


 289              	.L88:
 290 01e4 4FF40062 		mov	r2, #2048
 291 01e8 F3E7     		b	.L23
 292              	.L91:
 293 01ea 4FF40012 		mov	r2, #2097152
 294 01ee F0E7     		b	.L23
 295              	.L22:
 296 01f0 9C42     		cmp	r4, r3
 297 01f2 35D0     		beq	.L96
 298 01f4 3F4A     		ldr	r2, .L286+4
 299 01f6 9442     		cmp	r4, r2
 300 01f8 32D0     		beq	.L96
 301 01fa A2F56872 		sub	r2, r2, #928
 302 01fe 9442     		cmp	r4, r2
 303 0200 2ED0     		beq	.L96
 304 0202 02F58062 		add	r2, r2, #1024
 305 0206 9442     		cmp	r4, r2
 306 0208 2AD0     		beq	.L96
 307 020a A2F58962 		sub	r2, r2, #1096
 308 020e 9442     		cmp	r4, r2
 309 0210 28D0     		beq	.L100
 310 0212 02F58062 		add	r2, r2, #1024
 311 0216 9442     		cmp	r4, r2
 312 0218 24D0     		beq	.L100
 313 021a A2F56872 		sub	r2, r2, #928
 314 021e 9442     		cmp	r4, r2
 315 0220 20D0     		beq	.L100
 316 0222 02F58062 		add	r2, r2, #1024
 317 0226 9442     		cmp	r4, r2
 318 0228 1CD0     		beq	.L100
 319 022a A2F58962 		sub	r2, r2, #1096
 320 022e 9442     		cmp	r4, r2
 321 0230 1BD0     		beq	.L103
 322 0232 02F58062 		add	r2, r2, #1024
 323 0236 9442     		cmp	r4, r2
 324 0238 17D0     		beq	.L103
 325 023a A2F56872 		sub	r2, r2, #928
 326 023e 9442     		cmp	r4, r2
 327 0240 13D0     		beq	.L103
 328 0242 02F58062 		add	r2, r2, #1024
 329 0246 9442     		cmp	r4, r2
 330 0248 14BF     		ite	ne
 331 024a 4FF00062 		movne	r2, #134217728
 332 024e 4FF40012 		moveq	r2, #2097152
 333              	.L26:
 334 0252 2C49     		ldr	r1, .L286+20
 335 0254 9C42     		cmp	r4, r3
 336 0256 8A60     		str	r2, [r1, #8]
 337 0258 40F0D480 		bne	.L27
 338              	.L140:
 339 025c 1022     		movs	r2, #16
 340 025e 03E1     		b	.L28
 341              	.L96:
 342 0260 2022     		movs	r2, #32
 343 0262 F6E7     		b	.L26
 344              	.L100:
 345 0264 4FF40062 		mov	r2, #2048
ARM GAS  /tmp/ccH91rUp.s 			page 7


 346 0268 F3E7     		b	.L26
 347              	.L103:
 348 026a 4FF40012 		mov	r2, #2097152
 349 026e F0E7     		b	.L26
 350              	.L16:
 351 0270 204A     		ldr	r2, .L286+4
 352 0272 9442     		cmp	r4, r2
 353 0274 3FF427AF 		beq	.L107
 354 0278 A2F56872 		sub	r2, r2, #928
 355 027c 9442     		cmp	r4, r2
 356 027e 3FF422AF 		beq	.L107
 357 0282 02F58062 		add	r2, r2, #1024
 358 0286 9442     		cmp	r4, r2
 359 0288 3FF41DAF 		beq	.L107
 360 028c A2F58962 		sub	r2, r2, #1096
 361 0290 9442     		cmp	r4, r2
 362 0292 26D0     		beq	.L111
 363 0294 02F58062 		add	r2, r2, #1024
 364 0298 9442     		cmp	r4, r2
 365 029a 22D0     		beq	.L111
 366 029c A2F56872 		sub	r2, r2, #928
 367 02a0 9442     		cmp	r4, r2
 368 02a2 1ED0     		beq	.L111
 369 02a4 02F58062 		add	r2, r2, #1024
 370 02a8 9442     		cmp	r4, r2
 371 02aa 1AD0     		beq	.L111
 372 02ac A2F58962 		sub	r2, r2, #1096
 373 02b0 9442     		cmp	r4, r2
 374 02b2 19D0     		beq	.L114
 375 02b4 02F58062 		add	r2, r2, #1024
 376 02b8 9442     		cmp	r4, r2
 377 02ba 15D0     		beq	.L114
 378 02bc A2F56872 		sub	r2, r2, #928
 379 02c0 9442     		cmp	r4, r2
 380 02c2 11D0     		beq	.L114
 381 02c4 02F58062 		add	r2, r2, #1024
 382 02c8 9442     		cmp	r4, r2
 383 02ca 14BF     		ite	ne
 384 02cc 4FF08062 		movne	r2, #67108864
 385 02d0 4FF48012 		moveq	r2, #1048576
 386              	.L17:
 387 02d4 0849     		ldr	r1, .L286+8
 388 02d6 9C42     		cmp	r4, r3
 389 02d8 CA60     		str	r2, [r1, #12]
 390 02da 40F0D280 		bne	.L29
 391              	.L151:
 392 02de 0822     		movs	r2, #8
 393 02e0 01E1     		b	.L30
 394              	.L111:
 395 02e2 4FF48062 		mov	r2, #1024
 396 02e6 F5E7     		b	.L17
 397              	.L114:
 398 02e8 4FF48012 		mov	r2, #1048576
 399 02ec F2E7     		b	.L17
 400              	.L287:
 401 02ee 00BF     		.align	2
 402              	.L286:
ARM GAS  /tmp/ccH91rUp.s 			page 8


 403 02f0 58640240 		.word	1073898584
 404 02f4 10640240 		.word	1073898512
 405 02f8 00640240 		.word	1073898496
 406 02fc B8600240 		.word	1073897656
 407 0300 58600240 		.word	1073897560
 408 0304 00600240 		.word	1073897472
 409              	.L20:
 410 0308 9D4A     		ldr	r2, .L288
 411 030a 9442     		cmp	r4, r2
 412 030c 3FF422AF 		beq	.L118
 413 0310 A2F56872 		sub	r2, r2, #928
 414 0314 9442     		cmp	r4, r2
 415 0316 3FF41DAF 		beq	.L118
 416 031a 02F58062 		add	r2, r2, #1024
 417 031e 9442     		cmp	r4, r2
 418 0320 3FF418AF 		beq	.L118
 419 0324 A2F58962 		sub	r2, r2, #1096
 420 0328 9442     		cmp	r4, r2
 421 032a 26D0     		beq	.L122
 422 032c 02F58062 		add	r2, r2, #1024
 423 0330 9442     		cmp	r4, r2
 424 0332 22D0     		beq	.L122
 425 0334 A2F56872 		sub	r2, r2, #928
 426 0338 9442     		cmp	r4, r2
 427 033a 1ED0     		beq	.L122
 428 033c 02F58062 		add	r2, r2, #1024
 429 0340 9442     		cmp	r4, r2
 430 0342 1AD0     		beq	.L122
 431 0344 A2F58962 		sub	r2, r2, #1096
 432 0348 9442     		cmp	r4, r2
 433 034a 19D0     		beq	.L125
 434 034c 02F58062 		add	r2, r2, #1024
 435 0350 9442     		cmp	r4, r2
 436 0352 15D0     		beq	.L125
 437 0354 A2F56872 		sub	r2, r2, #928
 438 0358 9442     		cmp	r4, r2
 439 035a 11D0     		beq	.L125
 440 035c 02F58062 		add	r2, r2, #1024
 441 0360 9442     		cmp	r4, r2
 442 0362 14BF     		ite	ne
 443 0364 4FF08062 		movne	r2, #67108864
 444 0368 4FF48012 		moveq	r2, #1048576
 445              	.L21:
 446 036c 8549     		ldr	r1, .L288+4
 447 036e 9C42     		cmp	r4, r3
 448 0370 8A60     		str	r2, [r1, #8]
 449 0372 40F0C580 		bne	.L31
 450              	.L162:
 451 0376 0822     		movs	r2, #8
 452 0378 F4E0     		b	.L32
 453              	.L122:
 454 037a 4FF48062 		mov	r2, #1024
 455 037e F5E7     		b	.L21
 456              	.L125:
 457 0380 4FF48012 		mov	r2, #1048576
 458 0384 F2E7     		b	.L21
 459              	.L24:
ARM GAS  /tmp/ccH91rUp.s 			page 9


 460 0386 7E4A     		ldr	r2, .L288
 461 0388 9442     		cmp	r4, r2
 462 038a 3FF427AF 		beq	.L129
 463 038e A2F56872 		sub	r2, r2, #928
 464 0392 9442     		cmp	r4, r2
 465 0394 3FF422AF 		beq	.L129
 466 0398 02F58062 		add	r2, r2, #1024
 467 039c 9442     		cmp	r4, r2
 468 039e 3FF41DAF 		beq	.L129
 469 03a2 A2F58962 		sub	r2, r2, #1096
 470 03a6 9442     		cmp	r4, r2
 471 03a8 26D0     		beq	.L133
 472 03aa 02F58062 		add	r2, r2, #1024
 473 03ae 9442     		cmp	r4, r2
 474 03b0 22D0     		beq	.L133
 475 03b2 A2F56872 		sub	r2, r2, #928
 476 03b6 9442     		cmp	r4, r2
 477 03b8 1ED0     		beq	.L133
 478 03ba 02F58062 		add	r2, r2, #1024
 479 03be 9442     		cmp	r4, r2
 480 03c0 1AD0     		beq	.L133
 481 03c2 A2F58962 		sub	r2, r2, #1096
 482 03c6 9442     		cmp	r4, r2
 483 03c8 19D0     		beq	.L136
 484 03ca 02F58062 		add	r2, r2, #1024
 485 03ce 9442     		cmp	r4, r2
 486 03d0 15D0     		beq	.L136
 487 03d2 A2F56872 		sub	r2, r2, #928
 488 03d6 9442     		cmp	r4, r2
 489 03d8 11D0     		beq	.L136
 490 03da 02F58062 		add	r2, r2, #1024
 491 03de 9442     		cmp	r4, r2
 492 03e0 14BF     		ite	ne
 493 03e2 4FF08062 		movne	r2, #67108864
 494 03e6 4FF48012 		moveq	r2, #1048576
 495              	.L25:
 496 03ea 6749     		ldr	r1, .L288+8
 497 03ec 9C42     		cmp	r4, r3
 498 03ee CA60     		str	r2, [r1, #12]
 499 03f0 40F0CC80 		bne	.L33
 500              	.L173:
 501 03f4 0822     		movs	r2, #8
 502 03f6 FBE0     		b	.L34
 503              	.L133:
 504 03f8 4FF48062 		mov	r2, #1024
 505 03fc F5E7     		b	.L25
 506              	.L136:
 507 03fe 4FF48012 		mov	r2, #1048576
 508 0402 F2E7     		b	.L25
 509              	.L27:
 510 0404 5E4A     		ldr	r2, .L288
 511 0406 9442     		cmp	r4, r2
 512 0408 3FF428AF 		beq	.L140
 513 040c A2F56872 		sub	r2, r2, #928
 514 0410 9442     		cmp	r4, r2
 515 0412 3FF423AF 		beq	.L140
 516 0416 02F58062 		add	r2, r2, #1024
ARM GAS  /tmp/ccH91rUp.s 			page 10


 517 041a 9442     		cmp	r4, r2
 518 041c 3FF41EAF 		beq	.L140
 519 0420 A2F58962 		sub	r2, r2, #1096
 520 0424 9442     		cmp	r4, r2
 521 0426 26D0     		beq	.L144
 522 0428 02F58062 		add	r2, r2, #1024
 523 042c 9442     		cmp	r4, r2
 524 042e 22D0     		beq	.L144
 525 0430 A2F56872 		sub	r2, r2, #928
 526 0434 9442     		cmp	r4, r2
 527 0436 1ED0     		beq	.L144
 528 0438 02F58062 		add	r2, r2, #1024
 529 043c 9442     		cmp	r4, r2
 530 043e 1AD0     		beq	.L144
 531 0440 A2F58962 		sub	r2, r2, #1096
 532 0444 9442     		cmp	r4, r2
 533 0446 19D0     		beq	.L147
 534 0448 02F58062 		add	r2, r2, #1024
 535 044c 9442     		cmp	r4, r2
 536 044e 15D0     		beq	.L147
 537 0450 A2F56872 		sub	r2, r2, #928
 538 0454 9442     		cmp	r4, r2
 539 0456 11D0     		beq	.L147
 540 0458 02F58062 		add	r2, r2, #1024
 541 045c 9442     		cmp	r4, r2
 542 045e 14BF     		ite	ne
 543 0460 4FF08062 		movne	r2, #67108864
 544 0464 4FF48012 		moveq	r2, #1048576
 545              	.L28:
 546 0468 4749     		ldr	r1, .L288+8
 547 046a 9C42     		cmp	r4, r3
 548 046c 8A60     		str	r2, [r1, #8]
 549 046e 40F0CC80 		bne	.L35
 550              	.L184:
 551 0472 0822     		movs	r2, #8
 552 0474 FBE0     		b	.L36
 553              	.L144:
 554 0476 4FF48062 		mov	r2, #1024
 555 047a F5E7     		b	.L28
 556              	.L147:
 557 047c 4FF48012 		mov	r2, #1048576
 558 0480 F2E7     		b	.L28
 559              	.L29:
 560 0482 3F4A     		ldr	r2, .L288
 561 0484 9442     		cmp	r4, r2
 562 0486 3FF42AAF 		beq	.L151
 563 048a A2F56872 		sub	r2, r2, #928
 564 048e 9442     		cmp	r4, r2
 565 0490 3FF425AF 		beq	.L151
 566 0494 02F58062 		add	r2, r2, #1024
 567 0498 9442     		cmp	r4, r2
 568 049a 3FF420AF 		beq	.L151
 569 049e A2F58962 		sub	r2, r2, #1096
 570 04a2 9442     		cmp	r4, r2
 571 04a4 26D0     		beq	.L155
 572 04a6 02F58062 		add	r2, r2, #1024
 573 04aa 9442     		cmp	r4, r2
ARM GAS  /tmp/ccH91rUp.s 			page 11


 574 04ac 22D0     		beq	.L155
 575 04ae A2F56872 		sub	r2, r2, #928
 576 04b2 9442     		cmp	r4, r2
 577 04b4 1ED0     		beq	.L155
 578 04b6 02F58062 		add	r2, r2, #1024
 579 04ba 9442     		cmp	r4, r2
 580 04bc 1AD0     		beq	.L155
 581 04be A2F58962 		sub	r2, r2, #1096
 582 04c2 9442     		cmp	r4, r2
 583 04c4 19D0     		beq	.L158
 584 04c6 02F58062 		add	r2, r2, #1024
 585 04ca 9442     		cmp	r4, r2
 586 04cc 15D0     		beq	.L158
 587 04ce A2F56872 		sub	r2, r2, #928
 588 04d2 9442     		cmp	r4, r2
 589 04d4 11D0     		beq	.L158
 590 04d6 02F58062 		add	r2, r2, #1024
 591 04da 9442     		cmp	r4, r2
 592 04dc 14BF     		ite	ne
 593 04de 4FF00072 		movne	r2, #33554432
 594 04e2 4FF40022 		moveq	r2, #524288
 595              	.L30:
 596 04e6 2749     		ldr	r1, .L288+4
 597 04e8 9C42     		cmp	r4, r3
 598 04ea CA60     		str	r2, [r1, #12]
 599 04ec 40F0CC80 		bne	.L37
 600              	.L195:
 601 04f0 0422     		movs	r2, #4
 602 04f2 FBE0     		b	.L38
 603              	.L155:
 604 04f4 4FF40072 		mov	r2, #512
 605 04f8 F5E7     		b	.L30
 606              	.L158:
 607 04fa 4FF40022 		mov	r2, #524288
 608 04fe F2E7     		b	.L30
 609              	.L31:
 610 0500 1F4A     		ldr	r2, .L288
 611 0502 9442     		cmp	r4, r2
 612 0504 3FF437AF 		beq	.L162
 613 0508 A2F56872 		sub	r2, r2, #928
 614 050c 9442     		cmp	r4, r2
 615 050e 3FF432AF 		beq	.L162
 616 0512 02F58062 		add	r2, r2, #1024
 617 0516 9442     		cmp	r4, r2
 618 0518 3FF42DAF 		beq	.L162
 619 051c A2F58962 		sub	r2, r2, #1096
 620 0520 9442     		cmp	r4, r2
 621 0522 26D0     		beq	.L166
 622 0524 02F58062 		add	r2, r2, #1024
 623 0528 9442     		cmp	r4, r2
 624 052a 22D0     		beq	.L166
 625 052c A2F56872 		sub	r2, r2, #928
 626 0530 9442     		cmp	r4, r2
 627 0532 1ED0     		beq	.L166
 628 0534 02F58062 		add	r2, r2, #1024
 629 0538 9442     		cmp	r4, r2
 630 053a 1AD0     		beq	.L166
ARM GAS  /tmp/ccH91rUp.s 			page 12


 631 053c A2F58962 		sub	r2, r2, #1096
 632 0540 9442     		cmp	r4, r2
 633 0542 19D0     		beq	.L169
 634 0544 02F58062 		add	r2, r2, #1024
 635 0548 9442     		cmp	r4, r2
 636 054a 15D0     		beq	.L169
 637 054c A2F56872 		sub	r2, r2, #928
 638 0550 9442     		cmp	r4, r2
 639 0552 11D0     		beq	.L169
 640 0554 02F58062 		add	r2, r2, #1024
 641 0558 9442     		cmp	r4, r2
 642 055a 14BF     		ite	ne
 643 055c 4FF00072 		movne	r2, #33554432
 644 0560 4FF40022 		moveq	r2, #524288
 645              	.L32:
 646 0564 0749     		ldr	r1, .L288+4
 647 0566 9C42     		cmp	r4, r3
 648 0568 8A60     		str	r2, [r1, #8]
 649 056a 40F0CC80 		bne	.L39
 650              	.L206:
 651 056e 0422     		movs	r2, #4
 652 0570 FBE0     		b	.L40
 653              	.L166:
 654 0572 4FF40072 		mov	r2, #512
 655 0576 F5E7     		b	.L32
 656              	.L169:
 657 0578 4FF40022 		mov	r2, #524288
 658 057c F2E7     		b	.L32
 659              	.L289:
 660 057e 00BF     		.align	2
 661              	.L288:
 662 0580 10640240 		.word	1073898512
 663 0584 00640240 		.word	1073898496
 664 0588 00600240 		.word	1073897472
 665              	.L33:
 666 058c 9D4A     		ldr	r2, .L290
 667 058e 9442     		cmp	r4, r2
 668 0590 3FF430AF 		beq	.L173
 669 0594 A2F56872 		sub	r2, r2, #928
 670 0598 9442     		cmp	r4, r2
 671 059a 3FF42BAF 		beq	.L173
 672 059e 02F58062 		add	r2, r2, #1024
 673 05a2 9442     		cmp	r4, r2
 674 05a4 3FF426AF 		beq	.L173
 675 05a8 A2F58962 		sub	r2, r2, #1096
 676 05ac 9442     		cmp	r4, r2
 677 05ae 26D0     		beq	.L177
 678 05b0 02F58062 		add	r2, r2, #1024
 679 05b4 9442     		cmp	r4, r2
 680 05b6 22D0     		beq	.L177
 681 05b8 A2F56872 		sub	r2, r2, #928
 682 05bc 9442     		cmp	r4, r2
 683 05be 1ED0     		beq	.L177
 684 05c0 02F58062 		add	r2, r2, #1024
 685 05c4 9442     		cmp	r4, r2
 686 05c6 1AD0     		beq	.L177
 687 05c8 A2F58962 		sub	r2, r2, #1096
ARM GAS  /tmp/ccH91rUp.s 			page 13


 688 05cc 9442     		cmp	r4, r2
 689 05ce 19D0     		beq	.L180
 690 05d0 02F58062 		add	r2, r2, #1024
 691 05d4 9442     		cmp	r4, r2
 692 05d6 15D0     		beq	.L180
 693 05d8 A2F56872 		sub	r2, r2, #928
 694 05dc 9442     		cmp	r4, r2
 695 05de 11D0     		beq	.L180
 696 05e0 02F58062 		add	r2, r2, #1024
 697 05e4 9442     		cmp	r4, r2
 698 05e6 14BF     		ite	ne
 699 05e8 4FF00072 		movne	r2, #33554432
 700 05ec 4FF40022 		moveq	r2, #524288
 701              	.L34:
 702 05f0 8549     		ldr	r1, .L290+4
 703 05f2 9C42     		cmp	r4, r3
 704 05f4 CA60     		str	r2, [r1, #12]
 705 05f6 40F0C580 		bne	.L41
 706              	.L217:
 707 05fa 0422     		movs	r2, #4
 708 05fc F4E0     		b	.L42
 709              	.L177:
 710 05fe 4FF40072 		mov	r2, #512
 711 0602 F5E7     		b	.L34
 712              	.L180:
 713 0604 4FF40022 		mov	r2, #524288
 714 0608 F2E7     		b	.L34
 715              	.L35:
 716 060a 7E4A     		ldr	r2, .L290
 717 060c 9442     		cmp	r4, r2
 718 060e 3FF430AF 		beq	.L184
 719 0612 A2F56872 		sub	r2, r2, #928
 720 0616 9442     		cmp	r4, r2
 721 0618 3FF42BAF 		beq	.L184
 722 061c 02F58062 		add	r2, r2, #1024
 723 0620 9442     		cmp	r4, r2
 724 0622 3FF426AF 		beq	.L184
 725 0626 A2F58962 		sub	r2, r2, #1096
 726 062a 9442     		cmp	r4, r2
 727 062c 26D0     		beq	.L188
 728 062e 02F58062 		add	r2, r2, #1024
 729 0632 9442     		cmp	r4, r2
 730 0634 22D0     		beq	.L188
 731 0636 A2F56872 		sub	r2, r2, #928
 732 063a 9442     		cmp	r4, r2
 733 063c 1ED0     		beq	.L188
 734 063e 02F58062 		add	r2, r2, #1024
 735 0642 9442     		cmp	r4, r2
 736 0644 1AD0     		beq	.L188
 737 0646 A2F58962 		sub	r2, r2, #1096
 738 064a 9442     		cmp	r4, r2
 739 064c 19D0     		beq	.L191
 740 064e 02F58062 		add	r2, r2, #1024
 741 0652 9442     		cmp	r4, r2
 742 0654 15D0     		beq	.L191
 743 0656 A2F56872 		sub	r2, r2, #928
 744 065a 9442     		cmp	r4, r2
ARM GAS  /tmp/ccH91rUp.s 			page 14


 745 065c 11D0     		beq	.L191
 746 065e 02F58062 		add	r2, r2, #1024
 747 0662 9442     		cmp	r4, r2
 748 0664 14BF     		ite	ne
 749 0666 4FF00072 		movne	r2, #33554432
 750 066a 4FF40022 		moveq	r2, #524288
 751              	.L36:
 752 066e 6649     		ldr	r1, .L290+4
 753 0670 9C42     		cmp	r4, r3
 754 0672 8A60     		str	r2, [r1, #8]
 755 0674 40F0CC80 		bne	.L43
 756              	.L228:
 757 0678 0422     		movs	r2, #4
 758 067a FBE0     		b	.L44
 759              	.L188:
 760 067c 4FF40072 		mov	r2, #512
 761 0680 F5E7     		b	.L36
 762              	.L191:
 763 0682 4FF40022 		mov	r2, #524288
 764 0686 F2E7     		b	.L36
 765              	.L37:
 766 0688 5E4A     		ldr	r2, .L290
 767 068a 9442     		cmp	r4, r2
 768 068c 3FF430AF 		beq	.L195
 769 0690 A2F56872 		sub	r2, r2, #928
 770 0694 9442     		cmp	r4, r2
 771 0696 3FF42BAF 		beq	.L195
 772 069a 02F58062 		add	r2, r2, #1024
 773 069e 9442     		cmp	r4, r2
 774 06a0 3FF426AF 		beq	.L195
 775 06a4 A2F58962 		sub	r2, r2, #1096
 776 06a8 9442     		cmp	r4, r2
 777 06aa 26D0     		beq	.L199
 778 06ac 02F58062 		add	r2, r2, #1024
 779 06b0 9442     		cmp	r4, r2
 780 06b2 22D0     		beq	.L199
 781 06b4 A2F56872 		sub	r2, r2, #928
 782 06b8 9442     		cmp	r4, r2
 783 06ba 1ED0     		beq	.L199
 784 06bc 02F58062 		add	r2, r2, #1024
 785 06c0 9442     		cmp	r4, r2
 786 06c2 1AD0     		beq	.L199
 787 06c4 A2F58962 		sub	r2, r2, #1096
 788 06c8 9442     		cmp	r4, r2
 789 06ca 19D0     		beq	.L202
 790 06cc 02F58062 		add	r2, r2, #1024
 791 06d0 9442     		cmp	r4, r2
 792 06d2 15D0     		beq	.L202
 793 06d4 A2F56872 		sub	r2, r2, #928
 794 06d8 9442     		cmp	r4, r2
 795 06da 11D0     		beq	.L202
 796 06dc 02F58062 		add	r2, r2, #1024
 797 06e0 9442     		cmp	r4, r2
 798 06e2 14BF     		ite	ne
 799 06e4 4FF08072 		movne	r2, #16777216
 800 06e8 4FF48022 		moveq	r2, #262144
 801              	.L38:
ARM GAS  /tmp/ccH91rUp.s 			page 15


 802 06ec 4749     		ldr	r1, .L290+8
 803 06ee 9C42     		cmp	r4, r3
 804 06f0 CA60     		str	r2, [r1, #12]
 805 06f2 40F0CC80 		bne	.L45
 806              	.L239:
 807 06f6 0123     		movs	r3, #1
 808 06f8 FBE0     		b	.L46
 809              	.L199:
 810 06fa 4FF48072 		mov	r2, #256
 811 06fe F5E7     		b	.L38
 812              	.L202:
 813 0700 4FF48022 		mov	r2, #262144
 814 0704 F2E7     		b	.L38
 815              	.L39:
 816 0706 3F4A     		ldr	r2, .L290
 817 0708 9442     		cmp	r4, r2
 818 070a 3FF430AF 		beq	.L206
 819 070e A2F56872 		sub	r2, r2, #928
 820 0712 9442     		cmp	r4, r2
 821 0714 3FF42BAF 		beq	.L206
 822 0718 02F58062 		add	r2, r2, #1024
 823 071c 9442     		cmp	r4, r2
 824 071e 3FF426AF 		beq	.L206
 825 0722 A2F58962 		sub	r2, r2, #1096
 826 0726 9442     		cmp	r4, r2
 827 0728 26D0     		beq	.L210
 828 072a 02F58062 		add	r2, r2, #1024
 829 072e 9442     		cmp	r4, r2
 830 0730 22D0     		beq	.L210
 831 0732 A2F56872 		sub	r2, r2, #928
 832 0736 9442     		cmp	r4, r2
 833 0738 1ED0     		beq	.L210
 834 073a 02F58062 		add	r2, r2, #1024
 835 073e 9442     		cmp	r4, r2
 836 0740 1AD0     		beq	.L210
 837 0742 A2F58962 		sub	r2, r2, #1096
 838 0746 9442     		cmp	r4, r2
 839 0748 19D0     		beq	.L213
 840 074a 02F58062 		add	r2, r2, #1024
 841 074e 9442     		cmp	r4, r2
 842 0750 15D0     		beq	.L213
 843 0752 A2F56872 		sub	r2, r2, #928
 844 0756 9442     		cmp	r4, r2
 845 0758 11D0     		beq	.L213
 846 075a 02F58062 		add	r2, r2, #1024
 847 075e 9442     		cmp	r4, r2
 848 0760 14BF     		ite	ne
 849 0762 4FF08072 		movne	r2, #16777216
 850 0766 4FF48022 		moveq	r2, #262144
 851              	.L40:
 852 076a 2849     		ldr	r1, .L290+8
 853 076c 9C42     		cmp	r4, r3
 854 076e 8A60     		str	r2, [r1, #8]
 855 0770 40F0DD80 		bne	.L47
 856              	.L250:
 857 0774 0123     		movs	r3, #1
 858 0776 0CE1     		b	.L48
ARM GAS  /tmp/ccH91rUp.s 			page 16


 859              	.L210:
 860 0778 4FF48072 		mov	r2, #256
 861 077c F5E7     		b	.L40
 862              	.L213:
 863 077e 4FF48022 		mov	r2, #262144
 864 0782 F2E7     		b	.L40
 865              	.L41:
 866 0784 1F4A     		ldr	r2, .L290
 867 0786 9442     		cmp	r4, r2
 868 0788 3FF437AF 		beq	.L217
 869 078c A2F56872 		sub	r2, r2, #928
 870 0790 9442     		cmp	r4, r2
 871 0792 3FF432AF 		beq	.L217
 872 0796 02F58062 		add	r2, r2, #1024
 873 079a 9442     		cmp	r4, r2
 874 079c 3FF42DAF 		beq	.L217
 875 07a0 A2F58962 		sub	r2, r2, #1096
 876 07a4 9442     		cmp	r4, r2
 877 07a6 26D0     		beq	.L221
 878 07a8 02F58062 		add	r2, r2, #1024
 879 07ac 9442     		cmp	r4, r2
 880 07ae 22D0     		beq	.L221
 881 07b0 A2F56872 		sub	r2, r2, #928
 882 07b4 9442     		cmp	r4, r2
 883 07b6 1ED0     		beq	.L221
 884 07b8 02F58062 		add	r2, r2, #1024
 885 07bc 9442     		cmp	r4, r2
 886 07be 1AD0     		beq	.L221
 887 07c0 A2F58962 		sub	r2, r2, #1096
 888 07c4 9442     		cmp	r4, r2
 889 07c6 19D0     		beq	.L224
 890 07c8 02F58062 		add	r2, r2, #1024
 891 07cc 9442     		cmp	r4, r2
 892 07ce 15D0     		beq	.L224
 893 07d0 A2F56872 		sub	r2, r2, #928
 894 07d4 9442     		cmp	r4, r2
 895 07d6 11D0     		beq	.L224
 896 07d8 02F58062 		add	r2, r2, #1024
 897 07dc 9442     		cmp	r4, r2
 898 07de 14BF     		ite	ne
 899 07e0 4FF08072 		movne	r2, #16777216
 900 07e4 4FF48022 		moveq	r2, #262144
 901              	.L42:
 902 07e8 0749     		ldr	r1, .L290+4
 903 07ea 9C42     		cmp	r4, r3
 904 07ec CA60     		str	r2, [r1, #12]
 905 07ee 40F0D880 		bne	.L49
 906              	.L261:
 907 07f2 0123     		movs	r3, #1
 908 07f4 07E1     		b	.L50
 909              	.L221:
 910 07f6 4FF48072 		mov	r2, #256
 911 07fa F5E7     		b	.L42
 912              	.L224:
 913 07fc 4FF48022 		mov	r2, #262144
 914 0800 F2E7     		b	.L42
 915              	.L291:
ARM GAS  /tmp/ccH91rUp.s 			page 17


 916 0802 00BF     		.align	2
 917              	.L290:
 918 0804 10640240 		.word	1073898512
 919 0808 00600240 		.word	1073897472
 920 080c 00640240 		.word	1073898496
 921              	.L43:
 922 0810 9F4A     		ldr	r2, .L292
 923 0812 9442     		cmp	r4, r2
 924 0814 3FF430AF 		beq	.L228
 925 0818 A2F56872 		sub	r2, r2, #928
 926 081c 9442     		cmp	r4, r2
 927 081e 3FF42BAF 		beq	.L228
 928 0822 02F58062 		add	r2, r2, #1024
 929 0826 9442     		cmp	r4, r2
 930 0828 3FF426AF 		beq	.L228
 931 082c A2F58962 		sub	r2, r2, #1096
 932 0830 9442     		cmp	r4, r2
 933 0832 26D0     		beq	.L232
 934 0834 02F58062 		add	r2, r2, #1024
 935 0838 9442     		cmp	r4, r2
 936 083a 22D0     		beq	.L232
 937 083c A2F56872 		sub	r2, r2, #928
 938 0840 9442     		cmp	r4, r2
 939 0842 1ED0     		beq	.L232
 940 0844 02F58062 		add	r2, r2, #1024
 941 0848 9442     		cmp	r4, r2
 942 084a 1AD0     		beq	.L232
 943 084c A2F58962 		sub	r2, r2, #1096
 944 0850 9442     		cmp	r4, r2
 945 0852 19D0     		beq	.L235
 946 0854 02F58062 		add	r2, r2, #1024
 947 0858 9442     		cmp	r4, r2
 948 085a 15D0     		beq	.L235
 949 085c A2F56872 		sub	r2, r2, #928
 950 0860 9442     		cmp	r4, r2
 951 0862 11D0     		beq	.L235
 952 0864 02F58062 		add	r2, r2, #1024
 953 0868 9442     		cmp	r4, r2
 954 086a 14BF     		ite	ne
 955 086c 4FF08072 		movne	r2, #16777216
 956 0870 4FF48022 		moveq	r2, #262144
 957              	.L44:
 958 0874 8749     		ldr	r1, .L292+4
 959 0876 9C42     		cmp	r4, r3
 960 0878 8A60     		str	r2, [r1, #8]
 961 087a 40F0CB80 		bne	.L51
 962              	.L272:
 963 087e 0123     		movs	r3, #1
 964 0880 FAE0     		b	.L52
 965              	.L232:
 966 0882 4FF48072 		mov	r2, #256
 967 0886 F5E7     		b	.L44
 968              	.L235:
 969 0888 4FF48022 		mov	r2, #262144
 970 088c F2E7     		b	.L44
 971              	.L45:
 972 088e 804B     		ldr	r3, .L292
ARM GAS  /tmp/ccH91rUp.s 			page 18


 973 0890 9C42     		cmp	r4, r3
 974 0892 3FF430AF 		beq	.L239
 975 0896 A3F56873 		sub	r3, r3, #928
 976 089a 9C42     		cmp	r4, r3
 977 089c 3FF42BAF 		beq	.L239
 978 08a0 03F58063 		add	r3, r3, #1024
 979 08a4 9C42     		cmp	r4, r3
 980 08a6 3FF426AF 		beq	.L239
 981 08aa A3F58963 		sub	r3, r3, #1096
 982 08ae 9C42     		cmp	r4, r3
 983 08b0 38D0     		beq	.L243
 984 08b2 03F58063 		add	r3, r3, #1024
 985 08b6 9C42     		cmp	r4, r3
 986 08b8 34D0     		beq	.L243
 987 08ba A3F56873 		sub	r3, r3, #928
 988 08be 9C42     		cmp	r4, r3
 989 08c0 30D0     		beq	.L243
 990 08c2 03F58063 		add	r3, r3, #1024
 991 08c6 9C42     		cmp	r4, r3
 992 08c8 2CD0     		beq	.L243
 993 08ca A3F58963 		sub	r3, r3, #1096
 994 08ce 9C42     		cmp	r4, r3
 995 08d0 2AD0     		beq	.L246
 996 08d2 03F58063 		add	r3, r3, #1024
 997 08d6 9C42     		cmp	r4, r3
 998 08d8 26D0     		beq	.L246
 999 08da A3F56873 		sub	r3, r3, #928
 1000 08de 9C42     		cmp	r4, r3
 1001 08e0 22D0     		beq	.L246
 1002 08e2 03F58063 		add	r3, r3, #1024
 1003 08e6 9C42     		cmp	r4, r3
 1004 08e8 14BF     		ite	ne
 1005 08ea 4FF48003 		movne	r3, #4194304
 1006 08ee 4FF48033 		moveq	r3, #65536
 1007              	.L46:
 1008 08f2 694A     		ldr	r2, .L292+8
 1009              	.L285:
 1010 08f4 D360     		str	r3, [r2, #12]
 1011              	.L53:
 1012 08f6 2368     		ldr	r3, [r4]
 1013 08f8 43F01603 		orr	r3, r3, #22
 1014 08fc 2360     		str	r3, [r4]
 1015 08fe 6369     		ldr	r3, [r4, #20]
 1016 0900 43F08003 		orr	r3, r3, #128
 1017 0904 6361     		str	r3, [r4, #20]
 1018 0906 036C     		ldr	r3, [r0, #64]
 1019 0908 0BB9     		cbnz	r3, .L54
 1020 090a 836C     		ldr	r3, [r0, #72]
 1021 090c 1BB1     		cbz	r3, .L55
 1022              	.L54:
 1023 090e 2368     		ldr	r3, [r4]
 1024 0910 43F00803 		orr	r3, r3, #8
 1025 0914 2360     		str	r3, [r4]
 1026              	.L55:
 1027 0916 2368     		ldr	r3, [r4]
 1028 0918 0020     		movs	r0, #0
 1029 091a 43F00103 		orr	r3, r3, #1
ARM GAS  /tmp/ccH91rUp.s 			page 19


 1030 091e 2360     		str	r3, [r4]
 1031 0920 FFF776BB 		b	.L10
 1032              	.L243:
 1033 0924 4023     		movs	r3, #64
 1034 0926 E4E7     		b	.L46
 1035              	.L246:
 1036 0928 4FF48033 		mov	r3, #65536
 1037 092c E1E7     		b	.L46
 1038              	.L47:
 1039 092e 584B     		ldr	r3, .L292
 1040 0930 9C42     		cmp	r4, r3
 1041 0932 3FF41FAF 		beq	.L250
 1042 0936 A3F56873 		sub	r3, r3, #928
 1043 093a 9C42     		cmp	r4, r3
 1044 093c 3FF41AAF 		beq	.L250
 1045 0940 03F58063 		add	r3, r3, #1024
 1046 0944 9C42     		cmp	r4, r3
 1047 0946 3FF415AF 		beq	.L250
 1048 094a A3F58963 		sub	r3, r3, #1096
 1049 094e 9C42     		cmp	r4, r3
 1050 0950 22D0     		beq	.L254
 1051 0952 03F58063 		add	r3, r3, #1024
 1052 0956 9C42     		cmp	r4, r3
 1053 0958 1ED0     		beq	.L254
 1054 095a A3F56873 		sub	r3, r3, #928
 1055 095e 9C42     		cmp	r4, r3
 1056 0960 1AD0     		beq	.L254
 1057 0962 03F58063 		add	r3, r3, #1024
 1058 0966 9C42     		cmp	r4, r3
 1059 0968 16D0     		beq	.L254
 1060 096a A3F58963 		sub	r3, r3, #1096
 1061 096e 9C42     		cmp	r4, r3
 1062 0970 14D0     		beq	.L257
 1063 0972 03F58063 		add	r3, r3, #1024
 1064 0976 9C42     		cmp	r4, r3
 1065 0978 10D0     		beq	.L257
 1066 097a A3F56873 		sub	r3, r3, #928
 1067 097e 9C42     		cmp	r4, r3
 1068 0980 0CD0     		beq	.L257
 1069 0982 03F58063 		add	r3, r3, #1024
 1070 0986 9C42     		cmp	r4, r3
 1071 0988 14BF     		ite	ne
 1072 098a 4FF48003 		movne	r3, #4194304
 1073 098e 4FF48033 		moveq	r3, #65536
 1074              	.L48:
 1075 0992 414A     		ldr	r2, .L292+8
 1076              	.L284:
 1077 0994 9360     		str	r3, [r2, #8]
 1078 0996 AEE7     		b	.L53
 1079              	.L254:
 1080 0998 4023     		movs	r3, #64
 1081 099a FAE7     		b	.L48
 1082              	.L257:
 1083 099c 4FF48033 		mov	r3, #65536
 1084 09a0 F7E7     		b	.L48
 1085              	.L49:
 1086 09a2 3B4B     		ldr	r3, .L292
ARM GAS  /tmp/ccH91rUp.s 			page 20


 1087 09a4 9C42     		cmp	r4, r3
 1088 09a6 3FF424AF 		beq	.L261
 1089 09aa A3F56873 		sub	r3, r3, #928
 1090 09ae 9C42     		cmp	r4, r3
 1091 09b0 3FF41FAF 		beq	.L261
 1092 09b4 03F58063 		add	r3, r3, #1024
 1093 09b8 9C42     		cmp	r4, r3
 1094 09ba 3FF41AAF 		beq	.L261
 1095 09be A3F58963 		sub	r3, r3, #1096
 1096 09c2 9C42     		cmp	r4, r3
 1097 09c4 21D0     		beq	.L265
 1098 09c6 03F58063 		add	r3, r3, #1024
 1099 09ca 9C42     		cmp	r4, r3
 1100 09cc 1DD0     		beq	.L265
 1101 09ce A3F56873 		sub	r3, r3, #928
 1102 09d2 9C42     		cmp	r4, r3
 1103 09d4 19D0     		beq	.L265
 1104 09d6 03F58063 		add	r3, r3, #1024
 1105 09da 9C42     		cmp	r4, r3
 1106 09dc 15D0     		beq	.L265
 1107 09de A3F58963 		sub	r3, r3, #1096
 1108 09e2 9C42     		cmp	r4, r3
 1109 09e4 13D0     		beq	.L268
 1110 09e6 03F58063 		add	r3, r3, #1024
 1111 09ea 9C42     		cmp	r4, r3
 1112 09ec 0FD0     		beq	.L268
 1113 09ee A3F56873 		sub	r3, r3, #928
 1114 09f2 9C42     		cmp	r4, r3
 1115 09f4 0BD0     		beq	.L268
 1116 09f6 03F58063 		add	r3, r3, #1024
 1117 09fa 9C42     		cmp	r4, r3
 1118 09fc 14BF     		ite	ne
 1119 09fe 4FF48003 		movne	r3, #4194304
 1120 0a02 4FF48033 		moveq	r3, #65536
 1121              	.L50:
 1122 0a06 234A     		ldr	r2, .L292+4
 1123 0a08 74E7     		b	.L285
 1124              	.L265:
 1125 0a0a 4023     		movs	r3, #64
 1126 0a0c FBE7     		b	.L50
 1127              	.L268:
 1128 0a0e 4FF48033 		mov	r3, #65536
 1129 0a12 F8E7     		b	.L50
 1130              	.L51:
 1131 0a14 1E4B     		ldr	r3, .L292
 1132 0a16 9C42     		cmp	r4, r3
 1133 0a18 3FF431AF 		beq	.L272
 1134 0a1c A3F56873 		sub	r3, r3, #928
 1135 0a20 9C42     		cmp	r4, r3
 1136 0a22 3FF42CAF 		beq	.L272
 1137 0a26 03F58063 		add	r3, r3, #1024
 1138 0a2a 9C42     		cmp	r4, r3
 1139 0a2c 3FF427AF 		beq	.L272
 1140 0a30 A3F58963 		sub	r3, r3, #1096
 1141 0a34 9C42     		cmp	r4, r3
 1142 0a36 21D0     		beq	.L276
 1143 0a38 03F58063 		add	r3, r3, #1024
ARM GAS  /tmp/ccH91rUp.s 			page 21


 1144 0a3c 9C42     		cmp	r4, r3
 1145 0a3e 1DD0     		beq	.L276
 1146 0a40 A3F56873 		sub	r3, r3, #928
 1147 0a44 9C42     		cmp	r4, r3
 1148 0a46 19D0     		beq	.L276
 1149 0a48 03F58063 		add	r3, r3, #1024
 1150 0a4c 9C42     		cmp	r4, r3
 1151 0a4e 15D0     		beq	.L276
 1152 0a50 A3F58963 		sub	r3, r3, #1096
 1153 0a54 9C42     		cmp	r4, r3
 1154 0a56 13D0     		beq	.L279
 1155 0a58 03F58063 		add	r3, r3, #1024
 1156 0a5c 9C42     		cmp	r4, r3
 1157 0a5e 0FD0     		beq	.L279
 1158 0a60 A3F56873 		sub	r3, r3, #928
 1159 0a64 9C42     		cmp	r4, r3
 1160 0a66 0BD0     		beq	.L279
 1161 0a68 03F58063 		add	r3, r3, #1024
 1162 0a6c 9C42     		cmp	r4, r3
 1163 0a6e 14BF     		ite	ne
 1164 0a70 4FF48003 		movne	r3, #4194304
 1165 0a74 4FF48033 		moveq	r3, #65536
 1166              	.L52:
 1167 0a78 064A     		ldr	r2, .L292+4
 1168 0a7a 8BE7     		b	.L284
 1169              	.L276:
 1170 0a7c 4023     		movs	r3, #64
 1171 0a7e FBE7     		b	.L52
 1172              	.L279:
 1173 0a80 4FF48033 		mov	r3, #65536
 1174 0a84 F8E7     		b	.L52
 1175              	.L11:
 1176 0a86 80F83450 		strb	r5, [r0, #52]
 1177              	.L56:
 1178 0a8a 0220     		movs	r0, #2
 1179 0a8c FFF7C0BA 		b	.L10
 1180              	.L293:
 1181              		.align	2
 1182              	.L292:
 1183 0a90 10640240 		.word	1073898512
 1184 0a94 00600240 		.word	1073897472
 1185 0a98 00640240 		.word	1073898496
 1187              		.section	.text.HAL_DMAEx_ChangeMemory,"ax",%progbits
 1188              		.align	1
 1189              		.global	HAL_DMAEx_ChangeMemory
 1190              		.syntax unified
 1191              		.thumb
 1192              		.thumb_func
 1193              		.fpu fpv5-sp-d16
 1195              	HAL_DMAEx_ChangeMemory:
 1196              		@ args = 0, pretend = 0, frame = 0
 1197              		@ frame_needed = 0, uses_anonymous_args = 0
 1198              		@ link register save eliminated.
 1199 0000 0368     		ldr	r3, [r0]
 1200 0002 12B9     		cbnz	r2, .L295
 1201 0004 D960     		str	r1, [r3, #12]
 1202              	.L296:
ARM GAS  /tmp/ccH91rUp.s 			page 22


 1203 0006 0020     		movs	r0, #0
 1204 0008 7047     		bx	lr
 1205              	.L295:
 1206 000a 1961     		str	r1, [r3, #16]
 1207 000c FBE7     		b	.L296
 1209              		.ident	"GCC: (15:10.3-2021.07-4) 10.3.1 20210621 (release)"
ARM GAS  /tmp/ccH91rUp.s 			page 23

