ARM GAS  /tmp/cc1aCetU.s 			page 1


   1              		.cpu cortex-m7
   2              		.eabi_attribute 27, 1
   3              		.eabi_attribute 20, 1
   4              		.eabi_attribute 21, 1
   5              		.eabi_attribute 23, 3
   6              		.eabi_attribute 24, 1
   7              		.eabi_attribute 25, 1
   8              		.eabi_attribute 26, 1
   9              		.eabi_attribute 30, 4
  10              		.eabi_attribute 34, 1
  11              		.eabi_attribute 18, 4
  12              		.file	"stm32f7xx_hal_flash_ex.c"
  13              		.text
  14              		.section	.text.FLASH_MassErase,"ax",%progbits
  15              		.align	1
  16              		.arch armv7e-m
  17              		.syntax unified
  18              		.thumb
  19              		.thumb_func
  20              		.fpu fpv5-sp-d16
  22              	FLASH_MassErase:
  23              		@ args = 0, pretend = 0, frame = 0
  24              		@ frame_needed = 0, uses_anonymous_args = 0
  25              		@ link register save eliminated.
  26 0000 084B     		ldr	r3, .L2
  27 0002 1969     		ldr	r1, [r3, #16]
  28 0004 21F44071 		bic	r1, r1, #768
  29 0008 1961     		str	r1, [r3, #16]
  30 000a 1969     		ldr	r1, [r3, #16]
  31 000c 41F00401 		orr	r1, r1, #4
  32 0010 1961     		str	r1, [r3, #16]
  33 0012 1A69     		ldr	r2, [r3, #16]
  34 0014 42EA0020 		orr	r0, r2, r0, lsl #8
  35 0018 40F48030 		orr	r0, r0, #65536
  36 001c 1861     		str	r0, [r3, #16]
  37              		.syntax unified
  38              	@ 879 "Drivers/CMSIS/Include/cmsis_gcc.h" 1
  39 001e BFF34F8F 		dsb 0xF
  40              	@ 0 "" 2
  41              		.thumb
  42              		.syntax unified
  43 0022 7047     		bx	lr
  44              	.L3:
  45              		.align	2
  46              	.L2:
  47 0024 003C0240 		.word	1073888256
  49              		.section	.text.HAL_FLASHEx_OBProgram,"ax",%progbits
  50              		.align	1
  51              		.global	HAL_FLASHEx_OBProgram
  52              		.syntax unified
  53              		.thumb
  54              		.thumb_func
  55              		.fpu fpv5-sp-d16
  57              	HAL_FLASHEx_OBProgram:
  58              		@ args = 0, pretend = 0, frame = 0
  59              		@ frame_needed = 0, uses_anonymous_args = 0
  60 0000 70B5     		push	{r4, r5, r6, lr}
ARM GAS  /tmp/cc1aCetU.s 			page 2


  61 0002 484D     		ldr	r5, .L39
  62 0004 0446     		mov	r4, r0
  63 0006 2B7D     		ldrb	r3, [r5, #20]	@ zero_extendqisi2
  64 0008 012B     		cmp	r3, #1
  65 000a 00F08980 		beq	.L15
  66 000e 0120     		movs	r0, #1
  67 0010 2875     		strb	r0, [r5, #20]
  68 0012 2368     		ldr	r3, [r4]
  69 0014 DE07     		lsls	r6, r3, #31
  70 0016 0DD5     		bpl	.L6
  71 0018 D4E90136 		ldrd	r3, r6, [r4, #4]
  72 001c 8342     		cmp	r3, r0
  73 001e 4CF25030 		movw	r0, #50000
  74 0022 75D1     		bne	.L7
  75 0024 FFF7FEFF 		bl	FLASH_WaitForLastOperation
  76 0028 20B9     		cbnz	r0, .L6
  77 002a 3F4A     		ldr	r2, .L39+4
  78 002c 5369     		ldr	r3, [r2, #20]
  79 002e 23EA0603 		bic	r3, r3, r6
  80              	.L38:
  81 0032 5361     		str	r3, [r2, #20]
  82              	.L6:
  83 0034 2368     		ldr	r3, [r4]
  84 0036 9907     		lsls	r1, r3, #30
  85 0038 08D5     		bpl	.L8
  86 003a 4CF25030 		movw	r0, #50000
  87 003e E668     		ldr	r6, [r4, #12]
  88 0040 FFF7FEFF 		bl	FLASH_WaitForLastOperation
  89 0044 10B9     		cbnz	r0, .L8
  90 0046 F6B2     		uxtb	r6, r6
  91 0048 374B     		ldr	r3, .L39+4
  92 004a 5E75     		strb	r6, [r3, #21]
  93              	.L8:
  94 004c 2368     		ldr	r3, [r4]
  95 004e 5A07     		lsls	r2, r3, #29
  96 0050 15D5     		bpl	.L9
  97 0052 4CF25030 		movw	r0, #50000
  98 0056 6669     		ldr	r6, [r4, #20]
  99 0058 FFF7FEFF 		bl	FLASH_WaitForLastOperation
 100 005c 78B9     		cbnz	r0, .L9
 101 005e 324A     		ldr	r2, .L39+4
 102 0060 26F07F56 		bic	r6, r6, #1069547520
 103 0064 5369     		ldr	r3, [r2, #20]
 104 0066 26F47F16 		bic	r6, r6, #4177920
 105 006a 23F04043 		bic	r3, r3, #-1073741824
 106 006e 26F47C56 		bic	r6, r6, #16128
 107 0072 23F0F003 		bic	r3, r3, #240
 108 0076 26F00F06 		bic	r6, r6, #15
 109 007a 1E43     		orrs	r6, r6, r3
 110 007c 5661     		str	r6, [r2, #20]
 111              	.L9:
 112 007e 2168     		ldr	r1, [r4]
 113 0080 0B07     		lsls	r3, r1, #28
 114 0082 07D5     		bpl	.L10
 115 0084 2848     		ldr	r0, .L39+4
 116 0086 237C     		ldrb	r3, [r4, #16]	@ zero_extendqisi2
 117 0088 4269     		ldr	r2, [r0, #20]
ARM GAS  /tmp/cc1aCetU.s 			page 3


 118 008a 22F00C02 		bic	r2, r2, #12
 119 008e 1343     		orrs	r3, r3, r2
 120 0090 4361     		str	r3, [r0, #20]
 121 0092 0020     		movs	r0, #0
 122              	.L10:
 123 0094 CE06     		lsls	r6, r1, #27
 124 0096 0BD5     		bpl	.L11
 125 0098 4CF25030 		movw	r0, #50000
 126 009c A669     		ldr	r6, [r4, #24]
 127 009e FFF7FEFF 		bl	FLASH_WaitForLastOperation
 128 00a2 28B9     		cbnz	r0, .L11
 129 00a4 204A     		ldr	r2, .L39+4
 130 00a6 9369     		ldr	r3, [r2, #24]
 131 00a8 1B0C     		lsrs	r3, r3, #16
 132 00aa 1B04     		lsls	r3, r3, #16
 133 00ac 3343     		orrs	r3, r3, r6
 134 00ae 9361     		str	r3, [r2, #24]
 135              	.L11:
 136 00b0 2368     		ldr	r3, [r4]
 137 00b2 9906     		lsls	r1, r3, #26
 138 00b4 0BD5     		bpl	.L12
 139 00b6 4CF25030 		movw	r0, #50000
 140 00ba E669     		ldr	r6, [r4, #28]
 141 00bc FFF7FEFF 		bl	FLASH_WaitForLastOperation
 142 00c0 28B9     		cbnz	r0, .L12
 143 00c2 194A     		ldr	r2, .L39+4
 144 00c4 9369     		ldr	r3, [r2, #24]
 145 00c6 9BB2     		uxth	r3, r3
 146 00c8 43EA0643 		orr	r3, r3, r6, lsl #16
 147 00cc 9361     		str	r3, [r2, #24]
 148              	.L12:
 149 00ce 2368     		ldr	r3, [r4]
 150 00d0 5A06     		lsls	r2, r3, #25
 151 00d2 0BD5     		bpl	.L13
 152 00d4 4CF25030 		movw	r0, #50000
 153 00d8 266A     		ldr	r6, [r4, #32]
 154 00da FFF7FEFF 		bl	FLASH_WaitForLastOperation
 155 00de 28B9     		cbnz	r0, .L13
 156 00e0 114A     		ldr	r2, .L39+4
 157 00e2 D369     		ldr	r3, [r2, #28]
 158 00e4 23F0FF03 		bic	r3, r3, #255
 159 00e8 3343     		orrs	r3, r3, r6
 160 00ea D361     		str	r3, [r2, #28]
 161              	.L13:
 162 00ec 2368     		ldr	r3, [r4]
 163 00ee 1B06     		lsls	r3, r3, #24
 164 00f0 0BD5     		bpl	.L14
 165 00f2 4CF25030 		movw	r0, #50000
 166 00f6 646A     		ldr	r4, [r4, #36]
 167 00f8 FFF7FEFF 		bl	FLASH_WaitForLastOperation
 168 00fc 28B9     		cbnz	r0, .L14
 169 00fe 0A4A     		ldr	r2, .L39+4
 170 0100 D369     		ldr	r3, [r2, #28]
 171 0102 23F00043 		bic	r3, r3, #-2147483648
 172 0106 2343     		orrs	r3, r3, r4
 173 0108 D361     		str	r3, [r2, #28]
 174              	.L14:
ARM GAS  /tmp/cc1aCetU.s 			page 4


 175 010a 0023     		movs	r3, #0
 176 010c 2B75     		strb	r3, [r5, #20]
 177              	.L5:
 178 010e 70BD     		pop	{r4, r5, r6, pc}
 179              	.L7:
 180 0110 FFF7FEFF 		bl	FLASH_WaitForLastOperation
 181 0114 0028     		cmp	r0, #0
 182 0116 8DD1     		bne	.L6
 183 0118 034A     		ldr	r2, .L39+4
 184 011a 5369     		ldr	r3, [r2, #20]
 185 011c 3343     		orrs	r3, r3, r6
 186 011e 88E7     		b	.L38
 187              	.L15:
 188 0120 0220     		movs	r0, #2
 189 0122 F4E7     		b	.L5
 190              	.L40:
 191              		.align	2
 192              	.L39:
 193 0124 00000000 		.word	pFlash
 194 0128 003C0240 		.word	1073888256
 196              		.section	.text.HAL_FLASHEx_OBGetConfig,"ax",%progbits
 197              		.align	1
 198              		.global	HAL_FLASHEx_OBGetConfig
 199              		.syntax unified
 200              		.thumb
 201              		.thumb_func
 202              		.fpu fpv5-sp-d16
 204              	HAL_FLASHEx_OBGetConfig:
 205              		@ args = 0, pretend = 0, frame = 0
 206              		@ frame_needed = 0, uses_anonymous_args = 0
 207              		@ link register save eliminated.
 208 0000 3F23     		movs	r3, #63
 209 0002 0360     		str	r3, [r0]
 210 0004 144B     		ldr	r3, .L48
 211 0006 5A69     		ldr	r2, [r3, #20]
 212 0008 02F47F02 		and	r2, r2, #16711680
 213 000c 8260     		str	r2, [r0, #8]
 214 000e 597D     		ldrb	r1, [r3, #21]	@ zero_extendqisi2
 215 0010 AA29     		cmp	r1, #170
 216 0012 CAB2     		uxtb	r2, r1
 217 0014 03D0     		beq	.L42
 218 0016 5A7D     		ldrb	r2, [r3, #21]	@ zero_extendqisi2
 219 0018 CC2A     		cmp	r2, #204
 220 001a 18BF     		it	ne
 221 001c 5522     		movne	r2, #85
 222              	.L42:
 223 001e C260     		str	r2, [r0, #12]
 224 0020 5A69     		ldr	r2, [r3, #20]
 225 0022 22F07F52 		bic	r2, r2, #1069547520
 226 0026 22F47F12 		bic	r2, r2, #4177920
 227 002a 22F47C52 		bic	r2, r2, #16128
 228 002e 22F00F02 		bic	r2, r2, #15
 229 0032 4261     		str	r2, [r0, #20]
 230 0034 5A69     		ldr	r2, [r3, #20]
 231 0036 02F00C02 		and	r2, r2, #12
 232 003a 0261     		str	r2, [r0, #16]
 233 003c 9A69     		ldr	r2, [r3, #24]
ARM GAS  /tmp/cc1aCetU.s 			page 5


 234 003e 92B2     		uxth	r2, r2
 235 0040 8261     		str	r2, [r0, #24]
 236 0042 9A69     		ldr	r2, [r3, #24]
 237 0044 120C     		lsrs	r2, r2, #16
 238 0046 C261     		str	r2, [r0, #28]
 239 0048 DA69     		ldr	r2, [r3, #28]
 240 004a D2B2     		uxtb	r2, r2
 241 004c 0262     		str	r2, [r0, #32]
 242 004e DB69     		ldr	r3, [r3, #28]
 243 0050 03F00043 		and	r3, r3, #-2147483648
 244 0054 4362     		str	r3, [r0, #36]
 245 0056 7047     		bx	lr
 246              	.L49:
 247              		.align	2
 248              	.L48:
 249 0058 003C0240 		.word	1073888256
 251              		.section	.text.FLASH_Erase_Sector,"ax",%progbits
 252              		.align	1
 253              		.global	FLASH_Erase_Sector
 254              		.syntax unified
 255              		.thumb
 256              		.thumb_func
 257              		.fpu fpv5-sp-d16
 259              	FLASH_Erase_Sector:
 260              		@ args = 0, pretend = 0, frame = 0
 261              		@ frame_needed = 0, uses_anonymous_args = 0
 262              		@ link register save eliminated.
 263 0000 39B1     		cbz	r1, .L51
 264 0002 0129     		cmp	r1, #1
 265 0004 1ED0     		beq	.L53
 266 0006 0229     		cmp	r1, #2
 267 0008 0CBF     		ite	eq
 268 000a 4FF40071 		moveq	r1, #512
 269 000e 4FF44071 		movne	r1, #768
 270              	.L51:
 271 0012 0E4B     		ldr	r3, .L55
 272 0014 1A69     		ldr	r2, [r3, #16]
 273 0016 22F44072 		bic	r2, r2, #768
 274 001a 1A61     		str	r2, [r3, #16]
 275 001c 1A69     		ldr	r2, [r3, #16]
 276 001e 1143     		orrs	r1, r1, r2
 277 0020 1961     		str	r1, [r3, #16]
 278 0022 1A69     		ldr	r2, [r3, #16]
 279 0024 22F0F802 		bic	r2, r2, #248
 280 0028 1A61     		str	r2, [r3, #16]
 281 002a 1A69     		ldr	r2, [r3, #16]
 282 002c 42EAC000 		orr	r0, r2, r0, lsl #3
 283 0030 40F00200 		orr	r0, r0, #2
 284 0034 1861     		str	r0, [r3, #16]
 285 0036 1A69     		ldr	r2, [r3, #16]
 286 0038 42F48032 		orr	r2, r2, #65536
 287 003c 1A61     		str	r2, [r3, #16]
 288              		.syntax unified
 289              	@ 879 "Drivers/CMSIS/Include/cmsis_gcc.h" 1
 290 003e BFF34F8F 		dsb 0xF
 291              	@ 0 "" 2
 292              		.thumb
ARM GAS  /tmp/cc1aCetU.s 			page 6


 293              		.syntax unified
 294 0042 7047     		bx	lr
 295              	.L53:
 296 0044 4FF48071 		mov	r1, #256
 297 0048 E3E7     		b	.L51
 298              	.L56:
 299 004a 00BF     		.align	2
 300              	.L55:
 301 004c 003C0240 		.word	1073888256
 303              		.section	.text.HAL_FLASHEx_Erase,"ax",%progbits
 304              		.align	1
 305              		.global	HAL_FLASHEx_Erase
 306              		.syntax unified
 307              		.thumb
 308              		.thumb_func
 309              		.fpu fpv5-sp-d16
 311              	HAL_FLASHEx_Erase:
 312              		@ args = 0, pretend = 0, frame = 0
 313              		@ frame_needed = 0, uses_anonymous_args = 0
 314 0000 2DE9F843 		push	{r3, r4, r5, r6, r7, r8, r9, lr}
 315 0004 DFF89080 		ldr	r8, .L65+4
 316 0008 0546     		mov	r5, r0
 317 000a 0F46     		mov	r7, r1
 318 000c 98F81430 		ldrb	r3, [r8, #20]	@ zero_extendqisi2
 319 0010 012B     		cmp	r3, #1
 320 0012 3DD0     		beq	.L64
 321 0014 0123     		movs	r3, #1
 322 0016 4CF25030 		movw	r0, #50000
 323 001a 88F81430 		strb	r3, [r8, #20]
 324 001e FFF7FEFF 		bl	FLASH_WaitForLastOperation
 325 0022 0446     		mov	r4, r0
 326 0024 90B9     		cbnz	r0, .L59
 327 0026 4FF0FF33 		mov	r3, #-1
 328 002a 3B60     		str	r3, [r7]
 329 002c 2B68     		ldr	r3, [r5]
 330 002e 012B     		cmp	r3, #1
 331 0030 12D1     		bne	.L60
 332 0032 287B     		ldrb	r0, [r5, #12]	@ zero_extendqisi2
 333 0034 FFF7FEFF 		bl	FLASH_MassErase
 334 0038 4CF25030 		movw	r0, #50000
 335 003c FFF7FEFF 		bl	FLASH_WaitForLastOperation
 336 0040 144A     		ldr	r2, .L65
 337 0042 0446     		mov	r4, r0
 338 0044 1369     		ldr	r3, [r2, #16]
 339 0046 23F00403 		bic	r3, r3, #4
 340 004a 1361     		str	r3, [r2, #16]
 341              	.L59:
 342 004c 0023     		movs	r3, #0
 343 004e 88F81430 		strb	r3, [r8, #20]
 344              	.L58:
 345 0052 2046     		mov	r0, r4
 346 0054 BDE8F883 		pop	{r3, r4, r5, r6, r7, r8, r9, pc}
 347              	.L60:
 348 0058 6E68     		ldr	r6, [r5, #4]
 349 005a DFF83890 		ldr	r9, .L65
 350              	.L61:
 351 005e D5E90123 		ldrd	r2, r3, [r5, #4]
ARM GAS  /tmp/cc1aCetU.s 			page 7


 352 0062 1344     		add	r3, r3, r2
 353 0064 B342     		cmp	r3, r6
 354 0066 F1D9     		bls	.L59
 355 0068 297B     		ldrb	r1, [r5, #12]	@ zero_extendqisi2
 356 006a 3046     		mov	r0, r6
 357 006c FFF7FEFF 		bl	FLASH_Erase_Sector
 358 0070 4CF25030 		movw	r0, #50000
 359 0074 FFF7FEFF 		bl	FLASH_WaitForLastOperation
 360 0078 D9F81030 		ldr	r3, [r9, #16]
 361 007c 23F07A03 		bic	r3, r3, #122
 362 0080 C9F81030 		str	r3, [r9, #16]
 363 0084 10B1     		cbz	r0, .L62
 364 0086 0446     		mov	r4, r0
 365 0088 3E60     		str	r6, [r7]
 366 008a DFE7     		b	.L59
 367              	.L62:
 368 008c 0136     		adds	r6, r6, #1
 369 008e E6E7     		b	.L61
 370              	.L64:
 371 0090 0224     		movs	r4, #2
 372 0092 DEE7     		b	.L58
 373              	.L66:
 374              		.align	2
 375              	.L65:
 376 0094 003C0240 		.word	1073888256
 377 0098 00000000 		.word	pFlash
 379              		.section	.text.HAL_FLASHEx_Erase_IT,"ax",%progbits
 380              		.align	1
 381              		.global	HAL_FLASHEx_Erase_IT
 382              		.syntax unified
 383              		.thumb
 384              		.thumb_func
 385              		.fpu fpv5-sp-d16
 387              	HAL_FLASHEx_Erase_IT:
 388              		@ args = 0, pretend = 0, frame = 0
 389              		@ frame_needed = 0, uses_anonymous_args = 0
 390 0000 134B     		ldr	r3, .L72
 391 0002 10B5     		push	{r4, lr}
 392 0004 1A7D     		ldrb	r2, [r3, #20]	@ zero_extendqisi2
 393 0006 012A     		cmp	r2, #1
 394 0008 20D0     		beq	.L70
 395 000a 124A     		ldr	r2, .L72+4
 396 000c 0124     		movs	r4, #1
 397 000e 1C75     		strb	r4, [r3, #20]
 398 0010 1169     		ldr	r1, [r2, #16]
 399 0012 41F08071 		orr	r1, r1, #16777216
 400 0016 1161     		str	r1, [r2, #16]
 401 0018 1169     		ldr	r1, [r2, #16]
 402 001a 41F00071 		orr	r1, r1, #33554432
 403 001e 1161     		str	r1, [r2, #16]
 404 0020 F321     		movs	r1, #243
 405 0022 D160     		str	r1, [r2, #12]
 406 0024 0268     		ldr	r2, [r0]
 407 0026 017B     		ldrb	r1, [r0, #12]	@ zero_extendqisi2
 408 0028 A242     		cmp	r2, r4
 409 002a 06D1     		bne	.L69
 410 002c 0222     		movs	r2, #2
ARM GAS  /tmp/cc1aCetU.s 			page 8


 411 002e 0846     		mov	r0, r1
 412 0030 1A70     		strb	r2, [r3]
 413 0032 FFF7FEFF 		bl	FLASH_MassErase
 414              	.L71:
 415 0036 0020     		movs	r0, #0
 416              	.L68:
 417 0038 10BD     		pop	{r4, pc}
 418              	.L69:
 419 003a 8268     		ldr	r2, [r0, #8]
 420 003c 4068     		ldr	r0, [r0, #4]
 421 003e 1C70     		strb	r4, [r3]
 422 0040 5A60     		str	r2, [r3, #4]
 423 0042 D860     		str	r0, [r3, #12]
 424 0044 1972     		strb	r1, [r3, #8]
 425 0046 FFF7FEFF 		bl	FLASH_Erase_Sector
 426 004a F4E7     		b	.L71
 427              	.L70:
 428 004c 0220     		movs	r0, #2
 429 004e F3E7     		b	.L68
 430              	.L73:
 431              		.align	2
 432              	.L72:
 433 0050 00000000 		.word	pFlash
 434 0054 003C0240 		.word	1073888256
 436              		.ident	"GCC: (15:10.3-2021.07-4) 10.3.1 20210621 (release)"
ARM GAS  /tmp/cc1aCetU.s 			page 9

