ARM GAS  /tmp/cc1LgFws.s 			page 1


   1              		.cpu cortex-m7
   2              		.eabi_attribute 27, 1
   3              		.eabi_attribute 20, 1
   4              		.eabi_attribute 21, 1
   5              		.eabi_attribute 23, 3
   6              		.eabi_attribute 24, 1
   7              		.eabi_attribute 25, 1
   8              		.eabi_attribute 26, 1
   9              		.eabi_attribute 30, 4
  10              		.eabi_attribute 34, 1
  11              		.eabi_attribute 18, 4
  12              		.file	"stm32f7xx_hal_rtc_ex.c"
  13              		.text
  14              		.section	.text.HAL_RTCEx_SetTimeStamp,"ax",%progbits
  15              		.align	1
  16              		.global	HAL_RTCEx_SetTimeStamp
  17              		.arch armv7e-m
  18              		.syntax unified
  19              		.thumb
  20              		.thumb_func
  21              		.fpu fpv5-sp-d16
  23              	HAL_RTCEx_SetTimeStamp:
  24              		@ args = 0, pretend = 0, frame = 0
  25              		@ frame_needed = 0, uses_anonymous_args = 0
  26 0000 037F     		ldrb	r3, [r0, #28]	@ zero_extendqisi2
  27 0002 012B     		cmp	r3, #1
  28 0004 4FF00203 		mov	r3, #2
  29 0008 30B5     		push	{r4, r5, lr}
  30 000a 1DD0     		beq	.L3
  31 000c 4377     		strb	r3, [r0, #29]
  32 000e 0368     		ldr	r3, [r0]
  33 0010 9C68     		ldr	r4, [r3, #8]
  34 0012 24F40064 		bic	r4, r4, #2048
  35 0016 24F00804 		bic	r4, r4, #8
  36 001a 0C43     		orrs	r4, r4, r1
  37 001c CA21     		movs	r1, #202
  38 001e 5962     		str	r1, [r3, #36]
  39 0020 5321     		movs	r1, #83
  40 0022 5962     		str	r1, [r3, #36]
  41 0024 DD6C     		ldr	r5, [r3, #76]
  42 0026 25F00605 		bic	r5, r5, #6
  43 002a DD64     		str	r5, [r3, #76]
  44 002c D96C     		ldr	r1, [r3, #76]
  45 002e 1143     		orrs	r1, r1, r2
  46 0030 D964     		str	r1, [r3, #76]
  47 0032 9C60     		str	r4, [r3, #8]
  48 0034 9A68     		ldr	r2, [r3, #8]
  49 0036 42F40062 		orr	r2, r2, #2048
  50 003a 9A60     		str	r2, [r3, #8]
  51 003c FF22     		movs	r2, #255
  52 003e 5A62     		str	r2, [r3, #36]
  53 0040 0123     		movs	r3, #1
  54 0042 4377     		strb	r3, [r0, #29]
  55 0044 0023     		movs	r3, #0
  56 0046 0377     		strb	r3, [r0, #28]
  57              	.L3:
  58 0048 1846     		mov	r0, r3
ARM GAS  /tmp/cc1LgFws.s 			page 2


  59 004a 30BD     		pop	{r4, r5, pc}
  61              		.section	.text.HAL_RTCEx_SetTimeStamp_IT,"ax",%progbits
  62              		.align	1
  63              		.global	HAL_RTCEx_SetTimeStamp_IT
  64              		.syntax unified
  65              		.thumb
  66              		.thumb_func
  67              		.fpu fpv5-sp-d16
  69              	HAL_RTCEx_SetTimeStamp_IT:
  70              		@ args = 0, pretend = 0, frame = 0
  71              		@ frame_needed = 0, uses_anonymous_args = 0
  72 0000 037F     		ldrb	r3, [r0, #28]	@ zero_extendqisi2
  73 0002 012B     		cmp	r3, #1
  74 0004 4FF00203 		mov	r3, #2
  75 0008 10B5     		push	{r4, lr}
  76 000a 2FD0     		beq	.L6
  77 000c 4377     		strb	r3, [r0, #29]
  78 000e 0368     		ldr	r3, [r0]
  79 0010 9C68     		ldr	r4, [r3, #8]
  80 0012 24F40064 		bic	r4, r4, #2048
  81 0016 24F00804 		bic	r4, r4, #8
  82 001a 0C43     		orrs	r4, r4, r1
  83 001c CA21     		movs	r1, #202
  84 001e 5962     		str	r1, [r3, #36]
  85 0020 5321     		movs	r1, #83
  86 0022 5962     		str	r1, [r3, #36]
  87 0024 9C60     		str	r4, [r3, #8]
  88 0026 DC6C     		ldr	r4, [r3, #76]
  89 0028 24F00604 		bic	r4, r4, #6
  90 002c DC64     		str	r4, [r3, #76]
  91 002e D96C     		ldr	r1, [r3, #76]
  92 0030 1143     		orrs	r1, r1, r2
  93 0032 D964     		str	r1, [r3, #76]
  94 0034 DA68     		ldr	r2, [r3, #12]
  95 0036 D2B2     		uxtb	r2, r2
  96 0038 62F40862 		orn	r2, r2, #2176
  97 003c DA60     		str	r2, [r3, #12]
  98 003e 9A68     		ldr	r2, [r3, #8]
  99 0040 42F40062 		orr	r2, r2, #2048
 100 0044 9A60     		str	r2, [r3, #8]
 101 0046 9A68     		ldr	r2, [r3, #8]
 102 0048 42F40042 		orr	r2, r2, #32768
 103 004c 9A60     		str	r2, [r3, #8]
 104 004e 084A     		ldr	r2, .L7
 105 0050 1168     		ldr	r1, [r2]
 106 0052 41F40011 		orr	r1, r1, #2097152
 107 0056 1160     		str	r1, [r2]
 108 0058 9168     		ldr	r1, [r2, #8]
 109 005a 41F40011 		orr	r1, r1, #2097152
 110 005e 9160     		str	r1, [r2, #8]
 111 0060 FF22     		movs	r2, #255
 112 0062 5A62     		str	r2, [r3, #36]
 113 0064 0123     		movs	r3, #1
 114 0066 4377     		strb	r3, [r0, #29]
 115 0068 0023     		movs	r3, #0
 116 006a 0377     		strb	r3, [r0, #28]
 117              	.L6:
ARM GAS  /tmp/cc1LgFws.s 			page 3


 118 006c 1846     		mov	r0, r3
 119 006e 10BD     		pop	{r4, pc}
 120              	.L8:
 121              		.align	2
 122              	.L7:
 123 0070 003C0140 		.word	1073822720
 125              		.section	.text.HAL_RTCEx_DeactivateTimeStamp,"ax",%progbits
 126              		.align	1
 127              		.global	HAL_RTCEx_DeactivateTimeStamp
 128              		.syntax unified
 129              		.thumb
 130              		.thumb_func
 131              		.fpu fpv5-sp-d16
 133              	HAL_RTCEx_DeactivateTimeStamp:
 134              		@ args = 0, pretend = 0, frame = 0
 135              		@ frame_needed = 0, uses_anonymous_args = 0
 136              		@ link register save eliminated.
 137 0000 037F     		ldrb	r3, [r0, #28]	@ zero_extendqisi2
 138 0002 012B     		cmp	r3, #1
 139 0004 4FF00203 		mov	r3, #2
 140 0008 15D0     		beq	.L11
 141 000a 4377     		strb	r3, [r0, #29]
 142 000c CA22     		movs	r2, #202
 143 000e 0368     		ldr	r3, [r0]
 144 0010 5A62     		str	r2, [r3, #36]
 145 0012 5322     		movs	r2, #83
 146 0014 5A62     		str	r2, [r3, #36]
 147 0016 9A68     		ldr	r2, [r3, #8]
 148 0018 22F40042 		bic	r2, r2, #32768
 149 001c 9A60     		str	r2, [r3, #8]
 150 001e 9A68     		ldr	r2, [r3, #8]
 151 0020 22F40062 		bic	r2, r2, #2048
 152 0024 22F00802 		bic	r2, r2, #8
 153 0028 9A60     		str	r2, [r3, #8]
 154 002a FF22     		movs	r2, #255
 155 002c 5A62     		str	r2, [r3, #36]
 156 002e 0123     		movs	r3, #1
 157 0030 4377     		strb	r3, [r0, #29]
 158 0032 0023     		movs	r3, #0
 159 0034 0377     		strb	r3, [r0, #28]
 160              	.L11:
 161 0036 1846     		mov	r0, r3
 162 0038 7047     		bx	lr
 164              		.section	.text.HAL_RTCEx_SetInternalTimeStamp,"ax",%progbits
 165              		.align	1
 166              		.global	HAL_RTCEx_SetInternalTimeStamp
 167              		.syntax unified
 168              		.thumb
 169              		.thumb_func
 170              		.fpu fpv5-sp-d16
 172              	HAL_RTCEx_SetInternalTimeStamp:
 173              		@ args = 0, pretend = 0, frame = 0
 174              		@ frame_needed = 0, uses_anonymous_args = 0
 175              		@ link register save eliminated.
 176 0000 037F     		ldrb	r3, [r0, #28]	@ zero_extendqisi2
 177 0002 012B     		cmp	r3, #1
 178 0004 4FF00203 		mov	r3, #2
ARM GAS  /tmp/cc1LgFws.s 			page 4


 179 0008 0FD0     		beq	.L14
 180 000a 4377     		strb	r3, [r0, #29]
 181 000c CA22     		movs	r2, #202
 182 000e 0368     		ldr	r3, [r0]
 183 0010 5A62     		str	r2, [r3, #36]
 184 0012 5322     		movs	r2, #83
 185 0014 5A62     		str	r2, [r3, #36]
 186 0016 9A68     		ldr	r2, [r3, #8]
 187 0018 42F08072 		orr	r2, r2, #16777216
 188 001c 9A60     		str	r2, [r3, #8]
 189 001e FF22     		movs	r2, #255
 190 0020 5A62     		str	r2, [r3, #36]
 191 0022 0123     		movs	r3, #1
 192 0024 4377     		strb	r3, [r0, #29]
 193 0026 0023     		movs	r3, #0
 194 0028 0377     		strb	r3, [r0, #28]
 195              	.L14:
 196 002a 1846     		mov	r0, r3
 197 002c 7047     		bx	lr
 199              		.section	.text.HAL_RTCEx_DeactivateInternalTimeStamp,"ax",%progbits
 200              		.align	1
 201              		.global	HAL_RTCEx_DeactivateInternalTimeStamp
 202              		.syntax unified
 203              		.thumb
 204              		.thumb_func
 205              		.fpu fpv5-sp-d16
 207              	HAL_RTCEx_DeactivateInternalTimeStamp:
 208              		@ args = 0, pretend = 0, frame = 0
 209              		@ frame_needed = 0, uses_anonymous_args = 0
 210              		@ link register save eliminated.
 211 0000 037F     		ldrb	r3, [r0, #28]	@ zero_extendqisi2
 212 0002 012B     		cmp	r3, #1
 213 0004 4FF00203 		mov	r3, #2
 214 0008 0FD0     		beq	.L17
 215 000a 4377     		strb	r3, [r0, #29]
 216 000c CA22     		movs	r2, #202
 217 000e 0368     		ldr	r3, [r0]
 218 0010 5A62     		str	r2, [r3, #36]
 219 0012 5322     		movs	r2, #83
 220 0014 5A62     		str	r2, [r3, #36]
 221 0016 9A68     		ldr	r2, [r3, #8]
 222 0018 22F08072 		bic	r2, r2, #16777216
 223 001c 9A60     		str	r2, [r3, #8]
 224 001e FF22     		movs	r2, #255
 225 0020 5A62     		str	r2, [r3, #36]
 226 0022 0123     		movs	r3, #1
 227 0024 4377     		strb	r3, [r0, #29]
 228 0026 0023     		movs	r3, #0
 229 0028 0377     		strb	r3, [r0, #28]
 230              	.L17:
 231 002a 1846     		mov	r0, r3
 232 002c 7047     		bx	lr
 234              		.section	.text.HAL_RTCEx_GetTimeStamp,"ax",%progbits
 235              		.align	1
 236              		.global	HAL_RTCEx_GetTimeStamp
 237              		.syntax unified
 238              		.thumb
ARM GAS  /tmp/cc1LgFws.s 			page 5


 239              		.thumb_func
 240              		.fpu fpv5-sp-d16
 242              	HAL_RTCEx_GetTimeStamp:
 243              		@ args = 0, pretend = 0, frame = 0
 244              		@ frame_needed = 0, uses_anonymous_args = 0
 245 0000 D0F800C0 		ldr	ip, [r0]
 246 0004 F8B5     		push	{r3, r4, r5, r6, r7, lr}
 247 0006 0D46     		mov	r5, r1
 248 0008 DCF83010 		ldr	r1, [ip, #48]
 249 000c 1446     		mov	r4, r2
 250 000e 0646     		mov	r6, r0
 251 0010 01F07F31 		and	r1, r1, #2139062143
 252 0014 DCF83420 		ldr	r2, [ip, #52]
 253 0018 21F0FE41 		bic	r1, r1, #2130706432
 254 001c 22F07F42 		bic	r2, r2, #-16777216
 255 0020 0F0C     		lsrs	r7, r1, #16
 256 0022 A970     		strb	r1, [r5, #2]
 257 0024 4FEA112E 		lsr	lr, r1, #8
 258 0028 22F0C002 		bic	r2, r2, #192
 259 002c 07F03F00 		and	r0, r7, #63
 260 0030 07F04007 		and	r7, r7, #64
 261 0034 85F801E0 		strb	lr, [r5, #1]
 262 0038 2870     		strb	r0, [r5]
 263 003a 2F73     		strb	r7, [r5, #12]
 264 003c DCF83810 		ldr	r1, [ip, #56]
 265 0040 6960     		str	r1, [r5, #4]
 266 0042 0021     		movs	r1, #0
 267 0044 A270     		strb	r2, [r4, #2]
 268 0046 E170     		strb	r1, [r4, #3]
 269 0048 C2F30421 		ubfx	r1, r2, #8, #5
 270 004c C2F34232 		ubfx	r2, r2, #13, #3
 271 0050 6170     		strb	r1, [r4, #1]
 272 0052 2270     		strb	r2, [r4]
 273 0054 B3B9     		cbnz	r3, .L19
 274 0056 FFF7FEFF 		bl	RTC_Bcd2ToByte
 275 005a 2870     		strb	r0, [r5]
 276 005c 6878     		ldrb	r0, [r5, #1]	@ zero_extendqisi2
 277 005e FFF7FEFF 		bl	RTC_Bcd2ToByte
 278 0062 6870     		strb	r0, [r5, #1]
 279 0064 A878     		ldrb	r0, [r5, #2]	@ zero_extendqisi2
 280 0066 FFF7FEFF 		bl	RTC_Bcd2ToByte
 281 006a A870     		strb	r0, [r5, #2]
 282 006c 6078     		ldrb	r0, [r4, #1]	@ zero_extendqisi2
 283 006e FFF7FEFF 		bl	RTC_Bcd2ToByte
 284 0072 6070     		strb	r0, [r4, #1]
 285 0074 A078     		ldrb	r0, [r4, #2]	@ zero_extendqisi2
 286 0076 FFF7FEFF 		bl	RTC_Bcd2ToByte
 287 007a A070     		strb	r0, [r4, #2]
 288 007c 2078     		ldrb	r0, [r4]	@ zero_extendqisi2
 289 007e FFF7FEFF 		bl	RTC_Bcd2ToByte
 290 0082 2070     		strb	r0, [r4]
 291              	.L19:
 292 0084 3268     		ldr	r2, [r6]
 293 0086 0020     		movs	r0, #0
 294 0088 D368     		ldr	r3, [r2, #12]
 295 008a DBB2     		uxtb	r3, r3
 296 008c 63F40863 		orn	r3, r3, #2176
ARM GAS  /tmp/cc1LgFws.s 			page 6


 297 0090 D360     		str	r3, [r2, #12]
 298 0092 F8BD     		pop	{r3, r4, r5, r6, r7, pc}
 300              		.section	.text.HAL_RTCEx_SetTamper,"ax",%progbits
 301              		.align	1
 302              		.global	HAL_RTCEx_SetTamper
 303              		.syntax unified
 304              		.thumb
 305              		.thumb_func
 306              		.fpu fpv5-sp-d16
 308              	HAL_RTCEx_SetTamper:
 309              		@ args = 0, pretend = 0, frame = 0
 310              		@ frame_needed = 0, uses_anonymous_args = 0
 311 0000 037F     		ldrb	r3, [r0, #28]	@ zero_extendqisi2
 312 0002 012B     		cmp	r3, #1
 313 0004 4FF00203 		mov	r3, #2
 314 0008 30B5     		push	{r4, r5, lr}
 315 000a 4ED0     		beq	.L35
 316 000c 0122     		movs	r2, #1
 317 000e 4377     		strb	r3, [r0, #29]
 318 0010 8B68     		ldr	r3, [r1, #8]
 319 0012 0277     		strb	r2, [r0, #28]
 320 0014 0A68     		ldr	r2, [r1]
 321 0016 5400     		lsls	r4, r2, #1
 322 0018 03B1     		cbz	r3, .L22
 323 001a 8C60     		str	r4, [r1, #8]
 324              	.L22:
 325 001c CB68     		ldr	r3, [r1, #12]
 326 001e 8BB1     		cbz	r3, .L24
 327 0020 12F00103 		ands	r3, r2, #1
 328 0024 18BF     		it	ne
 329 0026 4FF40033 		movne	r3, #131072
 330 002a 1507     		lsls	r5, r2, #28
 331 002c CB60     		str	r3, [r1, #12]
 332 002e 42BF     		ittt	mi
 333 0030 CB68     		ldrmi	r3, [r1, #12]
 334 0032 43F48013 		orrmi	r3, r3, #1048576
 335 0036 CB60     		strmi	r3, [r1, #12]
 336 0038 9306     		lsls	r3, r2, #26
 337 003a 42BF     		ittt	mi
 338 003c CB68     		ldrmi	r3, [r1, #12]
 339 003e 43F40003 		orrmi	r3, r3, #8388608
 340 0042 CB60     		strmi	r3, [r1, #12]
 341              	.L24:
 342 0044 0B69     		ldr	r3, [r1, #16]
 343 0046 8BB1     		cbz	r3, .L30
 344 0048 12F00103 		ands	r3, r2, #1
 345 004c 18BF     		it	ne
 346 004e 4FF48023 		movne	r3, #262144
 347 0052 1507     		lsls	r5, r2, #28
 348 0054 0B61     		str	r3, [r1, #16]
 349 0056 42BF     		ittt	mi
 350 0058 0B69     		ldrmi	r3, [r1, #16]
 351 005a 43F40013 		orrmi	r3, r3, #2097152
 352 005e 0B61     		strmi	r3, [r1, #16]
 353 0060 9306     		lsls	r3, r2, #26
 354 0062 42BF     		ittt	mi
 355 0064 0B69     		ldrmi	r3, [r1, #16]
ARM GAS  /tmp/cc1LgFws.s 			page 7


 356 0066 43F08073 		orrmi	r3, r3, #16777216
 357 006a 0B61     		strmi	r3, [r1, #16]
 358              	.L30:
 359 006c 8B68     		ldr	r3, [r1, #8]
 360 006e CD68     		ldr	r5, [r1, #12]
 361 0070 1343     		orrs	r3, r3, r2
 362 0072 2243     		orrs	r2, r2, r4
 363 0074 0E4C     		ldr	r4, .L53
 364 0076 2B43     		orrs	r3, r3, r5
 365 0078 0D69     		ldr	r5, [r1, #16]
 366 007a 1443     		orrs	r4, r4, r2
 367 007c 2B43     		orrs	r3, r3, r5
 368 007e 4D69     		ldr	r5, [r1, #20]
 369 0080 2B43     		orrs	r3, r3, r5
 370 0082 8D69     		ldr	r5, [r1, #24]
 371 0084 2B43     		orrs	r3, r3, r5
 372 0086 CD69     		ldr	r5, [r1, #28]
 373 0088 2B43     		orrs	r3, r3, r5
 374 008a 0D6A     		ldr	r5, [r1, #32]
 375 008c 496A     		ldr	r1, [r1, #36]
 376 008e 2B43     		orrs	r3, r3, r5
 377 0090 0B43     		orrs	r3, r3, r1
 378 0092 0168     		ldr	r1, [r0]
 379 0094 0D6C     		ldr	r5, [r1, #64]
 380 0096 25EA0404 		bic	r4, r5, r4
 381 009a 0C64     		str	r4, [r1, #64]
 382 009c 0A6C     		ldr	r2, [r1, #64]
 383 009e 1343     		orrs	r3, r3, r2
 384 00a0 0B64     		str	r3, [r1, #64]
 385 00a2 0123     		movs	r3, #1
 386 00a4 4377     		strb	r3, [r0, #29]
 387 00a6 0023     		movs	r3, #0
 388 00a8 0377     		strb	r3, [r0, #28]
 389              	.L35:
 390 00aa 1846     		mov	r0, r3
 391 00ac 30BD     		pop	{r4, r5, pc}
 392              	.L54:
 393 00ae 00BF     		.align	2
 394              	.L53:
 395 00b0 84FFFF01 		.word	33554308
 397              		.section	.text.HAL_RTCEx_SetTamper_IT,"ax",%progbits
 398              		.align	1
 399              		.global	HAL_RTCEx_SetTamper_IT
 400              		.syntax unified
 401              		.thumb
 402              		.thumb_func
 403              		.fpu fpv5-sp-d16
 405              	HAL_RTCEx_SetTamper_IT:
 406              		@ args = 0, pretend = 0, frame = 0
 407              		@ frame_needed = 0, uses_anonymous_args = 0
 408 0000 037F     		ldrb	r3, [r0, #28]	@ zero_extendqisi2
 409 0002 012B     		cmp	r3, #1
 410 0004 4FF00203 		mov	r3, #2
 411 0008 70B5     		push	{r4, r5, r6, lr}
 412 000a 6BD0     		beq	.L73
 413 000c 0122     		movs	r2, #1
 414 000e 4377     		strb	r3, [r0, #29]
ARM GAS  /tmp/cc1LgFws.s 			page 8


 415 0010 8B68     		ldr	r3, [r1, #8]
 416 0012 0277     		strb	r2, [r0, #28]
 417 0014 0A68     		ldr	r2, [r1]
 418 0016 5400     		lsls	r4, r2, #1
 419 0018 03B1     		cbz	r3, .L57
 420 001a 8C60     		str	r4, [r1, #8]
 421              	.L57:
 422 001c CB68     		ldr	r3, [r1, #12]
 423 001e 8BB1     		cbz	r3, .L59
 424 0020 12F00103 		ands	r3, r2, #1
 425 0024 18BF     		it	ne
 426 0026 4FF40033 		movne	r3, #131072
 427 002a CB60     		str	r3, [r1, #12]
 428 002c 1307     		lsls	r3, r2, #28
 429 002e 42BF     		ittt	mi
 430 0030 CB68     		ldrmi	r3, [r1, #12]
 431 0032 43F48013 		orrmi	r3, r3, #1048576
 432 0036 CB60     		strmi	r3, [r1, #12]
 433 0038 9606     		lsls	r6, r2, #26
 434 003a 42BF     		ittt	mi
 435 003c CB68     		ldrmi	r3, [r1, #12]
 436 003e 43F40003 		orrmi	r3, r3, #8388608
 437 0042 CB60     		strmi	r3, [r1, #12]
 438              	.L59:
 439 0044 0B69     		ldr	r3, [r1, #16]
 440 0046 8BB1     		cbz	r3, .L65
 441 0048 12F00103 		ands	r3, r2, #1
 442 004c 18BF     		it	ne
 443 004e 4FF48023 		movne	r3, #262144
 444 0052 1507     		lsls	r5, r2, #28
 445 0054 0B61     		str	r3, [r1, #16]
 446 0056 42BF     		ittt	mi
 447 0058 0B69     		ldrmi	r3, [r1, #16]
 448 005a 43F40013 		orrmi	r3, r3, #2097152
 449 005e 0B61     		strmi	r3, [r1, #16]
 450 0060 9306     		lsls	r3, r2, #26
 451 0062 42BF     		ittt	mi
 452 0064 0B69     		ldrmi	r3, [r1, #16]
 453 0066 43F08073 		orrmi	r3, r3, #16777216
 454 006a 0B61     		strmi	r3, [r1, #16]
 455              	.L65:
 456 006c 4B68     		ldr	r3, [r1, #4]
 457 006e 1443     		orrs	r4, r4, r2
 458 0070 8D68     		ldr	r5, [r1, #8]
 459 0072 012A     		cmp	r2, #1
 460 0074 43EA0203 		orr	r3, r3, r2
 461 0078 224E     		ldr	r6, .L92
 462 007a 43EA0503 		orr	r3, r3, r5
 463 007e CD68     		ldr	r5, [r1, #12]
 464 0080 46EA0406 		orr	r6, r6, r4
 465 0084 43EA0503 		orr	r3, r3, r5
 466 0088 0D69     		ldr	r5, [r1, #16]
 467 008a 43EA0503 		orr	r3, r3, r5
 468 008e 4D69     		ldr	r5, [r1, #20]
 469 0090 43EA0503 		orr	r3, r3, r5
 470 0094 8D69     		ldr	r5, [r1, #24]
 471 0096 43EA0503 		orr	r3, r3, r5
ARM GAS  /tmp/cc1LgFws.s 			page 9


 472 009a CD69     		ldr	r5, [r1, #28]
 473 009c 43EA0503 		orr	r3, r3, r5
 474 00a0 0D6A     		ldr	r5, [r1, #32]
 475 00a2 496A     		ldr	r1, [r1, #36]
 476 00a4 43EA0503 		orr	r3, r3, r5
 477 00a8 43EA0103 		orr	r3, r3, r1
 478 00ac 0168     		ldr	r1, [r0]
 479 00ae 0D6C     		ldr	r5, [r1, #64]
 480 00b0 25EA0605 		bic	r5, r5, r6
 481 00b4 0D64     		str	r5, [r1, #64]
 482 00b6 0C6C     		ldr	r4, [r1, #64]
 483 00b8 43EA0403 		orr	r3, r3, r4
 484 00bc 0B64     		str	r3, [r1, #64]
 485 00be CB68     		ldr	r3, [r1, #12]
 486 00c0 DBB2     		uxtb	r3, r3
 487 00c2 11D1     		bne	.L70
 488 00c4 63F40253 		orn	r3, r3, #8320
 489              	.L91:
 490 00c8 CB60     		str	r3, [r1, #12]
 491 00ca 0F4B     		ldr	r3, .L92+4
 492 00cc 1A68     		ldr	r2, [r3]
 493 00ce 42F40012 		orr	r2, r2, #2097152
 494 00d2 1A60     		str	r2, [r3]
 495 00d4 9A68     		ldr	r2, [r3, #8]
 496 00d6 42F40012 		orr	r2, r2, #2097152
 497 00da 9A60     		str	r2, [r3, #8]
 498 00dc 0123     		movs	r3, #1
 499 00de 4377     		strb	r3, [r0, #29]
 500 00e0 0023     		movs	r3, #0
 501 00e2 0377     		strb	r3, [r0, #28]
 502              	.L73:
 503 00e4 1846     		mov	r0, r3
 504 00e6 70BD     		pop	{r4, r5, r6, pc}
 505              	.L70:
 506 00e8 082A     		cmp	r2, #8
 507 00ea 17BF     		itett	ne
 508 00ec 43F07F43 		orrne	r3, r3, #-16777216
 509 00f0 63F48143 		orneq	r3, r3, #16512
 510 00f4 43F47F03 		orrne	r3, r3, #16711680
 511 00f8 43F4FE43 		orrne	r3, r3, #32512
 512 00fc 18BF     		it	ne
 513 00fe 43F07F03 		orrne	r3, r3, #127
 514 0102 E1E7     		b	.L91
 515              	.L93:
 516              		.align	2
 517              	.L92:
 518 0104 84FFFF01 		.word	33554308
 519 0108 003C0140 		.word	1073822720
 521              		.section	.text.HAL_RTCEx_DeactivateTamper,"ax",%progbits
 522              		.align	1
 523              		.global	HAL_RTCEx_DeactivateTamper
 524              		.syntax unified
 525              		.thumb
 526              		.thumb_func
 527              		.fpu fpv5-sp-d16
 529              	HAL_RTCEx_DeactivateTamper:
 530              		@ args = 0, pretend = 0, frame = 0
ARM GAS  /tmp/cc1LgFws.s 			page 10


 531              		@ frame_needed = 0, uses_anonymous_args = 0
 532              		@ link register save eliminated.
 533 0000 037F     		ldrb	r3, [r0, #28]	@ zero_extendqisi2
 534 0002 012B     		cmp	r3, #1
 535 0004 4FF00203 		mov	r3, #2
 536 0008 23D0     		beq	.L99
 537 000a 4377     		strb	r3, [r0, #29]
 538 000c 0122     		movs	r2, #1
 539 000e 0368     		ldr	r3, [r0]
 540 0010 0277     		strb	r2, [r0, #28]
 541 0012 1A6C     		ldr	r2, [r3, #64]
 542 0014 22EA0102 		bic	r2, r2, r1
 543 0018 1A64     		str	r2, [r3, #64]
 544 001a CA07     		lsls	r2, r1, #31
 545 001c 05D5     		bpl	.L96
 546 001e 1A6C     		ldr	r2, [r3, #64]
 547 0020 22F48032 		bic	r2, r2, #65536
 548 0024 22F00402 		bic	r2, r2, #4
 549 0028 1A64     		str	r2, [r3, #64]
 550              	.L96:
 551 002a 0A07     		lsls	r2, r1, #28
 552 002c 05D5     		bpl	.L97
 553 002e 1A6C     		ldr	r2, [r3, #64]
 554 0030 22F40022 		bic	r2, r2, #524288
 555 0034 22F00402 		bic	r2, r2, #4
 556 0038 1A64     		str	r2, [r3, #64]
 557              	.L97:
 558 003a 8A06     		lsls	r2, r1, #26
 559 003c 05D5     		bpl	.L98
 560 003e 1A6C     		ldr	r2, [r3, #64]
 561 0040 22F48002 		bic	r2, r2, #4194304
 562 0044 22F00402 		bic	r2, r2, #4
 563 0048 1A64     		str	r2, [r3, #64]
 564              	.L98:
 565 004a 0123     		movs	r3, #1
 566 004c 4377     		strb	r3, [r0, #29]
 567 004e 0023     		movs	r3, #0
 568 0050 0377     		strb	r3, [r0, #28]
 569              	.L99:
 570 0052 1846     		mov	r0, r3
 571 0054 7047     		bx	lr
 573              		.section	.text.HAL_RTCEx_TimeStampEventCallback,"ax",%progbits
 574              		.align	1
 575              		.weak	HAL_RTCEx_TimeStampEventCallback
 576              		.syntax unified
 577              		.thumb
 578              		.thumb_func
 579              		.fpu fpv5-sp-d16
 581              	HAL_RTCEx_TimeStampEventCallback:
 582              		@ args = 0, pretend = 0, frame = 0
 583              		@ frame_needed = 0, uses_anonymous_args = 0
 584              		@ link register save eliminated.
 585 0000 7047     		bx	lr
 587              		.section	.text.HAL_RTCEx_Tamper1EventCallback,"ax",%progbits
 588              		.align	1
 589              		.weak	HAL_RTCEx_Tamper1EventCallback
 590              		.syntax unified
ARM GAS  /tmp/cc1LgFws.s 			page 11


 591              		.thumb
 592              		.thumb_func
 593              		.fpu fpv5-sp-d16
 595              	HAL_RTCEx_Tamper1EventCallback:
 596              		@ args = 0, pretend = 0, frame = 0
 597              		@ frame_needed = 0, uses_anonymous_args = 0
 598              		@ link register save eliminated.
 599 0000 7047     		bx	lr
 601              		.section	.text.HAL_RTCEx_Tamper2EventCallback,"ax",%progbits
 602              		.align	1
 603              		.weak	HAL_RTCEx_Tamper2EventCallback
 604              		.syntax unified
 605              		.thumb
 606              		.thumb_func
 607              		.fpu fpv5-sp-d16
 609              	HAL_RTCEx_Tamper2EventCallback:
 610              		@ args = 0, pretend = 0, frame = 0
 611              		@ frame_needed = 0, uses_anonymous_args = 0
 612              		@ link register save eliminated.
 613 0000 7047     		bx	lr
 615              		.section	.text.HAL_RTCEx_Tamper3EventCallback,"ax",%progbits
 616              		.align	1
 617              		.weak	HAL_RTCEx_Tamper3EventCallback
 618              		.syntax unified
 619              		.thumb
 620              		.thumb_func
 621              		.fpu fpv5-sp-d16
 623              	HAL_RTCEx_Tamper3EventCallback:
 624              		@ args = 0, pretend = 0, frame = 0
 625              		@ frame_needed = 0, uses_anonymous_args = 0
 626              		@ link register save eliminated.
 627 0000 7047     		bx	lr
 629              		.section	.text.HAL_RTCEx_TamperTimeStampIRQHandler,"ax",%progbits
 630              		.align	1
 631              		.global	HAL_RTCEx_TamperTimeStampIRQHandler
 632              		.syntax unified
 633              		.thumb
 634              		.thumb_func
 635              		.fpu fpv5-sp-d16
 637              	HAL_RTCEx_TamperTimeStampIRQHandler:
 638              		@ args = 0, pretend = 0, frame = 0
 639              		@ frame_needed = 0, uses_anonymous_args = 0
 640 0000 0368     		ldr	r3, [r0]
 641 0002 9A68     		ldr	r2, [r3, #8]
 642 0004 1204     		lsls	r2, r2, #16
 643 0006 10B5     		push	{r4, lr}
 644 0008 0446     		mov	r4, r0
 645 000a 0AD5     		bpl	.L114
 646 000c DB68     		ldr	r3, [r3, #12]
 647 000e 1B05     		lsls	r3, r3, #20
 648 0010 07D5     		bpl	.L114
 649 0012 FFF7FEFF 		bl	HAL_RTCEx_TimeStampEventCallback
 650 0016 2268     		ldr	r2, [r4]
 651 0018 D368     		ldr	r3, [r2, #12]
 652 001a DBB2     		uxtb	r3, r3
 653 001c 63F40863 		orn	r3, r3, #2176
 654 0020 D360     		str	r3, [r2, #12]
ARM GAS  /tmp/cc1LgFws.s 			page 12


 655              	.L114:
 656 0022 2268     		ldr	r2, [r4]
 657 0024 1F4B     		ldr	r3, .L142
 658 0026 116C     		ldr	r1, [r2, #64]
 659 0028 0B40     		ands	r3, r3, r1
 660 002a 5BB1     		cbz	r3, .L115
 661 002c D368     		ldr	r3, [r2, #12]
 662 002e 9904     		lsls	r1, r3, #18
 663 0030 08D5     		bpl	.L115
 664 0032 2046     		mov	r0, r4
 665 0034 FFF7FEFF 		bl	HAL_RTCEx_Tamper1EventCallback
 666 0038 2268     		ldr	r2, [r4]
 667 003a D368     		ldr	r3, [r2, #12]
 668 003c DBB2     		uxtb	r3, r3
 669 003e 63F40253 		orn	r3, r3, #8320
 670 0042 D360     		str	r3, [r2, #12]
 671              	.L115:
 672 0044 2268     		ldr	r2, [r4]
 673 0046 184B     		ldr	r3, .L142+4
 674 0048 116C     		ldr	r1, [r2, #64]
 675 004a 0B40     		ands	r3, r3, r1
 676 004c 5BB1     		cbz	r3, .L116
 677 004e D368     		ldr	r3, [r2, #12]
 678 0050 5A04     		lsls	r2, r3, #17
 679 0052 08D5     		bpl	.L116
 680 0054 2046     		mov	r0, r4
 681 0056 FFF7FEFF 		bl	HAL_RTCEx_Tamper2EventCallback
 682 005a 2268     		ldr	r2, [r4]
 683 005c D368     		ldr	r3, [r2, #12]
 684 005e DBB2     		uxtb	r3, r3
 685 0060 63F48143 		orn	r3, r3, #16512
 686 0064 D360     		str	r3, [r2, #12]
 687              	.L116:
 688 0066 2268     		ldr	r2, [r4]
 689 0068 104B     		ldr	r3, .L142+8
 690 006a 116C     		ldr	r1, [r2, #64]
 691 006c 0B40     		ands	r3, r3, r1
 692 006e 8BB1     		cbz	r3, .L117
 693 0070 D368     		ldr	r3, [r2, #12]
 694 0072 1B04     		lsls	r3, r3, #16
 695 0074 0ED5     		bpl	.L117
 696 0076 2046     		mov	r0, r4
 697 0078 FFF7FEFF 		bl	HAL_RTCEx_Tamper3EventCallback
 698 007c 2268     		ldr	r2, [r4]
 699 007e D368     		ldr	r3, [r2, #12]
 700 0080 DBB2     		uxtb	r3, r3
 701 0082 43F07F43 		orr	r3, r3, #-16777216
 702 0086 43F47F03 		orr	r3, r3, #16711680
 703 008a 43F4FE43 		orr	r3, r3, #32512
 704 008e 43F07F03 		orr	r3, r3, #127
 705 0092 D360     		str	r3, [r2, #12]
 706              	.L117:
 707 0094 064B     		ldr	r3, .L142+12
 708 0096 4FF40012 		mov	r2, #2097152
 709 009a 5A61     		str	r2, [r3, #20]
 710 009c 0123     		movs	r3, #1
 711 009e 6377     		strb	r3, [r4, #29]
ARM GAS  /tmp/cc1LgFws.s 			page 13


 712 00a0 10BD     		pop	{r4, pc}
 713              	.L143:
 714 00a2 00BF     		.align	2
 715              	.L142:
 716 00a4 04000100 		.word	65540
 717 00a8 04000800 		.word	524292
 718 00ac 04004000 		.word	4194308
 719 00b0 003C0140 		.word	1073822720
 721              		.section	.text.HAL_RTCEx_PollForTimeStampEvent,"ax",%progbits
 722              		.align	1
 723              		.global	HAL_RTCEx_PollForTimeStampEvent
 724              		.syntax unified
 725              		.thumb
 726              		.thumb_func
 727              		.fpu fpv5-sp-d16
 729              	HAL_RTCEx_PollForTimeStampEvent:
 730              		@ args = 0, pretend = 0, frame = 0
 731              		@ frame_needed = 0, uses_anonymous_args = 0
 732 0000 70B5     		push	{r4, r5, r6, lr}
 733 0002 0446     		mov	r4, r0
 734 0004 0D46     		mov	r5, r1
 735 0006 FFF7FEFF 		bl	HAL_GetTick
 736 000a 0646     		mov	r6, r0
 737              	.L145:
 738 000c 2268     		ldr	r2, [r4]
 739              	.L146:
 740 000e D368     		ldr	r3, [r2, #12]
 741 0010 1B05     		lsls	r3, r3, #20
 742 0012 0CD5     		bpl	.L150
 743 0014 D068     		ldr	r0, [r2, #12]
 744 0016 10F48050 		ands	r0, r0, #4096
 745 001a 14D0     		beq	.L151
 746 001c D368     		ldr	r3, [r2, #12]
 747 001e 0120     		movs	r0, #1
 748 0020 DBB2     		uxtb	r3, r3
 749 0022 63F48453 		orn	r3, r3, #4224
 750 0026 D360     		str	r3, [r2, #12]
 751 0028 0423     		movs	r3, #4
 752 002a 6377     		strb	r3, [r4, #29]
 753 002c 04E0     		b	.L148
 754              	.L150:
 755 002e 691C     		adds	r1, r5, #1
 756 0030 EDD0     		beq	.L146
 757 0032 15B9     		cbnz	r5, .L147
 758              	.L149:
 759 0034 0320     		movs	r0, #3
 760 0036 6077     		strb	r0, [r4, #29]
 761              	.L148:
 762 0038 70BD     		pop	{r4, r5, r6, pc}
 763              	.L147:
 764 003a FFF7FEFF 		bl	HAL_GetTick
 765 003e 801B     		subs	r0, r0, r6
 766 0040 A842     		cmp	r0, r5
 767 0042 E3D9     		bls	.L145
 768 0044 F6E7     		b	.L149
 769              	.L151:
 770 0046 0123     		movs	r3, #1
ARM GAS  /tmp/cc1LgFws.s 			page 14


 771 0048 6377     		strb	r3, [r4, #29]
 772 004a F5E7     		b	.L148
 774              		.section	.text.HAL_RTCEx_PollForTamper1Event,"ax",%progbits
 775              		.align	1
 776              		.global	HAL_RTCEx_PollForTamper1Event
 777              		.syntax unified
 778              		.thumb
 779              		.thumb_func
 780              		.fpu fpv5-sp-d16
 782              	HAL_RTCEx_PollForTamper1Event:
 783              		@ args = 0, pretend = 0, frame = 0
 784              		@ frame_needed = 0, uses_anonymous_args = 0
 785 0000 70B5     		push	{r4, r5, r6, lr}
 786 0002 0446     		mov	r4, r0
 787 0004 0D46     		mov	r5, r1
 788 0006 FFF7FEFF 		bl	HAL_GetTick
 789 000a 0646     		mov	r6, r0
 790              	.L155:
 791 000c 2268     		ldr	r2, [r4]
 792              	.L156:
 793 000e D368     		ldr	r3, [r2, #12]
 794 0010 9B04     		lsls	r3, r3, #18
 795 0012 08D5     		bpl	.L160
 796 0014 D368     		ldr	r3, [r2, #12]
 797 0016 0020     		movs	r0, #0
 798 0018 DBB2     		uxtb	r3, r3
 799 001a 63F40253 		orn	r3, r3, #8320
 800 001e D360     		str	r3, [r2, #12]
 801 0020 0123     		movs	r3, #1
 802 0022 6377     		strb	r3, [r4, #29]
 803 0024 04E0     		b	.L158
 804              	.L160:
 805 0026 691C     		adds	r1, r5, #1
 806 0028 F1D0     		beq	.L156
 807 002a 15B9     		cbnz	r5, .L157
 808              	.L159:
 809 002c 0320     		movs	r0, #3
 810 002e 6077     		strb	r0, [r4, #29]
 811              	.L158:
 812 0030 70BD     		pop	{r4, r5, r6, pc}
 813              	.L157:
 814 0032 FFF7FEFF 		bl	HAL_GetTick
 815 0036 801B     		subs	r0, r0, r6
 816 0038 A842     		cmp	r0, r5
 817 003a E7D9     		bls	.L155
 818 003c F6E7     		b	.L159
 820              		.section	.text.HAL_RTCEx_PollForTamper2Event,"ax",%progbits
 821              		.align	1
 822              		.global	HAL_RTCEx_PollForTamper2Event
 823              		.syntax unified
 824              		.thumb
 825              		.thumb_func
 826              		.fpu fpv5-sp-d16
 828              	HAL_RTCEx_PollForTamper2Event:
 829              		@ args = 0, pretend = 0, frame = 0
 830              		@ frame_needed = 0, uses_anonymous_args = 0
 831 0000 70B5     		push	{r4, r5, r6, lr}
ARM GAS  /tmp/cc1LgFws.s 			page 15


 832 0002 0446     		mov	r4, r0
 833 0004 0D46     		mov	r5, r1
 834 0006 FFF7FEFF 		bl	HAL_GetTick
 835 000a 0646     		mov	r6, r0
 836              	.L164:
 837 000c 2268     		ldr	r2, [r4]
 838              	.L165:
 839 000e D368     		ldr	r3, [r2, #12]
 840 0010 5B04     		lsls	r3, r3, #17
 841 0012 08D5     		bpl	.L169
 842 0014 D368     		ldr	r3, [r2, #12]
 843 0016 0020     		movs	r0, #0
 844 0018 DBB2     		uxtb	r3, r3
 845 001a 63F48143 		orn	r3, r3, #16512
 846 001e D360     		str	r3, [r2, #12]
 847 0020 0123     		movs	r3, #1
 848 0022 6377     		strb	r3, [r4, #29]
 849 0024 04E0     		b	.L167
 850              	.L169:
 851 0026 691C     		adds	r1, r5, #1
 852 0028 F1D0     		beq	.L165
 853 002a 15B9     		cbnz	r5, .L166
 854              	.L168:
 855 002c 0320     		movs	r0, #3
 856 002e 6077     		strb	r0, [r4, #29]
 857              	.L167:
 858 0030 70BD     		pop	{r4, r5, r6, pc}
 859              	.L166:
 860 0032 FFF7FEFF 		bl	HAL_GetTick
 861 0036 801B     		subs	r0, r0, r6
 862 0038 A842     		cmp	r0, r5
 863 003a E7D9     		bls	.L164
 864 003c F6E7     		b	.L168
 866              		.section	.text.HAL_RTCEx_PollForTamper3Event,"ax",%progbits
 867              		.align	1
 868              		.global	HAL_RTCEx_PollForTamper3Event
 869              		.syntax unified
 870              		.thumb
 871              		.thumb_func
 872              		.fpu fpv5-sp-d16
 874              	HAL_RTCEx_PollForTamper3Event:
 875              		@ args = 0, pretend = 0, frame = 0
 876              		@ frame_needed = 0, uses_anonymous_args = 0
 877 0000 70B5     		push	{r4, r5, r6, lr}
 878 0002 0446     		mov	r4, r0
 879 0004 0D46     		mov	r5, r1
 880 0006 FFF7FEFF 		bl	HAL_GetTick
 881 000a 0646     		mov	r6, r0
 882              	.L173:
 883 000c 2268     		ldr	r2, [r4]
 884              	.L174:
 885 000e D368     		ldr	r3, [r2, #12]
 886 0010 1B04     		lsls	r3, r3, #16
 887 0012 0ED5     		bpl	.L178
 888 0014 D368     		ldr	r3, [r2, #12]
 889 0016 0020     		movs	r0, #0
 890 0018 DBB2     		uxtb	r3, r3
ARM GAS  /tmp/cc1LgFws.s 			page 16


 891 001a 43F07F43 		orr	r3, r3, #-16777216
 892 001e 43F47F03 		orr	r3, r3, #16711680
 893 0022 43F4FE43 		orr	r3, r3, #32512
 894 0026 43F07F03 		orr	r3, r3, #127
 895 002a D360     		str	r3, [r2, #12]
 896 002c 0123     		movs	r3, #1
 897 002e 6377     		strb	r3, [r4, #29]
 898 0030 04E0     		b	.L176
 899              	.L178:
 900 0032 691C     		adds	r1, r5, #1
 901 0034 EBD0     		beq	.L174
 902 0036 15B9     		cbnz	r5, .L175
 903              	.L177:
 904 0038 0320     		movs	r0, #3
 905 003a 6077     		strb	r0, [r4, #29]
 906              	.L176:
 907 003c 70BD     		pop	{r4, r5, r6, pc}
 908              	.L175:
 909 003e FFF7FEFF 		bl	HAL_GetTick
 910 0042 801B     		subs	r0, r0, r6
 911 0044 A842     		cmp	r0, r5
 912 0046 E1D9     		bls	.L173
 913 0048 F6E7     		b	.L177
 915              		.section	.text.HAL_RTCEx_SetWakeUpTimer,"ax",%progbits
 916              		.align	1
 917              		.global	HAL_RTCEx_SetWakeUpTimer
 918              		.syntax unified
 919              		.thumb
 920              		.thumb_func
 921              		.fpu fpv5-sp-d16
 923              	HAL_RTCEx_SetWakeUpTimer:
 924              		@ args = 0, pretend = 0, frame = 0
 925              		@ frame_needed = 0, uses_anonymous_args = 0
 926 0000 037F     		ldrb	r3, [r0, #28]	@ zero_extendqisi2
 927 0002 012B     		cmp	r3, #1
 928 0004 2DE9F041 		push	{r4, r5, r6, r7, r8, lr}
 929 0008 0446     		mov	r4, r0
 930 000a 0E46     		mov	r6, r1
 931 000c 1746     		mov	r7, r2
 932 000e 4FF00200 		mov	r0, #2
 933 0012 25D0     		beq	.L182
 934 0014 0123     		movs	r3, #1
 935 0016 CA22     		movs	r2, #202
 936 0018 6077     		strb	r0, [r4, #29]
 937 001a 2377     		strb	r3, [r4, #28]
 938 001c 2368     		ldr	r3, [r4]
 939 001e 5A62     		str	r2, [r3, #36]
 940 0020 5322     		movs	r2, #83
 941 0022 5A62     		str	r2, [r3, #36]
 942 0024 9A68     		ldr	r2, [r3, #8]
 943 0026 22F48062 		bic	r2, r2, #1024
 944 002a 9A60     		str	r2, [r3, #8]
 945 002c FFF7FEFF 		bl	HAL_GetTick
 946 0030 2368     		ldr	r3, [r4]
 947 0032 8046     		mov	r8, r0
 948 0034 9B68     		ldr	r3, [r3, #8]
 949 0036 5B05     		lsls	r3, r3, #21
ARM GAS  /tmp/cc1LgFws.s 			page 17


 950 0038 14D4     		bmi	.L183
 951              	.L185:
 952 003a 2368     		ldr	r3, [r4]
 953 003c 0020     		movs	r0, #0
 954 003e 9A68     		ldr	r2, [r3, #8]
 955 0040 22F00702 		bic	r2, r2, #7
 956 0044 9A60     		str	r2, [r3, #8]
 957 0046 9A68     		ldr	r2, [r3, #8]
 958 0048 3A43     		orrs	r2, r2, r7
 959 004a 9A60     		str	r2, [r3, #8]
 960 004c 5E61     		str	r6, [r3, #20]
 961 004e 9A68     		ldr	r2, [r3, #8]
 962 0050 42F48062 		orr	r2, r2, #1024
 963 0054 9A60     		str	r2, [r3, #8]
 964 0056 FF22     		movs	r2, #255
 965 0058 5A62     		str	r2, [r3, #36]
 966 005a 0123     		movs	r3, #1
 967 005c 2077     		strb	r0, [r4, #28]
 968 005e 6377     		strb	r3, [r4, #29]
 969              	.L182:
 970 0060 BDE8F081 		pop	{r4, r5, r6, r7, r8, pc}
 971              	.L183:
 972 0064 2368     		ldr	r3, [r4]
 973 0066 DD68     		ldr	r5, [r3, #12]
 974 0068 15F00405 		ands	r5, r5, #4
 975 006c E5D1     		bne	.L185
 976 006e FFF7FEFF 		bl	HAL_GetTick
 977 0072 A0EB0800 		sub	r0, r0, r8
 978 0076 B0F57A7F 		cmp	r0, #1000
 979 007a F3D9     		bls	.L183
 980 007c 2368     		ldr	r3, [r4]
 981 007e FF22     		movs	r2, #255
 982 0080 0320     		movs	r0, #3
 983 0082 5A62     		str	r2, [r3, #36]
 984 0084 6077     		strb	r0, [r4, #29]
 985 0086 2577     		strb	r5, [r4, #28]
 986 0088 EAE7     		b	.L182
 988              		.section	.text.HAL_RTCEx_SetWakeUpTimer_IT,"ax",%progbits
 989              		.align	1
 990              		.global	HAL_RTCEx_SetWakeUpTimer_IT
 991              		.syntax unified
 992              		.thumb
 993              		.thumb_func
 994              		.fpu fpv5-sp-d16
 996              	HAL_RTCEx_SetWakeUpTimer_IT:
 997              		@ args = 0, pretend = 0, frame = 8
 998              		@ frame_needed = 0, uses_anonymous_args = 0
 999 0000 037F     		ldrb	r3, [r0, #28]	@ zero_extendqisi2
 1000 0002 012B     		cmp	r3, #1
 1001 0004 4FF00203 		mov	r3, #2
 1002 0008 73B5     		push	{r0, r1, r4, r5, r6, lr}
 1003 000a 31D0     		beq	.L190
 1004 000c 0124     		movs	r4, #1
 1005 000e 4377     		strb	r3, [r0, #29]
 1006 0010 0368     		ldr	r3, [r0]
 1007 0012 4FF4FA45 		mov	r5, #32000
 1008 0016 0477     		strb	r4, [r0, #28]
ARM GAS  /tmp/cc1LgFws.s 			page 18


 1009 0018 CA24     		movs	r4, #202
 1010 001a 5C62     		str	r4, [r3, #36]
 1011 001c 5324     		movs	r4, #83
 1012 001e 5C62     		str	r4, [r3, #36]
 1013 0020 9C68     		ldr	r4, [r3, #8]
 1014 0022 24F48064 		bic	r4, r4, #1024
 1015 0026 9C60     		str	r4, [r3, #8]
 1016 0028 294C     		ldr	r4, .L201
 1017 002a 9E68     		ldr	r6, [r3, #8]
 1018 002c 2468     		ldr	r4, [r4]
 1019 002e 7605     		lsls	r6, r6, #21
 1020 0030 B4FBF5F5 		udiv	r5, r4, r5
 1021 0034 4FF47A74 		mov	r4, #1000
 1022 0038 04FB05F4 		mul	r4, r4, r5
 1023 003c 0ED4     		bmi	.L191
 1024              	.L195:
 1025 003e 9D68     		ldr	r5, [r3, #8]
 1026 0040 25F48065 		bic	r5, r5, #1024
 1027 0044 9D60     		str	r5, [r3, #8]
 1028 0046 0194     		str	r4, [sp, #4]
 1029              	.L192:
 1030 0048 019C     		ldr	r4, [sp, #4]
 1031 004a 651E     		subs	r5, r4, #1
 1032 004c 0195     		str	r5, [sp, #4]
 1033 004e B4B9     		cbnz	r4, .L196
 1034 0050 FF22     		movs	r2, #255
 1035 0052 5A62     		str	r2, [r3, #36]
 1036 0054 0323     		movs	r3, #3
 1037 0056 0477     		strb	r4, [r0, #28]
 1038 0058 4377     		strb	r3, [r0, #29]
 1039 005a 09E0     		b	.L190
 1040              	.L191:
 1041 005c 0194     		str	r4, [sp, #4]
 1042              	.L194:
 1043 005e 019D     		ldr	r5, [sp, #4]
 1044 0060 6E1E     		subs	r6, r5, #1
 1045 0062 0196     		str	r6, [sp, #4]
 1046 0064 3DB9     		cbnz	r5, .L193
 1047 0066 FF22     		movs	r2, #255
 1048 0068 5A62     		str	r2, [r3, #36]
 1049 006a 0323     		movs	r3, #3
 1050 006c 0577     		strb	r5, [r0, #28]
 1051 006e 4377     		strb	r3, [r0, #29]
 1052              	.L190:
 1053 0070 1846     		mov	r0, r3
 1054 0072 02B0     		add	sp, sp, #8
 1055              		@ sp needed
 1056 0074 70BD     		pop	{r4, r5, r6, pc}
 1057              	.L193:
 1058 0076 DD68     		ldr	r5, [r3, #12]
 1059 0078 6D07     		lsls	r5, r5, #29
 1060 007a F0D4     		bmi	.L194
 1061 007c DFE7     		b	.L195
 1062              	.L196:
 1063 007e DC68     		ldr	r4, [r3, #12]
 1064 0080 6407     		lsls	r4, r4, #29
 1065 0082 E1D5     		bpl	.L192
ARM GAS  /tmp/cc1LgFws.s 			page 19


 1066 0084 5961     		str	r1, [r3, #20]
 1067 0086 9C68     		ldr	r4, [r3, #8]
 1068 0088 24F00704 		bic	r4, r4, #7
 1069 008c 9C60     		str	r4, [r3, #8]
 1070 008e 9968     		ldr	r1, [r3, #8]
 1071 0090 1143     		orrs	r1, r1, r2
 1072 0092 104A     		ldr	r2, .L201+4
 1073 0094 9960     		str	r1, [r3, #8]
 1074 0096 1168     		ldr	r1, [r2]
 1075 0098 41F48001 		orr	r1, r1, #4194304
 1076 009c 1160     		str	r1, [r2]
 1077 009e 9168     		ldr	r1, [r2, #8]
 1078 00a0 41F48001 		orr	r1, r1, #4194304
 1079 00a4 9160     		str	r1, [r2, #8]
 1080 00a6 DA68     		ldr	r2, [r3, #12]
 1081 00a8 D2B2     		uxtb	r2, r2
 1082 00aa 62F49062 		orn	r2, r2, #1152
 1083 00ae DA60     		str	r2, [r3, #12]
 1084 00b0 9A68     		ldr	r2, [r3, #8]
 1085 00b2 42F48042 		orr	r2, r2, #16384
 1086 00b6 9A60     		str	r2, [r3, #8]
 1087 00b8 9A68     		ldr	r2, [r3, #8]
 1088 00ba 42F48062 		orr	r2, r2, #1024
 1089 00be 9A60     		str	r2, [r3, #8]
 1090 00c0 FF22     		movs	r2, #255
 1091 00c2 5A62     		str	r2, [r3, #36]
 1092 00c4 0123     		movs	r3, #1
 1093 00c6 4377     		strb	r3, [r0, #29]
 1094 00c8 0023     		movs	r3, #0
 1095 00ca 0377     		strb	r3, [r0, #28]
 1096 00cc D0E7     		b	.L190
 1097              	.L202:
 1098 00ce 00BF     		.align	2
 1099              	.L201:
 1100 00d0 00000000 		.word	SystemCoreClock
 1101 00d4 003C0140 		.word	1073822720
 1103              		.section	.text.HAL_RTCEx_DeactivateWakeUpTimer,"ax",%progbits
 1104              		.align	1
 1105              		.global	HAL_RTCEx_DeactivateWakeUpTimer
 1106              		.syntax unified
 1107              		.thumb
 1108              		.thumb_func
 1109              		.fpu fpv5-sp-d16
 1111              	HAL_RTCEx_DeactivateWakeUpTimer:
 1112              		@ args = 0, pretend = 0, frame = 0
 1113              		@ frame_needed = 0, uses_anonymous_args = 0
 1114 0000 037F     		ldrb	r3, [r0, #28]	@ zero_extendqisi2
 1115 0002 012B     		cmp	r3, #1
 1116 0004 70B5     		push	{r4, r5, r6, lr}
 1117 0006 0446     		mov	r4, r0
 1118 0008 4FF00200 		mov	r0, #2
 1119 000c 2AD0     		beq	.L203
 1120 000e 0123     		movs	r3, #1
 1121 0010 CA22     		movs	r2, #202
 1122 0012 6077     		strb	r0, [r4, #29]
 1123 0014 2377     		strb	r3, [r4, #28]
 1124 0016 2368     		ldr	r3, [r4]
ARM GAS  /tmp/cc1LgFws.s 			page 20


 1125 0018 5A62     		str	r2, [r3, #36]
 1126 001a 5322     		movs	r2, #83
 1127 001c 5A62     		str	r2, [r3, #36]
 1128 001e 9A68     		ldr	r2, [r3, #8]
 1129 0020 22F48062 		bic	r2, r2, #1024
 1130 0024 9A60     		str	r2, [r3, #8]
 1131 0026 9A68     		ldr	r2, [r3, #8]
 1132 0028 22F48042 		bic	r2, r2, #16384
 1133 002c 9A60     		str	r2, [r3, #8]
 1134 002e FFF7FEFF 		bl	HAL_GetTick
 1135 0032 0646     		mov	r6, r0
 1136              	.L205:
 1137 0034 2268     		ldr	r2, [r4]
 1138 0036 D568     		ldr	r5, [r2, #12]
 1139 0038 15F00405 		ands	r5, r5, #4
 1140 003c 06D0     		beq	.L206
 1141 003e FF23     		movs	r3, #255
 1142 0040 0020     		movs	r0, #0
 1143 0042 5362     		str	r3, [r2, #36]
 1144 0044 0123     		movs	r3, #1
 1145 0046 2077     		strb	r0, [r4, #28]
 1146 0048 6377     		strb	r3, [r4, #29]
 1147 004a 0BE0     		b	.L203
 1148              	.L206:
 1149 004c FFF7FEFF 		bl	HAL_GetTick
 1150 0050 801B     		subs	r0, r0, r6
 1151 0052 B0F57A7F 		cmp	r0, #1000
 1152 0056 EDD9     		bls	.L205
 1153 0058 2368     		ldr	r3, [r4]
 1154 005a FF22     		movs	r2, #255
 1155 005c 0320     		movs	r0, #3
 1156 005e 5A62     		str	r2, [r3, #36]
 1157 0060 6077     		strb	r0, [r4, #29]
 1158 0062 2577     		strb	r5, [r4, #28]
 1159              	.L203:
 1160 0064 70BD     		pop	{r4, r5, r6, pc}
 1162              		.section	.text.HAL_RTCEx_GetWakeUpTimer,"ax",%progbits
 1163              		.align	1
 1164              		.global	HAL_RTCEx_GetWakeUpTimer
 1165              		.syntax unified
 1166              		.thumb
 1167              		.thumb_func
 1168              		.fpu fpv5-sp-d16
 1170              	HAL_RTCEx_GetWakeUpTimer:
 1171              		@ args = 0, pretend = 0, frame = 0
 1172              		@ frame_needed = 0, uses_anonymous_args = 0
 1173              		@ link register save eliminated.
 1174 0000 0368     		ldr	r3, [r0]
 1175 0002 5869     		ldr	r0, [r3, #20]
 1176 0004 80B2     		uxth	r0, r0
 1177 0006 7047     		bx	lr
 1179              		.section	.text.HAL_RTCEx_WakeUpTimerEventCallback,"ax",%progbits
 1180              		.align	1
 1181              		.weak	HAL_RTCEx_WakeUpTimerEventCallback
 1182              		.syntax unified
 1183              		.thumb
 1184              		.thumb_func
ARM GAS  /tmp/cc1LgFws.s 			page 21


 1185              		.fpu fpv5-sp-d16
 1187              	HAL_RTCEx_WakeUpTimerEventCallback:
 1188              		@ args = 0, pretend = 0, frame = 0
 1189              		@ frame_needed = 0, uses_anonymous_args = 0
 1190              		@ link register save eliminated.
 1191 0000 7047     		bx	lr
 1193              		.section	.text.HAL_RTCEx_WakeUpTimerIRQHandler,"ax",%progbits
 1194              		.align	1
 1195              		.global	HAL_RTCEx_WakeUpTimerIRQHandler
 1196              		.syntax unified
 1197              		.thumb
 1198              		.thumb_func
 1199              		.fpu fpv5-sp-d16
 1201              	HAL_RTCEx_WakeUpTimerIRQHandler:
 1202              		@ args = 0, pretend = 0, frame = 0
 1203              		@ frame_needed = 0, uses_anonymous_args = 0
 1204 0000 0368     		ldr	r3, [r0]
 1205 0002 DB68     		ldr	r3, [r3, #12]
 1206 0004 5B05     		lsls	r3, r3, #21
 1207 0006 10B5     		push	{r4, lr}
 1208 0008 0446     		mov	r4, r0
 1209 000a 07D5     		bpl	.L212
 1210 000c FFF7FEFF 		bl	HAL_RTCEx_WakeUpTimerEventCallback
 1211 0010 2268     		ldr	r2, [r4]
 1212 0012 D368     		ldr	r3, [r2, #12]
 1213 0014 DBB2     		uxtb	r3, r3
 1214 0016 63F49063 		orn	r3, r3, #1152
 1215 001a D360     		str	r3, [r2, #12]
 1216              	.L212:
 1217 001c 034B     		ldr	r3, .L216
 1218 001e 4FF48002 		mov	r2, #4194304
 1219 0022 5A61     		str	r2, [r3, #20]
 1220 0024 0123     		movs	r3, #1
 1221 0026 6377     		strb	r3, [r4, #29]
 1222 0028 10BD     		pop	{r4, pc}
 1223              	.L217:
 1224 002a 00BF     		.align	2
 1225              	.L216:
 1226 002c 003C0140 		.word	1073822720
 1228              		.section	.text.HAL_RTCEx_PollForWakeUpTimerEvent,"ax",%progbits
 1229              		.align	1
 1230              		.global	HAL_RTCEx_PollForWakeUpTimerEvent
 1231              		.syntax unified
 1232              		.thumb
 1233              		.thumb_func
 1234              		.fpu fpv5-sp-d16
 1236              	HAL_RTCEx_PollForWakeUpTimerEvent:
 1237              		@ args = 0, pretend = 0, frame = 0
 1238              		@ frame_needed = 0, uses_anonymous_args = 0
 1239 0000 70B5     		push	{r4, r5, r6, lr}
 1240 0002 0446     		mov	r4, r0
 1241 0004 0D46     		mov	r5, r1
 1242 0006 FFF7FEFF 		bl	HAL_GetTick
 1243 000a 0646     		mov	r6, r0
 1244              	.L219:
 1245 000c 2268     		ldr	r2, [r4]
 1246              	.L220:
ARM GAS  /tmp/cc1LgFws.s 			page 22


 1247 000e D368     		ldr	r3, [r2, #12]
 1248 0010 5B05     		lsls	r3, r3, #21
 1249 0012 08D5     		bpl	.L224
 1250 0014 D368     		ldr	r3, [r2, #12]
 1251 0016 0020     		movs	r0, #0
 1252 0018 DBB2     		uxtb	r3, r3
 1253 001a 63F49063 		orn	r3, r3, #1152
 1254 001e D360     		str	r3, [r2, #12]
 1255 0020 0123     		movs	r3, #1
 1256 0022 6377     		strb	r3, [r4, #29]
 1257 0024 04E0     		b	.L222
 1258              	.L224:
 1259 0026 691C     		adds	r1, r5, #1
 1260 0028 F1D0     		beq	.L220
 1261 002a 15B9     		cbnz	r5, .L221
 1262              	.L223:
 1263 002c 0320     		movs	r0, #3
 1264 002e 6077     		strb	r0, [r4, #29]
 1265              	.L222:
 1266 0030 70BD     		pop	{r4, r5, r6, pc}
 1267              	.L221:
 1268 0032 FFF7FEFF 		bl	HAL_GetTick
 1269 0036 801B     		subs	r0, r0, r6
 1270 0038 A842     		cmp	r0, r5
 1271 003a E7D9     		bls	.L219
 1272 003c F6E7     		b	.L223
 1274              		.section	.text.HAL_RTCEx_BKUPWrite,"ax",%progbits
 1275              		.align	1
 1276              		.global	HAL_RTCEx_BKUPWrite
 1277              		.syntax unified
 1278              		.thumb
 1279              		.thumb_func
 1280              		.fpu fpv5-sp-d16
 1282              	HAL_RTCEx_BKUPWrite:
 1283              		@ args = 0, pretend = 0, frame = 0
 1284              		@ frame_needed = 0, uses_anonymous_args = 0
 1285              		@ link register save eliminated.
 1286 0000 0368     		ldr	r3, [r0]
 1287 0002 5033     		adds	r3, r3, #80
 1288 0004 43F82120 		str	r2, [r3, r1, lsl #2]
 1289 0008 7047     		bx	lr
 1291              		.section	.text.HAL_RTCEx_BKUPRead,"ax",%progbits
 1292              		.align	1
 1293              		.global	HAL_RTCEx_BKUPRead
 1294              		.syntax unified
 1295              		.thumb
 1296              		.thumb_func
 1297              		.fpu fpv5-sp-d16
 1299              	HAL_RTCEx_BKUPRead:
 1300              		@ args = 0, pretend = 0, frame = 0
 1301              		@ frame_needed = 0, uses_anonymous_args = 0
 1302              		@ link register save eliminated.
 1303 0000 0368     		ldr	r3, [r0]
 1304 0002 5033     		adds	r3, r3, #80
 1305 0004 53F82100 		ldr	r0, [r3, r1, lsl #2]
 1306 0008 7047     		bx	lr
 1308              		.section	.text.HAL_RTCEx_SetSmoothCalib,"ax",%progbits
ARM GAS  /tmp/cc1LgFws.s 			page 23


 1309              		.align	1
 1310              		.global	HAL_RTCEx_SetSmoothCalib
 1311              		.syntax unified
 1312              		.thumb
 1313              		.thumb_func
 1314              		.fpu fpv5-sp-d16
 1316              	HAL_RTCEx_SetSmoothCalib:
 1317              		@ args = 0, pretend = 0, frame = 0
 1318              		@ frame_needed = 0, uses_anonymous_args = 0
 1319 0000 2DE9F041 		push	{r4, r5, r6, r7, r8, lr}
 1320 0004 1F46     		mov	r7, r3
 1321 0006 037F     		ldrb	r3, [r0, #28]	@ zero_extendqisi2
 1322 0008 0446     		mov	r4, r0
 1323 000a 0E46     		mov	r6, r1
 1324 000c 012B     		cmp	r3, #1
 1325 000e 1546     		mov	r5, r2
 1326 0010 4FF00200 		mov	r0, #2
 1327 0014 14D0     		beq	.L230
 1328 0016 0123     		movs	r3, #1
 1329 0018 CA22     		movs	r2, #202
 1330 001a 6077     		strb	r0, [r4, #29]
 1331 001c 2377     		strb	r3, [r4, #28]
 1332 001e 2368     		ldr	r3, [r4]
 1333 0020 5A62     		str	r2, [r3, #36]
 1334 0022 5322     		movs	r2, #83
 1335 0024 5A62     		str	r2, [r3, #36]
 1336 0026 DB68     		ldr	r3, [r3, #12]
 1337 0028 DA03     		lsls	r2, r3, #15
 1338 002a 0BD4     		bmi	.L231
 1339              	.L234:
 1340 002c 3D43     		orrs	r5, r5, r7
 1341 002e 2368     		ldr	r3, [r4]
 1342 0030 FF22     		movs	r2, #255
 1343 0032 0020     		movs	r0, #0
 1344 0034 3543     		orrs	r5, r5, r6
 1345 0036 DD63     		str	r5, [r3, #60]
 1346 0038 5A62     		str	r2, [r3, #36]
 1347 003a 0123     		movs	r3, #1
 1348 003c 2077     		strb	r0, [r4, #28]
 1349 003e 6377     		strb	r3, [r4, #29]
 1350              	.L230:
 1351 0040 BDE8F081 		pop	{r4, r5, r6, r7, r8, pc}
 1352              	.L231:
 1353 0044 FFF7FEFF 		bl	HAL_GetTick
 1354 0048 8046     		mov	r8, r0
 1355              	.L232:
 1356 004a 2368     		ldr	r3, [r4]
 1357 004c DB68     		ldr	r3, [r3, #12]
 1358 004e DB03     		lsls	r3, r3, #15
 1359 0050 ECD5     		bpl	.L234
 1360 0052 FFF7FEFF 		bl	HAL_GetTick
 1361 0056 A0EB0800 		sub	r0, r0, r8
 1362 005a B0F57A7F 		cmp	r0, #1000
 1363 005e F4D9     		bls	.L232
 1364 0060 2368     		ldr	r3, [r4]
 1365 0062 FF22     		movs	r2, #255
 1366 0064 0320     		movs	r0, #3
ARM GAS  /tmp/cc1LgFws.s 			page 24


 1367 0066 5A62     		str	r2, [r3, #36]
 1368 0068 0023     		movs	r3, #0
 1369 006a 6077     		strb	r0, [r4, #29]
 1370 006c 2377     		strb	r3, [r4, #28]
 1371 006e E7E7     		b	.L230
 1373              		.section	.text.HAL_RTCEx_SetSynchroShift,"ax",%progbits
 1374              		.align	1
 1375              		.global	HAL_RTCEx_SetSynchroShift
 1376              		.syntax unified
 1377              		.thumb
 1378              		.thumb_func
 1379              		.fpu fpv5-sp-d16
 1381              	HAL_RTCEx_SetSynchroShift:
 1382              		@ args = 0, pretend = 0, frame = 0
 1383              		@ frame_needed = 0, uses_anonymous_args = 0
 1384 0000 F8B5     		push	{r3, r4, r5, r6, r7, lr}
 1385 0002 037F     		ldrb	r3, [r0, #28]	@ zero_extendqisi2
 1386 0004 0446     		mov	r4, r0
 1387 0006 0E46     		mov	r6, r1
 1388 0008 1546     		mov	r5, r2
 1389 000a 012B     		cmp	r3, #1
 1390 000c 4FF00200 		mov	r0, #2
 1391 0010 31D0     		beq	.L238
 1392 0012 0123     		movs	r3, #1
 1393 0014 CA22     		movs	r2, #202
 1394 0016 6077     		strb	r0, [r4, #29]
 1395 0018 2377     		strb	r3, [r4, #28]
 1396 001a 2368     		ldr	r3, [r4]
 1397 001c 5A62     		str	r2, [r3, #36]
 1398 001e 5322     		movs	r2, #83
 1399 0020 5A62     		str	r2, [r3, #36]
 1400 0022 FFF7FEFF 		bl	HAL_GetTick
 1401 0026 0746     		mov	r7, r0
 1402              	.L239:
 1403 0028 2368     		ldr	r3, [r4]
 1404 002a D968     		ldr	r1, [r3, #12]
 1405 002c 11F00801 		ands	r1, r1, #8
 1406 0030 14D1     		bne	.L240
 1407 0032 9A68     		ldr	r2, [r3, #8]
 1408 0034 D206     		lsls	r2, r2, #27
 1409 0036 1FD4     		bmi	.L241
 1410 0038 3543     		orrs	r5, r5, r6
 1411 003a DD62     		str	r5, [r3, #44]
 1412 003c 9D68     		ldr	r5, [r3, #8]
 1413 003e 15F02005 		ands	r5, r5, #32
 1414 0042 1FD1     		bne	.L242
 1415 0044 2046     		mov	r0, r4
 1416 0046 FFF7FEFF 		bl	HAL_RTC_WaitForSynchro
 1417 004a D8B1     		cbz	r0, .L242
 1418 004c 2368     		ldr	r3, [r4]
 1419 004e FF22     		movs	r2, #255
 1420 0050 5A62     		str	r2, [r3, #36]
 1421 0052 0423     		movs	r3, #4
 1422 0054 2577     		strb	r5, [r4, #28]
 1423 0056 6377     		strb	r3, [r4, #29]
 1424              	.L248:
 1425 0058 0120     		movs	r0, #1
ARM GAS  /tmp/cc1LgFws.s 			page 25


 1426 005a 0CE0     		b	.L238
 1427              	.L240:
 1428 005c FFF7FEFF 		bl	HAL_GetTick
 1429 0060 C01B     		subs	r0, r0, r7
 1430 0062 B0F57A7F 		cmp	r0, #1000
 1431 0066 DFD9     		bls	.L239
 1432 0068 2368     		ldr	r3, [r4]
 1433 006a FF22     		movs	r2, #255
 1434 006c 0320     		movs	r0, #3
 1435 006e 5A62     		str	r2, [r3, #36]
 1436 0070 0023     		movs	r3, #0
 1437 0072 6077     		strb	r0, [r4, #29]
 1438 0074 2377     		strb	r3, [r4, #28]
 1439              	.L238:
 1440 0076 F8BD     		pop	{r3, r4, r5, r6, r7, pc}
 1441              	.L241:
 1442 0078 FF22     		movs	r2, #255
 1443 007a 5A62     		str	r2, [r3, #36]
 1444 007c 0423     		movs	r3, #4
 1445 007e 2177     		strb	r1, [r4, #28]
 1446 0080 6377     		strb	r3, [r4, #29]
 1447 0082 E9E7     		b	.L248
 1448              	.L242:
 1449 0084 2368     		ldr	r3, [r4]
 1450 0086 FF22     		movs	r2, #255
 1451 0088 0020     		movs	r0, #0
 1452 008a 5A62     		str	r2, [r3, #36]
 1453 008c 0123     		movs	r3, #1
 1454 008e 2077     		strb	r0, [r4, #28]
 1455 0090 6377     		strb	r3, [r4, #29]
 1456 0092 F0E7     		b	.L238
 1458              		.section	.text.HAL_RTCEx_SetCalibrationOutPut,"ax",%progbits
 1459              		.align	1
 1460              		.global	HAL_RTCEx_SetCalibrationOutPut
 1461              		.syntax unified
 1462              		.thumb
 1463              		.thumb_func
 1464              		.fpu fpv5-sp-d16
 1466              	HAL_RTCEx_SetCalibrationOutPut:
 1467              		@ args = 0, pretend = 0, frame = 0
 1468              		@ frame_needed = 0, uses_anonymous_args = 0
 1469 0000 037F     		ldrb	r3, [r0, #28]	@ zero_extendqisi2
 1470 0002 012B     		cmp	r3, #1
 1471 0004 4FF00203 		mov	r3, #2
 1472 0008 10B5     		push	{r4, lr}
 1473 000a 16D0     		beq	.L251
 1474 000c 4377     		strb	r3, [r0, #29]
 1475 000e CA22     		movs	r2, #202
 1476 0010 0368     		ldr	r3, [r0]
 1477 0012 5A62     		str	r2, [r3, #36]
 1478 0014 5322     		movs	r2, #83
 1479 0016 5A62     		str	r2, [r3, #36]
 1480 0018 9C68     		ldr	r4, [r3, #8]
 1481 001a 24F40024 		bic	r4, r4, #524288
 1482 001e 9C60     		str	r4, [r3, #8]
 1483 0020 9A68     		ldr	r2, [r3, #8]
 1484 0022 0A43     		orrs	r2, r2, r1
ARM GAS  /tmp/cc1LgFws.s 			page 26


 1485 0024 9A60     		str	r2, [r3, #8]
 1486 0026 9A68     		ldr	r2, [r3, #8]
 1487 0028 42F40002 		orr	r2, r2, #8388608
 1488 002c 9A60     		str	r2, [r3, #8]
 1489 002e FF22     		movs	r2, #255
 1490 0030 5A62     		str	r2, [r3, #36]
 1491 0032 0123     		movs	r3, #1
 1492 0034 4377     		strb	r3, [r0, #29]
 1493 0036 0023     		movs	r3, #0
 1494 0038 0377     		strb	r3, [r0, #28]
 1495              	.L251:
 1496 003a 1846     		mov	r0, r3
 1497 003c 10BD     		pop	{r4, pc}
 1499              		.section	.text.HAL_RTCEx_DeactivateCalibrationOutPut,"ax",%progbits
 1500              		.align	1
 1501              		.global	HAL_RTCEx_DeactivateCalibrationOutPut
 1502              		.syntax unified
 1503              		.thumb
 1504              		.thumb_func
 1505              		.fpu fpv5-sp-d16
 1507              	HAL_RTCEx_DeactivateCalibrationOutPut:
 1508              		@ args = 0, pretend = 0, frame = 0
 1509              		@ frame_needed = 0, uses_anonymous_args = 0
 1510              		@ link register save eliminated.
 1511 0000 037F     		ldrb	r3, [r0, #28]	@ zero_extendqisi2
 1512 0002 012B     		cmp	r3, #1
 1513 0004 4FF00203 		mov	r3, #2
 1514 0008 0FD0     		beq	.L254
 1515 000a 4377     		strb	r3, [r0, #29]
 1516 000c CA22     		movs	r2, #202
 1517 000e 0368     		ldr	r3, [r0]
 1518 0010 5A62     		str	r2, [r3, #36]
 1519 0012 5322     		movs	r2, #83
 1520 0014 5A62     		str	r2, [r3, #36]
 1521 0016 9A68     		ldr	r2, [r3, #8]
 1522 0018 22F40002 		bic	r2, r2, #8388608
 1523 001c 9A60     		str	r2, [r3, #8]
 1524 001e FF22     		movs	r2, #255
 1525 0020 5A62     		str	r2, [r3, #36]
 1526 0022 0123     		movs	r3, #1
 1527 0024 4377     		strb	r3, [r0, #29]
 1528 0026 0023     		movs	r3, #0
 1529 0028 0377     		strb	r3, [r0, #28]
 1530              	.L254:
 1531 002a 1846     		mov	r0, r3
 1532 002c 7047     		bx	lr
 1534              		.section	.text.HAL_RTCEx_SetRefClock,"ax",%progbits
 1535              		.align	1
 1536              		.global	HAL_RTCEx_SetRefClock
 1537              		.syntax unified
 1538              		.thumb
 1539              		.thumb_func
 1540              		.fpu fpv5-sp-d16
 1542              	HAL_RTCEx_SetRefClock:
 1543              		@ args = 0, pretend = 0, frame = 0
 1544              		@ frame_needed = 0, uses_anonymous_args = 0
 1545 0000 38B5     		push	{r3, r4, r5, lr}
ARM GAS  /tmp/cc1LgFws.s 			page 27


 1546 0002 037F     		ldrb	r3, [r0, #28]	@ zero_extendqisi2
 1547 0004 0446     		mov	r4, r0
 1548 0006 012B     		cmp	r3, #1
 1549 0008 4FF00203 		mov	r3, #2
 1550 000c 20D0     		beq	.L258
 1551 000e 4377     		strb	r3, [r0, #29]
 1552 0010 CA22     		movs	r2, #202
 1553 0012 0368     		ldr	r3, [r0]
 1554 0014 0125     		movs	r5, #1
 1555 0016 0577     		strb	r5, [r0, #28]
 1556 0018 5A62     		str	r2, [r3, #36]
 1557 001a 5322     		movs	r2, #83
 1558 001c 5A62     		str	r2, [r3, #36]
 1559 001e FFF7FEFF 		bl	RTC_EnterInitMode
 1560 0022 2368     		ldr	r3, [r4]
 1561 0024 38B1     		cbz	r0, .L257
 1562 0026 FF22     		movs	r2, #255
 1563 0028 2846     		mov	r0, r5
 1564 002a 5A62     		str	r2, [r3, #36]
 1565 002c 0423     		movs	r3, #4
 1566 002e 6377     		strb	r3, [r4, #29]
 1567 0030 0023     		movs	r3, #0
 1568 0032 2377     		strb	r3, [r4, #28]
 1569              	.L256:
 1570 0034 38BD     		pop	{r3, r4, r5, pc}
 1571              	.L257:
 1572 0036 9A68     		ldr	r2, [r3, #8]
 1573 0038 42F01002 		orr	r2, r2, #16
 1574 003c 9A60     		str	r2, [r3, #8]
 1575 003e DA68     		ldr	r2, [r3, #12]
 1576 0040 22F08002 		bic	r2, r2, #128
 1577 0044 DA60     		str	r2, [r3, #12]
 1578 0046 FF22     		movs	r2, #255
 1579 0048 5A62     		str	r2, [r3, #36]
 1580 004a 6577     		strb	r5, [r4, #29]
 1581 004c 2077     		strb	r0, [r4, #28]
 1582 004e F1E7     		b	.L256
 1583              	.L258:
 1584 0050 1846     		mov	r0, r3
 1585 0052 EFE7     		b	.L256
 1587              		.section	.text.HAL_RTCEx_DeactivateRefClock,"ax",%progbits
 1588              		.align	1
 1589              		.global	HAL_RTCEx_DeactivateRefClock
 1590              		.syntax unified
 1591              		.thumb
 1592              		.thumb_func
 1593              		.fpu fpv5-sp-d16
 1595              	HAL_RTCEx_DeactivateRefClock:
 1596              		@ args = 0, pretend = 0, frame = 0
 1597              		@ frame_needed = 0, uses_anonymous_args = 0
 1598 0000 38B5     		push	{r3, r4, r5, lr}
 1599 0002 037F     		ldrb	r3, [r0, #28]	@ zero_extendqisi2
 1600 0004 0446     		mov	r4, r0
 1601 0006 012B     		cmp	r3, #1
 1602 0008 4FF00203 		mov	r3, #2
 1603 000c 20D0     		beq	.L262
 1604 000e 4377     		strb	r3, [r0, #29]
ARM GAS  /tmp/cc1LgFws.s 			page 28


 1605 0010 CA22     		movs	r2, #202
 1606 0012 0368     		ldr	r3, [r0]
 1607 0014 0125     		movs	r5, #1
 1608 0016 0577     		strb	r5, [r0, #28]
 1609 0018 5A62     		str	r2, [r3, #36]
 1610 001a 5322     		movs	r2, #83
 1611 001c 5A62     		str	r2, [r3, #36]
 1612 001e FFF7FEFF 		bl	RTC_EnterInitMode
 1613 0022 2368     		ldr	r3, [r4]
 1614 0024 38B1     		cbz	r0, .L261
 1615 0026 FF22     		movs	r2, #255
 1616 0028 2846     		mov	r0, r5
 1617 002a 5A62     		str	r2, [r3, #36]
 1618 002c 0423     		movs	r3, #4
 1619 002e 6377     		strb	r3, [r4, #29]
 1620 0030 0023     		movs	r3, #0
 1621 0032 2377     		strb	r3, [r4, #28]
 1622              	.L260:
 1623 0034 38BD     		pop	{r3, r4, r5, pc}
 1624              	.L261:
 1625 0036 9A68     		ldr	r2, [r3, #8]
 1626 0038 22F01002 		bic	r2, r2, #16
 1627 003c 9A60     		str	r2, [r3, #8]
 1628 003e DA68     		ldr	r2, [r3, #12]
 1629 0040 22F08002 		bic	r2, r2, #128
 1630 0044 DA60     		str	r2, [r3, #12]
 1631 0046 FF22     		movs	r2, #255
 1632 0048 5A62     		str	r2, [r3, #36]
 1633 004a 6577     		strb	r5, [r4, #29]
 1634 004c 2077     		strb	r0, [r4, #28]
 1635 004e F1E7     		b	.L260
 1636              	.L262:
 1637 0050 1846     		mov	r0, r3
 1638 0052 EFE7     		b	.L260
 1640              		.section	.text.HAL_RTCEx_EnableBypassShadow,"ax",%progbits
 1641              		.align	1
 1642              		.global	HAL_RTCEx_EnableBypassShadow
 1643              		.syntax unified
 1644              		.thumb
 1645              		.thumb_func
 1646              		.fpu fpv5-sp-d16
 1648              	HAL_RTCEx_EnableBypassShadow:
 1649              		@ args = 0, pretend = 0, frame = 0
 1650              		@ frame_needed = 0, uses_anonymous_args = 0
 1651              		@ link register save eliminated.
 1652 0000 037F     		ldrb	r3, [r0, #28]	@ zero_extendqisi2
 1653 0002 012B     		cmp	r3, #1
 1654 0004 4FF00203 		mov	r3, #2
 1655 0008 0FD0     		beq	.L265
 1656 000a 4377     		strb	r3, [r0, #29]
 1657 000c CA22     		movs	r2, #202
 1658 000e 0368     		ldr	r3, [r0]
 1659 0010 5A62     		str	r2, [r3, #36]
 1660 0012 5322     		movs	r2, #83
 1661 0014 5A62     		str	r2, [r3, #36]
 1662 0016 9A68     		ldr	r2, [r3, #8]
 1663 0018 42F02002 		orr	r2, r2, #32
ARM GAS  /tmp/cc1LgFws.s 			page 29


 1664 001c 9A60     		str	r2, [r3, #8]
 1665 001e FF22     		movs	r2, #255
 1666 0020 5A62     		str	r2, [r3, #36]
 1667 0022 0123     		movs	r3, #1
 1668 0024 4377     		strb	r3, [r0, #29]
 1669 0026 0023     		movs	r3, #0
 1670 0028 0377     		strb	r3, [r0, #28]
 1671              	.L265:
 1672 002a 1846     		mov	r0, r3
 1673 002c 7047     		bx	lr
 1675              		.section	.text.HAL_RTCEx_DisableBypassShadow,"ax",%progbits
 1676              		.align	1
 1677              		.global	HAL_RTCEx_DisableBypassShadow
 1678              		.syntax unified
 1679              		.thumb
 1680              		.thumb_func
 1681              		.fpu fpv5-sp-d16
 1683              	HAL_RTCEx_DisableBypassShadow:
 1684              		@ args = 0, pretend = 0, frame = 0
 1685              		@ frame_needed = 0, uses_anonymous_args = 0
 1686              		@ link register save eliminated.
 1687 0000 037F     		ldrb	r3, [r0, #28]	@ zero_extendqisi2
 1688 0002 012B     		cmp	r3, #1
 1689 0004 4FF00203 		mov	r3, #2
 1690 0008 0FD0     		beq	.L268
 1691 000a 4377     		strb	r3, [r0, #29]
 1692 000c CA22     		movs	r2, #202
 1693 000e 0368     		ldr	r3, [r0]
 1694 0010 5A62     		str	r2, [r3, #36]
 1695 0012 5322     		movs	r2, #83
 1696 0014 5A62     		str	r2, [r3, #36]
 1697 0016 9A68     		ldr	r2, [r3, #8]
 1698 0018 02F0DF02 		and	r2, r2, #223
 1699 001c 9A60     		str	r2, [r3, #8]
 1700 001e FF22     		movs	r2, #255
 1701 0020 5A62     		str	r2, [r3, #36]
 1702 0022 0123     		movs	r3, #1
 1703 0024 4377     		strb	r3, [r0, #29]
 1704 0026 0023     		movs	r3, #0
 1705 0028 0377     		strb	r3, [r0, #28]
 1706              	.L268:
 1707 002a 1846     		mov	r0, r3
 1708 002c 7047     		bx	lr
 1710              		.section	.text.HAL_RTCEx_AlarmBEventCallback,"ax",%progbits
 1711              		.align	1
 1712              		.weak	HAL_RTCEx_AlarmBEventCallback
 1713              		.syntax unified
 1714              		.thumb
 1715              		.thumb_func
 1716              		.fpu fpv5-sp-d16
 1718              	HAL_RTCEx_AlarmBEventCallback:
 1719              		@ args = 0, pretend = 0, frame = 0
 1720              		@ frame_needed = 0, uses_anonymous_args = 0
 1721              		@ link register save eliminated.
 1722 0000 7047     		bx	lr
 1724              		.section	.text.HAL_RTCEx_PollForAlarmBEvent,"ax",%progbits
 1725              		.align	1
ARM GAS  /tmp/cc1LgFws.s 			page 30


 1726              		.global	HAL_RTCEx_PollForAlarmBEvent
 1727              		.syntax unified
 1728              		.thumb
 1729              		.thumb_func
 1730              		.fpu fpv5-sp-d16
 1732              	HAL_RTCEx_PollForAlarmBEvent:
 1733              		@ args = 0, pretend = 0, frame = 0
 1734              		@ frame_needed = 0, uses_anonymous_args = 0
 1735 0000 70B5     		push	{r4, r5, r6, lr}
 1736 0002 0446     		mov	r4, r0
 1737 0004 0D46     		mov	r5, r1
 1738 0006 FFF7FEFF 		bl	HAL_GetTick
 1739 000a 0646     		mov	r6, r0
 1740              	.L271:
 1741 000c 2268     		ldr	r2, [r4]
 1742              	.L272:
 1743 000e D368     		ldr	r3, [r2, #12]
 1744 0010 9B05     		lsls	r3, r3, #22
 1745 0012 08D5     		bpl	.L276
 1746 0014 D368     		ldr	r3, [r2, #12]
 1747 0016 0020     		movs	r0, #0
 1748 0018 DBB2     		uxtb	r3, r3
 1749 001a 63F42073 		orn	r3, r3, #640
 1750 001e D360     		str	r3, [r2, #12]
 1751 0020 0123     		movs	r3, #1
 1752 0022 6377     		strb	r3, [r4, #29]
 1753 0024 04E0     		b	.L274
 1754              	.L276:
 1755 0026 691C     		adds	r1, r5, #1
 1756 0028 F1D0     		beq	.L272
 1757 002a 15B9     		cbnz	r5, .L273
 1758              	.L275:
 1759 002c 0320     		movs	r0, #3
 1760 002e 6077     		strb	r0, [r4, #29]
 1761              	.L274:
 1762 0030 70BD     		pop	{r4, r5, r6, pc}
 1763              	.L273:
 1764 0032 FFF7FEFF 		bl	HAL_GetTick
 1765 0036 801B     		subs	r0, r0, r6
 1766 0038 A842     		cmp	r0, r5
 1767 003a E7D9     		bls	.L271
 1768 003c F6E7     		b	.L275
 1770              		.ident	"GCC: (GNU Tools for Arm Embedded Processors 8-2018-q4-major) 8.2.1 20181213 (release) [gcc
ARM GAS  /tmp/cc1LgFws.s 			page 31


DEFINED SYMBOLS
                            *ABS*:0000000000000000 stm32f7xx_hal_rtc_ex.c
     /tmp/cc1LgFws.s:15     .text.HAL_RTCEx_SetTimeStamp:0000000000000000 $t
     /tmp/cc1LgFws.s:23     .text.HAL_RTCEx_SetTimeStamp:0000000000000000 HAL_RTCEx_SetTimeStamp
     /tmp/cc1LgFws.s:62     .text.HAL_RTCEx_SetTimeStamp_IT:0000000000000000 $t
     /tmp/cc1LgFws.s:69     .text.HAL_RTCEx_SetTimeStamp_IT:0000000000000000 HAL_RTCEx_SetTimeStamp_IT
     /tmp/cc1LgFws.s:123    .text.HAL_RTCEx_SetTimeStamp_IT:0000000000000070 $d
     /tmp/cc1LgFws.s:126    .text.HAL_RTCEx_DeactivateTimeStamp:0000000000000000 $t
     /tmp/cc1LgFws.s:133    .text.HAL_RTCEx_DeactivateTimeStamp:0000000000000000 HAL_RTCEx_DeactivateTimeStamp
     /tmp/cc1LgFws.s:165    .text.HAL_RTCEx_SetInternalTimeStamp:0000000000000000 $t
     /tmp/cc1LgFws.s:172    .text.HAL_RTCEx_SetInternalTimeStamp:0000000000000000 HAL_RTCEx_SetInternalTimeStamp
     /tmp/cc1LgFws.s:200    .text.HAL_RTCEx_DeactivateInternalTimeStamp:0000000000000000 $t
     /tmp/cc1LgFws.s:207    .text.HAL_RTCEx_DeactivateInternalTimeStamp:0000000000000000 HAL_RTCEx_DeactivateInternalTimeStamp
     /tmp/cc1LgFws.s:235    .text.HAL_RTCEx_GetTimeStamp:0000000000000000 $t
     /tmp/cc1LgFws.s:242    .text.HAL_RTCEx_GetTimeStamp:0000000000000000 HAL_RTCEx_GetTimeStamp
     /tmp/cc1LgFws.s:301    .text.HAL_RTCEx_SetTamper:0000000000000000 $t
     /tmp/cc1LgFws.s:308    .text.HAL_RTCEx_SetTamper:0000000000000000 HAL_RTCEx_SetTamper
     /tmp/cc1LgFws.s:395    .text.HAL_RTCEx_SetTamper:00000000000000b0 $d
     /tmp/cc1LgFws.s:398    .text.HAL_RTCEx_SetTamper_IT:0000000000000000 $t
     /tmp/cc1LgFws.s:405    .text.HAL_RTCEx_SetTamper_IT:0000000000000000 HAL_RTCEx_SetTamper_IT
     /tmp/cc1LgFws.s:518    .text.HAL_RTCEx_SetTamper_IT:0000000000000104 $d
     /tmp/cc1LgFws.s:522    .text.HAL_RTCEx_DeactivateTamper:0000000000000000 $t
     /tmp/cc1LgFws.s:529    .text.HAL_RTCEx_DeactivateTamper:0000000000000000 HAL_RTCEx_DeactivateTamper
     /tmp/cc1LgFws.s:574    .text.HAL_RTCEx_TimeStampEventCallback:0000000000000000 $t
     /tmp/cc1LgFws.s:581    .text.HAL_RTCEx_TimeStampEventCallback:0000000000000000 HAL_RTCEx_TimeStampEventCallback
     /tmp/cc1LgFws.s:588    .text.HAL_RTCEx_Tamper1EventCallback:0000000000000000 $t
     /tmp/cc1LgFws.s:595    .text.HAL_RTCEx_Tamper1EventCallback:0000000000000000 HAL_RTCEx_Tamper1EventCallback
     /tmp/cc1LgFws.s:602    .text.HAL_RTCEx_Tamper2EventCallback:0000000000000000 $t
     /tmp/cc1LgFws.s:609    .text.HAL_RTCEx_Tamper2EventCallback:0000000000000000 HAL_RTCEx_Tamper2EventCallback
     /tmp/cc1LgFws.s:616    .text.HAL_RTCEx_Tamper3EventCallback:0000000000000000 $t
     /tmp/cc1LgFws.s:623    .text.HAL_RTCEx_Tamper3EventCallback:0000000000000000 HAL_RTCEx_Tamper3EventCallback
     /tmp/cc1LgFws.s:630    .text.HAL_RTCEx_TamperTimeStampIRQHandler:0000000000000000 $t
     /tmp/cc1LgFws.s:637    .text.HAL_RTCEx_TamperTimeStampIRQHandler:0000000000000000 HAL_RTCEx_TamperTimeStampIRQHandler
     /tmp/cc1LgFws.s:716    .text.HAL_RTCEx_TamperTimeStampIRQHandler:00000000000000a4 $d
     /tmp/cc1LgFws.s:722    .text.HAL_RTCEx_PollForTimeStampEvent:0000000000000000 $t
     /tmp/cc1LgFws.s:729    .text.HAL_RTCEx_PollForTimeStampEvent:0000000000000000 HAL_RTCEx_PollForTimeStampEvent
     /tmp/cc1LgFws.s:775    .text.HAL_RTCEx_PollForTamper1Event:0000000000000000 $t
     /tmp/cc1LgFws.s:782    .text.HAL_RTCEx_PollForTamper1Event:0000000000000000 HAL_RTCEx_PollForTamper1Event
     /tmp/cc1LgFws.s:821    .text.HAL_RTCEx_PollForTamper2Event:0000000000000000 $t
     /tmp/cc1LgFws.s:828    .text.HAL_RTCEx_PollForTamper2Event:0000000000000000 HAL_RTCEx_PollForTamper2Event
     /tmp/cc1LgFws.s:867    .text.HAL_RTCEx_PollForTamper3Event:0000000000000000 $t
     /tmp/cc1LgFws.s:874    .text.HAL_RTCEx_PollForTamper3Event:0000000000000000 HAL_RTCEx_PollForTamper3Event
     /tmp/cc1LgFws.s:916    .text.HAL_RTCEx_SetWakeUpTimer:0000000000000000 $t
     /tmp/cc1LgFws.s:923    .text.HAL_RTCEx_SetWakeUpTimer:0000000000000000 HAL_RTCEx_SetWakeUpTimer
     /tmp/cc1LgFws.s:989    .text.HAL_RTCEx_SetWakeUpTimer_IT:0000000000000000 $t
     /tmp/cc1LgFws.s:996    .text.HAL_RTCEx_SetWakeUpTimer_IT:0000000000000000 HAL_RTCEx_SetWakeUpTimer_IT
     /tmp/cc1LgFws.s:1100   .text.HAL_RTCEx_SetWakeUpTimer_IT:00000000000000d0 $d
     /tmp/cc1LgFws.s:1104   .text.HAL_RTCEx_DeactivateWakeUpTimer:0000000000000000 $t
     /tmp/cc1LgFws.s:1111   .text.HAL_RTCEx_DeactivateWakeUpTimer:0000000000000000 HAL_RTCEx_DeactivateWakeUpTimer
     /tmp/cc1LgFws.s:1163   .text.HAL_RTCEx_GetWakeUpTimer:0000000000000000 $t
     /tmp/cc1LgFws.s:1170   .text.HAL_RTCEx_GetWakeUpTimer:0000000000000000 HAL_RTCEx_GetWakeUpTimer
     /tmp/cc1LgFws.s:1180   .text.HAL_RTCEx_WakeUpTimerEventCallback:0000000000000000 $t
     /tmp/cc1LgFws.s:1187   .text.HAL_RTCEx_WakeUpTimerEventCallback:0000000000000000 HAL_RTCEx_WakeUpTimerEventCallback
     /tmp/cc1LgFws.s:1194   .text.HAL_RTCEx_WakeUpTimerIRQHandler:0000000000000000 $t
     /tmp/cc1LgFws.s:1201   .text.HAL_RTCEx_WakeUpTimerIRQHandler:0000000000000000 HAL_RTCEx_WakeUpTimerIRQHandler
     /tmp/cc1LgFws.s:1226   .text.HAL_RTCEx_WakeUpTimerIRQHandler:000000000000002c $d
     /tmp/cc1LgFws.s:1229   .text.HAL_RTCEx_PollForWakeUpTimerEvent:0000000000000000 $t
ARM GAS  /tmp/cc1LgFws.s 			page 32


     /tmp/cc1LgFws.s:1236   .text.HAL_RTCEx_PollForWakeUpTimerEvent:0000000000000000 HAL_RTCEx_PollForWakeUpTimerEvent
     /tmp/cc1LgFws.s:1275   .text.HAL_RTCEx_BKUPWrite:0000000000000000 $t
     /tmp/cc1LgFws.s:1282   .text.HAL_RTCEx_BKUPWrite:0000000000000000 HAL_RTCEx_BKUPWrite
     /tmp/cc1LgFws.s:1292   .text.HAL_RTCEx_BKUPRead:0000000000000000 $t
     /tmp/cc1LgFws.s:1299   .text.HAL_RTCEx_BKUPRead:0000000000000000 HAL_RTCEx_BKUPRead
     /tmp/cc1LgFws.s:1309   .text.HAL_RTCEx_SetSmoothCalib:0000000000000000 $t
     /tmp/cc1LgFws.s:1316   .text.HAL_RTCEx_SetSmoothCalib:0000000000000000 HAL_RTCEx_SetSmoothCalib
     /tmp/cc1LgFws.s:1374   .text.HAL_RTCEx_SetSynchroShift:0000000000000000 $t
     /tmp/cc1LgFws.s:1381   .text.HAL_RTCEx_SetSynchroShift:0000000000000000 HAL_RTCEx_SetSynchroShift
     /tmp/cc1LgFws.s:1459   .text.HAL_RTCEx_SetCalibrationOutPut:0000000000000000 $t
     /tmp/cc1LgFws.s:1466   .text.HAL_RTCEx_SetCalibrationOutPut:0000000000000000 HAL_RTCEx_SetCalibrationOutPut
     /tmp/cc1LgFws.s:1500   .text.HAL_RTCEx_DeactivateCalibrationOutPut:0000000000000000 $t
     /tmp/cc1LgFws.s:1507   .text.HAL_RTCEx_DeactivateCalibrationOutPut:0000000000000000 HAL_RTCEx_DeactivateCalibrationOutPut
     /tmp/cc1LgFws.s:1535   .text.HAL_RTCEx_SetRefClock:0000000000000000 $t
     /tmp/cc1LgFws.s:1542   .text.HAL_RTCEx_SetRefClock:0000000000000000 HAL_RTCEx_SetRefClock
     /tmp/cc1LgFws.s:1588   .text.HAL_RTCEx_DeactivateRefClock:0000000000000000 $t
     /tmp/cc1LgFws.s:1595   .text.HAL_RTCEx_DeactivateRefClock:0000000000000000 HAL_RTCEx_DeactivateRefClock
     /tmp/cc1LgFws.s:1641   .text.HAL_RTCEx_EnableBypassShadow:0000000000000000 $t
     /tmp/cc1LgFws.s:1648   .text.HAL_RTCEx_EnableBypassShadow:0000000000000000 HAL_RTCEx_EnableBypassShadow
     /tmp/cc1LgFws.s:1676   .text.HAL_RTCEx_DisableBypassShadow:0000000000000000 $t
     /tmp/cc1LgFws.s:1683   .text.HAL_RTCEx_DisableBypassShadow:0000000000000000 HAL_RTCEx_DisableBypassShadow
     /tmp/cc1LgFws.s:1711   .text.HAL_RTCEx_AlarmBEventCallback:0000000000000000 $t
     /tmp/cc1LgFws.s:1718   .text.HAL_RTCEx_AlarmBEventCallback:0000000000000000 HAL_RTCEx_AlarmBEventCallback
     /tmp/cc1LgFws.s:1725   .text.HAL_RTCEx_PollForAlarmBEvent:0000000000000000 $t
     /tmp/cc1LgFws.s:1732   .text.HAL_RTCEx_PollForAlarmBEvent:0000000000000000 HAL_RTCEx_PollForAlarmBEvent

UNDEFINED SYMBOLS
RTC_Bcd2ToByte
HAL_GetTick
SystemCoreClock
HAL_RTC_WaitForSynchro
RTC_EnterInitMode
