ARM GAS  /tmp/ccHDMf48.s 			page 1


   1              		.cpu cortex-m7
   2              		.eabi_attribute 27, 1
   3              		.eabi_attribute 20, 1
   4              		.eabi_attribute 21, 1
   5              		.eabi_attribute 23, 3
   6              		.eabi_attribute 24, 1
   7              		.eabi_attribute 25, 1
   8              		.eabi_attribute 26, 1
   9              		.eabi_attribute 30, 4
  10              		.eabi_attribute 34, 1
  11              		.eabi_attribute 18, 4
  12              		.file	"stm32f7xx_hal_spi.c"
  13              		.text
  14              		.section	.text.SPI_WaitFlagStateUntilTimeout.constprop.0,"ax",%progbits
  15              		.align	1
  16              		.arch armv7e-m
  17              		.syntax unified
  18              		.thumb
  19              		.thumb_func
  20              		.fpu fpv5-sp-d16
  22              	SPI_WaitFlagStateUntilTimeout.constprop.0:
  23              		@ args = 0, pretend = 0, frame = 8
  24              		@ frame_needed = 0, uses_anonymous_args = 0
  25 0000 F7B5     		push	{r0, r1, r2, r4, r5, r6, r7, lr}
  26 0002 0E46     		mov	r6, r1
  27 0004 1746     		mov	r7, r2
  28 0006 0546     		mov	r5, r0
  29 0008 FFF7FEFF 		bl	HAL_GetTick
  30 000c 3744     		add	r7, r7, r6
  31 000e 3C1A     		subs	r4, r7, r0
  32 0010 FFF7FEFF 		bl	HAL_GetTick
  33 0014 224B     		ldr	r3, .L17
  34 0016 0746     		mov	r7, r0
  35 0018 1B68     		ldr	r3, [r3]
  36 001a C3F3CB33 		ubfx	r3, r3, #15, #12
  37 001e 6343     		muls	r3, r4, r3
  38              	.L16:
  39 0020 2A68     		ldr	r2, [r5]
  40 0022 0193     		str	r3, [sp, #4]
  41              	.L3:
  42 0024 9368     		ldr	r3, [r2, #8]
  43 0026 13F08003 		ands	r3, r3, #128
  44 002a 01D1     		bne	.L10
  45 002c 1846     		mov	r0, r3
  46 002e 2DE0     		b	.L8
  47              	.L10:
  48 0030 731C     		adds	r3, r6, #1
  49 0032 F7D0     		beq	.L3
  50 0034 FFF7FEFF 		bl	HAL_GetTick
  51 0038 C01B     		subs	r0, r0, r7
  52 003a A042     		cmp	r0, r4
  53 003c 28D3     		bcc	.L4
  54 003e 2B68     		ldr	r3, [r5]
  55 0040 5A68     		ldr	r2, [r3, #4]
  56 0042 22F0E002 		bic	r2, r2, #224
  57 0046 5A60     		str	r2, [r3, #4]
  58 0048 6A68     		ldr	r2, [r5, #4]
ARM GAS  /tmp/ccHDMf48.s 			page 2


  59 004a B2F5827F 		cmp	r2, #260
  60 004e 0AD1     		bne	.L5
  61 0050 AA68     		ldr	r2, [r5, #8]
  62 0052 B2F5004F 		cmp	r2, #32768
  63 0056 02D0     		beq	.L6
  64 0058 B2F5806F 		cmp	r2, #1024
  65 005c 03D1     		bne	.L5
  66              	.L6:
  67 005e 1A68     		ldr	r2, [r3]
  68 0060 22F04002 		bic	r2, r2, #64
  69 0064 1A60     		str	r2, [r3]
  70              	.L5:
  71 0066 AA6A     		ldr	r2, [r5, #40]
  72 0068 B2F5005F 		cmp	r2, #8192
  73 006c 07D1     		bne	.L7
  74 006e 1A68     		ldr	r2, [r3]
  75 0070 22F40052 		bic	r2, r2, #8192
  76 0074 1A60     		str	r2, [r3]
  77 0076 1A68     		ldr	r2, [r3]
  78 0078 42F40052 		orr	r2, r2, #8192
  79 007c 1A60     		str	r2, [r3]
  80              	.L7:
  81 007e 0123     		movs	r3, #1
  82 0080 0320     		movs	r0, #3
  83 0082 85F85D30 		strb	r3, [r5, #93]
  84 0086 0023     		movs	r3, #0
  85 0088 85F85C30 		strb	r3, [r5, #92]
  86              	.L8:
  87 008c 03B0     		add	sp, sp, #12
  88              		@ sp needed
  89 008e F0BD     		pop	{r4, r5, r6, r7, pc}
  90              	.L4:
  91 0090 019B     		ldr	r3, [sp, #4]
  92 0092 002B     		cmp	r3, #0
  93 0094 019B     		ldr	r3, [sp, #4]
  94 0096 08BF     		it	eq
  95 0098 0024     		moveq	r4, #0
  96 009a 013B     		subs	r3, r3, #1
  97 009c C0E7     		b	.L16
  98              	.L18:
  99 009e 00BF     		.align	2
 100              	.L17:
 101 00a0 00000000 		.word	SystemCoreClock
 103              		.section	.text.SPI_WaitFifoStateUntilTimeout.constprop.0,"ax",%progbits
 104              		.align	1
 105              		.syntax unified
 106              		.thumb
 107              		.thumb_func
 108              		.fpu fpv5-sp-d16
 110              	SPI_WaitFifoStateUntilTimeout.constprop.0:
 111              		@ args = 0, pretend = 0, frame = 8
 112              		@ frame_needed = 0, uses_anonymous_args = 0
 113 0000 2DE9F743 		push	{r0, r1, r2, r4, r5, r6, r7, r8, r9, lr}
 114 0004 1746     		mov	r7, r2
 115 0006 9846     		mov	r8, r3
 116 0008 0023     		movs	r3, #0
 117 000a 0546     		mov	r5, r0
ARM GAS  /tmp/ccHDMf48.s 			page 3


 118 000c B844     		add	r8, r8, r7
 119 000e 0E46     		mov	r6, r1
 120 0010 8DF80330 		strb	r3, [sp, #3]
 121 0014 FFF7FEFF 		bl	HAL_GetTick
 122 0018 A8EB0004 		sub	r4, r8, r0
 123 001c FFF7FEFF 		bl	HAL_GetTick
 124 0020 294B     		ldr	r3, .L36
 125 0022 2322     		movs	r2, #35
 126 0024 8046     		mov	r8, r0
 127 0026 D5F80090 		ldr	r9, [r5]
 128 002a 1B68     		ldr	r3, [r3]
 129 002c 5343     		muls	r3, r2, r3
 130 002e 1B0D     		lsrs	r3, r3, #20
 131 0030 6343     		muls	r3, r4, r3
 132              	.L35:
 133 0032 2A68     		ldr	r2, [r5]
 134 0034 0193     		str	r3, [sp, #4]
 135              	.L22:
 136 0036 9368     		ldr	r3, [r2, #8]
 137 0038 3340     		ands	r3, r6, r3
 138 003a 01D1     		bne	.L29
 139 003c 1846     		mov	r0, r3
 140 003e 38E0     		b	.L27
 141              	.L29:
 142 0040 B6F5C06F 		cmp	r6, #1536
 143 0044 06D1     		bne	.L21
 144 0046 99F80C30 		ldrb	r3, [r9, #12]	@ zero_extendqisi2
 145 004a DBB2     		uxtb	r3, r3
 146 004c 8DF80330 		strb	r3, [sp, #3]
 147 0050 9DF80330 		ldrb	r3, [sp, #3]	@ zero_extendqisi2
 148              	.L21:
 149 0054 7B1C     		adds	r3, r7, #1
 150 0056 EED0     		beq	.L22
 151 0058 FFF7FEFF 		bl	HAL_GetTick
 152 005c A0EB0800 		sub	r0, r0, r8
 153 0060 A042     		cmp	r0, r4
 154 0062 29D3     		bcc	.L23
 155 0064 2B68     		ldr	r3, [r5]
 156 0066 5A68     		ldr	r2, [r3, #4]
 157 0068 22F0E002 		bic	r2, r2, #224
 158 006c 5A60     		str	r2, [r3, #4]
 159 006e 6A68     		ldr	r2, [r5, #4]
 160 0070 B2F5827F 		cmp	r2, #260
 161 0074 0AD1     		bne	.L24
 162 0076 AA68     		ldr	r2, [r5, #8]
 163 0078 B2F5004F 		cmp	r2, #32768
 164 007c 02D0     		beq	.L25
 165 007e B2F5806F 		cmp	r2, #1024
 166 0082 03D1     		bne	.L24
 167              	.L25:
 168 0084 1A68     		ldr	r2, [r3]
 169 0086 22F04002 		bic	r2, r2, #64
 170 008a 1A60     		str	r2, [r3]
 171              	.L24:
 172 008c AA6A     		ldr	r2, [r5, #40]
 173 008e B2F5005F 		cmp	r2, #8192
 174 0092 07D1     		bne	.L26
ARM GAS  /tmp/ccHDMf48.s 			page 4


 175 0094 1A68     		ldr	r2, [r3]
 176 0096 22F40052 		bic	r2, r2, #8192
 177 009a 1A60     		str	r2, [r3]
 178 009c 1A68     		ldr	r2, [r3]
 179 009e 42F40052 		orr	r2, r2, #8192
 180 00a2 1A60     		str	r2, [r3]
 181              	.L26:
 182 00a4 0123     		movs	r3, #1
 183 00a6 0320     		movs	r0, #3
 184 00a8 85F85D30 		strb	r3, [r5, #93]
 185 00ac 0023     		movs	r3, #0
 186 00ae 85F85C30 		strb	r3, [r5, #92]
 187              	.L27:
 188 00b2 03B0     		add	sp, sp, #12
 189              		@ sp needed
 190 00b4 BDE8F083 		pop	{r4, r5, r6, r7, r8, r9, pc}
 191              	.L23:
 192 00b8 019B     		ldr	r3, [sp, #4]
 193 00ba 002B     		cmp	r3, #0
 194 00bc 019B     		ldr	r3, [sp, #4]
 195 00be 08BF     		it	eq
 196 00c0 0024     		moveq	r4, #0
 197 00c2 013B     		subs	r3, r3, #1
 198 00c4 B5E7     		b	.L35
 199              	.L37:
 200 00c6 00BF     		.align	2
 201              	.L36:
 202 00c8 00000000 		.word	SystemCoreClock
 204              		.section	.text.SPI_AbortRx_ISR,"ax",%progbits
 205              		.align	1
 206              		.syntax unified
 207              		.thumb
 208              		.thumb_func
 209              		.fpu fpv5-sp-d16
 211              	SPI_AbortRx_ISR:
 212              		@ args = 0, pretend = 0, frame = 8
 213              		@ frame_needed = 0, uses_anonymous_args = 0
 214 0000 0368     		ldr	r3, [r0]
 215 0002 1A68     		ldr	r2, [r3]
 216 0004 22F04002 		bic	r2, r2, #64
 217 0008 13B5     		push	{r0, r1, r4, lr}
 218 000a 1A60     		str	r2, [r3]
 219 000c 45F6C051 		movw	r1, #24000
 220 0010 194A     		ldr	r2, .L51
 221 0012 0446     		mov	r4, r0
 222 0014 1268     		ldr	r2, [r2]
 223 0016 B2FBF1F2 		udiv	r2, r2, r1
 224 001a 6421     		movs	r1, #100
 225 001c 4A43     		muls	r2, r1, r2
 226 001e 0192     		str	r2, [sp, #4]
 227 0020 5A68     		ldr	r2, [r3, #4]
 228 0022 22F04002 		bic	r2, r2, #64
 229 0026 5A60     		str	r2, [r3, #4]
 230              	.L41:
 231 0028 019A     		ldr	r2, [sp, #4]
 232 002a F2B9     		cbnz	r2, .L39
 233 002c 236E     		ldr	r3, [r4, #96]
ARM GAS  /tmp/ccHDMf48.s 			page 5


 234 002e 43F04003 		orr	r3, r3, #64
 235 0032 2366     		str	r3, [r4, #96]
 236              	.L40:
 237 0034 FFF7FEFF 		bl	HAL_GetTick
 238 0038 6421     		movs	r1, #100
 239 003a 0246     		mov	r2, r0
 240 003c 2046     		mov	r0, r4
 241 003e FFF7FEFF 		bl	SPI_WaitFlagStateUntilTimeout.constprop.0
 242 0042 08B1     		cbz	r0, .L42
 243 0044 4023     		movs	r3, #64
 244 0046 2366     		str	r3, [r4, #96]
 245              	.L42:
 246 0048 FFF7FEFF 		bl	HAL_GetTick
 247 004c 6422     		movs	r2, #100
 248 004e 0346     		mov	r3, r0
 249 0050 4FF4C061 		mov	r1, #1536
 250 0054 2046     		mov	r0, r4
 251 0056 FFF7FEFF 		bl	SPI_WaitFifoStateUntilTimeout.constprop.0
 252 005a 08B1     		cbz	r0, .L43
 253 005c 4023     		movs	r3, #64
 254 005e 2366     		str	r3, [r4, #96]
 255              	.L43:
 256 0060 0723     		movs	r3, #7
 257 0062 84F85D30 		strb	r3, [r4, #93]
 258 0066 02B0     		add	sp, sp, #8
 259              		@ sp needed
 260 0068 10BD     		pop	{r4, pc}
 261              	.L39:
 262 006a 019A     		ldr	r2, [sp, #4]
 263 006c 013A     		subs	r2, r2, #1
 264 006e 0192     		str	r2, [sp, #4]
 265 0070 5A68     		ldr	r2, [r3, #4]
 266 0072 5206     		lsls	r2, r2, #25
 267 0074 D8D4     		bmi	.L41
 268 0076 DDE7     		b	.L40
 269              	.L52:
 270              		.align	2
 271              	.L51:
 272 0078 00000000 		.word	SystemCoreClock
 274              		.section	.text.SPI_EndRxTransaction,"ax",%progbits
 275              		.align	1
 276              		.syntax unified
 277              		.thumb
 278              		.thumb_func
 279              		.fpu fpv5-sp-d16
 281              	SPI_EndRxTransaction:
 282              		@ args = 0, pretend = 0, frame = 16
 283              		@ frame_needed = 0, uses_anonymous_args = 0
 284 0000 1346     		mov	r3, r2
 285 0002 4268     		ldr	r2, [r0, #4]
 286 0004 B2F5827F 		cmp	r2, #260
 287 0008 30B5     		push	{r4, r5, lr}
 288 000a 0446     		mov	r4, r0
 289 000c 85B0     		sub	sp, sp, #20
 290 000e 0D46     		mov	r5, r1
 291 0010 2CD1     		bne	.L54
 292 0012 8268     		ldr	r2, [r0, #8]
ARM GAS  /tmp/ccHDMf48.s 			page 6


 293 0014 B2F5004F 		cmp	r2, #32768
 294 0018 02D0     		beq	.L55
 295 001a B2F5806F 		cmp	r2, #1024
 296 001e 04D1     		bne	.L56
 297              	.L55:
 298 0020 2068     		ldr	r0, [r4]
 299 0022 0268     		ldr	r2, [r0]
 300 0024 22F04002 		bic	r2, r2, #64
 301 0028 0260     		str	r2, [r0]
 302              	.L56:
 303 002a 1A46     		mov	r2, r3
 304 002c 2946     		mov	r1, r5
 305 002e 2046     		mov	r0, r4
 306 0030 0193     		str	r3, [sp, #4]
 307 0032 FFF7FEFF 		bl	SPI_WaitFlagStateUntilTimeout.constprop.0
 308 0036 019B     		ldr	r3, [sp, #4]
 309 0038 88B9     		cbnz	r0, .L79
 310 003a 6268     		ldr	r2, [r4, #4]
 311 003c B2F5827F 		cmp	r2, #260
 312 0040 26D1     		bne	.L60
 313 0042 A268     		ldr	r2, [r4, #8]
 314 0044 B2F5004F 		cmp	r2, #32768
 315 0048 02D0     		beq	.L61
 316 004a B2F5806F 		cmp	r2, #1024
 317 004e 1FD1     		bne	.L60
 318              	.L61:
 319 0050 2A46     		mov	r2, r5
 320 0052 4FF4C061 		mov	r1, #1536
 321 0056 2046     		mov	r0, r4
 322 0058 FFF7FEFF 		bl	SPI_WaitFifoStateUntilTimeout.constprop.0
 323 005c C0B1     		cbz	r0, .L60
 324              	.L79:
 325 005e 236E     		ldr	r3, [r4, #96]
 326 0060 0320     		movs	r0, #3
 327 0062 43F02003 		orr	r3, r3, #32
 328 0066 2366     		str	r3, [r4, #96]
 329              	.L77:
 330 0068 05B0     		add	sp, sp, #20
 331              		@ sp needed
 332 006a 30BD     		pop	{r4, r5, pc}
 333              	.L54:
 334 006c 094B     		ldr	r3, .L80
 335 006e 0A4A     		ldr	r2, .L80+4
 336 0070 1B68     		ldr	r3, [r3]
 337 0072 B3FBF2F3 		udiv	r3, r3, r2
 338 0076 4FF47A72 		mov	r2, #1000
 339 007a 5343     		muls	r3, r2, r3
 340 007c 0393     		str	r3, [sp, #12]
 341              	.L59:
 342 007e 039B     		ldr	r3, [sp, #12]
 343 0080 33B1     		cbz	r3, .L60
 344 0082 039B     		ldr	r3, [sp, #12]
 345 0084 013B     		subs	r3, r3, #1
 346 0086 0393     		str	r3, [sp, #12]
 347 0088 2368     		ldr	r3, [r4]
 348 008a 9B68     		ldr	r3, [r3, #8]
 349 008c 1B06     		lsls	r3, r3, #24
ARM GAS  /tmp/ccHDMf48.s 			page 7


 350 008e F6D4     		bmi	.L59
 351              	.L60:
 352 0090 0020     		movs	r0, #0
 353 0092 E9E7     		b	.L77
 354              	.L81:
 355              		.align	2
 356              	.L80:
 357 0094 00000000 		.word	SystemCoreClock
 358 0098 00366E01 		.word	24000000
 360              		.section	.text.SPI_EndRxTxTransaction,"ax",%progbits
 361              		.align	1
 362              		.syntax unified
 363              		.thumb
 364              		.thumb_func
 365              		.fpu fpv5-sp-d16
 367              	SPI_EndRxTxTransaction:
 368              		@ args = 0, pretend = 0, frame = 16
 369              		@ frame_needed = 0, uses_anonymous_args = 0
 370 0000 30B5     		push	{r4, r5, lr}
 371 0002 85B0     		sub	sp, sp, #20
 372 0004 1346     		mov	r3, r2
 373 0006 0D46     		mov	r5, r1
 374 0008 0446     		mov	r4, r0
 375 000a 0192     		str	r2, [sp, #4]
 376 000c 0A46     		mov	r2, r1
 377 000e 4FF4C051 		mov	r1, #6144
 378 0012 FFF7FEFF 		bl	SPI_WaitFifoStateUntilTimeout.constprop.0
 379 0016 019B     		ldr	r3, [sp, #4]
 380 0018 28B1     		cbz	r0, .L83
 381              	.L98:
 382 001a 236E     		ldr	r3, [r4, #96]
 383 001c 0320     		movs	r0, #3
 384 001e 43F02003 		orr	r3, r3, #32
 385 0022 2366     		str	r3, [r4, #96]
 386 0024 1DE0     		b	.L84
 387              	.L83:
 388 0026 154A     		ldr	r2, .L99
 389 0028 1549     		ldr	r1, .L99+4
 390 002a 1268     		ldr	r2, [r2]
 391 002c B2FBF1F2 		udiv	r2, r2, r1
 392 0030 4FF47A71 		mov	r1, #1000
 393 0034 4A43     		muls	r2, r1, r2
 394 0036 0392     		str	r2, [sp, #12]
 395 0038 6268     		ldr	r2, [r4, #4]
 396 003a B2F5827F 		cmp	r2, #260
 397 003e 12D1     		bne	.L85
 398 0040 1A46     		mov	r2, r3
 399 0042 2946     		mov	r1, r5
 400 0044 2046     		mov	r0, r4
 401 0046 0193     		str	r3, [sp, #4]
 402 0048 FFF7FEFF 		bl	SPI_WaitFlagStateUntilTimeout.constprop.0
 403 004c 019B     		ldr	r3, [sp, #4]
 404 004e 0028     		cmp	r0, #0
 405 0050 E3D1     		bne	.L98
 406              	.L86:
 407 0052 2A46     		mov	r2, r5
 408 0054 4FF4C061 		mov	r1, #1536
ARM GAS  /tmp/ccHDMf48.s 			page 8


 409 0058 2046     		mov	r0, r4
 410 005a FFF7FEFF 		bl	SPI_WaitFifoStateUntilTimeout.constprop.0
 411 005e 0028     		cmp	r0, #0
 412 0060 DBD1     		bne	.L98
 413              	.L84:
 414 0062 05B0     		add	sp, sp, #20
 415              		@ sp needed
 416 0064 30BD     		pop	{r4, r5, pc}
 417              	.L85:
 418 0066 039A     		ldr	r2, [sp, #12]
 419 0068 002A     		cmp	r2, #0
 420 006a F2D0     		beq	.L86
 421 006c 039A     		ldr	r2, [sp, #12]
 422 006e 013A     		subs	r2, r2, #1
 423 0070 0392     		str	r2, [sp, #12]
 424 0072 2268     		ldr	r2, [r4]
 425 0074 9268     		ldr	r2, [r2, #8]
 426 0076 1206     		lsls	r2, r2, #24
 427 0078 F5D4     		bmi	.L85
 428 007a EAE7     		b	.L86
 429              	.L100:
 430              		.align	2
 431              	.L99:
 432 007c 00000000 		.word	SystemCoreClock
 433 0080 00366E01 		.word	24000000
 435              		.section	.text.SPI_AbortTx_ISR,"ax",%progbits
 436              		.align	1
 437              		.syntax unified
 438              		.thumb
 439              		.thumb_func
 440              		.fpu fpv5-sp-d16
 442              	SPI_AbortTx_ISR:
 443              		@ args = 0, pretend = 0, frame = 8
 444              		@ frame_needed = 0, uses_anonymous_args = 0
 445 0000 344B     		ldr	r3, .L128
 446 0002 45F6C052 		movw	r2, #24000
 447 0006 1B68     		ldr	r3, [r3]
 448 0008 B3FBF2F3 		udiv	r3, r3, r2
 449 000c 6422     		movs	r2, #100
 450 000e 5343     		muls	r3, r2, r3
 451 0010 13B5     		push	{r0, r1, r4, lr}
 452 0012 0193     		str	r3, [sp, #4]
 453 0014 0446     		mov	r4, r0
 454 0016 0368     		ldr	r3, [r0]
 455 0018 5A68     		ldr	r2, [r3, #4]
 456 001a 22F08002 		bic	r2, r2, #128
 457 001e 5A60     		str	r2, [r3, #4]
 458              	.L104:
 459 0020 019A     		ldr	r2, [sp, #4]
 460 0022 002A     		cmp	r2, #0
 461 0024 47D1     		bne	.L102
 462 0026 236E     		ldr	r3, [r4, #96]
 463 0028 43F04003 		orr	r3, r3, #64
 464 002c 2366     		str	r3, [r4, #96]
 465              	.L103:
 466 002e FFF7FEFF 		bl	HAL_GetTick
 467 0032 6421     		movs	r1, #100
ARM GAS  /tmp/ccHDMf48.s 			page 9


 468 0034 0246     		mov	r2, r0
 469 0036 2046     		mov	r0, r4
 470 0038 FFF7FEFF 		bl	SPI_EndRxTxTransaction
 471 003c 08B1     		cbz	r0, .L105
 472 003e 4023     		movs	r3, #64
 473 0040 2366     		str	r3, [r4, #96]
 474              	.L105:
 475 0042 2268     		ldr	r2, [r4]
 476 0044 1368     		ldr	r3, [r2]
 477 0046 23F04003 		bic	r3, r3, #64
 478 004a 1360     		str	r3, [r2]
 479 004c FFF7FEFF 		bl	HAL_GetTick
 480 0050 6422     		movs	r2, #100
 481 0052 0346     		mov	r3, r0
 482 0054 4FF4C061 		mov	r1, #1536
 483 0058 2046     		mov	r0, r4
 484 005a FFF7FEFF 		bl	SPI_WaitFifoStateUntilTimeout.constprop.0
 485 005e 08B1     		cbz	r0, .L106
 486 0060 4023     		movs	r3, #64
 487 0062 2366     		str	r3, [r4, #96]
 488              	.L106:
 489 0064 2368     		ldr	r3, [r4]
 490 0066 5A68     		ldr	r2, [r3, #4]
 491 0068 5106     		lsls	r1, r2, #25
 492 006a 1FD5     		bpl	.L108
 493 006c 5A68     		ldr	r2, [r3, #4]
 494 006e 22F04002 		bic	r2, r2, #64
 495 0072 5A60     		str	r2, [r3, #4]
 496              	.L111:
 497 0074 019A     		ldr	r2, [sp, #4]
 498 0076 2ABB     		cbnz	r2, .L109
 499 0078 236E     		ldr	r3, [r4, #96]
 500 007a 43F04003 		orr	r3, r3, #64
 501 007e 2366     		str	r3, [r4, #96]
 502              	.L110:
 503 0080 FFF7FEFF 		bl	HAL_GetTick
 504 0084 6421     		movs	r1, #100
 505 0086 0246     		mov	r2, r0
 506 0088 2046     		mov	r0, r4
 507 008a FFF7FEFF 		bl	SPI_WaitFlagStateUntilTimeout.constprop.0
 508 008e 08B1     		cbz	r0, .L112
 509 0090 4023     		movs	r3, #64
 510 0092 2366     		str	r3, [r4, #96]
 511              	.L112:
 512 0094 FFF7FEFF 		bl	HAL_GetTick
 513 0098 6422     		movs	r2, #100
 514 009a 0346     		mov	r3, r0
 515 009c 4FF4C061 		mov	r1, #1536
 516 00a0 2046     		mov	r0, r4
 517 00a2 FFF7FEFF 		bl	SPI_WaitFifoStateUntilTimeout.constprop.0
 518 00a6 08B1     		cbz	r0, .L108
 519 00a8 4023     		movs	r3, #64
 520 00aa 2366     		str	r3, [r4, #96]
 521              	.L108:
 522 00ac 0723     		movs	r3, #7
 523 00ae 84F85D30 		strb	r3, [r4, #93]
 524 00b2 02B0     		add	sp, sp, #8
ARM GAS  /tmp/ccHDMf48.s 			page 10


 525              		@ sp needed
 526 00b4 10BD     		pop	{r4, pc}
 527              	.L102:
 528 00b6 019A     		ldr	r2, [sp, #4]
 529 00b8 013A     		subs	r2, r2, #1
 530 00ba 0192     		str	r2, [sp, #4]
 531 00bc 5A68     		ldr	r2, [r3, #4]
 532 00be 1006     		lsls	r0, r2, #24
 533 00c0 AED4     		bmi	.L104
 534 00c2 B4E7     		b	.L103
 535              	.L109:
 536 00c4 019A     		ldr	r2, [sp, #4]
 537 00c6 013A     		subs	r2, r2, #1
 538 00c8 0192     		str	r2, [sp, #4]
 539 00ca 5A68     		ldr	r2, [r3, #4]
 540 00cc 5206     		lsls	r2, r2, #25
 541 00ce D1D4     		bmi	.L111
 542 00d0 D6E7     		b	.L110
 543              	.L129:
 544 00d2 00BF     		.align	2
 545              	.L128:
 546 00d4 00000000 		.word	SystemCoreClock
 548              		.section	.text.HAL_SPI_MspInit,"ax",%progbits
 549              		.align	1
 550              		.weak	HAL_SPI_MspInit
 551              		.syntax unified
 552              		.thumb
 553              		.thumb_func
 554              		.fpu fpv5-sp-d16
 556              	HAL_SPI_MspInit:
 557              		@ args = 0, pretend = 0, frame = 0
 558              		@ frame_needed = 0, uses_anonymous_args = 0
 559              		@ link register save eliminated.
 560 0000 7047     		bx	lr
 562              		.section	.text.HAL_SPI_Init,"ax",%progbits
 563              		.align	1
 564              		.global	HAL_SPI_Init
 565              		.syntax unified
 566              		.thumb
 567              		.thumb_func
 568              		.fpu fpv5-sp-d16
 570              	HAL_SPI_Init:
 571              		@ args = 0, pretend = 0, frame = 0
 572              		@ frame_needed = 0, uses_anonymous_args = 0
 573 0000 70B5     		push	{r4, r5, r6, lr}
 574 0002 0446     		mov	r4, r0
 575 0004 0028     		cmp	r0, #0
 576 0006 63D0     		beq	.L140
 577 0008 436A     		ldr	r3, [r0, #36]
 578 000a 002B     		cmp	r3, #0
 579 000c 5CD1     		bne	.L133
 580 000e 4268     		ldr	r2, [r0, #4]
 581 0010 B2F5827F 		cmp	r2, #260
 582 0014 00D0     		beq	.L134
 583 0016 C361     		str	r3, [r0, #28]
 584              	.L134:
 585 0018 0023     		movs	r3, #0
ARM GAS  /tmp/ccHDMf48.s 			page 11


 586 001a A362     		str	r3, [r4, #40]
 587 001c 94F85D30 		ldrb	r3, [r4, #93]	@ zero_extendqisi2
 588 0020 03F0FF02 		and	r2, r3, #255
 589 0024 23B9     		cbnz	r3, .L135
 590 0026 2046     		mov	r0, r4
 591 0028 84F85C20 		strb	r2, [r4, #92]
 592 002c FFF7FEFF 		bl	HAL_SPI_MspInit
 593              	.L135:
 594 0030 0223     		movs	r3, #2
 595 0032 2268     		ldr	r2, [r4]
 596 0034 E068     		ldr	r0, [r4, #12]
 597 0036 84F85D30 		strb	r3, [r4, #93]
 598 003a 1368     		ldr	r3, [r2]
 599 003c B0F5E06F 		cmp	r0, #1792
 600 0040 23F04003 		bic	r3, r3, #64
 601 0044 1360     		str	r3, [r2]
 602 0046 4FF00003 		mov	r3, #0
 603 004a 43D8     		bhi	.L136
 604 004c 4FF48055 		mov	r5, #4096
 605              	.L148:
 606 0050 00D0     		beq	.L139
 607 0052 A362     		str	r3, [r4, #40]
 608              	.L139:
 609 0054 6368     		ldr	r3, [r4, #4]
 610 0056 00F47060 		and	r0, r0, #3840
 611 005a A668     		ldr	r6, [r4, #8]
 612 005c 03F48273 		and	r3, r3, #260
 613 0060 A169     		ldr	r1, [r4, #24]
 614 0062 06F40446 		and	r6, r6, #33792
 615 0066 3343     		orrs	r3, r3, r6
 616 0068 2669     		ldr	r6, [r4, #16]
 617 006a 06F00206 		and	r6, r6, #2
 618 006e 3343     		orrs	r3, r3, r6
 619 0070 6669     		ldr	r6, [r4, #20]
 620 0072 06F00106 		and	r6, r6, #1
 621 0076 3343     		orrs	r3, r3, r6
 622 0078 01F40076 		and	r6, r1, #512
 623 007c 090C     		lsrs	r1, r1, #16
 624 007e 3343     		orrs	r3, r3, r6
 625 0080 E669     		ldr	r6, [r4, #28]
 626 0082 01F00401 		and	r1, r1, #4
 627 0086 06F03806 		and	r6, r6, #56
 628 008a 3343     		orrs	r3, r3, r6
 629 008c 266A     		ldr	r6, [r4, #32]
 630 008e 06F08006 		and	r6, r6, #128
 631 0092 3343     		orrs	r3, r3, r6
 632 0094 A66A     		ldr	r6, [r4, #40]
 633 0096 06F40056 		and	r6, r6, #8192
 634 009a 3343     		orrs	r3, r3, r6
 635 009c 666B     		ldr	r6, [r4, #52]
 636 009e 1360     		str	r3, [r2]
 637 00a0 06F00806 		and	r6, r6, #8
 638 00a4 636A     		ldr	r3, [r4, #36]
 639 00a6 03F01003 		and	r3, r3, #16
 640 00aa 3343     		orrs	r3, r3, r6
 641 00ac 1843     		orrs	r0, r0, r3
 642 00ae 0143     		orrs	r1, r1, r0
ARM GAS  /tmp/ccHDMf48.s 			page 12


 643 00b0 0020     		movs	r0, #0
 644 00b2 0D43     		orrs	r5, r5, r1
 645 00b4 5560     		str	r5, [r2, #4]
 646 00b6 D369     		ldr	r3, [r2, #28]
 647 00b8 23F40063 		bic	r3, r3, #2048
 648 00bc D361     		str	r3, [r2, #28]
 649 00be 0123     		movs	r3, #1
 650 00c0 2066     		str	r0, [r4, #96]
 651 00c2 84F85D30 		strb	r3, [r4, #93]
 652              	.L147:
 653 00c6 70BD     		pop	{r4, r5, r6, pc}
 654              	.L133:
 655 00c8 0023     		movs	r3, #0
 656 00ca C0E90433 		strd	r3, r3, [r0, #16]
 657 00ce A3E7     		b	.L134
 658              	.L140:
 659 00d0 0120     		movs	r0, #1
 660 00d2 F8E7     		b	.L147
 661              	.L136:
 662 00d4 1D46     		mov	r5, r3
 663 00d6 B0F5706F 		cmp	r0, #3840
 664 00da B9E7     		b	.L148
 666              		.section	.text.HAL_SPI_MspDeInit,"ax",%progbits
 667              		.align	1
 668              		.weak	HAL_SPI_MspDeInit
 669              		.syntax unified
 670              		.thumb
 671              		.thumb_func
 672              		.fpu fpv5-sp-d16
 674              	HAL_SPI_MspDeInit:
 675              		@ args = 0, pretend = 0, frame = 0
 676              		@ frame_needed = 0, uses_anonymous_args = 0
 677              		@ link register save eliminated.
 678 0000 7047     		bx	lr
 680              		.section	.text.HAL_SPI_DeInit,"ax",%progbits
 681              		.align	1
 682              		.global	HAL_SPI_DeInit
 683              		.syntax unified
 684              		.thumb
 685              		.thumb_func
 686              		.fpu fpv5-sp-d16
 688              	HAL_SPI_DeInit:
 689              		@ args = 0, pretend = 0, frame = 0
 690              		@ frame_needed = 0, uses_anonymous_args = 0
 691 0000 10B5     		push	{r4, lr}
 692 0002 0446     		mov	r4, r0
 693 0004 80B1     		cbz	r0, .L152
 694 0006 0268     		ldr	r2, [r0]
 695 0008 0223     		movs	r3, #2
 696 000a 80F85D30 		strb	r3, [r0, #93]
 697 000e 1368     		ldr	r3, [r2]
 698 0010 23F04003 		bic	r3, r3, #64
 699 0014 1360     		str	r3, [r2]
 700 0016 FFF7FEFF 		bl	HAL_SPI_MspDeInit
 701 001a 0020     		movs	r0, #0
 702 001c 2066     		str	r0, [r4, #96]
 703 001e 84F85C00 		strb	r0, [r4, #92]
ARM GAS  /tmp/ccHDMf48.s 			page 13


 704 0022 84F85D00 		strb	r0, [r4, #93]
 705              	.L151:
 706 0026 10BD     		pop	{r4, pc}
 707              	.L152:
 708 0028 0120     		movs	r0, #1
 709 002a FCE7     		b	.L151
 711              		.section	.text.HAL_SPI_Transmit,"ax",%progbits
 712              		.align	1
 713              		.global	HAL_SPI_Transmit
 714              		.syntax unified
 715              		.thumb
 716              		.thumb_func
 717              		.fpu fpv5-sp-d16
 719              	HAL_SPI_Transmit:
 720              		@ args = 0, pretend = 0, frame = 8
 721              		@ frame_needed = 0, uses_anonymous_args = 0
 722 0000 2DE9F743 		push	{r0, r1, r2, r4, r5, r6, r7, r8, r9, lr}
 723 0004 1F46     		mov	r7, r3
 724 0006 90F85C30 		ldrb	r3, [r0, #92]	@ zero_extendqisi2
 725 000a 0446     		mov	r4, r0
 726 000c 0D46     		mov	r5, r1
 727 000e 012B     		cmp	r3, #1
 728 0010 9046     		mov	r8, r2
 729 0012 00F0BC80 		beq	.L180
 730 0016 0123     		movs	r3, #1
 731 0018 80F85C30 		strb	r3, [r0, #92]
 732 001c FFF7FEFF 		bl	HAL_GetTick
 733 0020 94F85D30 		ldrb	r3, [r4, #93]	@ zero_extendqisi2
 734 0024 8146     		mov	r9, r0
 735 0026 012B     		cmp	r3, #1
 736 0028 D8B2     		uxtb	r0, r3
 737 002a 40F0AE80 		bne	.L181
 738 002e 002D     		cmp	r5, #0
 739 0030 63D0     		beq	.L155
 740 0032 B8F1000F 		cmp	r8, #0
 741 0036 60D0     		beq	.L155
 742 0038 0323     		movs	r3, #3
 743 003a 2668     		ldr	r6, [r4]
 744 003c A563     		str	r5, [r4, #56]
 745 003e 84F85D30 		strb	r3, [r4, #93]
 746 0042 0023     		movs	r3, #0
 747 0044 A4F83C80 		strh	r8, [r4, #60]	@ movhi
 748 0048 2366     		str	r3, [r4, #96]
 749 004a 2364     		str	r3, [r4, #64]
 750 004c A4F83E80 		strh	r8, [r4, #62]	@ movhi
 751 0050 A4F84430 		strh	r3, [r4, #68]	@ movhi
 752 0054 A4F84630 		strh	r3, [r4, #70]	@ movhi
 753 0058 C4E91333 		strd	r3, r3, [r4, #76]
 754 005c A368     		ldr	r3, [r4, #8]
 755 005e B3F5004F 		cmp	r3, #32768
 756 0062 07D1     		bne	.L156
 757 0064 3368     		ldr	r3, [r6]
 758 0066 23F04003 		bic	r3, r3, #64
 759 006a 3360     		str	r3, [r6]
 760 006c 3368     		ldr	r3, [r6]
 761 006e 43F48043 		orr	r3, r3, #16384
 762 0072 3360     		str	r3, [r6]
ARM GAS  /tmp/ccHDMf48.s 			page 14


 763              	.L156:
 764 0074 3368     		ldr	r3, [r6]
 765 0076 5B06     		lsls	r3, r3, #25
 766 0078 03D4     		bmi	.L157
 767 007a 3368     		ldr	r3, [r6]
 768 007c 43F04003 		orr	r3, r3, #64
 769 0080 3360     		str	r3, [r6]
 770              	.L157:
 771 0082 E268     		ldr	r2, [r4, #12]
 772 0084 6368     		ldr	r3, [r4, #4]
 773 0086 B2F5E06F 		cmp	r2, #1792
 774 008a 42D9     		bls	.L158
 775 008c 13B1     		cbz	r3, .L159
 776 008e B8F1010F 		cmp	r8, #1
 777 0092 07D1     		bne	.L165
 778              	.L159:
 779 0094 35F8023B 		ldrh	r3, [r5], #2
 780 0098 F360     		str	r3, [r6, #12]
 781 009a A563     		str	r5, [r4, #56]
 782              	.L203:
 783 009c E38F     		ldrh	r3, [r4, #62]
 784 009e 013B     		subs	r3, r3, #1
 785 00a0 9BB2     		uxth	r3, r3
 786 00a2 E387     		strh	r3, [r4, #62]	@ movhi
 787              	.L165:
 788 00a4 E38F     		ldrh	r3, [r4, #62]
 789 00a6 9BB2     		uxth	r3, r3
 790 00a8 A3B9     		cbnz	r3, .L166
 791              	.L178:
 792 00aa 4A46     		mov	r2, r9
 793 00ac 3946     		mov	r1, r7
 794 00ae 2046     		mov	r0, r4
 795 00b0 FFF7FEFF 		bl	SPI_EndRxTxTransaction
 796 00b4 0028     		cmp	r0, #0
 797 00b6 65D1     		bne	.L167
 798              	.L168:
 799 00b8 A368     		ldr	r3, [r4, #8]
 800 00ba 33B9     		cbnz	r3, .L179
 801 00bc 0193     		str	r3, [sp, #4]
 802 00be 2368     		ldr	r3, [r4]
 803 00c0 DA68     		ldr	r2, [r3, #12]
 804 00c2 0192     		str	r2, [sp, #4]
 805 00c4 9B68     		ldr	r3, [r3, #8]
 806 00c6 0193     		str	r3, [sp, #4]
 807 00c8 019B     		ldr	r3, [sp, #4]
 808              	.L179:
 809 00ca 206E     		ldr	r0, [r4, #96]
 810 00cc 0038     		subs	r0, r0, #0
 811 00ce 18BF     		it	ne
 812 00d0 0120     		movne	r0, #1
 813 00d2 12E0     		b	.L155
 814              	.L166:
 815 00d4 2268     		ldr	r2, [r4]
 816 00d6 9368     		ldr	r3, [r2, #8]
 817 00d8 9D07     		lsls	r5, r3, #30
 818 00da 05D5     		bpl	.L161
 819 00dc A36B     		ldr	r3, [r4, #56]
ARM GAS  /tmp/ccHDMf48.s 			page 15


 820 00de 33F8021B 		ldrh	r1, [r3], #2
 821 00e2 D160     		str	r1, [r2, #12]
 822 00e4 A363     		str	r3, [r4, #56]
 823 00e6 D9E7     		b	.L203
 824              	.L161:
 825 00e8 FFF7FEFF 		bl	HAL_GetTick
 826 00ec A0EB0900 		sub	r0, r0, r9
 827 00f0 B842     		cmp	r0, r7
 828 00f2 0BD3     		bcc	.L163
 829 00f4 781C     		adds	r0, r7, #1
 830 00f6 D5D0     		beq	.L165
 831              	.L164:
 832 00f8 0320     		movs	r0, #3
 833              	.L155:
 834 00fa 0123     		movs	r3, #1
 835 00fc 84F85D30 		strb	r3, [r4, #93]
 836 0100 0023     		movs	r3, #0
 837 0102 84F85C30 		strb	r3, [r4, #92]
 838              	.L154:
 839 0106 03B0     		add	sp, sp, #12
 840              		@ sp needed
 841 0108 BDE8F083 		pop	{r4, r5, r6, r7, r8, r9, pc}
 842              	.L163:
 843 010c 002F     		cmp	r7, #0
 844 010e C9D1     		bne	.L165
 845 0110 F2E7     		b	.L164
 846              	.L158:
 847 0112 13B1     		cbz	r3, .L169
 848 0114 B8F1010F 		cmp	r8, #1
 849 0118 13D1     		bne	.L176
 850              	.L169:
 851 011a E38F     		ldrh	r3, [r4, #62]
 852 011c 9BB2     		uxth	r3, r3
 853 011e 012B     		cmp	r3, #1
 854 0120 06D9     		bls	.L171
 855 0122 35F8023B 		ldrh	r3, [r5], #2
 856 0126 F360     		str	r3, [r6, #12]
 857 0128 A563     		str	r5, [r4, #56]
 858              	.L206:
 859 012a E38F     		ldrh	r3, [r4, #62]
 860 012c 023B     		subs	r3, r3, #2
 861 012e 06E0     		b	.L204
 862              	.L171:
 863 0130 2B78     		ldrb	r3, [r5]	@ zero_extendqisi2
 864 0132 3373     		strb	r3, [r6, #12]
 865              	.L205:
 866 0134 A36B     		ldr	r3, [r4, #56]
 867 0136 0133     		adds	r3, r3, #1
 868 0138 A363     		str	r3, [r4, #56]
 869 013a E38F     		ldrh	r3, [r4, #62]
 870 013c 013B     		subs	r3, r3, #1
 871              	.L204:
 872 013e 9BB2     		uxth	r3, r3
 873 0140 E387     		strh	r3, [r4, #62]	@ movhi
 874              	.L176:
 875 0142 E38F     		ldrh	r3, [r4, #62]
 876 0144 9BB2     		uxth	r3, r3
ARM GAS  /tmp/ccHDMf48.s 			page 16


 877 0146 002B     		cmp	r3, #0
 878 0148 AFD0     		beq	.L178
 879 014a 2268     		ldr	r2, [r4]
 880 014c 9368     		ldr	r3, [r2, #8]
 881 014e 9907     		lsls	r1, r3, #30
 882 0150 0CD5     		bpl	.L172
 883 0152 E18F     		ldrh	r1, [r4, #62]
 884 0154 A36B     		ldr	r3, [r4, #56]
 885 0156 89B2     		uxth	r1, r1
 886 0158 0129     		cmp	r1, #1
 887 015a 04D9     		bls	.L173
 888 015c 33F8021B 		ldrh	r1, [r3], #2
 889 0160 D160     		str	r1, [r2, #12]
 890 0162 A363     		str	r3, [r4, #56]
 891 0164 E1E7     		b	.L206
 892              	.L173:
 893 0166 1B78     		ldrb	r3, [r3]	@ zero_extendqisi2
 894 0168 1373     		strb	r3, [r2, #12]
 895 016a E3E7     		b	.L205
 896              	.L172:
 897 016c FFF7FEFF 		bl	HAL_GetTick
 898 0170 A0EB0900 		sub	r0, r0, r9
 899 0174 B842     		cmp	r0, r7
 900 0176 02D3     		bcc	.L175
 901 0178 7B1C     		adds	r3, r7, #1
 902 017a E2D0     		beq	.L176
 903 017c BCE7     		b	.L164
 904              	.L175:
 905 017e 002F     		cmp	r7, #0
 906 0180 DFD1     		bne	.L176
 907 0182 B9E7     		b	.L164
 908              	.L167:
 909 0184 2023     		movs	r3, #32
 910 0186 2366     		str	r3, [r4, #96]
 911 0188 96E7     		b	.L168
 912              	.L181:
 913 018a 0220     		movs	r0, #2
 914 018c B5E7     		b	.L155
 915              	.L180:
 916 018e 0220     		movs	r0, #2
 917 0190 B9E7     		b	.L154
 919              		.section	.text.HAL_SPI_TransmitReceive,"ax",%progbits
 920              		.align	1
 921              		.global	HAL_SPI_TransmitReceive
 922              		.syntax unified
 923              		.thumb
 924              		.thumb_func
 925              		.fpu fpv5-sp-d16
 927              	HAL_SPI_TransmitReceive:
 928              		@ args = 4, pretend = 0, frame = 0
 929              		@ frame_needed = 0, uses_anonymous_args = 0
 930 0000 2DE9F843 		push	{r3, r4, r5, r6, r7, r8, r9, lr}
 931 0004 1F46     		mov	r7, r3
 932 0006 90F85C30 		ldrb	r3, [r0, #92]	@ zero_extendqisi2
 933 000a 0446     		mov	r4, r0
 934 000c 0D46     		mov	r5, r1
 935 000e 012B     		cmp	r3, #1
ARM GAS  /tmp/ccHDMf48.s 			page 17


 936 0010 1646     		mov	r6, r2
 937 0012 DDF82080 		ldr	r8, [sp, #32]
 938 0016 00F01D81 		beq	.L236
 939 001a 0123     		movs	r3, #1
 940 001c 80F85C30 		strb	r3, [r0, #92]
 941 0020 FFF7FEFF 		bl	HAL_GetTick
 942 0024 94F85D20 		ldrb	r2, [r4, #93]	@ zero_extendqisi2
 943 0028 8146     		mov	r9, r0
 944 002a 6368     		ldr	r3, [r4, #4]
 945 002c 012A     		cmp	r2, #1
 946 002e D1B2     		uxtb	r1, r2
 947 0030 0AD0     		beq	.L209
 948 0032 B3F5827F 		cmp	r3, #260
 949 0036 40F00B81 		bne	.L239
 950 003a A268     		ldr	r2, [r4, #8]
 951 003c 002A     		cmp	r2, #0
 952 003e 40F00781 		bne	.L239
 953 0042 0429     		cmp	r1, #4
 954 0044 40F00481 		bne	.L239
 955              	.L209:
 956 0048 002D     		cmp	r5, #0
 957 004a 47D0     		beq	.L242
 958 004c 002E     		cmp	r6, #0
 959 004e 45D0     		beq	.L242
 960 0050 002F     		cmp	r7, #0
 961 0052 43D0     		beq	.L242
 962 0054 94F85D20 		ldrb	r2, [r4, #93]	@ zero_extendqisi2
 963 0058 042A     		cmp	r2, #4
 964 005a 02D0     		beq	.L211
 965 005c 0522     		movs	r2, #5
 966 005e 84F85D20 		strb	r2, [r4, #93]
 967              	.L211:
 968 0062 E168     		ldr	r1, [r4, #12]
 969 0064 0022     		movs	r2, #0
 970 0066 2664     		str	r6, [r4, #64]
 971 0068 B1F5E06F 		cmp	r1, #1792
 972 006c 2668     		ldr	r6, [r4]
 973 006e 2266     		str	r2, [r4, #96]
 974 0070 A4F84470 		strh	r7, [r4, #68]	@ movhi
 975 0074 A4F84670 		strh	r7, [r4, #70]	@ movhi
 976 0078 A563     		str	r5, [r4, #56]
 977 007a E787     		strh	r7, [r4, #62]	@ movhi
 978 007c A787     		strh	r7, [r4, #60]	@ movhi
 979 007e C4E91322 		strd	r2, r2, [r4, #76]
 980 0082 7268     		ldr	r2, [r6, #4]
 981 0084 01D8     		bhi	.L212
 982 0086 012F     		cmp	r7, #1
 983 0088 2AD0     		beq	.L213
 984              	.L212:
 985 008a 22F48052 		bic	r2, r2, #4096
 986              	.L287:
 987 008e 7260     		str	r2, [r6, #4]
 988 0090 3268     		ldr	r2, [r6]
 989 0092 5006     		lsls	r0, r2, #25
 990 0094 03D4     		bmi	.L215
 991 0096 3268     		ldr	r2, [r6]
 992 0098 42F04002 		orr	r2, r2, #64
ARM GAS  /tmp/ccHDMf48.s 			page 18


 993 009c 3260     		str	r2, [r6]
 994              	.L215:
 995 009e B1F5E06F 		cmp	r1, #1792
 996 00a2 58D9     		bls	.L216
 997 00a4 0BB1     		cbz	r3, .L217
 998 00a6 012F     		cmp	r7, #1
 999 00a8 07D1     		bne	.L218
 1000              	.L217:
 1001 00aa 35F8023B 		ldrh	r3, [r5], #2
 1002 00ae F360     		str	r3, [r6, #12]
 1003 00b0 E38F     		ldrh	r3, [r4, #62]
 1004 00b2 A563     		str	r5, [r4, #56]
 1005 00b4 013B     		subs	r3, r3, #1
 1006 00b6 9BB2     		uxth	r3, r3
 1007 00b8 E387     		strh	r3, [r4, #62]	@ movhi
 1008              	.L218:
 1009 00ba 0125     		movs	r5, #1
 1010              	.L271:
 1011 00bc E38F     		ldrh	r3, [r4, #62]
 1012 00be 9BB2     		uxth	r3, r3
 1013 00c0 8BB9     		cbnz	r3, .L222
 1014 00c2 B4F84630 		ldrh	r3, [r4, #70]
 1015 00c6 9BB2     		uxth	r3, r3
 1016 00c8 6BB9     		cbnz	r3, .L222
 1017              	.L235:
 1018 00ca 4A46     		mov	r2, r9
 1019 00cc 4146     		mov	r1, r8
 1020 00ce 2046     		mov	r0, r4
 1021 00d0 FFF7FEFF 		bl	SPI_EndRxTxTransaction
 1022 00d4 0028     		cmp	r0, #0
 1023 00d6 36D0     		beq	.L210
 1024 00d8 2023     		movs	r3, #32
 1025 00da 2366     		str	r3, [r4, #96]
 1026              	.L242:
 1027 00dc 0120     		movs	r0, #1
 1028 00de 32E0     		b	.L210
 1029              	.L213:
 1030 00e0 42F48052 		orr	r2, r2, #4096
 1031 00e4 D3E7     		b	.L287
 1032              	.L222:
 1033 00e6 2168     		ldr	r1, [r4]
 1034 00e8 8B68     		ldr	r3, [r1, #8]
 1035 00ea 9A07     		lsls	r2, r3, #30
 1036 00ec 0DD5     		bpl	.L220
 1037 00ee E38F     		ldrh	r3, [r4, #62]
 1038 00f0 9BB2     		uxth	r3, r3
 1039 00f2 53B1     		cbz	r3, .L220
 1040 00f4 4DB1     		cbz	r5, .L220
 1041 00f6 A36B     		ldr	r3, [r4, #56]
 1042 00f8 0025     		movs	r5, #0
 1043 00fa 33F8022B 		ldrh	r2, [r3], #2
 1044 00fe CA60     		str	r2, [r1, #12]
 1045 0100 A363     		str	r3, [r4, #56]
 1046 0102 E38F     		ldrh	r3, [r4, #62]
 1047 0104 013B     		subs	r3, r3, #1
 1048 0106 9BB2     		uxth	r3, r3
 1049 0108 E387     		strh	r3, [r4, #62]	@ movhi
ARM GAS  /tmp/ccHDMf48.s 			page 19


 1050              	.L220:
 1051 010a 8A68     		ldr	r2, [r1, #8]
 1052 010c 12F00102 		ands	r2, r2, #1
 1053 0110 0FD0     		beq	.L221
 1054 0112 B4F84630 		ldrh	r3, [r4, #70]
 1055 0116 9BB2     		uxth	r3, r3
 1056 0118 5BB1     		cbz	r3, .L221
 1057 011a C968     		ldr	r1, [r1, #12]
 1058 011c 1546     		mov	r5, r2
 1059 011e 236C     		ldr	r3, [r4, #64]
 1060 0120 23F8021B 		strh	r1, [r3], #2	@ movhi
 1061 0124 2364     		str	r3, [r4, #64]
 1062 0126 B4F84630 		ldrh	r3, [r4, #70]
 1063 012a 013B     		subs	r3, r3, #1
 1064 012c 9BB2     		uxth	r3, r3
 1065 012e A4F84630 		strh	r3, [r4, #70]	@ movhi
 1066              	.L221:
 1067 0132 FFF7FEFF 		bl	HAL_GetTick
 1068 0136 A0EB0900 		sub	r0, r0, r9
 1069 013a 4045     		cmp	r0, r8
 1070 013c BED3     		bcc	.L271
 1071 013e B8F1FF3F 		cmp	r8, #-1
 1072 0142 BBD0     		beq	.L271
 1073              	.L232:
 1074 0144 0320     		movs	r0, #3
 1075              	.L210:
 1076 0146 0123     		movs	r3, #1
 1077 0148 84F85D30 		strb	r3, [r4, #93]
 1078 014c 0023     		movs	r3, #0
 1079 014e 84F85C30 		strb	r3, [r4, #92]
 1080              	.L208:
 1081 0152 BDE8F883 		pop	{r3, r4, r5, r6, r7, r8, r9, pc}
 1082              	.L216:
 1083 0156 0BB1     		cbz	r3, .L224
 1084 0158 012F     		cmp	r7, #1
 1085 015a 0BD1     		bne	.L225
 1086              	.L224:
 1087 015c E38F     		ldrh	r3, [r4, #62]
 1088 015e 9BB2     		uxth	r3, r3
 1089 0160 012B     		cmp	r3, #1
 1090 0162 09D9     		bls	.L226
 1091 0164 35F8023B 		ldrh	r3, [r5], #2
 1092 0168 F360     		str	r3, [r6, #12]
 1093 016a E38F     		ldrh	r3, [r4, #62]
 1094 016c A563     		str	r5, [r4, #56]
 1095 016e 023B     		subs	r3, r3, #2
 1096              	.L289:
 1097 0170 9BB2     		uxth	r3, r3
 1098 0172 E387     		strh	r3, [r4, #62]	@ movhi
 1099              	.L225:
 1100 0174 0125     		movs	r5, #1
 1101 0176 49E0     		b	.L286
 1102              	.L226:
 1103 0178 2B78     		ldrb	r3, [r5]	@ zero_extendqisi2
 1104 017a 3373     		strb	r3, [r6, #12]
 1105 017c A36B     		ldr	r3, [r4, #56]
 1106 017e 0133     		adds	r3, r3, #1
ARM GAS  /tmp/ccHDMf48.s 			page 20


 1107 0180 A363     		str	r3, [r4, #56]
 1108 0182 E38F     		ldrh	r3, [r4, #62]
 1109 0184 013B     		subs	r3, r3, #1
 1110 0186 F3E7     		b	.L289
 1111              	.L234:
 1112 0188 2268     		ldr	r2, [r4]
 1113 018a 9368     		ldr	r3, [r2, #8]
 1114 018c 9B07     		lsls	r3, r3, #30
 1115 018e 11D5     		bpl	.L227
 1116 0190 E38F     		ldrh	r3, [r4, #62]
 1117 0192 9BB2     		uxth	r3, r3
 1118 0194 73B1     		cbz	r3, .L227
 1119 0196 6DB1     		cbz	r5, .L227
 1120 0198 E18F     		ldrh	r1, [r4, #62]
 1121 019a A36B     		ldr	r3, [r4, #56]
 1122 019c 89B2     		uxth	r1, r1
 1123 019e 0129     		cmp	r1, #1
 1124 01a0 3ED9     		bls	.L228
 1125 01a2 33F8021B 		ldrh	r1, [r3], #2
 1126 01a6 D160     		str	r1, [r2, #12]
 1127 01a8 A363     		str	r3, [r4, #56]
 1128 01aa E38F     		ldrh	r3, [r4, #62]
 1129 01ac 023B     		subs	r3, r3, #2
 1130              	.L288:
 1131 01ae 9BB2     		uxth	r3, r3
 1132 01b0 0025     		movs	r5, #0
 1133 01b2 E387     		strh	r3, [r4, #62]	@ movhi
 1134              	.L227:
 1135 01b4 2268     		ldr	r2, [r4]
 1136 01b6 9368     		ldr	r3, [r2, #8]
 1137 01b8 13F00103 		ands	r3, r3, #1
 1138 01bc 1DD0     		beq	.L229
 1139 01be B4F84610 		ldrh	r1, [r4, #70]
 1140 01c2 89B2     		uxth	r1, r1
 1141 01c4 C9B1     		cbz	r1, .L229
 1142 01c6 B4F84600 		ldrh	r0, [r4, #70]
 1143 01ca 216C     		ldr	r1, [r4, #64]
 1144 01cc 80B2     		uxth	r0, r0
 1145 01ce 0128     		cmp	r0, #1
 1146 01d0 2ED9     		bls	.L230
 1147 01d2 D068     		ldr	r0, [r2, #12]
 1148 01d4 21F8020B 		strh	r0, [r1], #2	@ movhi
 1149 01d8 2164     		str	r1, [r4, #64]
 1150 01da B4F84610 		ldrh	r1, [r4, #70]
 1151 01de 0239     		subs	r1, r1, #2
 1152 01e0 89B2     		uxth	r1, r1
 1153 01e2 A4F84610 		strh	r1, [r4, #70]	@ movhi
 1154 01e6 B4F84610 		ldrh	r1, [r4, #70]
 1155 01ea 89B2     		uxth	r1, r1
 1156 01ec 0129     		cmp	r1, #1
 1157 01ee 03D8     		bhi	.L243
 1158 01f0 5168     		ldr	r1, [r2, #4]
 1159 01f2 41F48051 		orr	r1, r1, #4096
 1160 01f6 5160     		str	r1, [r2, #4]
 1161              	.L243:
 1162 01f8 1D46     		mov	r5, r3
 1163              	.L229:
ARM GAS  /tmp/ccHDMf48.s 			page 21


 1164 01fa FFF7FEFF 		bl	HAL_GetTick
 1165 01fe A0EB0900 		sub	r0, r0, r9
 1166 0202 4045     		cmp	r0, r8
 1167 0204 20D3     		bcc	.L231
 1168 0206 B8F1FF3F 		cmp	r8, #-1
 1169 020a 9BD1     		bne	.L232
 1170              	.L286:
 1171 020c E38F     		ldrh	r3, [r4, #62]
 1172 020e 9BB2     		uxth	r3, r3
 1173 0210 002B     		cmp	r3, #0
 1174 0212 B9D1     		bne	.L234
 1175 0214 B4F84630 		ldrh	r3, [r4, #70]
 1176 0218 9BB2     		uxth	r3, r3
 1177 021a 002B     		cmp	r3, #0
 1178 021c B4D1     		bne	.L234
 1179 021e 54E7     		b	.L235
 1180              	.L228:
 1181 0220 1B78     		ldrb	r3, [r3]	@ zero_extendqisi2
 1182 0222 1373     		strb	r3, [r2, #12]
 1183 0224 A36B     		ldr	r3, [r4, #56]
 1184 0226 0133     		adds	r3, r3, #1
 1185 0228 A363     		str	r3, [r4, #56]
 1186 022a E38F     		ldrh	r3, [r4, #62]
 1187 022c 013B     		subs	r3, r3, #1
 1188 022e BEE7     		b	.L288
 1189              	.L230:
 1190 0230 127B     		ldrb	r2, [r2, #12]	@ zero_extendqisi2
 1191 0232 0A70     		strb	r2, [r1]
 1192 0234 226C     		ldr	r2, [r4, #64]
 1193 0236 0132     		adds	r2, r2, #1
 1194 0238 2264     		str	r2, [r4, #64]
 1195 023a B4F84620 		ldrh	r2, [r4, #70]
 1196 023e 013A     		subs	r2, r2, #1
 1197 0240 92B2     		uxth	r2, r2
 1198 0242 A4F84620 		strh	r2, [r4, #70]	@ movhi
 1199 0246 D7E7     		b	.L243
 1200              	.L231:
 1201 0248 B8F1000F 		cmp	r8, #0
 1202 024c DED1     		bne	.L286
 1203 024e 79E7     		b	.L232
 1204              	.L239:
 1205 0250 0220     		movs	r0, #2
 1206 0252 78E7     		b	.L210
 1207              	.L236:
 1208 0254 0220     		movs	r0, #2
 1209 0256 7CE7     		b	.L208
 1211              		.section	.text.HAL_SPI_Receive,"ax",%progbits
 1212              		.align	1
 1213              		.global	HAL_SPI_Receive
 1214              		.syntax unified
 1215              		.thumb
 1216              		.thumb_func
 1217              		.fpu fpv5-sp-d16
 1219              	HAL_SPI_Receive:
 1220              		@ args = 0, pretend = 0, frame = 0
 1221              		@ frame_needed = 0, uses_anonymous_args = 0
 1222 0000 2DE9F743 		push	{r0, r1, r2, r4, r5, r6, r7, r8, r9, lr}
ARM GAS  /tmp/ccHDMf48.s 			page 22


 1223 0004 1E46     		mov	r6, r3
 1224 0006 4368     		ldr	r3, [r0, #4]
 1225 0008 0446     		mov	r4, r0
 1226 000a 8946     		mov	r9, r1
 1227 000c B3F5827F 		cmp	r3, #260
 1228 0010 1746     		mov	r7, r2
 1229 0012 0CD1     		bne	.L291
 1230 0014 8368     		ldr	r3, [r0, #8]
 1231 0016 53B9     		cbnz	r3, .L291
 1232 0018 0423     		movs	r3, #4
 1233 001a 80F85D30 		strb	r3, [r0, #93]
 1234 001e 1346     		mov	r3, r2
 1235 0020 0096     		str	r6, [sp]
 1236 0022 0A46     		mov	r2, r1
 1237 0024 FFF7FEFF 		bl	HAL_SPI_TransmitReceive
 1238              	.L292:
 1239 0028 03B0     		add	sp, sp, #12
 1240              		@ sp needed
 1241 002a BDE8F083 		pop	{r4, r5, r6, r7, r8, r9, pc}
 1242              	.L291:
 1243 002e 94F85C30 		ldrb	r3, [r4, #92]	@ zero_extendqisi2
 1244 0032 012B     		cmp	r3, #1
 1245 0034 00F09A80 		beq	.L312
 1246 0038 0123     		movs	r3, #1
 1247 003a 84F85C30 		strb	r3, [r4, #92]
 1248 003e FFF7FEFF 		bl	HAL_GetTick
 1249 0042 94F85D30 		ldrb	r3, [r4, #93]	@ zero_extendqisi2
 1250 0046 8046     		mov	r8, r0
 1251 0048 012B     		cmp	r3, #1
 1252 004a D8B2     		uxtb	r0, r3
 1253 004c 40F08C80 		bne	.L313
 1254 0050 B9F1000F 		cmp	r9, #0
 1255 0054 6FD0     		beq	.L293
 1256 0056 002F     		cmp	r7, #0
 1257 0058 6DD0     		beq	.L293
 1258 005a 0025     		movs	r5, #0
 1259 005c 0423     		movs	r3, #4
 1260 005e E268     		ldr	r2, [r4, #12]
 1261 0060 84F85D30 		strb	r3, [r4, #93]
 1262 0064 A563     		str	r5, [r4, #56]
 1263 0066 B2F5E06F 		cmp	r2, #1792
 1264 006a 2566     		str	r5, [r4, #96]
 1265 006c A587     		strh	r5, [r4, #60]	@ movhi
 1266 006e A4F84670 		strh	r7, [r4, #70]	@ movhi
 1267 0072 E587     		strh	r5, [r4, #62]	@ movhi
 1268 0074 C4F84090 		str	r9, [r4, #64]
 1269 0078 A4F84470 		strh	r7, [r4, #68]	@ movhi
 1270 007c C4E91355 		strd	r5, r5, [r4, #76]
 1271 0080 2568     		ldr	r5, [r4]
 1272 0082 6B68     		ldr	r3, [r5, #4]
 1273 0084 8CBF     		ite	hi
 1274 0086 23F48053 		bichi	r3, r3, #4096
 1275 008a 43F48053 		orrls	r3, r3, #4096
 1276 008e 6B60     		str	r3, [r5, #4]
 1277 0090 A368     		ldr	r3, [r4, #8]
 1278 0092 B3F5004F 		cmp	r3, #32768
 1279 0096 07D1     		bne	.L296
ARM GAS  /tmp/ccHDMf48.s 			page 23


 1280 0098 2B68     		ldr	r3, [r5]
 1281 009a 23F04003 		bic	r3, r3, #64
 1282 009e 2B60     		str	r3, [r5]
 1283 00a0 2B68     		ldr	r3, [r5]
 1284 00a2 23F48043 		bic	r3, r3, #16384
 1285 00a6 2B60     		str	r3, [r5]
 1286              	.L296:
 1287 00a8 2B68     		ldr	r3, [r5]
 1288 00aa 5F06     		lsls	r7, r3, #25
 1289 00ac 03D4     		bmi	.L297
 1290 00ae 2B68     		ldr	r3, [r5]
 1291 00b0 43F04003 		orr	r3, r3, #64
 1292 00b4 2B60     		str	r3, [r5]
 1293              	.L297:
 1294 00b6 B2F5E06F 		cmp	r2, #1792
 1295 00ba 23D9     		bls	.L298
 1296              	.L299:
 1297 00bc B4F84630 		ldrh	r3, [r4, #70]
 1298 00c0 9BB2     		uxth	r3, r3
 1299 00c2 23B3     		cbz	r3, .L311
 1300 00c4 2368     		ldr	r3, [r4]
 1301 00c6 9A68     		ldr	r2, [r3, #8]
 1302 00c8 D207     		lsls	r2, r2, #31
 1303 00ca 3ED5     		bpl	.L307
 1304 00cc DA68     		ldr	r2, [r3, #12]
 1305 00ce 236C     		ldr	r3, [r4, #64]
 1306 00d0 23F8022B 		strh	r2, [r3], #2	@ movhi
 1307 00d4 2364     		str	r3, [r4, #64]
 1308 00d6 B4F84630 		ldrh	r3, [r4, #70]
 1309 00da 013B     		subs	r3, r3, #1
 1310 00dc 9BB2     		uxth	r3, r3
 1311 00de A4F84630 		strh	r3, [r4, #70]	@ movhi
 1312 00e2 EBE7     		b	.L299
 1313              	.L304:
 1314 00e4 2368     		ldr	r3, [r4]
 1315 00e6 9A68     		ldr	r2, [r3, #8]
 1316 00e8 D007     		lsls	r0, r2, #31
 1317 00ea 1BD5     		bpl	.L300
 1318 00ec 1B7B     		ldrb	r3, [r3, #12]	@ zero_extendqisi2
 1319 00ee 226C     		ldr	r2, [r4, #64]
 1320 00f0 1370     		strb	r3, [r2]
 1321 00f2 236C     		ldr	r3, [r4, #64]
 1322 00f4 0133     		adds	r3, r3, #1
 1323 00f6 2364     		str	r3, [r4, #64]
 1324 00f8 B4F84630 		ldrh	r3, [r4, #70]
 1325 00fc 013B     		subs	r3, r3, #1
 1326 00fe 9BB2     		uxth	r3, r3
 1327 0100 A4F84630 		strh	r3, [r4, #70]	@ movhi
 1328              	.L298:
 1329 0104 B4F84630 		ldrh	r3, [r4, #70]
 1330 0108 9BB2     		uxth	r3, r3
 1331 010a 002B     		cmp	r3, #0
 1332 010c EAD1     		bne	.L304
 1333              	.L311:
 1334 010e 4246     		mov	r2, r8
 1335 0110 3146     		mov	r1, r6
 1336 0112 2046     		mov	r0, r4
ARM GAS  /tmp/ccHDMf48.s 			page 24


 1337 0114 FFF7FEFF 		bl	SPI_EndRxTransaction
 1338 0118 18BB     		cbnz	r0, .L305
 1339              	.L306:
 1340 011a 206E     		ldr	r0, [r4, #96]
 1341 011c 0038     		subs	r0, r0, #0
 1342 011e 18BF     		it	ne
 1343 0120 0120     		movne	r0, #1
 1344 0122 08E0     		b	.L293
 1345              	.L300:
 1346 0124 FFF7FEFF 		bl	HAL_GetTick
 1347 0128 A0EB0800 		sub	r0, r0, r8
 1348 012c B042     		cmp	r0, r6
 1349 012e 09D3     		bcc	.L302
 1350 0130 711C     		adds	r1, r6, #1
 1351 0132 E7D0     		beq	.L298
 1352              	.L303:
 1353 0134 0320     		movs	r0, #3
 1354              	.L293:
 1355 0136 0123     		movs	r3, #1
 1356 0138 84F85D30 		strb	r3, [r4, #93]
 1357 013c 0023     		movs	r3, #0
 1358 013e 84F85C30 		strb	r3, [r4, #92]
 1359 0142 71E7     		b	.L292
 1360              	.L302:
 1361 0144 002E     		cmp	r6, #0
 1362 0146 DDD1     		bne	.L298
 1363 0148 F4E7     		b	.L303
 1364              	.L307:
 1365 014a FFF7FEFF 		bl	HAL_GetTick
 1366 014e A0EB0800 		sub	r0, r0, r8
 1367 0152 B042     		cmp	r0, r6
 1368 0154 02D3     		bcc	.L309
 1369 0156 731C     		adds	r3, r6, #1
 1370 0158 B0D0     		beq	.L299
 1371 015a EBE7     		b	.L303
 1372              	.L309:
 1373 015c 002E     		cmp	r6, #0
 1374 015e ADD1     		bne	.L299
 1375 0160 E8E7     		b	.L303
 1376              	.L305:
 1377 0162 2023     		movs	r3, #32
 1378 0164 2366     		str	r3, [r4, #96]
 1379 0166 D8E7     		b	.L306
 1380              	.L313:
 1381 0168 0220     		movs	r0, #2
 1382 016a E4E7     		b	.L293
 1383              	.L312:
 1384 016c 0220     		movs	r0, #2
 1385 016e 5BE7     		b	.L292
 1387              		.section	.text.HAL_SPI_Transmit_IT,"ax",%progbits
 1388              		.align	1
 1389              		.global	HAL_SPI_Transmit_IT
 1390              		.syntax unified
 1391              		.thumb
 1392              		.thumb_func
 1393              		.fpu fpv5-sp-d16
 1395              	HAL_SPI_Transmit_IT:
ARM GAS  /tmp/ccHDMf48.s 			page 25


 1396              		@ args = 0, pretend = 0, frame = 0
 1397              		@ frame_needed = 0, uses_anonymous_args = 0
 1398              		@ link register save eliminated.
 1399 0000 0346     		mov	r3, r0
 1400 0002 90F85C00 		ldrb	r0, [r0, #92]	@ zero_extendqisi2
 1401 0006 0128     		cmp	r0, #1
 1402 0008 41D0     		beq	.L336
 1403 000a 0120     		movs	r0, #1
 1404 000c 83F85C00 		strb	r0, [r3, #92]
 1405 0010 0029     		cmp	r1, #0
 1406 0012 34D0     		beq	.L333
 1407 0014 002A     		cmp	r2, #0
 1408 0016 32D0     		beq	.L333
 1409 0018 93F85D00 		ldrb	r0, [r3, #93]	@ zero_extendqisi2
 1410 001c 0128     		cmp	r0, #1
 1411 001e 32D1     		bne	.L339
 1412 0020 0320     		movs	r0, #3
 1413 0022 9963     		str	r1, [r3, #56]
 1414 0024 9A87     		strh	r2, [r3, #60]	@ movhi
 1415 0026 83F85D00 		strb	r0, [r3, #93]
 1416 002a 0020     		movs	r0, #0
 1417 002c 1949     		ldr	r1, .L342
 1418 002e 1866     		str	r0, [r3, #96]
 1419 0030 1864     		str	r0, [r3, #64]
 1420 0032 DA87     		strh	r2, [r3, #62]	@ movhi
 1421 0034 A3F84400 		strh	r0, [r3, #68]	@ movhi
 1422 0038 174A     		ldr	r2, .L342+4
 1423 003a A3F84600 		strh	r0, [r3, #70]	@ movhi
 1424 003e D864     		str	r0, [r3, #76]
 1425 0040 D868     		ldr	r0, [r3, #12]
 1426 0042 B0F5E06F 		cmp	r0, #1792
 1427 0046 98BF     		it	ls
 1428 0048 0A46     		movls	r2, r1
 1429 004a 9968     		ldr	r1, [r3, #8]
 1430 004c B1F5004F 		cmp	r1, #32768
 1431 0050 1A65     		str	r2, [r3, #80]
 1432 0052 1A68     		ldr	r2, [r3]
 1433 0054 07D1     		bne	.L335
 1434 0056 1168     		ldr	r1, [r2]
 1435 0058 21F04001 		bic	r1, r1, #64
 1436 005c 1160     		str	r1, [r2]
 1437 005e 1168     		ldr	r1, [r2]
 1438 0060 41F48041 		orr	r1, r1, #16384
 1439 0064 1160     		str	r1, [r2]
 1440              	.L335:
 1441 0066 5168     		ldr	r1, [r2, #4]
 1442 0068 41F0A001 		orr	r1, r1, #160
 1443 006c 5160     		str	r1, [r2, #4]
 1444 006e 1068     		ldr	r0, [r2]
 1445 0070 10F04000 		ands	r0, r0, #64
 1446 0074 09D1     		bne	.L341
 1447 0076 1168     		ldr	r1, [r2]
 1448 0078 41F04001 		orr	r1, r1, #64
 1449 007c 1160     		str	r1, [r2]
 1450              	.L333:
 1451 007e 0022     		movs	r2, #0
 1452 0080 83F85C20 		strb	r2, [r3, #92]
ARM GAS  /tmp/ccHDMf48.s 			page 26


 1453 0084 7047     		bx	lr
 1454              	.L339:
 1455 0086 0220     		movs	r0, #2
 1456 0088 F9E7     		b	.L333
 1457              	.L341:
 1458 008a 0020     		movs	r0, #0
 1459 008c F7E7     		b	.L333
 1460              	.L336:
 1461 008e 0220     		movs	r0, #2
 1462 0090 7047     		bx	lr
 1463              	.L343:
 1464 0092 00BF     		.align	2
 1465              	.L342:
 1466 0094 00000000 		.word	SPI_TxISR_8BIT
 1467 0098 00000000 		.word	SPI_TxISR_16BIT
 1469              		.section	.text.HAL_SPI_TransmitReceive_IT,"ax",%progbits
 1470              		.align	1
 1471              		.global	HAL_SPI_TransmitReceive_IT
 1472              		.syntax unified
 1473              		.thumb
 1474              		.thumb_func
 1475              		.fpu fpv5-sp-d16
 1477              	HAL_SPI_TransmitReceive_IT:
 1478              		@ args = 0, pretend = 0, frame = 0
 1479              		@ frame_needed = 0, uses_anonymous_args = 0
 1480 0000 30B5     		push	{r4, r5, lr}
 1481 0002 90F85C40 		ldrb	r4, [r0, #92]	@ zero_extendqisi2
 1482 0006 012C     		cmp	r4, #1
 1483 0008 55D0     		beq	.L353
 1484 000a 0124     		movs	r4, #1
 1485 000c 80F85C40 		strb	r4, [r0, #92]
 1486 0010 90F85D40 		ldrb	r4, [r0, #93]	@ zero_extendqisi2
 1487 0014 012C     		cmp	r4, #1
 1488 0016 E5B2     		uxtb	r5, r4
 1489 0018 08D0     		beq	.L346
 1490 001a 4468     		ldr	r4, [r0, #4]
 1491 001c B4F5827F 		cmp	r4, #260
 1492 0020 43D1     		bne	.L356
 1493 0022 8468     		ldr	r4, [r0, #8]
 1494 0024 002C     		cmp	r4, #0
 1495 0026 40D1     		bne	.L356
 1496 0028 042D     		cmp	r5, #4
 1497 002a 3ED1     		bne	.L356
 1498              	.L346:
 1499 002c 0029     		cmp	r1, #0
 1500 002e 3ED0     		beq	.L359
 1501 0030 002A     		cmp	r2, #0
 1502 0032 3CD0     		beq	.L359
 1503 0034 002B     		cmp	r3, #0
 1504 0036 3AD0     		beq	.L359
 1505 0038 90F85D40 		ldrb	r4, [r0, #93]	@ zero_extendqisi2
 1506 003c 042C     		cmp	r4, #4
 1507 003e 02D0     		beq	.L348
 1508 0040 0524     		movs	r4, #5
 1509 0042 80F85D40 		strb	r4, [r0, #93]
 1510              	.L348:
 1511 0046 8163     		str	r1, [r0, #56]
ARM GAS  /tmp/ccHDMf48.s 			page 27


 1512 0048 0024     		movs	r4, #0
 1513 004a C168     		ldr	r1, [r0, #12]
 1514 004c 0466     		str	r4, [r0, #96]
 1515 004e B1F5E06F 		cmp	r1, #1792
 1516 0052 C387     		strh	r3, [r0, #62]	@ movhi
 1517 0054 0264     		str	r2, [r0, #64]
 1518 0056 8387     		strh	r3, [r0, #60]	@ movhi
 1519 0058 0268     		ldr	r2, [r0]
 1520 005a A0F84430 		strh	r3, [r0, #68]	@ movhi
 1521 005e A0F84630 		strh	r3, [r0, #70]	@ movhi
 1522 0062 18D9     		bls	.L349
 1523 0064 154B     		ldr	r3, .L368
 1524 0066 C364     		str	r3, [r0, #76]
 1525 0068 154B     		ldr	r3, .L368+4
 1526 006a 0365     		str	r3, [r0, #80]
 1527              	.L350:
 1528 006c 5368     		ldr	r3, [r2, #4]
 1529 006e 23F48053 		bic	r3, r3, #4096
 1530              	.L367:
 1531 0072 5360     		str	r3, [r2, #4]
 1532 0074 5368     		ldr	r3, [r2, #4]
 1533 0076 43F0E003 		orr	r3, r3, #224
 1534 007a 5360     		str	r3, [r2, #4]
 1535 007c 1368     		ldr	r3, [r2]
 1536 007e 13F04003 		ands	r3, r3, #64
 1537 0082 16D1     		bne	.L360
 1538 0084 1168     		ldr	r1, [r2]
 1539 0086 41F04001 		orr	r1, r1, #64
 1540 008a 1160     		str	r1, [r2]
 1541              	.L347:
 1542 008c 0022     		movs	r2, #0
 1543 008e 80F85C20 		strb	r2, [r0, #92]
 1544              	.L345:
 1545 0092 1846     		mov	r0, r3
 1546 0094 30BD     		pop	{r4, r5, pc}
 1547              	.L349:
 1548 0096 0B49     		ldr	r1, .L368+8
 1549 0098 012B     		cmp	r3, #1
 1550 009a C164     		str	r1, [r0, #76]
 1551 009c 0A49     		ldr	r1, .L368+12
 1552 009e 0165     		str	r1, [r0, #80]
 1553 00a0 E4D1     		bne	.L350
 1554 00a2 5368     		ldr	r3, [r2, #4]
 1555 00a4 43F48053 		orr	r3, r3, #4096
 1556 00a8 E3E7     		b	.L367
 1557              	.L356:
 1558 00aa 0223     		movs	r3, #2
 1559 00ac EEE7     		b	.L347
 1560              	.L359:
 1561 00ae 0123     		movs	r3, #1
 1562 00b0 ECE7     		b	.L347
 1563              	.L360:
 1564 00b2 0023     		movs	r3, #0
 1565 00b4 EAE7     		b	.L347
 1566              	.L353:
 1567 00b6 0223     		movs	r3, #2
 1568 00b8 EBE7     		b	.L345
ARM GAS  /tmp/ccHDMf48.s 			page 28


 1569              	.L369:
 1570 00ba 00BF     		.align	2
 1571              	.L368:
 1572 00bc 00000000 		.word	SPI_2linesRxISR_16BIT
 1573 00c0 00000000 		.word	SPI_2linesTxISR_16BIT
 1574 00c4 00000000 		.word	SPI_2linesRxISR_8BIT
 1575 00c8 00000000 		.word	SPI_2linesTxISR_8BIT
 1577              		.section	.text.HAL_SPI_Receive_IT,"ax",%progbits
 1578              		.align	1
 1579              		.global	HAL_SPI_Receive_IT
 1580              		.syntax unified
 1581              		.thumb
 1582              		.thumb_func
 1583              		.fpu fpv5-sp-d16
 1585              	HAL_SPI_Receive_IT:
 1586              		@ args = 0, pretend = 0, frame = 0
 1587              		@ frame_needed = 0, uses_anonymous_args = 0
 1588              		@ link register save eliminated.
 1589 0000 70B4     		push	{r4, r5, r6}
 1590 0002 8668     		ldr	r6, [r0, #8]
 1591 0004 0446     		mov	r4, r0
 1592 0006 0D46     		mov	r5, r1
 1593 0008 5EB9     		cbnz	r6, .L371
 1594 000a 4368     		ldr	r3, [r0, #4]
 1595 000c B3F5827F 		cmp	r3, #260
 1596 0010 07D1     		bne	.L371
 1597 0012 0423     		movs	r3, #4
 1598 0014 80F85D30 		strb	r3, [r0, #93]
 1599 0018 1346     		mov	r3, r2
 1600 001a 0A46     		mov	r2, r1
 1601 001c 70BC     		pop	{r4, r5, r6}
 1602 001e FFF7FEBF 		b	HAL_SPI_TransmitReceive_IT
 1603              	.L371:
 1604 0022 94F85C30 		ldrb	r3, [r4, #92]	@ zero_extendqisi2
 1605 0026 012B     		cmp	r3, #1
 1606 0028 49D0     		beq	.L377
 1607 002a 0123     		movs	r3, #1
 1608 002c 84F85C30 		strb	r3, [r4, #92]
 1609 0030 94F85D30 		ldrb	r3, [r4, #93]	@ zero_extendqisi2
 1610 0034 012B     		cmp	r3, #1
 1611 0036 D8B2     		uxtb	r0, r3
 1612 0038 3DD1     		bne	.L378
 1613 003a 002D     		cmp	r5, #0
 1614 003c 31D0     		beq	.L373
 1615 003e 002A     		cmp	r2, #0
 1616 0040 2FD0     		beq	.L373
 1617 0042 0423     		movs	r3, #4
 1618 0044 A4F84420 		strh	r2, [r4, #68]	@ movhi
 1619 0048 2564     		str	r5, [r4, #64]
 1620 004a 84F85D30 		strb	r3, [r4, #93]
 1621 004e 0023     		movs	r3, #0
 1622 0050 2366     		str	r3, [r4, #96]
 1623 0052 A4F84620 		strh	r2, [r4, #70]	@ movhi
 1624 0056 E268     		ldr	r2, [r4, #12]
 1625 0058 E387     		strh	r3, [r4, #62]	@ movhi
 1626 005a B2F5E06F 		cmp	r2, #1792
 1627 005e A363     		str	r3, [r4, #56]
ARM GAS  /tmp/ccHDMf48.s 			page 29


 1628 0060 A387     		strh	r3, [r4, #60]	@ movhi
 1629 0062 2365     		str	r3, [r4, #80]
 1630 0064 2368     		ldr	r3, [r4]
 1631 0066 5A68     		ldr	r2, [r3, #4]
 1632 0068 20D9     		bls	.L374
 1633 006a 22F48052 		bic	r2, r2, #4096
 1634 006e 5A60     		str	r2, [r3, #4]
 1635 0070 144A     		ldr	r2, .L387
 1636              	.L386:
 1637 0072 B6F5004F 		cmp	r6, #32768
 1638 0076 E264     		str	r2, [r4, #76]
 1639 0078 07D1     		bne	.L376
 1640 007a 1A68     		ldr	r2, [r3]
 1641 007c 22F04002 		bic	r2, r2, #64
 1642 0080 1A60     		str	r2, [r3]
 1643 0082 1A68     		ldr	r2, [r3]
 1644 0084 22F48042 		bic	r2, r2, #16384
 1645 0088 1A60     		str	r2, [r3]
 1646              	.L376:
 1647 008a 5A68     		ldr	r2, [r3, #4]
 1648 008c 42F06002 		orr	r2, r2, #96
 1649 0090 5A60     		str	r2, [r3, #4]
 1650 0092 1868     		ldr	r0, [r3]
 1651 0094 10F04000 		ands	r0, r0, #64
 1652 0098 0FD1     		bne	.L379
 1653 009a 1A68     		ldr	r2, [r3]
 1654 009c 42F04002 		orr	r2, r2, #64
 1655 00a0 1A60     		str	r2, [r3]
 1656              	.L373:
 1657 00a2 0023     		movs	r3, #0
 1658 00a4 84F85C30 		strb	r3, [r4, #92]
 1659              	.L372:
 1660 00a8 70BC     		pop	{r4, r5, r6}
 1661 00aa 7047     		bx	lr
 1662              	.L374:
 1663 00ac 42F48052 		orr	r2, r2, #4096
 1664 00b0 5A60     		str	r2, [r3, #4]
 1665 00b2 054A     		ldr	r2, .L387+4
 1666 00b4 DDE7     		b	.L386
 1667              	.L378:
 1668 00b6 0220     		movs	r0, #2
 1669 00b8 F3E7     		b	.L373
 1670              	.L379:
 1671 00ba 0020     		movs	r0, #0
 1672 00bc F1E7     		b	.L373
 1673              	.L377:
 1674 00be 0220     		movs	r0, #2
 1675 00c0 F2E7     		b	.L372
 1676              	.L388:
 1677 00c2 00BF     		.align	2
 1678              	.L387:
 1679 00c4 00000000 		.word	SPI_RxISR_16BIT
 1680 00c8 00000000 		.word	SPI_RxISR_8BIT
 1682              		.section	.text.HAL_SPI_Transmit_DMA,"ax",%progbits
 1683              		.align	1
 1684              		.global	HAL_SPI_Transmit_DMA
 1685              		.syntax unified
ARM GAS  /tmp/ccHDMf48.s 			page 30


 1686              		.thumb
 1687              		.thumb_func
 1688              		.fpu fpv5-sp-d16
 1690              	HAL_SPI_Transmit_DMA:
 1691              		@ args = 0, pretend = 0, frame = 0
 1692              		@ frame_needed = 0, uses_anonymous_args = 0
 1693 0000 38B5     		push	{r3, r4, r5, lr}
 1694 0002 90F85C30 		ldrb	r3, [r0, #92]	@ zero_extendqisi2
 1695 0006 0446     		mov	r4, r0
 1696 0008 012B     		cmp	r3, #1
 1697 000a 76D0     		beq	.L397
 1698 000c 0123     		movs	r3, #1
 1699 000e 80F85C30 		strb	r3, [r0, #92]
 1700 0012 90F85D30 		ldrb	r3, [r0, #93]	@ zero_extendqisi2
 1701 0016 012B     		cmp	r3, #1
 1702 0018 DDB2     		uxtb	r5, r3
 1703 001a 6CD1     		bne	.L398
 1704 001c 0029     		cmp	r1, #0
 1705 001e 4BD0     		beq	.L391
 1706 0020 002A     		cmp	r2, #0
 1707 0022 49D0     		beq	.L391
 1708 0024 0323     		movs	r3, #3
 1709 0026 8287     		strh	r2, [r0, #60]	@ movhi
 1710 0028 8163     		str	r1, [r0, #56]
 1711 002a 80F85D30 		strb	r3, [r0, #93]
 1712 002e 0023     		movs	r3, #0
 1713 0030 0366     		str	r3, [r0, #96]
 1714 0032 0364     		str	r3, [r0, #64]
 1715 0034 C287     		strh	r2, [r0, #62]	@ movhi
 1716 0036 A0F84430 		strh	r3, [r0, #68]	@ movhi
 1717 003a A0F84630 		strh	r3, [r0, #70]	@ movhi
 1718 003e 0268     		ldr	r2, [r0]
 1719 0040 C0E91333 		strd	r3, r3, [r0, #76]
 1720 0044 8368     		ldr	r3, [r0, #8]
 1721 0046 B3F5004F 		cmp	r3, #32768
 1722 004a 07D1     		bne	.L392
 1723 004c 1368     		ldr	r3, [r2]
 1724 004e 23F04003 		bic	r3, r3, #64
 1725 0052 1360     		str	r3, [r2]
 1726 0054 1368     		ldr	r3, [r2]
 1727 0056 43F48043 		orr	r3, r3, #16384
 1728 005a 1360     		str	r3, [r2]
 1729              	.L392:
 1730 005c 606D     		ldr	r0, [r4, #84]
 1731 005e 284B     		ldr	r3, .L406
 1732 0060 0364     		str	r3, [r0, #64]
 1733 0062 284B     		ldr	r3, .L406+4
 1734 0064 C363     		str	r3, [r0, #60]
 1735 0066 284B     		ldr	r3, .L406+8
 1736 0068 C364     		str	r3, [r0, #76]
 1737 006a 0023     		movs	r3, #0
 1738 006c 0365     		str	r3, [r0, #80]
 1739 006e 5368     		ldr	r3, [r2, #4]
 1740 0070 23F48043 		bic	r3, r3, #16384
 1741 0074 5360     		str	r3, [r2, #4]
 1742 0076 E368     		ldr	r3, [r4, #12]
 1743 0078 B3F5E06F 		cmp	r3, #1792
ARM GAS  /tmp/ccHDMf48.s 			page 31


 1744 007c 0FD8     		bhi	.L393
 1745 007e 8369     		ldr	r3, [r0, #24]
 1746 0080 B3F5005F 		cmp	r3, #8192
 1747 0084 0BD1     		bne	.L393
 1748 0086 E38F     		ldrh	r3, [r4, #62]
 1749 0088 13F0010F 		tst	r3, #1
 1750 008c 5368     		ldr	r3, [r2, #4]
 1751 008e 18D1     		bne	.L394
 1752 0090 23F48043 		bic	r3, r3, #16384
 1753 0094 5360     		str	r3, [r2, #4]
 1754 0096 E38F     		ldrh	r3, [r4, #62]
 1755 0098 C3F34E03 		ubfx	r3, r3, #1, #15
 1756              	.L405:
 1757 009c E387     		strh	r3, [r4, #62]	@ movhi
 1758              	.L393:
 1759 009e E38F     		ldrh	r3, [r4, #62]
 1760 00a0 0C32     		adds	r2, r2, #12
 1761 00a2 9BB2     		uxth	r3, r3
 1762 00a4 FFF7FEFF 		bl	HAL_DMA_Start_IT
 1763 00a8 98B1     		cbz	r0, .L395
 1764 00aa 236E     		ldr	r3, [r4, #96]
 1765 00ac 43F01003 		orr	r3, r3, #16
 1766 00b0 2366     		str	r3, [r4, #96]
 1767 00b2 0123     		movs	r3, #1
 1768 00b4 84F85D30 		strb	r3, [r4, #93]
 1769              	.L391:
 1770 00b8 0023     		movs	r3, #0
 1771 00ba 84F85C30 		strb	r3, [r4, #92]
 1772              	.L390:
 1773 00be 2846     		mov	r0, r5
 1774 00c0 38BD     		pop	{r3, r4, r5, pc}
 1775              	.L394:
 1776 00c2 43F48043 		orr	r3, r3, #16384
 1777 00c6 5360     		str	r3, [r2, #4]
 1778 00c8 E38F     		ldrh	r3, [r4, #62]
 1779 00ca C3F34E03 		ubfx	r3, r3, #1, #15
 1780 00ce 0133     		adds	r3, r3, #1
 1781 00d0 E4E7     		b	.L405
 1782              	.L395:
 1783 00d2 2368     		ldr	r3, [r4]
 1784 00d4 1A68     		ldr	r2, [r3]
 1785 00d6 5206     		lsls	r2, r2, #25
 1786 00d8 03D4     		bmi	.L396
 1787 00da 1A68     		ldr	r2, [r3]
 1788 00dc 42F04002 		orr	r2, r2, #64
 1789 00e0 1A60     		str	r2, [r3]
 1790              	.L396:
 1791 00e2 5A68     		ldr	r2, [r3, #4]
 1792 00e4 0025     		movs	r5, #0
 1793 00e6 42F02002 		orr	r2, r2, #32
 1794 00ea 5A60     		str	r2, [r3, #4]
 1795 00ec 5A68     		ldr	r2, [r3, #4]
 1796 00ee 42F00202 		orr	r2, r2, #2
 1797 00f2 5A60     		str	r2, [r3, #4]
 1798 00f4 E0E7     		b	.L391
 1799              	.L398:
 1800 00f6 0225     		movs	r5, #2
ARM GAS  /tmp/ccHDMf48.s 			page 32


 1801 00f8 DEE7     		b	.L391
 1802              	.L397:
 1803 00fa 0225     		movs	r5, #2
 1804 00fc DFE7     		b	.L390
 1805              	.L407:
 1806 00fe 00BF     		.align	2
 1807              	.L406:
 1808 0100 00000000 		.word	SPI_DMAHalfTransmitCplt
 1809 0104 00000000 		.word	SPI_DMATransmitCplt
 1810 0108 00000000 		.word	SPI_DMAError
 1812              		.section	.text.HAL_SPI_TransmitReceive_DMA,"ax",%progbits
 1813              		.align	1
 1814              		.global	HAL_SPI_TransmitReceive_DMA
 1815              		.syntax unified
 1816              		.thumb
 1817              		.thumb_func
 1818              		.fpu fpv5-sp-d16
 1820              	HAL_SPI_TransmitReceive_DMA:
 1821              		@ args = 0, pretend = 0, frame = 0
 1822              		@ frame_needed = 0, uses_anonymous_args = 0
 1823 0000 38B5     		push	{r3, r4, r5, lr}
 1824 0002 0446     		mov	r4, r0
 1825 0004 90F85C00 		ldrb	r0, [r0, #92]	@ zero_extendqisi2
 1826 0008 0128     		cmp	r0, #1
 1827 000a 00F0C780 		beq	.L423
 1828 000e 0120     		movs	r0, #1
 1829 0010 84F85C00 		strb	r0, [r4, #92]
 1830 0014 94F85D00 		ldrb	r0, [r4, #93]	@ zero_extendqisi2
 1831 0018 0128     		cmp	r0, #1
 1832 001a C5B2     		uxtb	r5, r0
 1833 001c 0BD0     		beq	.L410
 1834 001e 6068     		ldr	r0, [r4, #4]
 1835 0020 B0F5827F 		cmp	r0, #260
 1836 0024 40F0B680 		bne	.L426
 1837 0028 A068     		ldr	r0, [r4, #8]
 1838 002a 0028     		cmp	r0, #0
 1839 002c 40F0B280 		bne	.L426
 1840 0030 042D     		cmp	r5, #4
 1841 0032 40F0AF80 		bne	.L426
 1842              	.L410:
 1843 0036 0029     		cmp	r1, #0
 1844 0038 00F0AE80 		beq	.L429
 1845 003c 002A     		cmp	r2, #0
 1846 003e 00F0AB80 		beq	.L429
 1847 0042 002B     		cmp	r3, #0
 1848 0044 00F0A880 		beq	.L429
 1849 0048 94F85D00 		ldrb	r0, [r4, #93]	@ zero_extendqisi2
 1850 004c 0428     		cmp	r0, #4
 1851 004e 02D0     		beq	.L412
 1852 0050 0520     		movs	r0, #5
 1853 0052 84F85D00 		strb	r0, [r4, #93]
 1854              	.L412:
 1855 0056 0020     		movs	r0, #0
 1856 0058 A163     		str	r1, [r4, #56]
 1857 005a 2168     		ldr	r1, [r4]
 1858 005c 2066     		str	r0, [r4, #96]
 1859 005e E387     		strh	r3, [r4, #62]	@ movhi
ARM GAS  /tmp/ccHDMf48.s 			page 33


 1860 0060 A4F84630 		strh	r3, [r4, #70]	@ movhi
 1861 0064 A387     		strh	r3, [r4, #60]	@ movhi
 1862 0066 2264     		str	r2, [r4, #64]
 1863 0068 A4F84430 		strh	r3, [r4, #68]	@ movhi
 1864 006c C4E91300 		strd	r0, r0, [r4, #76]
 1865 0070 4868     		ldr	r0, [r1, #4]
 1866 0072 20F4C040 		bic	r0, r0, #24576
 1867 0076 4860     		str	r0, [r1, #4]
 1868 0078 E068     		ldr	r0, [r4, #12]
 1869 007a B0F5E06F 		cmp	r0, #1792
 1870 007e A06D     		ldr	r0, [r4, #88]
 1871 0080 26D9     		bls	.L413
 1872 0082 4B68     		ldr	r3, [r1, #4]
 1873 0084 23F48053 		bic	r3, r3, #4096
 1874 0088 4B60     		str	r3, [r1, #4]
 1875              	.L414:
 1876 008a 94F85D30 		ldrb	r3, [r4, #93]	@ zero_extendqisi2
 1877 008e 0C31     		adds	r1, r1, #12
 1878 0090 042B     		cmp	r3, #4
 1879 0092 0BBF     		itete	eq
 1880 0094 424B     		ldreq	r3, .L440
 1881 0096 434B     		ldrne	r3, .L440+4
 1882 0098 0364     		streq	r3, [r0, #64]
 1883 009a 0364     		strne	r3, [r0, #64]
 1884 009c 0CBF     		ite	eq
 1885 009e 424B     		ldreq	r3, .L440+8
 1886 00a0 424B     		ldrne	r3, .L440+12
 1887 00a2 C363     		str	r3, [r0, #60]
 1888 00a4 424B     		ldr	r3, .L440+16
 1889 00a6 C364     		str	r3, [r0, #76]
 1890 00a8 0023     		movs	r3, #0
 1891 00aa 0365     		str	r3, [r0, #80]
 1892 00ac B4F84630 		ldrh	r3, [r4, #70]
 1893 00b0 9BB2     		uxth	r3, r3
 1894 00b2 FFF7FEFF 		bl	HAL_DMA_Start_IT
 1895 00b6 0028     		cmp	r0, #0
 1896 00b8 47D0     		beq	.L420
 1897              	.L439:
 1898 00ba 236E     		ldr	r3, [r4, #96]
 1899 00bc 0120     		movs	r0, #1
 1900 00be 43F01003 		orr	r3, r3, #16
 1901 00c2 2366     		str	r3, [r4, #96]
 1902 00c4 84F85D00 		strb	r0, [r4, #93]
 1903              	.L411:
 1904 00c8 0023     		movs	r3, #0
 1905 00ca 84F85C30 		strb	r3, [r4, #92]
 1906              	.L409:
 1907 00ce 38BD     		pop	{r3, r4, r5, pc}
 1908              	.L413:
 1909 00d0 4D68     		ldr	r5, [r1, #4]
 1910 00d2 45F48055 		orr	r5, r5, #4096
 1911 00d6 4D60     		str	r5, [r1, #4]
 1912 00d8 656D     		ldr	r5, [r4, #84]
 1913 00da AD69     		ldr	r5, [r5, #24]
 1914 00dc B5F5005F 		cmp	r5, #8192
 1915 00e0 0AD1     		bne	.L415
 1916 00e2 13F0010F 		tst	r3, #1
ARM GAS  /tmp/ccHDMf48.s 			page 34


 1917 00e6 4B68     		ldr	r3, [r1, #4]
 1918 00e8 1ED1     		bne	.L416
 1919 00ea 23F48043 		bic	r3, r3, #16384
 1920 00ee 4B60     		str	r3, [r1, #4]
 1921 00f0 E38F     		ldrh	r3, [r4, #62]
 1922 00f2 C3F34E03 		ubfx	r3, r3, #1, #15
 1923              	.L436:
 1924 00f6 E387     		strh	r3, [r4, #62]	@ movhi
 1925              	.L415:
 1926 00f8 8369     		ldr	r3, [r0, #24]
 1927 00fa B3F5005F 		cmp	r3, #8192
 1928 00fe C4D1     		bne	.L414
 1929 0100 4B68     		ldr	r3, [r1, #4]
 1930 0102 23F48053 		bic	r3, r3, #4096
 1931 0106 4B60     		str	r3, [r1, #4]
 1932 0108 B4F84630 		ldrh	r3, [r4, #70]
 1933 010c 13F0010F 		tst	r3, #1
 1934 0110 4B68     		ldr	r3, [r1, #4]
 1935 0112 11D1     		bne	.L417
 1936 0114 23F40053 		bic	r3, r3, #8192
 1937 0118 4B60     		str	r3, [r1, #4]
 1938 011a B4F84630 		ldrh	r3, [r4, #70]
 1939 011e C3F34E03 		ubfx	r3, r3, #1, #15
 1940              	.L437:
 1941 0122 A4F84630 		strh	r3, [r4, #70]	@ movhi
 1942 0126 B0E7     		b	.L414
 1943              	.L416:
 1944 0128 43F48043 		orr	r3, r3, #16384
 1945 012c 4B60     		str	r3, [r1, #4]
 1946 012e E38F     		ldrh	r3, [r4, #62]
 1947 0130 C3F34E03 		ubfx	r3, r3, #1, #15
 1948 0134 0133     		adds	r3, r3, #1
 1949 0136 DEE7     		b	.L436
 1950              	.L417:
 1951 0138 43F40053 		orr	r3, r3, #8192
 1952 013c 4B60     		str	r3, [r1, #4]
 1953 013e B4F84630 		ldrh	r3, [r4, #70]
 1954 0142 C3F34E03 		ubfx	r3, r3, #1, #15
 1955 0146 0133     		adds	r3, r3, #1
 1956 0148 EBE7     		b	.L437
 1957              	.L420:
 1958 014a 2268     		ldr	r2, [r4]
 1959 014c 656D     		ldr	r5, [r4, #84]
 1960 014e 5368     		ldr	r3, [r2, #4]
 1961 0150 0C32     		adds	r2, r2, #12
 1962 0152 A16B     		ldr	r1, [r4, #56]
 1963 0154 43F00103 		orr	r3, r3, #1
 1964 0158 42F8083C 		str	r3, [r2, #-8]
 1965 015c E38F     		ldrh	r3, [r4, #62]
 1966 015e C5E90F00 		strd	r0, r0, [r5, #60]
 1967 0162 C5E91300 		strd	r0, r0, [r5, #76]
 1968 0166 9BB2     		uxth	r3, r3
 1969 0168 2846     		mov	r0, r5
 1970 016a FFF7FEFF 		bl	HAL_DMA_Start_IT
 1971 016e 0028     		cmp	r0, #0
 1972 0170 A3D1     		bne	.L439
 1973 0172 2368     		ldr	r3, [r4]
ARM GAS  /tmp/ccHDMf48.s 			page 35


 1974 0174 1A68     		ldr	r2, [r3]
 1975 0176 5206     		lsls	r2, r2, #25
 1976 0178 03D4     		bmi	.L422
 1977 017a 1A68     		ldr	r2, [r3]
 1978 017c 42F04002 		orr	r2, r2, #64
 1979 0180 1A60     		str	r2, [r3]
 1980              	.L422:
 1981 0182 5A68     		ldr	r2, [r3, #4]
 1982 0184 42F02002 		orr	r2, r2, #32
 1983 0188 5A60     		str	r2, [r3, #4]
 1984 018a 5A68     		ldr	r2, [r3, #4]
 1985 018c 42F00202 		orr	r2, r2, #2
 1986 0190 5A60     		str	r2, [r3, #4]
 1987 0192 99E7     		b	.L411
 1988              	.L426:
 1989 0194 0220     		movs	r0, #2
 1990 0196 97E7     		b	.L411
 1991              	.L429:
 1992 0198 0120     		movs	r0, #1
 1993 019a 95E7     		b	.L411
 1994              	.L423:
 1995 019c 0220     		movs	r0, #2
 1996 019e 96E7     		b	.L409
 1997              	.L441:
 1998              		.align	2
 1999              	.L440:
 2000 01a0 00000000 		.word	SPI_DMAHalfReceiveCplt
 2001 01a4 00000000 		.word	SPI_DMAHalfTransmitReceiveCplt
 2002 01a8 00000000 		.word	SPI_DMAReceiveCplt
 2003 01ac 00000000 		.word	SPI_DMATransmitReceiveCplt
 2004 01b0 00000000 		.word	SPI_DMAError
 2006              		.section	.text.HAL_SPI_Receive_DMA,"ax",%progbits
 2007              		.align	1
 2008              		.global	HAL_SPI_Receive_DMA
 2009              		.syntax unified
 2010              		.thumb
 2011              		.thumb_func
 2012              		.fpu fpv5-sp-d16
 2014              	HAL_SPI_Receive_DMA:
 2015              		@ args = 0, pretend = 0, frame = 0
 2016              		@ frame_needed = 0, uses_anonymous_args = 0
 2017 0000 2DE9F041 		push	{r4, r5, r6, r7, r8, lr}
 2018 0004 8568     		ldr	r5, [r0, #8]
 2019 0006 0446     		mov	r4, r0
 2020 0008 0E46     		mov	r6, r1
 2021 000a 65B9     		cbnz	r5, .L443
 2022 000c 4368     		ldr	r3, [r0, #4]
 2023 000e B3F5827F 		cmp	r3, #260
 2024 0012 08D1     		bne	.L443
 2025 0014 0423     		movs	r3, #4
 2026 0016 80F85D30 		strb	r3, [r0, #93]
 2027 001a 1346     		mov	r3, r2
 2028 001c 0A46     		mov	r2, r1
 2029 001e BDE8F041 		pop	{r4, r5, r6, r7, r8, lr}
 2030 0022 FFF7FEBF 		b	HAL_SPI_TransmitReceive_DMA
 2031              	.L443:
 2032 0026 94F85C30 		ldrb	r3, [r4, #92]	@ zero_extendqisi2
ARM GAS  /tmp/ccHDMf48.s 			page 36


 2033 002a 012B     		cmp	r3, #1
 2034 002c 00F08980 		beq	.L452
 2035 0030 0123     		movs	r3, #1
 2036 0032 84F85C30 		strb	r3, [r4, #92]
 2037 0036 94F85D30 		ldrb	r3, [r4, #93]	@ zero_extendqisi2
 2038 003a 012B     		cmp	r3, #1
 2039 003c DFB2     		uxtb	r7, r3
 2040 003e 7ED1     		bne	.L453
 2041 0040 002E     		cmp	r6, #0
 2042 0042 40D0     		beq	.L445
 2043 0044 002A     		cmp	r2, #0
 2044 0046 3ED0     		beq	.L445
 2045 0048 0423     		movs	r3, #4
 2046 004a B5F5004F 		cmp	r5, #32768
 2047 004e 2168     		ldr	r1, [r4]
 2048 0050 84F85D30 		strb	r3, [r4, #93]
 2049 0054 4FF00003 		mov	r3, #0
 2050 0058 2664     		str	r6, [r4, #64]
 2051 005a 2366     		str	r3, [r4, #96]
 2052 005c A4F84420 		strh	r2, [r4, #68]	@ movhi
 2053 0060 A4F84620 		strh	r2, [r4, #70]	@ movhi
 2054 0064 A387     		strh	r3, [r4, #60]	@ movhi
 2055 0066 E387     		strh	r3, [r4, #62]	@ movhi
 2056 0068 C4E91333 		strd	r3, r3, [r4, #76]
 2057 006c 07D1     		bne	.L446
 2058 006e 0B68     		ldr	r3, [r1]
 2059 0070 23F04003 		bic	r3, r3, #64
 2060 0074 0B60     		str	r3, [r1]
 2061 0076 0B68     		ldr	r3, [r1]
 2062 0078 23F48043 		bic	r3, r3, #16384
 2063 007c 0B60     		str	r3, [r1]
 2064              	.L446:
 2065 007e 4B68     		ldr	r3, [r1, #4]
 2066 0080 A06D     		ldr	r0, [r4, #88]
 2067 0082 23F40053 		bic	r3, r3, #8192
 2068 0086 4B60     		str	r3, [r1, #4]
 2069 0088 E368     		ldr	r3, [r4, #12]
 2070 008a B3F5E06F 		cmp	r3, #1792
 2071 008e 4B68     		ldr	r3, [r1, #4]
 2072 0090 1FD9     		bls	.L447
 2073 0092 23F48053 		bic	r3, r3, #4096
 2074 0096 4B60     		str	r3, [r1, #4]
 2075              	.L448:
 2076 0098 2B4B     		ldr	r3, .L461
 2077 009a 3246     		mov	r2, r6
 2078 009c 0C31     		adds	r1, r1, #12
 2079 009e 0364     		str	r3, [r0, #64]
 2080 00a0 2A4B     		ldr	r3, .L461+4
 2081 00a2 C363     		str	r3, [r0, #60]
 2082 00a4 2A4B     		ldr	r3, .L461+8
 2083 00a6 C364     		str	r3, [r0, #76]
 2084 00a8 0023     		movs	r3, #0
 2085 00aa 0365     		str	r3, [r0, #80]
 2086 00ac B4F84630 		ldrh	r3, [r4, #70]
 2087 00b0 9BB2     		uxth	r3, r3
 2088 00b2 FFF7FEFF 		bl	HAL_DMA_Start_IT
 2089 00b6 80B3     		cbz	r0, .L450
ARM GAS  /tmp/ccHDMf48.s 			page 37


 2090 00b8 236E     		ldr	r3, [r4, #96]
 2091 00ba 43F01003 		orr	r3, r3, #16
 2092 00be 2366     		str	r3, [r4, #96]
 2093 00c0 0123     		movs	r3, #1
 2094 00c2 84F85D30 		strb	r3, [r4, #93]
 2095              	.L445:
 2096 00c6 0023     		movs	r3, #0
 2097 00c8 84F85C30 		strb	r3, [r4, #92]
 2098              	.L444:
 2099 00cc 3846     		mov	r0, r7
 2100 00ce BDE8F081 		pop	{r4, r5, r6, r7, r8, pc}
 2101              	.L447:
 2102 00d2 43F48053 		orr	r3, r3, #4096
 2103 00d6 4B60     		str	r3, [r1, #4]
 2104 00d8 8369     		ldr	r3, [r0, #24]
 2105 00da B3F5005F 		cmp	r3, #8192
 2106 00de DBD1     		bne	.L448
 2107 00e0 4B68     		ldr	r3, [r1, #4]
 2108 00e2 23F48053 		bic	r3, r3, #4096
 2109 00e6 4B60     		str	r3, [r1, #4]
 2110 00e8 B4F84630 		ldrh	r3, [r4, #70]
 2111 00ec 13F0010F 		tst	r3, #1
 2112 00f0 4B68     		ldr	r3, [r1, #4]
 2113 00f2 09D1     		bne	.L449
 2114 00f4 23F40053 		bic	r3, r3, #8192
 2115 00f8 4B60     		str	r3, [r1, #4]
 2116 00fa B4F84630 		ldrh	r3, [r4, #70]
 2117 00fe C3F34E03 		ubfx	r3, r3, #1, #15
 2118              	.L460:
 2119 0102 A4F84630 		strh	r3, [r4, #70]	@ movhi
 2120 0106 C7E7     		b	.L448
 2121              	.L449:
 2122 0108 43F40053 		orr	r3, r3, #8192
 2123 010c 4B60     		str	r3, [r1, #4]
 2124 010e B4F84630 		ldrh	r3, [r4, #70]
 2125 0112 C3F34E03 		ubfx	r3, r3, #1, #15
 2126 0116 0133     		adds	r3, r3, #1
 2127 0118 F3E7     		b	.L460
 2128              	.L450:
 2129 011a 2368     		ldr	r3, [r4]
 2130 011c 1A68     		ldr	r2, [r3]
 2131 011e 5206     		lsls	r2, r2, #25
 2132 0120 03D4     		bmi	.L451
 2133 0122 1A68     		ldr	r2, [r3]
 2134 0124 42F04002 		orr	r2, r2, #64
 2135 0128 1A60     		str	r2, [r3]
 2136              	.L451:
 2137 012a 5A68     		ldr	r2, [r3, #4]
 2138 012c 0027     		movs	r7, #0
 2139 012e 42F02002 		orr	r2, r2, #32
 2140 0132 5A60     		str	r2, [r3, #4]
 2141 0134 5A68     		ldr	r2, [r3, #4]
 2142 0136 42F00102 		orr	r2, r2, #1
 2143 013a 5A60     		str	r2, [r3, #4]
 2144 013c C3E7     		b	.L445
 2145              	.L453:
 2146 013e 0227     		movs	r7, #2
ARM GAS  /tmp/ccHDMf48.s 			page 38


 2147 0140 C1E7     		b	.L445
 2148              	.L452:
 2149 0142 0227     		movs	r7, #2
 2150 0144 C2E7     		b	.L444
 2151              	.L462:
 2152 0146 00BF     		.align	2
 2153              	.L461:
 2154 0148 00000000 		.word	SPI_DMAHalfReceiveCplt
 2155 014c 00000000 		.word	SPI_DMAReceiveCplt
 2156 0150 00000000 		.word	SPI_DMAError
 2158              		.section	.text.HAL_SPI_Abort,"ax",%progbits
 2159              		.align	1
 2160              		.global	HAL_SPI_Abort
 2161              		.syntax unified
 2162              		.thumb
 2163              		.thumb_func
 2164              		.fpu fpv5-sp-d16
 2166              	HAL_SPI_Abort:
 2167              		@ args = 0, pretend = 0, frame = 16
 2168              		@ frame_needed = 0, uses_anonymous_args = 0
 2169 0000 1FB5     		push	{r0, r1, r2, r3, r4, lr}
 2170 0002 5A4B     		ldr	r3, .L518
 2171 0004 45F6C052 		movw	r2, #24000
 2172 0008 0446     		mov	r4, r0
 2173 000a 1B68     		ldr	r3, [r3]
 2174 000c B3FBF2F3 		udiv	r3, r3, r2
 2175 0010 6422     		movs	r2, #100
 2176 0012 5343     		muls	r3, r2, r3
 2177 0014 0193     		str	r3, [sp, #4]
 2178 0016 019B     		ldr	r3, [sp, #4]
 2179 0018 0093     		str	r3, [sp]
 2180 001a 0368     		ldr	r3, [r0]
 2181 001c 5A68     		ldr	r2, [r3, #4]
 2182 001e 22F02002 		bic	r2, r2, #32
 2183 0022 5A60     		str	r2, [r3, #4]
 2184 0024 5A68     		ldr	r2, [r3, #4]
 2185 0026 1006     		lsls	r0, r2, #24
 2186 0028 0BD5     		bpl	.L464
 2187 002a 514A     		ldr	r2, .L518+4
 2188 002c 2265     		str	r2, [r4, #80]
 2189              	.L467:
 2190 002e 009A     		ldr	r2, [sp]
 2191 0030 002A     		cmp	r2, #0
 2192 0032 40F08780 		bne	.L465
 2193 0036 226E     		ldr	r2, [r4, #96]
 2194 0038 42F04002 		orr	r2, r2, #64
 2195 003c 2266     		str	r2, [r4, #96]
 2196              	.L466:
 2197 003e 019A     		ldr	r2, [sp, #4]
 2198 0040 0092     		str	r2, [sp]
 2199              	.L464:
 2200 0042 5A68     		ldr	r2, [r3, #4]
 2201 0044 5106     		lsls	r1, r2, #25
 2202 0046 0BD5     		bpl	.L468
 2203 0048 4A4A     		ldr	r2, .L518+8
 2204 004a E264     		str	r2, [r4, #76]
 2205              	.L471:
ARM GAS  /tmp/ccHDMf48.s 			page 39


 2206 004c 009A     		ldr	r2, [sp]
 2207 004e 002A     		cmp	r2, #0
 2208 0050 40F08180 		bne	.L469
 2209 0054 226E     		ldr	r2, [r4, #96]
 2210 0056 42F04002 		orr	r2, r2, #64
 2211 005a 2266     		str	r2, [r4, #96]
 2212              	.L470:
 2213 005c 019A     		ldr	r2, [sp, #4]
 2214 005e 0092     		str	r2, [sp]
 2215              	.L468:
 2216 0060 5B68     		ldr	r3, [r3, #4]
 2217 0062 9A07     		lsls	r2, r3, #30
 2218 0064 28D5     		bpl	.L473
 2219 0066 606D     		ldr	r0, [r4, #84]
 2220 0068 30B3     		cbz	r0, .L473
 2221 006a 0023     		movs	r3, #0
 2222 006c 0365     		str	r3, [r0, #80]
 2223 006e FFF7FEFF 		bl	HAL_DMA_Abort
 2224 0072 08B1     		cbz	r0, .L475
 2225 0074 4023     		movs	r3, #64
 2226 0076 2366     		str	r3, [r4, #96]
 2227              	.L475:
 2228 0078 2268     		ldr	r2, [r4]
 2229 007a 5368     		ldr	r3, [r2, #4]
 2230 007c 23F00203 		bic	r3, r3, #2
 2231 0080 5360     		str	r3, [r2, #4]
 2232 0082 FFF7FEFF 		bl	HAL_GetTick
 2233 0086 6421     		movs	r1, #100
 2234 0088 0246     		mov	r2, r0
 2235 008a 2046     		mov	r0, r4
 2236 008c FFF7FEFF 		bl	SPI_EndRxTxTransaction
 2237 0090 08B1     		cbz	r0, .L476
 2238 0092 4023     		movs	r3, #64
 2239 0094 2366     		str	r3, [r4, #96]
 2240              	.L476:
 2241 0096 2268     		ldr	r2, [r4]
 2242 0098 1368     		ldr	r3, [r2]
 2243 009a 23F04003 		bic	r3, r3, #64
 2244 009e 1360     		str	r3, [r2]
 2245 00a0 FFF7FEFF 		bl	HAL_GetTick
 2246 00a4 6422     		movs	r2, #100
 2247 00a6 0346     		mov	r3, r0
 2248 00a8 4FF4C061 		mov	r1, #1536
 2249 00ac 2046     		mov	r0, r4
 2250 00ae FFF7FEFF 		bl	SPI_WaitFifoStateUntilTimeout.constprop.0
 2251 00b2 08B1     		cbz	r0, .L473
 2252 00b4 4023     		movs	r3, #64
 2253 00b6 2366     		str	r3, [r4, #96]
 2254              	.L473:
 2255 00b8 2368     		ldr	r3, [r4]
 2256 00ba 5B68     		ldr	r3, [r3, #4]
 2257 00bc DB07     		lsls	r3, r3, #31
 2258 00be 28D5     		bpl	.L477
 2259 00c0 A06D     		ldr	r0, [r4, #88]
 2260 00c2 30B3     		cbz	r0, .L477
 2261 00c4 0023     		movs	r3, #0
 2262 00c6 0365     		str	r3, [r0, #80]
ARM GAS  /tmp/ccHDMf48.s 			page 40


 2263 00c8 FFF7FEFF 		bl	HAL_DMA_Abort
 2264 00cc 08B1     		cbz	r0, .L478
 2265 00ce 4023     		movs	r3, #64
 2266 00d0 2366     		str	r3, [r4, #96]
 2267              	.L478:
 2268 00d2 2268     		ldr	r2, [r4]
 2269 00d4 1368     		ldr	r3, [r2]
 2270 00d6 23F04003 		bic	r3, r3, #64
 2271 00da 1360     		str	r3, [r2]
 2272 00dc FFF7FEFF 		bl	HAL_GetTick
 2273 00e0 6421     		movs	r1, #100
 2274 00e2 0246     		mov	r2, r0
 2275 00e4 2046     		mov	r0, r4
 2276 00e6 FFF7FEFF 		bl	SPI_WaitFlagStateUntilTimeout.constprop.0
 2277 00ea 08B1     		cbz	r0, .L479
 2278 00ec 4023     		movs	r3, #64
 2279 00ee 2366     		str	r3, [r4, #96]
 2280              	.L479:
 2281 00f0 FFF7FEFF 		bl	HAL_GetTick
 2282 00f4 6422     		movs	r2, #100
 2283 00f6 0346     		mov	r3, r0
 2284 00f8 4FF4C061 		mov	r1, #1536
 2285 00fc 2046     		mov	r0, r4
 2286 00fe FFF7FEFF 		bl	SPI_WaitFifoStateUntilTimeout.constprop.0
 2287 0102 08B1     		cbz	r0, .L480
 2288 0104 4023     		movs	r3, #64
 2289 0106 2366     		str	r3, [r4, #96]
 2290              	.L480:
 2291 0108 2268     		ldr	r2, [r4]
 2292 010a 5368     		ldr	r3, [r2, #4]
 2293 010c 23F00103 		bic	r3, r3, #1
 2294 0110 5360     		str	r3, [r2, #4]
 2295              	.L477:
 2296 0112 0023     		movs	r3, #0
 2297 0114 A4F84630 		strh	r3, [r4, #70]	@ movhi
 2298 0118 E387     		strh	r3, [r4, #62]	@ movhi
 2299 011a 226E     		ldr	r2, [r4, #96]
 2300 011c 402A     		cmp	r2, #64
 2301 011e 23D0     		beq	.L482
 2302 0120 1846     		mov	r0, r3
 2303 0122 2366     		str	r3, [r4, #96]
 2304              	.L481:
 2305 0124 2268     		ldr	r2, [r4]
 2306 0126 0293     		str	r3, [sp, #8]
 2307 0128 D168     		ldr	r1, [r2, #12]
 2308 012a 0291     		str	r1, [sp, #8]
 2309 012c 9168     		ldr	r1, [r2, #8]
 2310 012e 0291     		str	r1, [sp, #8]
 2311 0130 0299     		ldr	r1, [sp, #8]
 2312 0132 0393     		str	r3, [sp, #12]
 2313 0134 9368     		ldr	r3, [r2, #8]
 2314 0136 0393     		str	r3, [sp, #12]
 2315 0138 039B     		ldr	r3, [sp, #12]
 2316 013a 0123     		movs	r3, #1
 2317 013c 84F85D30 		strb	r3, [r4, #93]
 2318 0140 04B0     		add	sp, sp, #16
 2319              		@ sp needed
ARM GAS  /tmp/ccHDMf48.s 			page 41


 2320 0142 10BD     		pop	{r4, pc}
 2321              	.L465:
 2322 0144 009A     		ldr	r2, [sp]
 2323 0146 013A     		subs	r2, r2, #1
 2324 0148 0092     		str	r2, [sp]
 2325 014a 94F85D20 		ldrb	r2, [r4, #93]	@ zero_extendqisi2
 2326 014e 072A     		cmp	r2, #7
 2327 0150 7FF46DAF 		bne	.L467
 2328 0154 73E7     		b	.L466
 2329              	.L469:
 2330 0156 009A     		ldr	r2, [sp]
 2331 0158 013A     		subs	r2, r2, #1
 2332 015a 0092     		str	r2, [sp]
 2333 015c 94F85D20 		ldrb	r2, [r4, #93]	@ zero_extendqisi2
 2334 0160 072A     		cmp	r2, #7
 2335 0162 7FF473AF 		bne	.L471
 2336 0166 79E7     		b	.L470
 2337              	.L482:
 2338 0168 0120     		movs	r0, #1
 2339 016a DBE7     		b	.L481
 2340              	.L519:
 2341              		.align	2
 2342              	.L518:
 2343 016c 00000000 		.word	SystemCoreClock
 2344 0170 00000000 		.word	SPI_AbortTx_ISR
 2345 0174 00000000 		.word	SPI_AbortRx_ISR
 2347              		.section	.text.HAL_SPI_DMAPause,"ax",%progbits
 2348              		.align	1
 2349              		.global	HAL_SPI_DMAPause
 2350              		.syntax unified
 2351              		.thumb
 2352              		.thumb_func
 2353              		.fpu fpv5-sp-d16
 2355              	HAL_SPI_DMAPause:
 2356              		@ args = 0, pretend = 0, frame = 0
 2357              		@ frame_needed = 0, uses_anonymous_args = 0
 2358              		@ link register save eliminated.
 2359 0000 90F85C30 		ldrb	r3, [r0, #92]	@ zero_extendqisi2
 2360 0004 012B     		cmp	r3, #1
 2361 0006 09D0     		beq	.L522
 2362 0008 0268     		ldr	r2, [r0]
 2363 000a 5368     		ldr	r3, [r2, #4]
 2364 000c 23F00303 		bic	r3, r3, #3
 2365 0010 5360     		str	r3, [r2, #4]
 2366 0012 0023     		movs	r3, #0
 2367 0014 80F85C30 		strb	r3, [r0, #92]
 2368 0018 1846     		mov	r0, r3
 2369 001a 7047     		bx	lr
 2370              	.L522:
 2371 001c 0220     		movs	r0, #2
 2372 001e 7047     		bx	lr
 2374              		.section	.text.HAL_SPI_DMAResume,"ax",%progbits
 2375              		.align	1
 2376              		.global	HAL_SPI_DMAResume
 2377              		.syntax unified
 2378              		.thumb
 2379              		.thumb_func
ARM GAS  /tmp/ccHDMf48.s 			page 42


 2380              		.fpu fpv5-sp-d16
 2382              	HAL_SPI_DMAResume:
 2383              		@ args = 0, pretend = 0, frame = 0
 2384              		@ frame_needed = 0, uses_anonymous_args = 0
 2385              		@ link register save eliminated.
 2386 0000 90F85C30 		ldrb	r3, [r0, #92]	@ zero_extendqisi2
 2387 0004 012B     		cmp	r3, #1
 2388 0006 09D0     		beq	.L525
 2389 0008 0268     		ldr	r2, [r0]
 2390 000a 5368     		ldr	r3, [r2, #4]
 2391 000c 43F00303 		orr	r3, r3, #3
 2392 0010 5360     		str	r3, [r2, #4]
 2393 0012 0023     		movs	r3, #0
 2394 0014 80F85C30 		strb	r3, [r0, #92]
 2395 0018 1846     		mov	r0, r3
 2396 001a 7047     		bx	lr
 2397              	.L525:
 2398 001c 0220     		movs	r0, #2
 2399 001e 7047     		bx	lr
 2401              		.section	.text.HAL_SPI_DMAStop,"ax",%progbits
 2402              		.align	1
 2403              		.global	HAL_SPI_DMAStop
 2404              		.syntax unified
 2405              		.thumb
 2406              		.thumb_func
 2407              		.fpu fpv5-sp-d16
 2409              	HAL_SPI_DMAStop:
 2410              		@ args = 0, pretend = 0, frame = 0
 2411              		@ frame_needed = 0, uses_anonymous_args = 0
 2412 0000 38B5     		push	{r3, r4, r5, lr}
 2413 0002 0446     		mov	r4, r0
 2414 0004 406D     		ldr	r0, [r0, #84]
 2415 0006 A0B9     		cbnz	r0, .L527
 2416              	.L529:
 2417 0008 0025     		movs	r5, #0
 2418              	.L528:
 2419 000a A06D     		ldr	r0, [r4, #88]
 2420 000c 38B1     		cbz	r0, .L530
 2421 000e FFF7FEFF 		bl	HAL_DMA_Abort
 2422 0012 20B1     		cbz	r0, .L530
 2423 0014 236E     		ldr	r3, [r4, #96]
 2424 0016 0125     		movs	r5, #1
 2425 0018 43F01003 		orr	r3, r3, #16
 2426 001c 2366     		str	r3, [r4, #96]
 2427              	.L530:
 2428 001e 2268     		ldr	r2, [r4]
 2429 0020 2846     		mov	r0, r5
 2430 0022 5368     		ldr	r3, [r2, #4]
 2431 0024 23F00303 		bic	r3, r3, #3
 2432 0028 5360     		str	r3, [r2, #4]
 2433 002a 0123     		movs	r3, #1
 2434 002c 84F85D30 		strb	r3, [r4, #93]
 2435 0030 38BD     		pop	{r3, r4, r5, pc}
 2436              	.L527:
 2437 0032 FFF7FEFF 		bl	HAL_DMA_Abort
 2438 0036 0028     		cmp	r0, #0
 2439 0038 E6D0     		beq	.L529
ARM GAS  /tmp/ccHDMf48.s 			page 43


 2440 003a 236E     		ldr	r3, [r4, #96]
 2441 003c 0125     		movs	r5, #1
 2442 003e 43F01003 		orr	r3, r3, #16
 2443 0042 2366     		str	r3, [r4, #96]
 2444 0044 E1E7     		b	.L528
 2446              		.section	.text.HAL_SPI_TxCpltCallback,"ax",%progbits
 2447              		.align	1
 2448              		.weak	HAL_SPI_TxCpltCallback
 2449              		.syntax unified
 2450              		.thumb
 2451              		.thumb_func
 2452              		.fpu fpv5-sp-d16
 2454              	HAL_SPI_TxCpltCallback:
 2455              		@ args = 0, pretend = 0, frame = 0
 2456              		@ frame_needed = 0, uses_anonymous_args = 0
 2457              		@ link register save eliminated.
 2458 0000 7047     		bx	lr
 2460              		.section	.text.HAL_SPI_RxCpltCallback,"ax",%progbits
 2461              		.align	1
 2462              		.weak	HAL_SPI_RxCpltCallback
 2463              		.syntax unified
 2464              		.thumb
 2465              		.thumb_func
 2466              		.fpu fpv5-sp-d16
 2468              	HAL_SPI_RxCpltCallback:
 2469              		@ args = 0, pretend = 0, frame = 0
 2470              		@ frame_needed = 0, uses_anonymous_args = 0
 2471              		@ link register save eliminated.
 2472 0000 7047     		bx	lr
 2474              		.section	.text.HAL_SPI_TxRxCpltCallback,"ax",%progbits
 2475              		.align	1
 2476              		.weak	HAL_SPI_TxRxCpltCallback
 2477              		.syntax unified
 2478              		.thumb
 2479              		.thumb_func
 2480              		.fpu fpv5-sp-d16
 2482              	HAL_SPI_TxRxCpltCallback:
 2483              		@ args = 0, pretend = 0, frame = 0
 2484              		@ frame_needed = 0, uses_anonymous_args = 0
 2485              		@ link register save eliminated.
 2486 0000 7047     		bx	lr
 2488              		.section	.text.HAL_SPI_TxHalfCpltCallback,"ax",%progbits
 2489              		.align	1
 2490              		.weak	HAL_SPI_TxHalfCpltCallback
 2491              		.syntax unified
 2492              		.thumb
 2493              		.thumb_func
 2494              		.fpu fpv5-sp-d16
 2496              	HAL_SPI_TxHalfCpltCallback:
 2497              		@ args = 0, pretend = 0, frame = 0
 2498              		@ frame_needed = 0, uses_anonymous_args = 0
 2499              		@ link register save eliminated.
 2500 0000 7047     		bx	lr
 2502              		.section	.text.SPI_DMAHalfTransmitCplt,"ax",%progbits
 2503              		.align	1
 2504              		.syntax unified
 2505              		.thumb
ARM GAS  /tmp/ccHDMf48.s 			page 44


 2506              		.thumb_func
 2507              		.fpu fpv5-sp-d16
 2509              	SPI_DMAHalfTransmitCplt:
 2510              		@ args = 0, pretend = 0, frame = 0
 2511              		@ frame_needed = 0, uses_anonymous_args = 0
 2512 0000 806B     		ldr	r0, [r0, #56]
 2513 0002 08B5     		push	{r3, lr}
 2514 0004 FFF7FEFF 		bl	HAL_SPI_TxHalfCpltCallback
 2515 0008 08BD     		pop	{r3, pc}
 2517              		.section	.text.HAL_SPI_RxHalfCpltCallback,"ax",%progbits
 2518              		.align	1
 2519              		.weak	HAL_SPI_RxHalfCpltCallback
 2520              		.syntax unified
 2521              		.thumb
 2522              		.thumb_func
 2523              		.fpu fpv5-sp-d16
 2525              	HAL_SPI_RxHalfCpltCallback:
 2526              		@ args = 0, pretend = 0, frame = 0
 2527              		@ frame_needed = 0, uses_anonymous_args = 0
 2528              		@ link register save eliminated.
 2529 0000 7047     		bx	lr
 2531              		.section	.text.SPI_DMAHalfReceiveCplt,"ax",%progbits
 2532              		.align	1
 2533              		.syntax unified
 2534              		.thumb
 2535              		.thumb_func
 2536              		.fpu fpv5-sp-d16
 2538              	SPI_DMAHalfReceiveCplt:
 2539              		@ args = 0, pretend = 0, frame = 0
 2540              		@ frame_needed = 0, uses_anonymous_args = 0
 2541 0000 806B     		ldr	r0, [r0, #56]
 2542 0002 08B5     		push	{r3, lr}
 2543 0004 FFF7FEFF 		bl	HAL_SPI_RxHalfCpltCallback
 2544 0008 08BD     		pop	{r3, pc}
 2546              		.section	.text.HAL_SPI_TxRxHalfCpltCallback,"ax",%progbits
 2547              		.align	1
 2548              		.weak	HAL_SPI_TxRxHalfCpltCallback
 2549              		.syntax unified
 2550              		.thumb
 2551              		.thumb_func
 2552              		.fpu fpv5-sp-d16
 2554              	HAL_SPI_TxRxHalfCpltCallback:
 2555              		@ args = 0, pretend = 0, frame = 0
 2556              		@ frame_needed = 0, uses_anonymous_args = 0
 2557              		@ link register save eliminated.
 2558 0000 7047     		bx	lr
 2560              		.section	.text.SPI_DMAHalfTransmitReceiveCplt,"ax",%progbits
 2561              		.align	1
 2562              		.syntax unified
 2563              		.thumb
 2564              		.thumb_func
 2565              		.fpu fpv5-sp-d16
 2567              	SPI_DMAHalfTransmitReceiveCplt:
 2568              		@ args = 0, pretend = 0, frame = 0
 2569              		@ frame_needed = 0, uses_anonymous_args = 0
 2570 0000 806B     		ldr	r0, [r0, #56]
 2571 0002 08B5     		push	{r3, lr}
ARM GAS  /tmp/ccHDMf48.s 			page 45


 2572 0004 FFF7FEFF 		bl	HAL_SPI_TxRxHalfCpltCallback
 2573 0008 08BD     		pop	{r3, pc}
 2575              		.section	.text.HAL_SPI_ErrorCallback,"ax",%progbits
 2576              		.align	1
 2577              		.weak	HAL_SPI_ErrorCallback
 2578              		.syntax unified
 2579              		.thumb
 2580              		.thumb_func
 2581              		.fpu fpv5-sp-d16
 2583              	HAL_SPI_ErrorCallback:
 2584              		@ args = 0, pretend = 0, frame = 0
 2585              		@ frame_needed = 0, uses_anonymous_args = 0
 2586              		@ link register save eliminated.
 2587 0000 7047     		bx	lr
 2589              		.section	.text.SPI_CloseTx_ISR,"ax",%progbits
 2590              		.align	1
 2591              		.syntax unified
 2592              		.thumb
 2593              		.thumb_func
 2594              		.fpu fpv5-sp-d16
 2596              	SPI_CloseTx_ISR:
 2597              		@ args = 0, pretend = 0, frame = 8
 2598              		@ frame_needed = 0, uses_anonymous_args = 0
 2599 0000 13B5     		push	{r0, r1, r4, lr}
 2600 0002 0446     		mov	r4, r0
 2601 0004 FFF7FEFF 		bl	HAL_GetTick
 2602 0008 0246     		mov	r2, r0
 2603 000a 2168     		ldr	r1, [r4]
 2604 000c 2046     		mov	r0, r4
 2605 000e 4B68     		ldr	r3, [r1, #4]
 2606 0010 23F0A003 		bic	r3, r3, #160
 2607 0014 4B60     		str	r3, [r1, #4]
 2608 0016 6421     		movs	r1, #100
 2609 0018 FFF7FEFF 		bl	SPI_EndRxTxTransaction
 2610 001c 18B1     		cbz	r0, .L551
 2611 001e 236E     		ldr	r3, [r4, #96]
 2612 0020 43F02003 		orr	r3, r3, #32
 2613 0024 2366     		str	r3, [r4, #96]
 2614              	.L551:
 2615 0026 A368     		ldr	r3, [r4, #8]
 2616 0028 33B9     		cbnz	r3, .L552
 2617 002a 0193     		str	r3, [sp, #4]
 2618 002c 2368     		ldr	r3, [r4]
 2619 002e DA68     		ldr	r2, [r3, #12]
 2620 0030 0192     		str	r2, [sp, #4]
 2621 0032 9B68     		ldr	r3, [r3, #8]
 2622 0034 0193     		str	r3, [sp, #4]
 2623 0036 019B     		ldr	r3, [sp, #4]
 2624              	.L552:
 2625 0038 0123     		movs	r3, #1
 2626 003a 2046     		mov	r0, r4
 2627 003c 84F85D30 		strb	r3, [r4, #93]
 2628 0040 236E     		ldr	r3, [r4, #96]
 2629 0042 1BB1     		cbz	r3, .L553
 2630 0044 FFF7FEFF 		bl	HAL_SPI_ErrorCallback
 2631              	.L550:
 2632 0048 02B0     		add	sp, sp, #8
ARM GAS  /tmp/ccHDMf48.s 			page 46


 2633              		@ sp needed
 2634 004a 10BD     		pop	{r4, pc}
 2635              	.L553:
 2636 004c FFF7FEFF 		bl	HAL_SPI_TxCpltCallback
 2637 0050 FAE7     		b	.L550
 2639              		.section	.text.SPI_TxISR_8BIT,"ax",%progbits
 2640              		.align	1
 2641              		.syntax unified
 2642              		.thumb
 2643              		.thumb_func
 2644              		.fpu fpv5-sp-d16
 2646              	SPI_TxISR_8BIT:
 2647              		@ args = 0, pretend = 0, frame = 0
 2648              		@ frame_needed = 0, uses_anonymous_args = 0
 2649              		@ link register save eliminated.
 2650 0000 816B     		ldr	r1, [r0, #56]
 2651 0002 0268     		ldr	r2, [r0]
 2652 0004 0978     		ldrb	r1, [r1]	@ zero_extendqisi2
 2653 0006 1173     		strb	r1, [r2, #12]
 2654 0008 826B     		ldr	r2, [r0, #56]
 2655 000a 0132     		adds	r2, r2, #1
 2656 000c 8263     		str	r2, [r0, #56]
 2657 000e C28F     		ldrh	r2, [r0, #62]
 2658 0010 013A     		subs	r2, r2, #1
 2659 0012 92B2     		uxth	r2, r2
 2660 0014 C287     		strh	r2, [r0, #62]	@ movhi
 2661 0016 C38F     		ldrh	r3, [r0, #62]
 2662 0018 9BB2     		uxth	r3, r3
 2663 001a 0BB9     		cbnz	r3, .L558
 2664 001c FFF7FEBF 		b	SPI_CloseTx_ISR
 2665              	.L558:
 2666 0020 7047     		bx	lr
 2668              		.section	.text.SPI_TxISR_16BIT,"ax",%progbits
 2669              		.align	1
 2670              		.syntax unified
 2671              		.thumb
 2672              		.thumb_func
 2673              		.fpu fpv5-sp-d16
 2675              	SPI_TxISR_16BIT:
 2676              		@ args = 0, pretend = 0, frame = 0
 2677              		@ frame_needed = 0, uses_anonymous_args = 0
 2678              		@ link register save eliminated.
 2679 0000 826B     		ldr	r2, [r0, #56]
 2680 0002 0168     		ldr	r1, [r0]
 2681 0004 10B4     		push	{r4}
 2682 0006 32F8024B 		ldrh	r4, [r2], #2
 2683 000a CC60     		str	r4, [r1, #12]
 2684 000c 8263     		str	r2, [r0, #56]
 2685 000e C28F     		ldrh	r2, [r0, #62]
 2686 0010 013A     		subs	r2, r2, #1
 2687 0012 92B2     		uxth	r2, r2
 2688 0014 C287     		strh	r2, [r0, #62]	@ movhi
 2689 0016 C38F     		ldrh	r3, [r0, #62]
 2690 0018 9BB2     		uxth	r3, r3
 2691 001a 1BB9     		cbnz	r3, .L560
 2692 001c 5DF8044B 		ldr	r4, [sp], #4
 2693 0020 FFF7FEBF 		b	SPI_CloseTx_ISR
ARM GAS  /tmp/ccHDMf48.s 			page 47


 2694              	.L560:
 2695 0024 5DF8044B 		ldr	r4, [sp], #4
 2696 0028 7047     		bx	lr
 2698              		.section	.text.SPI_CloseRx_ISR,"ax",%progbits
 2699              		.align	1
 2700              		.syntax unified
 2701              		.thumb
 2702              		.thumb_func
 2703              		.fpu fpv5-sp-d16
 2705              	SPI_CloseRx_ISR:
 2706              		@ args = 0, pretend = 0, frame = 0
 2707              		@ frame_needed = 0, uses_anonymous_args = 0
 2708 0000 0268     		ldr	r2, [r0]
 2709 0002 5368     		ldr	r3, [r2, #4]
 2710 0004 23F06003 		bic	r3, r3, #96
 2711 0008 10B5     		push	{r4, lr}
 2712 000a 0446     		mov	r4, r0
 2713 000c 5360     		str	r3, [r2, #4]
 2714 000e FFF7FEFF 		bl	HAL_GetTick
 2715 0012 6421     		movs	r1, #100
 2716 0014 0246     		mov	r2, r0
 2717 0016 2046     		mov	r0, r4
 2718 0018 FFF7FEFF 		bl	SPI_EndRxTransaction
 2719 001c 18B1     		cbz	r0, .L563
 2720 001e 236E     		ldr	r3, [r4, #96]
 2721 0020 43F02003 		orr	r3, r3, #32
 2722 0024 2366     		str	r3, [r4, #96]
 2723              	.L563:
 2724 0026 0123     		movs	r3, #1
 2725 0028 2046     		mov	r0, r4
 2726 002a 84F85D30 		strb	r3, [r4, #93]
 2727 002e 236E     		ldr	r3, [r4, #96]
 2728 0030 13B9     		cbnz	r3, .L564
 2729 0032 FFF7FEFF 		bl	HAL_SPI_RxCpltCallback
 2730              	.L562:
 2731 0036 10BD     		pop	{r4, pc}
 2732              	.L564:
 2733 0038 FFF7FEFF 		bl	HAL_SPI_ErrorCallback
 2734 003c FBE7     		b	.L562
 2736              		.section	.text.SPI_RxISR_8BIT,"ax",%progbits
 2737              		.align	1
 2738              		.syntax unified
 2739              		.thumb
 2740              		.thumb_func
 2741              		.fpu fpv5-sp-d16
 2743              	SPI_RxISR_8BIT:
 2744              		@ args = 0, pretend = 0, frame = 0
 2745              		@ frame_needed = 0, uses_anonymous_args = 0
 2746              		@ link register save eliminated.
 2747 0000 0168     		ldr	r1, [r0]
 2748 0002 026C     		ldr	r2, [r0, #64]
 2749 0004 097B     		ldrb	r1, [r1, #12]	@ zero_extendqisi2
 2750 0006 1170     		strb	r1, [r2]
 2751 0008 026C     		ldr	r2, [r0, #64]
 2752 000a 0132     		adds	r2, r2, #1
 2753 000c 0264     		str	r2, [r0, #64]
 2754 000e B0F84620 		ldrh	r2, [r0, #70]
ARM GAS  /tmp/ccHDMf48.s 			page 48


 2755 0012 013A     		subs	r2, r2, #1
 2756 0014 92B2     		uxth	r2, r2
 2757 0016 A0F84620 		strh	r2, [r0, #70]	@ movhi
 2758 001a B0F84630 		ldrh	r3, [r0, #70]
 2759 001e 9BB2     		uxth	r3, r3
 2760 0020 0BB9     		cbnz	r3, .L569
 2761 0022 FFF7FEBF 		b	SPI_CloseRx_ISR
 2762              	.L569:
 2763 0026 7047     		bx	lr
 2765              		.section	.text.SPI_RxISR_16BIT,"ax",%progbits
 2766              		.align	1
 2767              		.syntax unified
 2768              		.thumb
 2769              		.thumb_func
 2770              		.fpu fpv5-sp-d16
 2772              	SPI_RxISR_16BIT:
 2773              		@ args = 0, pretend = 0, frame = 0
 2774              		@ frame_needed = 0, uses_anonymous_args = 0
 2775              		@ link register save eliminated.
 2776 0000 0268     		ldr	r2, [r0]
 2777 0002 D168     		ldr	r1, [r2, #12]
 2778 0004 026C     		ldr	r2, [r0, #64]
 2779 0006 22F8021B 		strh	r1, [r2], #2	@ movhi
 2780 000a 0264     		str	r2, [r0, #64]
 2781 000c B0F84620 		ldrh	r2, [r0, #70]
 2782 0010 013A     		subs	r2, r2, #1
 2783 0012 92B2     		uxth	r2, r2
 2784 0014 A0F84620 		strh	r2, [r0, #70]	@ movhi
 2785 0018 B0F84630 		ldrh	r3, [r0, #70]
 2786 001c 9BB2     		uxth	r3, r3
 2787 001e 0BB9     		cbnz	r3, .L571
 2788 0020 FFF7FEBF 		b	SPI_CloseRx_ISR
 2789              	.L571:
 2790 0024 7047     		bx	lr
 2792              		.section	.text.SPI_CloseRxTx_ISR,"ax",%progbits
 2793              		.align	1
 2794              		.syntax unified
 2795              		.thumb
 2796              		.thumb_func
 2797              		.fpu fpv5-sp-d16
 2799              	SPI_CloseRxTx_ISR:
 2800              		@ args = 0, pretend = 0, frame = 0
 2801              		@ frame_needed = 0, uses_anonymous_args = 0
 2802 0000 10B5     		push	{r4, lr}
 2803 0002 0446     		mov	r4, r0
 2804 0004 FFF7FEFF 		bl	HAL_GetTick
 2805 0008 0246     		mov	r2, r0
 2806 000a 2168     		ldr	r1, [r4]
 2807 000c 2046     		mov	r0, r4
 2808 000e 4B68     		ldr	r3, [r1, #4]
 2809 0010 23F02003 		bic	r3, r3, #32
 2810 0014 4B60     		str	r3, [r1, #4]
 2811 0016 6421     		movs	r1, #100
 2812 0018 FFF7FEFF 		bl	SPI_EndRxTxTransaction
 2813 001c 18B1     		cbz	r0, .L574
 2814 001e 236E     		ldr	r3, [r4, #96]
 2815 0020 43F02003 		orr	r3, r3, #32
ARM GAS  /tmp/ccHDMf48.s 			page 49


 2816 0024 2366     		str	r3, [r4, #96]
 2817              	.L574:
 2818 0026 236E     		ldr	r3, [r4, #96]
 2819 0028 73B9     		cbnz	r3, .L575
 2820 002a 94F85D30 		ldrb	r3, [r4, #93]	@ zero_extendqisi2
 2821 002e 2046     		mov	r0, r4
 2822 0030 042B     		cmp	r3, #4
 2823 0032 4FF00103 		mov	r3, #1
 2824 0036 84F85D30 		strb	r3, [r4, #93]
 2825 003a 02D1     		bne	.L576
 2826 003c FFF7FEFF 		bl	HAL_SPI_RxCpltCallback
 2827              	.L573:
 2828 0040 10BD     		pop	{r4, pc}
 2829              	.L576:
 2830 0042 FFF7FEFF 		bl	HAL_SPI_TxRxCpltCallback
 2831 0046 FBE7     		b	.L573
 2832              	.L575:
 2833 0048 0123     		movs	r3, #1
 2834 004a 2046     		mov	r0, r4
 2835 004c 84F85D30 		strb	r3, [r4, #93]
 2836 0050 FFF7FEFF 		bl	HAL_SPI_ErrorCallback
 2837 0054 F4E7     		b	.L573
 2839              		.section	.text.SPI_2linesTxISR_8BIT,"ax",%progbits
 2840              		.align	1
 2841              		.syntax unified
 2842              		.thumb
 2843              		.thumb_func
 2844              		.fpu fpv5-sp-d16
 2846              	SPI_2linesTxISR_8BIT:
 2847              		@ args = 0, pretend = 0, frame = 0
 2848              		@ frame_needed = 0, uses_anonymous_args = 0
 2849              		@ link register save eliminated.
 2850 0000 C28F     		ldrh	r2, [r0, #62]
 2851 0002 836B     		ldr	r3, [r0, #56]
 2852 0004 92B2     		uxth	r2, r2
 2853 0006 0168     		ldr	r1, [r0]
 2854 0008 012A     		cmp	r2, #1
 2855 000a 15D9     		bls	.L582
 2856 000c 33F8022B 		ldrh	r2, [r3], #2
 2857 0010 CA60     		str	r2, [r1, #12]
 2858 0012 8363     		str	r3, [r0, #56]
 2859 0014 C38F     		ldrh	r3, [r0, #62]
 2860 0016 023B     		subs	r3, r3, #2
 2861              	.L587:
 2862 0018 9BB2     		uxth	r3, r3
 2863 001a C387     		strh	r3, [r0, #62]	@ movhi
 2864 001c C38F     		ldrh	r3, [r0, #62]
 2865 001e 9BB2     		uxth	r3, r3
 2866 0020 93B9     		cbnz	r3, .L581
 2867 0022 0268     		ldr	r2, [r0]
 2868 0024 5368     		ldr	r3, [r2, #4]
 2869 0026 23F08003 		bic	r3, r3, #128
 2870 002a 5360     		str	r3, [r2, #4]
 2871 002c B0F84630 		ldrh	r3, [r0, #70]
 2872 0030 9BB2     		uxth	r3, r3
 2873 0032 4BB9     		cbnz	r3, .L581
 2874 0034 FFF7FEBF 		b	SPI_CloseRxTx_ISR
ARM GAS  /tmp/ccHDMf48.s 			page 50


 2875              	.L582:
 2876 0038 1B78     		ldrb	r3, [r3]	@ zero_extendqisi2
 2877 003a 0B73     		strb	r3, [r1, #12]
 2878 003c 836B     		ldr	r3, [r0, #56]
 2879 003e 0133     		adds	r3, r3, #1
 2880 0040 8363     		str	r3, [r0, #56]
 2881 0042 C38F     		ldrh	r3, [r0, #62]
 2882 0044 013B     		subs	r3, r3, #1
 2883 0046 E7E7     		b	.L587
 2884              	.L581:
 2885 0048 7047     		bx	lr
 2887              		.section	.text.SPI_2linesRxISR_8BIT,"ax",%progbits
 2888              		.align	1
 2889              		.syntax unified
 2890              		.thumb
 2891              		.thumb_func
 2892              		.fpu fpv5-sp-d16
 2894              	SPI_2linesRxISR_8BIT:
 2895              		@ args = 0, pretend = 0, frame = 0
 2896              		@ frame_needed = 0, uses_anonymous_args = 0
 2897              		@ link register save eliminated.
 2898 0000 B0F84610 		ldrh	r1, [r0, #70]
 2899 0004 0268     		ldr	r2, [r0]
 2900 0006 89B2     		uxth	r1, r1
 2901 0008 036C     		ldr	r3, [r0, #64]
 2902 000a 0129     		cmp	r1, #1
 2903 000c 20D9     		bls	.L589
 2904 000e D168     		ldr	r1, [r2, #12]
 2905 0010 23F8021B 		strh	r1, [r3], #2	@ movhi
 2906 0014 0364     		str	r3, [r0, #64]
 2907 0016 B0F84630 		ldrh	r3, [r0, #70]
 2908 001a 023B     		subs	r3, r3, #2
 2909 001c 9BB2     		uxth	r3, r3
 2910 001e A0F84630 		strh	r3, [r0, #70]	@ movhi
 2911 0022 B0F84630 		ldrh	r3, [r0, #70]
 2912 0026 9BB2     		uxth	r3, r3
 2913 0028 012B     		cmp	r3, #1
 2914 002a 03D1     		bne	.L590
 2915 002c 5368     		ldr	r3, [r2, #4]
 2916 002e 43F48053 		orr	r3, r3, #4096
 2917 0032 5360     		str	r3, [r2, #4]
 2918              	.L590:
 2919 0034 B0F84630 		ldrh	r3, [r0, #70]
 2920 0038 9BB2     		uxth	r3, r3
 2921 003a ABB9     		cbnz	r3, .L588
 2922 003c 0268     		ldr	r2, [r0]
 2923 003e 5368     		ldr	r3, [r2, #4]
 2924 0040 23F06003 		bic	r3, r3, #96
 2925 0044 5360     		str	r3, [r2, #4]
 2926 0046 C38F     		ldrh	r3, [r0, #62]
 2927 0048 9BB2     		uxth	r3, r3
 2928 004a 6BB9     		cbnz	r3, .L588
 2929 004c FFF7FEBF 		b	SPI_CloseRxTx_ISR
 2930              	.L589:
 2931 0050 127B     		ldrb	r2, [r2, #12]	@ zero_extendqisi2
 2932 0052 1A70     		strb	r2, [r3]
 2933 0054 036C     		ldr	r3, [r0, #64]
ARM GAS  /tmp/ccHDMf48.s 			page 51


 2934 0056 0133     		adds	r3, r3, #1
 2935 0058 0364     		str	r3, [r0, #64]
 2936 005a B0F84630 		ldrh	r3, [r0, #70]
 2937 005e 013B     		subs	r3, r3, #1
 2938 0060 9BB2     		uxth	r3, r3
 2939 0062 A0F84630 		strh	r3, [r0, #70]	@ movhi
 2940 0066 E5E7     		b	.L590
 2941              	.L588:
 2942 0068 7047     		bx	lr
 2944              		.section	.text.SPI_2linesTxISR_16BIT,"ax",%progbits
 2945              		.align	1
 2946              		.syntax unified
 2947              		.thumb
 2948              		.thumb_func
 2949              		.fpu fpv5-sp-d16
 2951              	SPI_2linesTxISR_16BIT:
 2952              		@ args = 0, pretend = 0, frame = 0
 2953              		@ frame_needed = 0, uses_anonymous_args = 0
 2954              		@ link register save eliminated.
 2955 0000 826B     		ldr	r2, [r0, #56]
 2956 0002 0168     		ldr	r1, [r0]
 2957 0004 10B4     		push	{r4}
 2958 0006 32F8024B 		ldrh	r4, [r2], #2
 2959 000a CC60     		str	r4, [r1, #12]
 2960 000c 8263     		str	r2, [r0, #56]
 2961 000e C28F     		ldrh	r2, [r0, #62]
 2962 0010 013A     		subs	r2, r2, #1
 2963 0012 92B2     		uxth	r2, r2
 2964 0014 C287     		strh	r2, [r0, #62]	@ movhi
 2965 0016 C28F     		ldrh	r2, [r0, #62]
 2966 0018 92B2     		uxth	r2, r2
 2967 001a 5AB9     		cbnz	r2, .L594
 2968 001c 4A68     		ldr	r2, [r1, #4]
 2969 001e 22F08002 		bic	r2, r2, #128
 2970 0022 4A60     		str	r2, [r1, #4]
 2971 0024 B0F84630 		ldrh	r3, [r0, #70]
 2972 0028 9BB2     		uxth	r3, r3
 2973 002a 1BB9     		cbnz	r3, .L594
 2974 002c 5DF8044B 		ldr	r4, [sp], #4
 2975 0030 FFF7FEBF 		b	SPI_CloseRxTx_ISR
 2976              	.L594:
 2977 0034 5DF8044B 		ldr	r4, [sp], #4
 2978 0038 7047     		bx	lr
 2980              		.section	.text.SPI_2linesRxISR_16BIT,"ax",%progbits
 2981              		.align	1
 2982              		.syntax unified
 2983              		.thumb
 2984              		.thumb_func
 2985              		.fpu fpv5-sp-d16
 2987              	SPI_2linesRxISR_16BIT:
 2988              		@ args = 0, pretend = 0, frame = 0
 2989              		@ frame_needed = 0, uses_anonymous_args = 0
 2990              		@ link register save eliminated.
 2991 0000 0168     		ldr	r1, [r0]
 2992 0002 026C     		ldr	r2, [r0, #64]
 2993 0004 10B4     		push	{r4}
 2994 0006 CC68     		ldr	r4, [r1, #12]
ARM GAS  /tmp/ccHDMf48.s 			page 52


 2995 0008 22F8024B 		strh	r4, [r2], #2	@ movhi
 2996 000c 0264     		str	r2, [r0, #64]
 2997 000e B0F84620 		ldrh	r2, [r0, #70]
 2998 0012 013A     		subs	r2, r2, #1
 2999 0014 92B2     		uxth	r2, r2
 3000 0016 A0F84620 		strh	r2, [r0, #70]	@ movhi
 3001 001a B0F84620 		ldrh	r2, [r0, #70]
 3002 001e 92B2     		uxth	r2, r2
 3003 0020 52B9     		cbnz	r2, .L598
 3004 0022 4A68     		ldr	r2, [r1, #4]
 3005 0024 22F04002 		bic	r2, r2, #64
 3006 0028 4A60     		str	r2, [r1, #4]
 3007 002a C38F     		ldrh	r3, [r0, #62]
 3008 002c 9BB2     		uxth	r3, r3
 3009 002e 1BB9     		cbnz	r3, .L598
 3010 0030 5DF8044B 		ldr	r4, [sp], #4
 3011 0034 FFF7FEBF 		b	SPI_CloseRxTx_ISR
 3012              	.L598:
 3013 0038 5DF8044B 		ldr	r4, [sp], #4
 3014 003c 7047     		bx	lr
 3016              		.section	.text.SPI_DMAError,"ax",%progbits
 3017              		.align	1
 3018              		.syntax unified
 3019              		.thumb
 3020              		.thumb_func
 3021              		.fpu fpv5-sp-d16
 3023              	SPI_DMAError:
 3024              		@ args = 0, pretend = 0, frame = 0
 3025              		@ frame_needed = 0, uses_anonymous_args = 0
 3026 0000 806B     		ldr	r0, [r0, #56]
 3027 0002 0268     		ldr	r2, [r0]
 3028 0004 08B5     		push	{r3, lr}
 3029 0006 5368     		ldr	r3, [r2, #4]
 3030 0008 23F00303 		bic	r3, r3, #3
 3031 000c 5360     		str	r3, [r2, #4]
 3032 000e 036E     		ldr	r3, [r0, #96]
 3033 0010 43F01003 		orr	r3, r3, #16
 3034 0014 0366     		str	r3, [r0, #96]
 3035 0016 0123     		movs	r3, #1
 3036 0018 80F85D30 		strb	r3, [r0, #93]
 3037 001c FFF7FEFF 		bl	HAL_SPI_ErrorCallback
 3038 0020 08BD     		pop	{r3, pc}
 3040              		.section	.text.SPI_DMATransmitCplt,"ax",%progbits
 3041              		.align	1
 3042              		.syntax unified
 3043              		.thumb
 3044              		.thumb_func
 3045              		.fpu fpv5-sp-d16
 3047              	SPI_DMATransmitCplt:
 3048              		@ args = 0, pretend = 0, frame = 8
 3049              		@ frame_needed = 0, uses_anonymous_args = 0
 3050 0000 37B5     		push	{r0, r1, r2, r4, r5, lr}
 3051 0002 0546     		mov	r5, r0
 3052 0004 846B     		ldr	r4, [r0, #56]
 3053 0006 FFF7FEFF 		bl	HAL_GetTick
 3054 000a 0246     		mov	r2, r0
 3055 000c 2B68     		ldr	r3, [r5]
ARM GAS  /tmp/ccHDMf48.s 			page 53


 3056 000e 1B68     		ldr	r3, [r3]
 3057 0010 DB05     		lsls	r3, r3, #23
 3058 0012 26D4     		bmi	.L604
 3059 0014 2368     		ldr	r3, [r4]
 3060 0016 2046     		mov	r0, r4
 3061 0018 5968     		ldr	r1, [r3, #4]
 3062 001a 21F02001 		bic	r1, r1, #32
 3063 001e 5960     		str	r1, [r3, #4]
 3064 0020 5968     		ldr	r1, [r3, #4]
 3065 0022 21F00201 		bic	r1, r1, #2
 3066 0026 5960     		str	r1, [r3, #4]
 3067 0028 6421     		movs	r1, #100
 3068 002a FFF7FEFF 		bl	SPI_EndRxTxTransaction
 3069 002e 18B1     		cbz	r0, .L605
 3070 0030 236E     		ldr	r3, [r4, #96]
 3071 0032 43F02003 		orr	r3, r3, #32
 3072 0036 2366     		str	r3, [r4, #96]
 3073              	.L605:
 3074 0038 A368     		ldr	r3, [r4, #8]
 3075 003a 33B9     		cbnz	r3, .L606
 3076 003c 0193     		str	r3, [sp, #4]
 3077 003e 2368     		ldr	r3, [r4]
 3078 0040 DA68     		ldr	r2, [r3, #12]
 3079 0042 0192     		str	r2, [sp, #4]
 3080 0044 9B68     		ldr	r3, [r3, #8]
 3081 0046 0193     		str	r3, [sp, #4]
 3082 0048 019B     		ldr	r3, [sp, #4]
 3083              	.L606:
 3084 004a 0023     		movs	r3, #0
 3085 004c E387     		strh	r3, [r4, #62]	@ movhi
 3086 004e 0123     		movs	r3, #1
 3087 0050 84F85D30 		strb	r3, [r4, #93]
 3088 0054 236E     		ldr	r3, [r4, #96]
 3089 0056 23B1     		cbz	r3, .L604
 3090 0058 2046     		mov	r0, r4
 3091 005a FFF7FEFF 		bl	HAL_SPI_ErrorCallback
 3092              	.L603:
 3093 005e 03B0     		add	sp, sp, #12
 3094              		@ sp needed
 3095 0060 30BD     		pop	{r4, r5, pc}
 3096              	.L604:
 3097 0062 2046     		mov	r0, r4
 3098 0064 FFF7FEFF 		bl	HAL_SPI_TxCpltCallback
 3099 0068 F9E7     		b	.L603
 3101              		.section	.text.SPI_DMAReceiveCplt,"ax",%progbits
 3102              		.align	1
 3103              		.syntax unified
 3104              		.thumb
 3105              		.thumb_func
 3106              		.fpu fpv5-sp-d16
 3108              	SPI_DMAReceiveCplt:
 3109              		@ args = 0, pretend = 0, frame = 0
 3110              		@ frame_needed = 0, uses_anonymous_args = 0
 3111 0000 38B5     		push	{r3, r4, r5, lr}
 3112 0002 0546     		mov	r5, r0
 3113 0004 846B     		ldr	r4, [r0, #56]
 3114 0006 FFF7FEFF 		bl	HAL_GetTick
ARM GAS  /tmp/ccHDMf48.s 			page 54


 3115 000a 0246     		mov	r2, r0
 3116 000c 2B68     		ldr	r3, [r5]
 3117 000e 1B68     		ldr	r3, [r3]
 3118 0010 DB05     		lsls	r3, r3, #23
 3119 0012 25D4     		bmi	.L615
 3120 0014 2368     		ldr	r3, [r4]
 3121 0016 5968     		ldr	r1, [r3, #4]
 3122 0018 21F02001 		bic	r1, r1, #32
 3123 001c 5960     		str	r1, [r3, #4]
 3124 001e A168     		ldr	r1, [r4, #8]
 3125 0020 D1B9     		cbnz	r1, .L616
 3126 0022 6168     		ldr	r1, [r4, #4]
 3127 0024 B1F5827F 		cmp	r1, #260
 3128 0028 16D1     		bne	.L616
 3129 002a 5968     		ldr	r1, [r3, #4]
 3130 002c 21F00301 		bic	r1, r1, #3
 3131              	.L626:
 3132 0030 5960     		str	r1, [r3, #4]
 3133 0032 2046     		mov	r0, r4
 3134 0034 6421     		movs	r1, #100
 3135 0036 FFF7FEFF 		bl	SPI_EndRxTransaction
 3136 003a 08B1     		cbz	r0, .L618
 3137 003c 2023     		movs	r3, #32
 3138 003e 2366     		str	r3, [r4, #96]
 3139              	.L618:
 3140 0040 0023     		movs	r3, #0
 3141 0042 A4F84630 		strh	r3, [r4, #70]	@ movhi
 3142 0046 0123     		movs	r3, #1
 3143 0048 84F85D30 		strb	r3, [r4, #93]
 3144 004c 236E     		ldr	r3, [r4, #96]
 3145 004e 3BB1     		cbz	r3, .L615
 3146 0050 2046     		mov	r0, r4
 3147 0052 FFF7FEFF 		bl	HAL_SPI_ErrorCallback
 3148              	.L614:
 3149 0056 38BD     		pop	{r3, r4, r5, pc}
 3150              	.L616:
 3151 0058 5968     		ldr	r1, [r3, #4]
 3152 005a 21F00101 		bic	r1, r1, #1
 3153 005e E7E7     		b	.L626
 3154              	.L615:
 3155 0060 2046     		mov	r0, r4
 3156 0062 FFF7FEFF 		bl	HAL_SPI_RxCpltCallback
 3157 0066 F6E7     		b	.L614
 3159              		.section	.text.SPI_DMATransmitReceiveCplt,"ax",%progbits
 3160              		.align	1
 3161              		.syntax unified
 3162              		.thumb
 3163              		.thumb_func
 3164              		.fpu fpv5-sp-d16
 3166              	SPI_DMATransmitReceiveCplt:
 3167              		@ args = 0, pretend = 0, frame = 0
 3168              		@ frame_needed = 0, uses_anonymous_args = 0
 3169 0000 38B5     		push	{r3, r4, r5, lr}
 3170 0002 0546     		mov	r5, r0
 3171 0004 846B     		ldr	r4, [r0, #56]
 3172 0006 FFF7FEFF 		bl	HAL_GetTick
 3173 000a 0246     		mov	r2, r0
ARM GAS  /tmp/ccHDMf48.s 			page 55


 3174 000c 2B68     		ldr	r3, [r5]
 3175 000e 1B68     		ldr	r3, [r3]
 3176 0010 DB05     		lsls	r3, r3, #23
 3177 0012 1FD4     		bmi	.L628
 3178 0014 2168     		ldr	r1, [r4]
 3179 0016 2046     		mov	r0, r4
 3180 0018 4B68     		ldr	r3, [r1, #4]
 3181 001a 23F02003 		bic	r3, r3, #32
 3182 001e 4B60     		str	r3, [r1, #4]
 3183 0020 6421     		movs	r1, #100
 3184 0022 FFF7FEFF 		bl	SPI_EndRxTxTransaction
 3185 0026 18B1     		cbz	r0, .L629
 3186 0028 236E     		ldr	r3, [r4, #96]
 3187 002a 43F02003 		orr	r3, r3, #32
 3188 002e 2366     		str	r3, [r4, #96]
 3189              	.L629:
 3190 0030 2268     		ldr	r2, [r4]
 3191 0032 5368     		ldr	r3, [r2, #4]
 3192 0034 23F00303 		bic	r3, r3, #3
 3193 0038 5360     		str	r3, [r2, #4]
 3194 003a 0023     		movs	r3, #0
 3195 003c E387     		strh	r3, [r4, #62]	@ movhi
 3196 003e A4F84630 		strh	r3, [r4, #70]	@ movhi
 3197 0042 0123     		movs	r3, #1
 3198 0044 84F85D30 		strb	r3, [r4, #93]
 3199 0048 236E     		ldr	r3, [r4, #96]
 3200 004a 1BB1     		cbz	r3, .L628
 3201 004c 2046     		mov	r0, r4
 3202 004e FFF7FEFF 		bl	HAL_SPI_ErrorCallback
 3203              	.L627:
 3204 0052 38BD     		pop	{r3, r4, r5, pc}
 3205              	.L628:
 3206 0054 2046     		mov	r0, r4
 3207 0056 FFF7FEFF 		bl	HAL_SPI_TxRxCpltCallback
 3208 005a FAE7     		b	.L627
 3210              		.section	.text.HAL_SPI_IRQHandler,"ax",%progbits
 3211              		.align	1
 3212              		.global	HAL_SPI_IRQHandler
 3213              		.syntax unified
 3214              		.thumb
 3215              		.thumb_func
 3216              		.fpu fpv5-sp-d16
 3218              	HAL_SPI_IRQHandler:
 3219              		@ args = 0, pretend = 0, frame = 16
 3220              		@ frame_needed = 0, uses_anonymous_args = 0
 3221 0000 0368     		ldr	r3, [r0]
 3222 0002 F0B5     		push	{r4, r5, r6, r7, lr}
 3223 0004 5D68     		ldr	r5, [r3, #4]
 3224 0006 85B0     		sub	sp, sp, #20
 3225 0008 9A68     		ldr	r2, [r3, #8]
 3226 000a 0446     		mov	r4, r0
 3227 000c 5606     		lsls	r6, r2, #25
 3228 000e 4FEA9211 		lsr	r1, r2, #6
 3229 0012 C2F38017 		ubfx	r7, r2, #6, #1
 3230 0016 08D4     		bmi	.L638
 3231 0018 D607     		lsls	r6, r2, #31
 3232 001a 06D5     		bpl	.L638
ARM GAS  /tmp/ccHDMf48.s 			page 56


 3233 001c 6E06     		lsls	r6, r5, #25
 3234 001e 04D5     		bpl	.L638
 3235 0020 C36C     		ldr	r3, [r0, #76]
 3236              	.L687:
 3237 0022 05B0     		add	sp, sp, #20
 3238              		@ sp needed
 3239 0024 BDE8F040 		pop	{r4, r5, r6, r7, lr}
 3240 0028 1847     		bx	r3	@ indirect register sibling call
 3241              	.L638:
 3242 002a 9607     		lsls	r6, r2, #30
 3243 002c 04D5     		bpl	.L639
 3244 002e 2806     		lsls	r0, r5, #24
 3245 0030 02D5     		bpl	.L639
 3246 0032 236D     		ldr	r3, [r4, #80]
 3247 0034 2046     		mov	r0, r4
 3248 0036 F4E7     		b	.L687
 3249              	.L639:
 3250 0038 41EA5211 		orr	r1, r1, r2, lsr #5
 3251 003c C2F30020 		ubfx	r0, r2, #8, #1
 3252 0040 5609     		lsrs	r6, r2, #5
 3253 0042 01F00101 		and	r1, r1, #1
 3254 0046 51EA0002 		orrs	r2, r1, r0
 3255 004a 56D0     		beq	.L637
 3256 004c AA06     		lsls	r2, r5, #26
 3257 004e 54D5     		bpl	.L637
 3258 0050 77B1     		cbz	r7, .L643
 3259 0052 94F85D20 		ldrb	r2, [r4, #93]	@ zero_extendqisi2
 3260 0056 0021     		movs	r1, #0
 3261 0058 032A     		cmp	r2, #3
 3262 005a 48D0     		beq	.L644
 3263 005c 226E     		ldr	r2, [r4, #96]
 3264 005e 42F00402 		orr	r2, r2, #4
 3265 0062 2266     		str	r2, [r4, #96]
 3266 0064 0091     		str	r1, [sp]
 3267 0066 DA68     		ldr	r2, [r3, #12]
 3268 0068 0092     		str	r2, [sp]
 3269 006a 9A68     		ldr	r2, [r3, #8]
 3270 006c 0092     		str	r2, [sp]
 3271 006e 009A     		ldr	r2, [sp]
 3272              	.L643:
 3273 0070 F107     		lsls	r1, r6, #31
 3274 0072 0CD5     		bpl	.L645
 3275 0074 226E     		ldr	r2, [r4, #96]
 3276 0076 42F00102 		orr	r2, r2, #1
 3277 007a 2266     		str	r2, [r4, #96]
 3278 007c 0022     		movs	r2, #0
 3279 007e 0292     		str	r2, [sp, #8]
 3280 0080 9A68     		ldr	r2, [r3, #8]
 3281 0082 0292     		str	r2, [sp, #8]
 3282 0084 1A68     		ldr	r2, [r3]
 3283 0086 22F04002 		bic	r2, r2, #64
 3284 008a 1A60     		str	r2, [r3]
 3285 008c 029A     		ldr	r2, [sp, #8]
 3286              	.L645:
 3287 008e 40B1     		cbz	r0, .L646
 3288 0090 226E     		ldr	r2, [r4, #96]
 3289 0092 42F00802 		orr	r2, r2, #8
ARM GAS  /tmp/ccHDMf48.s 			page 57


 3290 0096 2266     		str	r2, [r4, #96]
 3291 0098 0022     		movs	r2, #0
 3292 009a 0392     		str	r2, [sp, #12]
 3293 009c 9A68     		ldr	r2, [r3, #8]
 3294 009e 0392     		str	r2, [sp, #12]
 3295 00a0 039A     		ldr	r2, [sp, #12]
 3296              	.L646:
 3297 00a2 226E     		ldr	r2, [r4, #96]
 3298 00a4 4AB3     		cbz	r2, .L637
 3299 00a6 5A68     		ldr	r2, [r3, #4]
 3300 00a8 22F0E002 		bic	r2, r2, #224
 3301 00ac 5A60     		str	r2, [r3, #4]
 3302 00ae 0122     		movs	r2, #1
 3303 00b0 84F85D20 		strb	r2, [r4, #93]
 3304 00b4 AA07     		lsls	r2, r5, #30
 3305 00b6 22D0     		beq	.L647
 3306 00b8 5A68     		ldr	r2, [r3, #4]
 3307 00ba A06D     		ldr	r0, [r4, #88]
 3308 00bc 22F00302 		bic	r2, r2, #3
 3309 00c0 5A60     		str	r2, [r3, #4]
 3310 00c2 40B1     		cbz	r0, .L649
 3311 00c4 104B     		ldr	r3, .L688
 3312 00c6 0365     		str	r3, [r0, #80]
 3313 00c8 FFF7FEFF 		bl	HAL_DMA_Abort_IT
 3314 00cc 18B1     		cbz	r0, .L649
 3315 00ce 236E     		ldr	r3, [r4, #96]
 3316 00d0 43F04003 		orr	r3, r3, #64
 3317 00d4 2366     		str	r3, [r4, #96]
 3318              	.L649:
 3319 00d6 606D     		ldr	r0, [r4, #84]
 3320 00d8 78B1     		cbz	r0, .L637
 3321 00da 0B4B     		ldr	r3, .L688
 3322 00dc 0365     		str	r3, [r0, #80]
 3323 00de FFF7FEFF 		bl	HAL_DMA_Abort_IT
 3324 00e2 50B1     		cbz	r0, .L637
 3325 00e4 236E     		ldr	r3, [r4, #96]
 3326 00e6 43F04003 		orr	r3, r3, #64
 3327 00ea 2366     		str	r3, [r4, #96]
 3328 00ec 05E0     		b	.L637
 3329              	.L644:
 3330 00ee 0191     		str	r1, [sp, #4]
 3331 00f0 DA68     		ldr	r2, [r3, #12]
 3332 00f2 0192     		str	r2, [sp, #4]
 3333 00f4 9B68     		ldr	r3, [r3, #8]
 3334 00f6 0193     		str	r3, [sp, #4]
 3335 00f8 019B     		ldr	r3, [sp, #4]
 3336              	.L637:
 3337 00fa 05B0     		add	sp, sp, #20
 3338              		@ sp needed
 3339 00fc F0BD     		pop	{r4, r5, r6, r7, pc}
 3340              	.L647:
 3341 00fe 2046     		mov	r0, r4
 3342 0100 FFF7FEFF 		bl	HAL_SPI_ErrorCallback
 3343 0104 F9E7     		b	.L637
 3344              	.L689:
 3345 0106 00BF     		.align	2
 3346              	.L688:
ARM GAS  /tmp/ccHDMf48.s 			page 58


 3347 0108 00000000 		.word	SPI_DMAAbortOnError
 3349              		.section	.text.SPI_DMAAbortOnError,"ax",%progbits
 3350              		.align	1
 3351              		.syntax unified
 3352              		.thumb
 3353              		.thumb_func
 3354              		.fpu fpv5-sp-d16
 3356              	SPI_DMAAbortOnError:
 3357              		@ args = 0, pretend = 0, frame = 0
 3358              		@ frame_needed = 0, uses_anonymous_args = 0
 3359 0000 08B5     		push	{r3, lr}
 3360 0002 806B     		ldr	r0, [r0, #56]
 3361 0004 0023     		movs	r3, #0
 3362 0006 A0F84630 		strh	r3, [r0, #70]	@ movhi
 3363 000a C387     		strh	r3, [r0, #62]	@ movhi
 3364 000c FFF7FEFF 		bl	HAL_SPI_ErrorCallback
 3365 0010 08BD     		pop	{r3, pc}
 3367              		.section	.text.HAL_SPI_AbortCpltCallback,"ax",%progbits
 3368              		.align	1
 3369              		.weak	HAL_SPI_AbortCpltCallback
 3370              		.syntax unified
 3371              		.thumb
 3372              		.thumb_func
 3373              		.fpu fpv5-sp-d16
 3375              	HAL_SPI_AbortCpltCallback:
 3376              		@ args = 0, pretend = 0, frame = 0
 3377              		@ frame_needed = 0, uses_anonymous_args = 0
 3378              		@ link register save eliminated.
 3379 0000 7047     		bx	lr
 3381              		.section	.text.HAL_SPI_Abort_IT,"ax",%progbits
 3382              		.align	1
 3383              		.global	HAL_SPI_Abort_IT
 3384              		.syntax unified
 3385              		.thumb
 3386              		.thumb_func
 3387              		.fpu fpv5-sp-d16
 3389              	HAL_SPI_Abort_IT:
 3390              		@ args = 0, pretend = 0, frame = 16
 3391              		@ frame_needed = 0, uses_anonymous_args = 0
 3392 0000 464B     		ldr	r3, .L735
 3393 0002 45F6C052 		movw	r2, #24000
 3394 0006 1B68     		ldr	r3, [r3]
 3395 0008 B3FBF2F3 		udiv	r3, r3, r2
 3396 000c 6422     		movs	r2, #100
 3397 000e 30B5     		push	{r4, r5, lr}
 3398 0010 5343     		muls	r3, r2, r3
 3399 0012 85B0     		sub	sp, sp, #20
 3400 0014 0446     		mov	r4, r0
 3401 0016 0193     		str	r3, [sp, #4]
 3402 0018 019B     		ldr	r3, [sp, #4]
 3403 001a 0093     		str	r3, [sp]
 3404 001c 0368     		ldr	r3, [r0]
 3405 001e 5A68     		ldr	r2, [r3, #4]
 3406 0020 22F02002 		bic	r2, r2, #32
 3407 0024 5A60     		str	r2, [r3, #4]
 3408 0026 5A68     		ldr	r2, [r3, #4]
 3409 0028 1006     		lsls	r0, r2, #24
ARM GAS  /tmp/ccHDMf48.s 			page 59


 3410 002a 0AD5     		bpl	.L693
 3411 002c 3C4A     		ldr	r2, .L735+4
 3412 002e 2265     		str	r2, [r4, #80]
 3413              	.L696:
 3414 0030 009A     		ldr	r2, [sp]
 3415 0032 002A     		cmp	r2, #0
 3416 0034 3DD1     		bne	.L694
 3417 0036 226E     		ldr	r2, [r4, #96]
 3418 0038 42F04002 		orr	r2, r2, #64
 3419 003c 2266     		str	r2, [r4, #96]
 3420              	.L695:
 3421 003e 019A     		ldr	r2, [sp, #4]
 3422 0040 0092     		str	r2, [sp]
 3423              	.L693:
 3424 0042 5A68     		ldr	r2, [r3, #4]
 3425 0044 5106     		lsls	r1, r2, #25
 3426 0046 0AD5     		bpl	.L697
 3427 0048 364A     		ldr	r2, .L735+8
 3428 004a E264     		str	r2, [r4, #76]
 3429              	.L700:
 3430 004c 009A     		ldr	r2, [sp]
 3431 004e 002A     		cmp	r2, #0
 3432 0050 37D1     		bne	.L698
 3433 0052 226E     		ldr	r2, [r4, #96]
 3434 0054 42F04002 		orr	r2, r2, #64
 3435 0058 2266     		str	r2, [r4, #96]
 3436              	.L699:
 3437 005a 019A     		ldr	r2, [sp, #4]
 3438 005c 0092     		str	r2, [sp]
 3439              	.L697:
 3440 005e 606D     		ldr	r0, [r4, #84]
 3441 0060 28B1     		cbz	r0, .L701
 3442 0062 5A68     		ldr	r2, [r3, #4]
 3443 0064 12F00202 		ands	r2, r2, #2
 3444 0068 18BF     		it	ne
 3445 006a 2F4A     		ldrne	r2, .L735+12
 3446 006c 0265     		str	r2, [r0, #80]
 3447              	.L701:
 3448 006e A16D     		ldr	r1, [r4, #88]
 3449 0070 29B1     		cbz	r1, .L703
 3450 0072 5A68     		ldr	r2, [r3, #4]
 3451 0074 12F00102 		ands	r2, r2, #1
 3452 0078 18BF     		it	ne
 3453 007a 2C4A     		ldrne	r2, .L735+16
 3454 007c 0A65     		str	r2, [r1, #80]
 3455              	.L703:
 3456 007e 5B68     		ldr	r3, [r3, #4]
 3457 0080 9A07     		lsls	r2, r3, #30
 3458 0082 08D5     		bpl	.L712
 3459 0084 38B1     		cbz	r0, .L712
 3460 0086 FFF7FEFF 		bl	HAL_DMA_Abort_IT
 3461 008a 10B3     		cbz	r0, .L713
 3462 008c 636D     		ldr	r3, [r4, #84]
 3463 008e 0022     		movs	r2, #0
 3464 0090 1A65     		str	r2, [r3, #80]
 3465 0092 4023     		movs	r3, #64
 3466 0094 2366     		str	r3, [r4, #96]
ARM GAS  /tmp/ccHDMf48.s 			page 60


 3467              	.L712:
 3468 0096 0125     		movs	r5, #1
 3469              	.L705:
 3470 0098 2368     		ldr	r3, [r4]
 3471 009a 5B68     		ldr	r3, [r3, #4]
 3472 009c DB07     		lsls	r3, r3, #31
 3473 009e 1FD5     		bpl	.L706
 3474 00a0 A06D     		ldr	r0, [r4, #88]
 3475 00a2 E8B1     		cbz	r0, .L706
 3476 00a4 FFF7FEFF 		bl	HAL_DMA_Abort_IT
 3477 00a8 A8B9     		cbnz	r0, .L707
 3478              	.L709:
 3479 00aa 0025     		movs	r5, #0
 3480              	.L708:
 3481 00ac 2846     		mov	r0, r5
 3482 00ae 05B0     		add	sp, sp, #20
 3483              		@ sp needed
 3484 00b0 30BD     		pop	{r4, r5, pc}
 3485              	.L694:
 3486 00b2 009A     		ldr	r2, [sp]
 3487 00b4 013A     		subs	r2, r2, #1
 3488 00b6 0092     		str	r2, [sp]
 3489 00b8 94F85D20 		ldrb	r2, [r4, #93]	@ zero_extendqisi2
 3490 00bc 072A     		cmp	r2, #7
 3491 00be B7D1     		bne	.L696
 3492 00c0 BDE7     		b	.L695
 3493              	.L698:
 3494 00c2 009A     		ldr	r2, [sp]
 3495 00c4 013A     		subs	r2, r2, #1
 3496 00c6 0092     		str	r2, [sp]
 3497 00c8 94F85D20 		ldrb	r2, [r4, #93]	@ zero_extendqisi2
 3498 00cc 072A     		cmp	r2, #7
 3499 00ce BDD1     		bne	.L700
 3500 00d0 C3E7     		b	.L699
 3501              	.L713:
 3502 00d2 0546     		mov	r5, r0
 3503 00d4 E0E7     		b	.L705
 3504              	.L707:
 3505 00d6 A36D     		ldr	r3, [r4, #88]
 3506 00d8 0022     		movs	r2, #0
 3507 00da 1A65     		str	r2, [r3, #80]
 3508 00dc 4023     		movs	r3, #64
 3509 00de 2366     		str	r3, [r4, #96]
 3510              	.L706:
 3511 00e0 002D     		cmp	r5, #0
 3512 00e2 E2D0     		beq	.L709
 3513 00e4 0023     		movs	r3, #0
 3514 00e6 A4F84630 		strh	r3, [r4, #70]	@ movhi
 3515 00ea E387     		strh	r3, [r4, #62]	@ movhi
 3516 00ec 226E     		ldr	r2, [r4, #96]
 3517 00ee 402A     		cmp	r2, #64
 3518 00f0 01D0     		beq	.L710
 3519 00f2 1D46     		mov	r5, r3
 3520 00f4 2366     		str	r3, [r4, #96]
 3521              	.L710:
 3522 00f6 2268     		ldr	r2, [r4]
 3523 00f8 2046     		mov	r0, r4
ARM GAS  /tmp/ccHDMf48.s 			page 61


 3524 00fa 0293     		str	r3, [sp, #8]
 3525 00fc D168     		ldr	r1, [r2, #12]
 3526 00fe 0291     		str	r1, [sp, #8]
 3527 0100 9168     		ldr	r1, [r2, #8]
 3528 0102 0291     		str	r1, [sp, #8]
 3529 0104 0299     		ldr	r1, [sp, #8]
 3530 0106 0393     		str	r3, [sp, #12]
 3531 0108 9368     		ldr	r3, [r2, #8]
 3532 010a 0393     		str	r3, [sp, #12]
 3533 010c 039B     		ldr	r3, [sp, #12]
 3534 010e 0123     		movs	r3, #1
 3535 0110 84F85D30 		strb	r3, [r4, #93]
 3536 0114 FFF7FEFF 		bl	HAL_SPI_AbortCpltCallback
 3537 0118 C8E7     		b	.L708
 3538              	.L736:
 3539 011a 00BF     		.align	2
 3540              	.L735:
 3541 011c 00000000 		.word	SystemCoreClock
 3542 0120 00000000 		.word	SPI_AbortTx_ISR
 3543 0124 00000000 		.word	SPI_AbortRx_ISR
 3544 0128 00000000 		.word	SPI_DMATxAbortCallback
 3545 012c 00000000 		.word	SPI_DMARxAbortCallback
 3547              		.section	.text.SPI_DMARxAbortCallback,"ax",%progbits
 3548              		.align	1
 3549              		.syntax unified
 3550              		.thumb
 3551              		.thumb_func
 3552              		.fpu fpv5-sp-d16
 3554              	SPI_DMARxAbortCallback:
 3555              		@ args = 0, pretend = 0, frame = 8
 3556              		@ frame_needed = 0, uses_anonymous_args = 0
 3557 0000 13B5     		push	{r0, r1, r4, lr}
 3558 0002 846B     		ldr	r4, [r0, #56]
 3559 0004 0021     		movs	r1, #0
 3560 0006 2368     		ldr	r3, [r4]
 3561 0008 1A68     		ldr	r2, [r3]
 3562 000a 22F04002 		bic	r2, r2, #64
 3563 000e 1A60     		str	r2, [r3]
 3564 0010 A26D     		ldr	r2, [r4, #88]
 3565 0012 1165     		str	r1, [r2, #80]
 3566 0014 5A68     		ldr	r2, [r3, #4]
 3567 0016 22F00102 		bic	r2, r2, #1
 3568 001a 5A60     		str	r2, [r3, #4]
 3569 001c FFF7FEFF 		bl	HAL_GetTick
 3570 0020 6421     		movs	r1, #100
 3571 0022 0246     		mov	r2, r0
 3572 0024 2046     		mov	r0, r4
 3573 0026 FFF7FEFF 		bl	SPI_WaitFlagStateUntilTimeout.constprop.0
 3574 002a 08B1     		cbz	r0, .L738
 3575 002c 4023     		movs	r3, #64
 3576 002e 2366     		str	r3, [r4, #96]
 3577              	.L738:
 3578 0030 FFF7FEFF 		bl	HAL_GetTick
 3579 0034 6422     		movs	r2, #100
 3580 0036 0346     		mov	r3, r0
 3581 0038 4FF4C061 		mov	r1, #1536
 3582 003c 2046     		mov	r0, r4
ARM GAS  /tmp/ccHDMf48.s 			page 62


 3583 003e FFF7FEFF 		bl	SPI_WaitFifoStateUntilTimeout.constprop.0
 3584 0042 08B1     		cbz	r0, .L739
 3585 0044 4023     		movs	r3, #64
 3586 0046 2366     		str	r3, [r4, #96]
 3587              	.L739:
 3588 0048 636D     		ldr	r3, [r4, #84]
 3589 004a 0BB1     		cbz	r3, .L740
 3590 004c 1B6D     		ldr	r3, [r3, #80]
 3591 004e C3B9     		cbnz	r3, .L737
 3592              	.L740:
 3593 0050 0023     		movs	r3, #0
 3594 0052 A4F84630 		strh	r3, [r4, #70]	@ movhi
 3595 0056 E387     		strh	r3, [r4, #62]	@ movhi
 3596 0058 226E     		ldr	r2, [r4, #96]
 3597 005a 402A     		cmp	r2, #64
 3598 005c 00D0     		beq	.L742
 3599 005e 2366     		str	r3, [r4, #96]
 3600              	.L742:
 3601 0060 2268     		ldr	r2, [r4]
 3602 0062 2046     		mov	r0, r4
 3603 0064 0093     		str	r3, [sp]
 3604 0066 D168     		ldr	r1, [r2, #12]
 3605 0068 0091     		str	r1, [sp]
 3606 006a 9168     		ldr	r1, [r2, #8]
 3607 006c 0091     		str	r1, [sp]
 3608 006e 0099     		ldr	r1, [sp]
 3609 0070 0193     		str	r3, [sp, #4]
 3610 0072 9368     		ldr	r3, [r2, #8]
 3611 0074 0193     		str	r3, [sp, #4]
 3612 0076 019B     		ldr	r3, [sp, #4]
 3613 0078 0123     		movs	r3, #1
 3614 007a 84F85D30 		strb	r3, [r4, #93]
 3615 007e FFF7FEFF 		bl	HAL_SPI_AbortCpltCallback
 3616              	.L737:
 3617 0082 02B0     		add	sp, sp, #8
 3618              		@ sp needed
 3619 0084 10BD     		pop	{r4, pc}
 3621              		.section	.text.SPI_DMATxAbortCallback,"ax",%progbits
 3622              		.align	1
 3623              		.syntax unified
 3624              		.thumb
 3625              		.thumb_func
 3626              		.fpu fpv5-sp-d16
 3628              	SPI_DMATxAbortCallback:
 3629              		@ args = 0, pretend = 0, frame = 8
 3630              		@ frame_needed = 0, uses_anonymous_args = 0
 3631 0000 13B5     		push	{r0, r1, r4, lr}
 3632 0002 846B     		ldr	r4, [r0, #56]
 3633 0004 0022     		movs	r2, #0
 3634 0006 636D     		ldr	r3, [r4, #84]
 3635 0008 1A65     		str	r2, [r3, #80]
 3636 000a 2268     		ldr	r2, [r4]
 3637 000c 5368     		ldr	r3, [r2, #4]
 3638 000e 23F00203 		bic	r3, r3, #2
 3639 0012 5360     		str	r3, [r2, #4]
 3640 0014 FFF7FEFF 		bl	HAL_GetTick
 3641 0018 6421     		movs	r1, #100
ARM GAS  /tmp/ccHDMf48.s 			page 63


 3642 001a 0246     		mov	r2, r0
 3643 001c 2046     		mov	r0, r4
 3644 001e FFF7FEFF 		bl	SPI_EndRxTxTransaction
 3645 0022 08B1     		cbz	r0, .L756
 3646 0024 4023     		movs	r3, #64
 3647 0026 2366     		str	r3, [r4, #96]
 3648              	.L756:
 3649 0028 2268     		ldr	r2, [r4]
 3650 002a 1368     		ldr	r3, [r2]
 3651 002c 23F04003 		bic	r3, r3, #64
 3652 0030 1360     		str	r3, [r2]
 3653 0032 FFF7FEFF 		bl	HAL_GetTick
 3654 0036 6422     		movs	r2, #100
 3655 0038 0346     		mov	r3, r0
 3656 003a 4FF4C061 		mov	r1, #1536
 3657 003e 2046     		mov	r0, r4
 3658 0040 FFF7FEFF 		bl	SPI_WaitFifoStateUntilTimeout.constprop.0
 3659 0044 08B1     		cbz	r0, .L757
 3660 0046 4023     		movs	r3, #64
 3661 0048 2366     		str	r3, [r4, #96]
 3662              	.L757:
 3663 004a A36D     		ldr	r3, [r4, #88]
 3664 004c 0BB1     		cbz	r3, .L758
 3665 004e 1B6D     		ldr	r3, [r3, #80]
 3666 0050 C3B9     		cbnz	r3, .L755
 3667              	.L758:
 3668 0052 0023     		movs	r3, #0
 3669 0054 A4F84630 		strh	r3, [r4, #70]	@ movhi
 3670 0058 E387     		strh	r3, [r4, #62]	@ movhi
 3671 005a 226E     		ldr	r2, [r4, #96]
 3672 005c 402A     		cmp	r2, #64
 3673 005e 00D0     		beq	.L760
 3674 0060 2366     		str	r3, [r4, #96]
 3675              	.L760:
 3676 0062 2268     		ldr	r2, [r4]
 3677 0064 2046     		mov	r0, r4
 3678 0066 0093     		str	r3, [sp]
 3679 0068 D168     		ldr	r1, [r2, #12]
 3680 006a 0091     		str	r1, [sp]
 3681 006c 9168     		ldr	r1, [r2, #8]
 3682 006e 0091     		str	r1, [sp]
 3683 0070 0099     		ldr	r1, [sp]
 3684 0072 0193     		str	r3, [sp, #4]
 3685 0074 9368     		ldr	r3, [r2, #8]
 3686 0076 0193     		str	r3, [sp, #4]
 3687 0078 019B     		ldr	r3, [sp, #4]
 3688 007a 0123     		movs	r3, #1
 3689 007c 84F85D30 		strb	r3, [r4, #93]
 3690 0080 FFF7FEFF 		bl	HAL_SPI_AbortCpltCallback
 3691              	.L755:
 3692 0084 02B0     		add	sp, sp, #8
 3693              		@ sp needed
 3694 0086 10BD     		pop	{r4, pc}
 3696              		.section	.text.HAL_SPI_GetState,"ax",%progbits
 3697              		.align	1
 3698              		.global	HAL_SPI_GetState
 3699              		.syntax unified
ARM GAS  /tmp/ccHDMf48.s 			page 64


 3700              		.thumb
 3701              		.thumb_func
 3702              		.fpu fpv5-sp-d16
 3704              	HAL_SPI_GetState:
 3705              		@ args = 0, pretend = 0, frame = 0
 3706              		@ frame_needed = 0, uses_anonymous_args = 0
 3707              		@ link register save eliminated.
 3708 0000 90F85D00 		ldrb	r0, [r0, #93]	@ zero_extendqisi2
 3709 0004 7047     		bx	lr
 3711              		.section	.text.HAL_SPI_GetError,"ax",%progbits
 3712              		.align	1
 3713              		.global	HAL_SPI_GetError
 3714              		.syntax unified
 3715              		.thumb
 3716              		.thumb_func
 3717              		.fpu fpv5-sp-d16
 3719              	HAL_SPI_GetError:
 3720              		@ args = 0, pretend = 0, frame = 0
 3721              		@ frame_needed = 0, uses_anonymous_args = 0
 3722              		@ link register save eliminated.
 3723 0000 006E     		ldr	r0, [r0, #96]
 3724 0002 7047     		bx	lr
 3726              		.ident	"GCC: (15:10.3-2021.07-4) 10.3.1 20210621 (release)"
ARM GAS  /tmp/ccHDMf48.s 			page 65

