ARM GAS  /tmp/cc8R3SI0.s 			page 1


   1              		.cpu cortex-m7
   2              		.eabi_attribute 27, 1
   3              		.eabi_attribute 20, 1
   4              		.eabi_attribute 21, 1
   5              		.eabi_attribute 23, 3
   6              		.eabi_attribute 24, 1
   7              		.eabi_attribute 25, 1
   8              		.eabi_attribute 26, 1
   9              		.eabi_attribute 30, 4
  10              		.eabi_attribute 34, 1
  11              		.eabi_attribute 18, 4
  12              		.file	"stm32f7xx_hal_rtc_ex.c"
  13              		.text
  14              		.section	.text.HAL_RTCEx_SetTimeStamp,"ax",%progbits
  15              		.align	1
  16              		.global	HAL_RTCEx_SetTimeStamp
  17              		.arch armv7e-m
  18              		.syntax unified
  19              		.thumb
  20              		.thumb_func
  21              		.fpu fpv5-sp-d16
  23              	HAL_RTCEx_SetTimeStamp:
  24              		@ args = 0, pretend = 0, frame = 0
  25              		@ frame_needed = 0, uses_anonymous_args = 0
  26 0000 10B5     		push	{r4, lr}
  27 0002 037F     		ldrb	r3, [r0, #28]	@ zero_extendqisi2
  28 0004 012B     		cmp	r3, #1
  29 0006 4FF00203 		mov	r3, #2
  30 000a 27D0     		beq	.L3
  31 000c 4377     		strb	r3, [r0, #29]
  32 000e 0368     		ldr	r3, [r0]
  33 0010 DC6C     		ldr	r4, [r3, #76]
  34 0012 24F00604 		bic	r4, r4, #6
  35 0016 DC64     		str	r4, [r3, #76]
  36 0018 DC6C     		ldr	r4, [r3, #76]
  37 001a 2243     		orrs	r2, r2, r4
  38 001c DA64     		str	r2, [r3, #76]
  39 001e 9A68     		ldr	r2, [r3, #8]
  40 0020 22F40062 		bic	r2, r2, #2048
  41 0024 22F00802 		bic	r2, r2, #8
  42 0028 0A43     		orrs	r2, r2, r1
  43 002a CA21     		movs	r1, #202
  44 002c 5962     		str	r1, [r3, #36]
  45 002e 5321     		movs	r1, #83
  46 0030 5962     		str	r1, [r3, #36]
  47 0032 9A60     		str	r2, [r3, #8]
  48 0034 DA68     		ldr	r2, [r3, #12]
  49 0036 D2B2     		uxtb	r2, r2
  50 0038 62F40862 		orn	r2, r2, #2176
  51 003c DA60     		str	r2, [r3, #12]
  52 003e DA68     		ldr	r2, [r3, #12]
  53 0040 D2B2     		uxtb	r2, r2
  54 0042 62F48452 		orn	r2, r2, #4224
  55 0046 DA60     		str	r2, [r3, #12]
  56 0048 9A68     		ldr	r2, [r3, #8]
  57 004a 42F40062 		orr	r2, r2, #2048
  58 004e 9A60     		str	r2, [r3, #8]
ARM GAS  /tmp/cc8R3SI0.s 			page 2


  59 0050 FF22     		movs	r2, #255
  60 0052 5A62     		str	r2, [r3, #36]
  61 0054 0123     		movs	r3, #1
  62 0056 4377     		strb	r3, [r0, #29]
  63 0058 0023     		movs	r3, #0
  64 005a 0377     		strb	r3, [r0, #28]
  65              	.L3:
  66 005c 1846     		mov	r0, r3
  67 005e 10BD     		pop	{r4, pc}
  69              		.section	.text.HAL_RTCEx_SetTimeStamp_IT,"ax",%progbits
  70              		.align	1
  71              		.global	HAL_RTCEx_SetTimeStamp_IT
  72              		.syntax unified
  73              		.thumb
  74              		.thumb_func
  75              		.fpu fpv5-sp-d16
  77              	HAL_RTCEx_SetTimeStamp_IT:
  78              		@ args = 0, pretend = 0, frame = 0
  79              		@ frame_needed = 0, uses_anonymous_args = 0
  80 0000 10B5     		push	{r4, lr}
  81 0002 037F     		ldrb	r3, [r0, #28]	@ zero_extendqisi2
  82 0004 012B     		cmp	r3, #1
  83 0006 4FF00203 		mov	r3, #2
  84 000a 34D0     		beq	.L6
  85 000c 4377     		strb	r3, [r0, #29]
  86 000e 0368     		ldr	r3, [r0]
  87 0010 DC6C     		ldr	r4, [r3, #76]
  88 0012 24F00604 		bic	r4, r4, #6
  89 0016 DC64     		str	r4, [r3, #76]
  90 0018 DC6C     		ldr	r4, [r3, #76]
  91 001a 2243     		orrs	r2, r2, r4
  92 001c DA64     		str	r2, [r3, #76]
  93 001e 9A68     		ldr	r2, [r3, #8]
  94 0020 22F40062 		bic	r2, r2, #2048
  95 0024 22F00802 		bic	r2, r2, #8
  96 0028 0A43     		orrs	r2, r2, r1
  97 002a CA21     		movs	r1, #202
  98 002c 5962     		str	r1, [r3, #36]
  99 002e 5321     		movs	r1, #83
 100 0030 5962     		str	r1, [r3, #36]
 101 0032 9A60     		str	r2, [r3, #8]
 102 0034 DA68     		ldr	r2, [r3, #12]
 103 0036 D2B2     		uxtb	r2, r2
 104 0038 62F40862 		orn	r2, r2, #2176
 105 003c DA60     		str	r2, [r3, #12]
 106 003e DA68     		ldr	r2, [r3, #12]
 107 0040 D2B2     		uxtb	r2, r2
 108 0042 62F48452 		orn	r2, r2, #4224
 109 0046 DA60     		str	r2, [r3, #12]
 110 0048 9A68     		ldr	r2, [r3, #8]
 111 004a 42F40062 		orr	r2, r2, #2048
 112 004e 9A60     		str	r2, [r3, #8]
 113 0050 9A68     		ldr	r2, [r3, #8]
 114 0052 42F40042 		orr	r2, r2, #32768
 115 0056 9A60     		str	r2, [r3, #8]
 116 0058 FF22     		movs	r2, #255
 117 005a 5A62     		str	r2, [r3, #36]
ARM GAS  /tmp/cc8R3SI0.s 			page 3


 118 005c 074B     		ldr	r3, .L7
 119 005e 1A68     		ldr	r2, [r3]
 120 0060 42F40012 		orr	r2, r2, #2097152
 121 0064 1A60     		str	r2, [r3]
 122 0066 9A68     		ldr	r2, [r3, #8]
 123 0068 42F40012 		orr	r2, r2, #2097152
 124 006c 9A60     		str	r2, [r3, #8]
 125 006e 0123     		movs	r3, #1
 126 0070 4377     		strb	r3, [r0, #29]
 127 0072 0023     		movs	r3, #0
 128 0074 0377     		strb	r3, [r0, #28]
 129              	.L6:
 130 0076 1846     		mov	r0, r3
 131 0078 10BD     		pop	{r4, pc}
 132              	.L8:
 133 007a 00BF     		.align	2
 134              	.L7:
 135 007c 003C0140 		.word	1073822720
 137              		.section	.text.HAL_RTCEx_DeactivateTimeStamp,"ax",%progbits
 138              		.align	1
 139              		.global	HAL_RTCEx_DeactivateTimeStamp
 140              		.syntax unified
 141              		.thumb
 142              		.thumb_func
 143              		.fpu fpv5-sp-d16
 145              	HAL_RTCEx_DeactivateTimeStamp:
 146              		@ args = 0, pretend = 0, frame = 0
 147              		@ frame_needed = 0, uses_anonymous_args = 0
 148              		@ link register save eliminated.
 149 0000 037F     		ldrb	r3, [r0, #28]	@ zero_extendqisi2
 150 0002 012B     		cmp	r3, #1
 151 0004 4FF00203 		mov	r3, #2
 152 0008 15D0     		beq	.L11
 153 000a 4377     		strb	r3, [r0, #29]
 154 000c CA22     		movs	r2, #202
 155 000e 0368     		ldr	r3, [r0]
 156 0010 5A62     		str	r2, [r3, #36]
 157 0012 5322     		movs	r2, #83
 158 0014 5A62     		str	r2, [r3, #36]
 159 0016 9A68     		ldr	r2, [r3, #8]
 160 0018 22F40042 		bic	r2, r2, #32768
 161 001c 9A60     		str	r2, [r3, #8]
 162 001e 9A68     		ldr	r2, [r3, #8]
 163 0020 22F40062 		bic	r2, r2, #2048
 164 0024 22F00802 		bic	r2, r2, #8
 165 0028 9A60     		str	r2, [r3, #8]
 166 002a FF22     		movs	r2, #255
 167 002c 5A62     		str	r2, [r3, #36]
 168 002e 0123     		movs	r3, #1
 169 0030 4377     		strb	r3, [r0, #29]
 170 0032 0023     		movs	r3, #0
 171 0034 0377     		strb	r3, [r0, #28]
 172              	.L11:
 173 0036 1846     		mov	r0, r3
 174 0038 7047     		bx	lr
 176              		.section	.text.HAL_RTCEx_SetInternalTimeStamp,"ax",%progbits
 177              		.align	1
ARM GAS  /tmp/cc8R3SI0.s 			page 4


 178              		.global	HAL_RTCEx_SetInternalTimeStamp
 179              		.syntax unified
 180              		.thumb
 181              		.thumb_func
 182              		.fpu fpv5-sp-d16
 184              	HAL_RTCEx_SetInternalTimeStamp:
 185              		@ args = 0, pretend = 0, frame = 0
 186              		@ frame_needed = 0, uses_anonymous_args = 0
 187              		@ link register save eliminated.
 188 0000 037F     		ldrb	r3, [r0, #28]	@ zero_extendqisi2
 189 0002 012B     		cmp	r3, #1
 190 0004 4FF00203 		mov	r3, #2
 191 0008 0FD0     		beq	.L14
 192 000a 4377     		strb	r3, [r0, #29]
 193 000c CA22     		movs	r2, #202
 194 000e 0368     		ldr	r3, [r0]
 195 0010 5A62     		str	r2, [r3, #36]
 196 0012 5322     		movs	r2, #83
 197 0014 5A62     		str	r2, [r3, #36]
 198 0016 9A68     		ldr	r2, [r3, #8]
 199 0018 42F08072 		orr	r2, r2, #16777216
 200 001c 9A60     		str	r2, [r3, #8]
 201 001e FF22     		movs	r2, #255
 202 0020 5A62     		str	r2, [r3, #36]
 203 0022 0123     		movs	r3, #1
 204 0024 4377     		strb	r3, [r0, #29]
 205 0026 0023     		movs	r3, #0
 206 0028 0377     		strb	r3, [r0, #28]
 207              	.L14:
 208 002a 1846     		mov	r0, r3
 209 002c 7047     		bx	lr
 211              		.section	.text.HAL_RTCEx_DeactivateInternalTimeStamp,"ax",%progbits
 212              		.align	1
 213              		.global	HAL_RTCEx_DeactivateInternalTimeStamp
 214              		.syntax unified
 215              		.thumb
 216              		.thumb_func
 217              		.fpu fpv5-sp-d16
 219              	HAL_RTCEx_DeactivateInternalTimeStamp:
 220              		@ args = 0, pretend = 0, frame = 0
 221              		@ frame_needed = 0, uses_anonymous_args = 0
 222              		@ link register save eliminated.
 223 0000 037F     		ldrb	r3, [r0, #28]	@ zero_extendqisi2
 224 0002 012B     		cmp	r3, #1
 225 0004 4FF00203 		mov	r3, #2
 226 0008 0FD0     		beq	.L17
 227 000a 4377     		strb	r3, [r0, #29]
 228 000c CA22     		movs	r2, #202
 229 000e 0368     		ldr	r3, [r0]
 230 0010 5A62     		str	r2, [r3, #36]
 231 0012 5322     		movs	r2, #83
 232 0014 5A62     		str	r2, [r3, #36]
 233 0016 9A68     		ldr	r2, [r3, #8]
 234 0018 22F08072 		bic	r2, r2, #16777216
 235 001c 9A60     		str	r2, [r3, #8]
 236 001e FF22     		movs	r2, #255
 237 0020 5A62     		str	r2, [r3, #36]
ARM GAS  /tmp/cc8R3SI0.s 			page 5


 238 0022 0123     		movs	r3, #1
 239 0024 4377     		strb	r3, [r0, #29]
 240 0026 0023     		movs	r3, #0
 241 0028 0377     		strb	r3, [r0, #28]
 242              	.L17:
 243 002a 1846     		mov	r0, r3
 244 002c 7047     		bx	lr
 246              		.section	.text.HAL_RTCEx_GetTimeStamp,"ax",%progbits
 247              		.align	1
 248              		.global	HAL_RTCEx_GetTimeStamp
 249              		.syntax unified
 250              		.thumb
 251              		.thumb_func
 252              		.fpu fpv5-sp-d16
 254              	HAL_RTCEx_GetTimeStamp:
 255              		@ args = 0, pretend = 0, frame = 0
 256              		@ frame_needed = 0, uses_anonymous_args = 0
 257 0000 D0F800C0 		ldr	ip, [r0]
 258 0004 F8B5     		push	{r3, r4, r5, r6, r7, lr}
 259 0006 0646     		mov	r6, r0
 260 0008 DCF83000 		ldr	r0, [ip, #48]
 261 000c 1446     		mov	r4, r2
 262 000e DCF83470 		ldr	r7, [ip, #52]
 263 0012 00F07F32 		and	r2, r0, #2139062143
 264 0016 0D46     		mov	r5, r1
 265 0018 C0F30540 		ubfx	r0, r0, #16, #6
 266 001c 27F07F41 		bic	r1, r7, #-16777216
 267 0020 22F0FE42 		bic	r2, r2, #2130706432
 268 0024 C7F30427 		ubfx	r7, r7, #8, #5
 269 0028 2870     		strb	r0, [r5]
 270 002a 21F0C001 		bic	r1, r1, #192
 271 002e AA70     		strb	r2, [r5, #2]
 272 0030 4FEA122E 		lsr	lr, r2, #8
 273 0034 920D     		lsrs	r2, r2, #22
 274 0036 85F801E0 		strb	lr, [r5, #1]
 275 003a EA70     		strb	r2, [r5, #3]
 276 003c DCF83820 		ldr	r2, [ip, #56]
 277 0040 6A60     		str	r2, [r5, #4]
 278 0042 0022     		movs	r2, #0
 279 0044 A170     		strb	r1, [r4, #2]
 280 0046 C1F34231 		ubfx	r1, r1, #13, #3
 281 004a E270     		strb	r2, [r4, #3]
 282 004c 6770     		strb	r7, [r4, #1]
 283 004e 2170     		strb	r1, [r4]
 284 0050 B3B9     		cbnz	r3, .L19
 285 0052 FFF7FEFF 		bl	RTC_Bcd2ToByte
 286 0056 2870     		strb	r0, [r5]
 287 0058 6878     		ldrb	r0, [r5, #1]	@ zero_extendqisi2
 288 005a FFF7FEFF 		bl	RTC_Bcd2ToByte
 289 005e 6870     		strb	r0, [r5, #1]
 290 0060 A878     		ldrb	r0, [r5, #2]	@ zero_extendqisi2
 291 0062 FFF7FEFF 		bl	RTC_Bcd2ToByte
 292 0066 A870     		strb	r0, [r5, #2]
 293 0068 6078     		ldrb	r0, [r4, #1]	@ zero_extendqisi2
 294 006a FFF7FEFF 		bl	RTC_Bcd2ToByte
 295 006e 6070     		strb	r0, [r4, #1]
 296 0070 A078     		ldrb	r0, [r4, #2]	@ zero_extendqisi2
ARM GAS  /tmp/cc8R3SI0.s 			page 6


 297 0072 FFF7FEFF 		bl	RTC_Bcd2ToByte
 298 0076 A070     		strb	r0, [r4, #2]
 299 0078 2078     		ldrb	r0, [r4]	@ zero_extendqisi2
 300 007a FFF7FEFF 		bl	RTC_Bcd2ToByte
 301 007e 2070     		strb	r0, [r4]
 302              	.L19:
 303 0080 3268     		ldr	r2, [r6]
 304 0082 0020     		movs	r0, #0
 305 0084 054B     		ldr	r3, .L20
 306 0086 D168     		ldr	r1, [r2, #12]
 307 0088 C9B2     		uxtb	r1, r1
 308 008a 0B43     		orrs	r3, r3, r1
 309 008c D360     		str	r3, [r2, #12]
 310 008e D368     		ldr	r3, [r2, #12]
 311 0090 DBB2     		uxtb	r3, r3
 312 0092 63F40863 		orn	r3, r3, #2176
 313 0096 D360     		str	r3, [r2, #12]
 314 0098 F8BD     		pop	{r3, r4, r5, r6, r7, pc}
 315              	.L21:
 316 009a 00BF     		.align	2
 317              	.L20:
 318 009c 7FFFFDFF 		.word	-131201
 320              		.section	.text.HAL_RTCEx_SetTamper,"ax",%progbits
 321              		.align	1
 322              		.global	HAL_RTCEx_SetTamper
 323              		.syntax unified
 324              		.thumb
 325              		.thumb_func
 326              		.fpu fpv5-sp-d16
 328              	HAL_RTCEx_SetTamper:
 329              		@ args = 0, pretend = 0, frame = 0
 330              		@ frame_needed = 0, uses_anonymous_args = 0
 331 0000 F0B5     		push	{r4, r5, r6, r7, lr}
 332 0002 037F     		ldrb	r3, [r0, #28]	@ zero_extendqisi2
 333 0004 012B     		cmp	r3, #1
 334 0006 4FF00203 		mov	r3, #2
 335 000a 46D0     		beq	.L41
 336 000c 0668     		ldr	r6, [r0]
 337 000e 4377     		strb	r3, [r0, #29]
 338 0010 0C68     		ldr	r4, [r1]
 339 0012 8D68     		ldr	r5, [r1, #8]
 340 0014 336C     		ldr	r3, [r6, #64]
 341 0016 6200     		lsls	r2, r4, #1
 342 0018 022D     		cmp	r5, #2
 343 001a 04F00107 		and	r7, r4, #1
 344 001e 43EA0403 		orr	r3, r3, r4
 345 0022 04F00805 		and	r5, r4, #8
 346 0026 04F02004 		and	r4, r4, #32
 347 002a 0CBF     		ite	eq
 348 002c 1343     		orreq	r3, r3, r2
 349 002e 9343     		bicne	r3, r3, r2
 350 0030 CA68     		ldr	r2, [r1, #12]
 351 0032 A2B3     		cbz	r2, .L26
 352 0034 0FB1     		cbz	r7, .L27
 353 0036 43F40033 		orr	r3, r3, #131072
 354              	.L27:
 355 003a 0DB1     		cbz	r5, .L28
ARM GAS  /tmp/cc8R3SI0.s 			page 7


 356 003c 43F48013 		orr	r3, r3, #1048576
 357              	.L28:
 358 0040 0CB1     		cbz	r4, .L29
 359 0042 43F40003 		orr	r3, r3, #8388608
 360              	.L29:
 361 0046 0A69     		ldr	r2, [r1, #16]
 362 0048 A2B3     		cbz	r2, .L32
 363 004a 0FB1     		cbz	r7, .L33
 364 004c 43F48023 		orr	r3, r3, #262144
 365              	.L33:
 366 0050 0DB1     		cbz	r5, .L34
 367 0052 43F40013 		orr	r3, r3, #2097152
 368              	.L34:
 369 0056 0CB1     		cbz	r4, .L35
 370 0058 43F08073 		orr	r3, r3, #16777216
 371              	.L35:
 372 005c 23F47F4C 		bic	ip, r3, #65280
 373 0060 D1E90523 		ldrd	r2, r3, [r1, #20]
 374 0064 2CF0800C 		bic	ip, ip, #128
 375 0068 1A43     		orrs	r2, r2, r3
 376 006a CB69     		ldr	r3, [r1, #28]
 377 006c 1A43     		orrs	r2, r2, r3
 378 006e 0B6A     		ldr	r3, [r1, #32]
 379 0070 496A     		ldr	r1, [r1, #36]
 380 0072 1A43     		orrs	r2, r2, r3
 381 0074 0A43     		orrs	r2, r2, r1
 382 0076 4CEA0203 		orr	r3, ip, r2
 383 007a 0FB1     		cbz	r7, .L38
 384 007c 23F48033 		bic	r3, r3, #65536
 385              	.L38:
 386 0080 0DB1     		cbz	r5, .L39
 387 0082 23F40023 		bic	r3, r3, #524288
 388              	.L39:
 389 0086 0CB1     		cbz	r4, .L40
 390 0088 23F48003 		bic	r3, r3, #4194304
 391              	.L40:
 392 008c 23F00403 		bic	r3, r3, #4
 393 0090 3364     		str	r3, [r6, #64]
 394 0092 0123     		movs	r3, #1
 395 0094 4377     		strb	r3, [r0, #29]
 396 0096 0023     		movs	r3, #0
 397 0098 0377     		strb	r3, [r0, #28]
 398              	.L41:
 399 009a 1846     		mov	r0, r3
 400 009c F0BD     		pop	{r4, r5, r6, r7, pc}
 401              	.L26:
 402 009e 0FB1     		cbz	r7, .L30
 403 00a0 23F40033 		bic	r3, r3, #131072
 404              	.L30:
 405 00a4 0DB1     		cbz	r5, .L31
 406 00a6 23F48013 		bic	r3, r3, #1048576
 407              	.L31:
 408 00aa 002C     		cmp	r4, #0
 409 00ac CBD0     		beq	.L29
 410 00ae 23F40003 		bic	r3, r3, #8388608
 411 00b2 C8E7     		b	.L29
 412              	.L32:
ARM GAS  /tmp/cc8R3SI0.s 			page 8


 413 00b4 0FB1     		cbz	r7, .L36
 414 00b6 23F48023 		bic	r3, r3, #262144
 415              	.L36:
 416 00ba 0DB1     		cbz	r5, .L37
 417 00bc 23F40013 		bic	r3, r3, #2097152
 418              	.L37:
 419 00c0 002C     		cmp	r4, #0
 420 00c2 CBD0     		beq	.L35
 421 00c4 23F08073 		bic	r3, r3, #16777216
 422 00c8 C8E7     		b	.L35
 424              		.section	.text.HAL_RTCEx_SetTamper_IT,"ax",%progbits
 425              		.align	1
 426              		.global	HAL_RTCEx_SetTamper_IT
 427              		.syntax unified
 428              		.thumb
 429              		.thumb_func
 430              		.fpu fpv5-sp-d16
 432              	HAL_RTCEx_SetTamper_IT:
 433              		@ args = 0, pretend = 0, frame = 0
 434              		@ frame_needed = 0, uses_anonymous_args = 0
 435 0000 F0B5     		push	{r4, r5, r6, r7, lr}
 436 0002 037F     		ldrb	r3, [r0, #28]	@ zero_extendqisi2
 437 0004 012B     		cmp	r3, #1
 438 0006 4FF00203 		mov	r3, #2
 439 000a 45D0     		beq	.L103
 440 000c 0468     		ldr	r4, [r0]
 441 000e 4377     		strb	r3, [r0, #29]
 442 0010 0A68     		ldr	r2, [r1]
 443 0012 8E68     		ldr	r6, [r1, #8]
 444 0014 236C     		ldr	r3, [r4, #64]
 445 0016 5500     		lsls	r5, r2, #1
 446 0018 022E     		cmp	r6, #2
 447 001a CE68     		ldr	r6, [r1, #12]
 448 001c 43EA0203 		orr	r3, r3, r2
 449 0020 02F00107 		and	r7, r2, #1
 450 0024 0CBF     		ite	eq
 451 0026 2B43     		orreq	r3, r3, r5
 452 0028 AB43     		bicne	r3, r3, r5
 453 002a 02F00805 		and	r5, r2, #8
 454 002e 02F02002 		and	r2, r2, #32
 455 0032 9EB3     		cbz	r6, .L91
 456 0034 0FB1     		cbz	r7, .L92
 457 0036 43F40033 		orr	r3, r3, #131072
 458              	.L92:
 459 003a 0DB1     		cbz	r5, .L93
 460 003c 43F48013 		orr	r3, r3, #1048576
 461              	.L93:
 462 0040 0AB1     		cbz	r2, .L94
 463 0042 43F40003 		orr	r3, r3, #8388608
 464              	.L94:
 465 0046 0E69     		ldr	r6, [r1, #16]
 466 0048 9EB3     		cbz	r6, .L97
 467 004a 0FB1     		cbz	r7, .L98
 468 004c 43F48023 		orr	r3, r3, #262144
 469              	.L98:
 470 0050 0DB1     		cbz	r5, .L99
 471 0052 43F40013 		orr	r3, r3, #2097152
ARM GAS  /tmp/cc8R3SI0.s 			page 9


 472              	.L99:
 473 0056 0AB1     		cbz	r2, .L100
 474 0058 43F08073 		orr	r3, r3, #16777216
 475              	.L100:
 476 005c 23F47F43 		bic	r3, r3, #65280
 477 0060 D1E90525 		ldrd	r2, r5, [r1, #20]
 478 0064 23F08003 		bic	r3, r3, #128
 479 0068 2A43     		orrs	r2, r2, r5
 480 006a CD69     		ldr	r5, [r1, #28]
 481 006c 2A43     		orrs	r2, r2, r5
 482 006e 0D6A     		ldr	r5, [r1, #32]
 483 0070 2A43     		orrs	r2, r2, r5
 484 0072 4D6A     		ldr	r5, [r1, #36]
 485 0074 4968     		ldr	r1, [r1, #4]
 486 0076 2A43     		orrs	r2, r2, r5
 487 0078 0A43     		orrs	r2, r2, r1
 488 007a 1343     		orrs	r3, r3, r2
 489 007c 2364     		str	r3, [r4, #64]
 490 007e 124B     		ldr	r3, .L140
 491 0080 1A68     		ldr	r2, [r3]
 492 0082 42F40012 		orr	r2, r2, #2097152
 493 0086 1A60     		str	r2, [r3]
 494 0088 9A68     		ldr	r2, [r3, #8]
 495 008a 42F40012 		orr	r2, r2, #2097152
 496 008e 9A60     		str	r2, [r3, #8]
 497 0090 0123     		movs	r3, #1
 498 0092 4377     		strb	r3, [r0, #29]
 499 0094 0023     		movs	r3, #0
 500 0096 0377     		strb	r3, [r0, #28]
 501              	.L103:
 502 0098 1846     		mov	r0, r3
 503 009a F0BD     		pop	{r4, r5, r6, r7, pc}
 504              	.L91:
 505 009c 0FB1     		cbz	r7, .L95
 506 009e 23F40033 		bic	r3, r3, #131072
 507              	.L95:
 508 00a2 0DB1     		cbz	r5, .L96
 509 00a4 23F48013 		bic	r3, r3, #1048576
 510              	.L96:
 511 00a8 002A     		cmp	r2, #0
 512 00aa CCD0     		beq	.L94
 513 00ac 23F40003 		bic	r3, r3, #8388608
 514 00b0 C9E7     		b	.L94
 515              	.L97:
 516 00b2 0FB1     		cbz	r7, .L101
 517 00b4 23F48023 		bic	r3, r3, #262144
 518              	.L101:
 519 00b8 0DB1     		cbz	r5, .L102
 520 00ba 23F40013 		bic	r3, r3, #2097152
 521              	.L102:
 522 00be 002A     		cmp	r2, #0
 523 00c0 CCD0     		beq	.L100
 524 00c2 23F08073 		bic	r3, r3, #16777216
 525 00c6 C9E7     		b	.L100
 526              	.L141:
 527              		.align	2
 528              	.L140:
ARM GAS  /tmp/cc8R3SI0.s 			page 10


 529 00c8 003C0140 		.word	1073822720
 531              		.section	.text.HAL_RTCEx_DeactivateTamper,"ax",%progbits
 532              		.align	1
 533              		.global	HAL_RTCEx_DeactivateTamper
 534              		.syntax unified
 535              		.thumb
 536              		.thumb_func
 537              		.fpu fpv5-sp-d16
 539              	HAL_RTCEx_DeactivateTamper:
 540              		@ args = 0, pretend = 0, frame = 0
 541              		@ frame_needed = 0, uses_anonymous_args = 0
 542              		@ link register save eliminated.
 543 0000 037F     		ldrb	r3, [r0, #28]	@ zero_extendqisi2
 544 0002 012B     		cmp	r3, #1
 545 0004 4FF00203 		mov	r3, #2
 546 0008 21D0     		beq	.L147
 547 000a 4377     		strb	r3, [r0, #29]
 548 000c 0368     		ldr	r3, [r0]
 549 000e 1A6C     		ldr	r2, [r3, #64]
 550 0010 22EA0102 		bic	r2, r2, r1
 551 0014 1A64     		str	r2, [r3, #64]
 552 0016 CA07     		lsls	r2, r1, #31
 553 0018 05D5     		bpl	.L144
 554 001a 1A6C     		ldr	r2, [r3, #64]
 555 001c 22F48032 		bic	r2, r2, #65536
 556 0020 22F00402 		bic	r2, r2, #4
 557 0024 1A64     		str	r2, [r3, #64]
 558              	.L144:
 559 0026 0A07     		lsls	r2, r1, #28
 560 0028 05D5     		bpl	.L145
 561 002a 1A6C     		ldr	r2, [r3, #64]
 562 002c 22F40022 		bic	r2, r2, #524288
 563 0030 22F00402 		bic	r2, r2, #4
 564 0034 1A64     		str	r2, [r3, #64]
 565              	.L145:
 566 0036 8A06     		lsls	r2, r1, #26
 567 0038 05D5     		bpl	.L146
 568 003a 1A6C     		ldr	r2, [r3, #64]
 569 003c 22F48002 		bic	r2, r2, #4194304
 570 0040 22F00402 		bic	r2, r2, #4
 571 0044 1A64     		str	r2, [r3, #64]
 572              	.L146:
 573 0046 0123     		movs	r3, #1
 574 0048 4377     		strb	r3, [r0, #29]
 575 004a 0023     		movs	r3, #0
 576 004c 0377     		strb	r3, [r0, #28]
 577              	.L147:
 578 004e 1846     		mov	r0, r3
 579 0050 7047     		bx	lr
 581              		.section	.text.HAL_RTCEx_TimeStampEventCallback,"ax",%progbits
 582              		.align	1
 583              		.weak	HAL_RTCEx_TimeStampEventCallback
 584              		.syntax unified
 585              		.thumb
 586              		.thumb_func
 587              		.fpu fpv5-sp-d16
 589              	HAL_RTCEx_TimeStampEventCallback:
ARM GAS  /tmp/cc8R3SI0.s 			page 11


 590              		@ args = 0, pretend = 0, frame = 0
 591              		@ frame_needed = 0, uses_anonymous_args = 0
 592              		@ link register save eliminated.
 593 0000 7047     		bx	lr
 595              		.section	.text.HAL_RTCEx_Tamper1EventCallback,"ax",%progbits
 596              		.align	1
 597              		.weak	HAL_RTCEx_Tamper1EventCallback
 598              		.syntax unified
 599              		.thumb
 600              		.thumb_func
 601              		.fpu fpv5-sp-d16
 603              	HAL_RTCEx_Tamper1EventCallback:
 604              		@ args = 0, pretend = 0, frame = 0
 605              		@ frame_needed = 0, uses_anonymous_args = 0
 606              		@ link register save eliminated.
 607 0000 7047     		bx	lr
 609              		.section	.text.HAL_RTCEx_Tamper2EventCallback,"ax",%progbits
 610              		.align	1
 611              		.weak	HAL_RTCEx_Tamper2EventCallback
 612              		.syntax unified
 613              		.thumb
 614              		.thumb_func
 615              		.fpu fpv5-sp-d16
 617              	HAL_RTCEx_Tamper2EventCallback:
 618              		@ args = 0, pretend = 0, frame = 0
 619              		@ frame_needed = 0, uses_anonymous_args = 0
 620              		@ link register save eliminated.
 621 0000 7047     		bx	lr
 623              		.section	.text.HAL_RTCEx_Tamper3EventCallback,"ax",%progbits
 624              		.align	1
 625              		.weak	HAL_RTCEx_Tamper3EventCallback
 626              		.syntax unified
 627              		.thumb
 628              		.thumb_func
 629              		.fpu fpv5-sp-d16
 631              	HAL_RTCEx_Tamper3EventCallback:
 632              		@ args = 0, pretend = 0, frame = 0
 633              		@ frame_needed = 0, uses_anonymous_args = 0
 634              		@ link register save eliminated.
 635 0000 7047     		bx	lr
 637              		.section	.text.HAL_RTCEx_TamperTimeStampIRQHandler,"ax",%progbits
 638              		.align	1
 639              		.global	HAL_RTCEx_TamperTimeStampIRQHandler
 640              		.syntax unified
 641              		.thumb
 642              		.thumb_func
 643              		.fpu fpv5-sp-d16
 645              	HAL_RTCEx_TamperTimeStampIRQHandler:
 646              		@ args = 0, pretend = 0, frame = 0
 647              		@ frame_needed = 0, uses_anonymous_args = 0
 648 0000 264B     		ldr	r3, .L190
 649 0002 4FF40012 		mov	r2, #2097152
 650 0006 10B5     		push	{r4, lr}
 651 0008 5A61     		str	r2, [r3, #20]
 652 000a 0446     		mov	r4, r0
 653 000c 0368     		ldr	r3, [r0]
 654 000e 9A68     		ldr	r2, [r3, #8]
ARM GAS  /tmp/cc8R3SI0.s 			page 12


 655 0010 1204     		lsls	r2, r2, #16
 656 0012 0AD5     		bpl	.L162
 657 0014 DB68     		ldr	r3, [r3, #12]
 658 0016 1B05     		lsls	r3, r3, #20
 659 0018 07D5     		bpl	.L162
 660 001a FFF7FEFF 		bl	HAL_RTCEx_TimeStampEventCallback
 661 001e 2268     		ldr	r2, [r4]
 662 0020 D368     		ldr	r3, [r2, #12]
 663 0022 DBB2     		uxtb	r3, r3
 664 0024 63F40863 		orn	r3, r3, #2176
 665 0028 D360     		str	r3, [r2, #12]
 666              	.L162:
 667 002a 2268     		ldr	r2, [r4]
 668 002c 1C4B     		ldr	r3, .L190+4
 669 002e 116C     		ldr	r1, [r2, #64]
 670 0030 0B40     		ands	r3, r3, r1
 671 0032 53B1     		cbz	r3, .L163
 672 0034 D368     		ldr	r3, [r2, #12]
 673 0036 9804     		lsls	r0, r3, #18
 674 0038 07D5     		bpl	.L163
 675 003a D368     		ldr	r3, [r2, #12]
 676 003c 2046     		mov	r0, r4
 677 003e DBB2     		uxtb	r3, r3
 678 0040 63F40253 		orn	r3, r3, #8320
 679 0044 D360     		str	r3, [r2, #12]
 680 0046 FFF7FEFF 		bl	HAL_RTCEx_Tamper1EventCallback
 681              	.L163:
 682 004a 2268     		ldr	r2, [r4]
 683 004c 154B     		ldr	r3, .L190+8
 684 004e 116C     		ldr	r1, [r2, #64]
 685 0050 0B40     		ands	r3, r3, r1
 686 0052 53B1     		cbz	r3, .L164
 687 0054 D368     		ldr	r3, [r2, #12]
 688 0056 5904     		lsls	r1, r3, #17
 689 0058 07D5     		bpl	.L164
 690 005a D368     		ldr	r3, [r2, #12]
 691 005c 2046     		mov	r0, r4
 692 005e DBB2     		uxtb	r3, r3
 693 0060 63F48143 		orn	r3, r3, #16512
 694 0064 D360     		str	r3, [r2, #12]
 695 0066 FFF7FEFF 		bl	HAL_RTCEx_Tamper2EventCallback
 696              	.L164:
 697 006a 2268     		ldr	r2, [r4]
 698 006c 0E4B     		ldr	r3, .L190+12
 699 006e 116C     		ldr	r1, [r2, #64]
 700 0070 0B40     		ands	r3, r3, r1
 701 0072 83B1     		cbz	r3, .L165
 702 0074 D368     		ldr	r3, [r2, #12]
 703 0076 1B04     		lsls	r3, r3, #16
 704 0078 0DD5     		bpl	.L165
 705 007a D368     		ldr	r3, [r2, #12]
 706 007c 2046     		mov	r0, r4
 707 007e DBB2     		uxtb	r3, r3
 708 0080 43F07F43 		orr	r3, r3, #-16777216
 709 0084 43F47F03 		orr	r3, r3, #16711680
 710 0088 43F4FE43 		orr	r3, r3, #32512
 711 008c 43F07F03 		orr	r3, r3, #127
ARM GAS  /tmp/cc8R3SI0.s 			page 13


 712 0090 D360     		str	r3, [r2, #12]
 713 0092 FFF7FEFF 		bl	HAL_RTCEx_Tamper3EventCallback
 714              	.L165:
 715 0096 0123     		movs	r3, #1
 716 0098 6377     		strb	r3, [r4, #29]
 717 009a 10BD     		pop	{r4, pc}
 718              	.L191:
 719              		.align	2
 720              	.L190:
 721 009c 003C0140 		.word	1073822720
 722 00a0 04000100 		.word	65540
 723 00a4 04000800 		.word	524292
 724 00a8 04004000 		.word	4194308
 726              		.section	.text.HAL_RTCEx_PollForTimeStampEvent,"ax",%progbits
 727              		.align	1
 728              		.global	HAL_RTCEx_PollForTimeStampEvent
 729              		.syntax unified
 730              		.thumb
 731              		.thumb_func
 732              		.fpu fpv5-sp-d16
 734              	HAL_RTCEx_PollForTimeStampEvent:
 735              		@ args = 0, pretend = 0, frame = 0
 736              		@ frame_needed = 0, uses_anonymous_args = 0
 737 0000 70B5     		push	{r4, r5, r6, lr}
 738 0002 0446     		mov	r4, r0
 739 0004 0D46     		mov	r5, r1
 740 0006 FFF7FEFF 		bl	HAL_GetTick
 741 000a 0646     		mov	r6, r0
 742              	.L193:
 743 000c 2368     		ldr	r3, [r4]
 744 000e DB68     		ldr	r3, [r3, #12]
 745 0010 1B05     		lsls	r3, r3, #20
 746 0012 03D5     		bpl	.L198
 747 0014 0123     		movs	r3, #1
 748 0016 0020     		movs	r0, #0
 749 0018 6377     		strb	r3, [r4, #29]
 750 001a 04E0     		b	.L196
 751              	.L198:
 752 001c 681C     		adds	r0, r5, #1
 753 001e 08D0     		beq	.L194
 754 0020 15B9     		cbnz	r5, .L195
 755              	.L197:
 756 0022 0320     		movs	r0, #3
 757 0024 6077     		strb	r0, [r4, #29]
 758              	.L196:
 759 0026 70BD     		pop	{r4, r5, r6, pc}
 760              	.L195:
 761 0028 FFF7FEFF 		bl	HAL_GetTick
 762 002c 801B     		subs	r0, r0, r6
 763 002e A842     		cmp	r0, r5
 764 0030 F7D8     		bhi	.L197
 765              	.L194:
 766 0032 2268     		ldr	r2, [r4]
 767 0034 D368     		ldr	r3, [r2, #12]
 768 0036 D904     		lsls	r1, r3, #19
 769 0038 E8D5     		bpl	.L193
 770 003a D368     		ldr	r3, [r2, #12]
ARM GAS  /tmp/cc8R3SI0.s 			page 14


 771 003c 0120     		movs	r0, #1
 772 003e DBB2     		uxtb	r3, r3
 773 0040 63F48453 		orn	r3, r3, #4224
 774 0044 D360     		str	r3, [r2, #12]
 775 0046 0423     		movs	r3, #4
 776 0048 6377     		strb	r3, [r4, #29]
 777 004a ECE7     		b	.L196
 779              		.section	.text.HAL_RTCEx_PollForTamper1Event,"ax",%progbits
 780              		.align	1
 781              		.global	HAL_RTCEx_PollForTamper1Event
 782              		.syntax unified
 783              		.thumb
 784              		.thumb_func
 785              		.fpu fpv5-sp-d16
 787              	HAL_RTCEx_PollForTamper1Event:
 788              		@ args = 0, pretend = 0, frame = 0
 789              		@ frame_needed = 0, uses_anonymous_args = 0
 790 0000 70B5     		push	{r4, r5, r6, lr}
 791 0002 0446     		mov	r4, r0
 792 0004 0D46     		mov	r5, r1
 793 0006 FFF7FEFF 		bl	HAL_GetTick
 794 000a 0646     		mov	r6, r0
 795              	.L205:
 796 000c 2268     		ldr	r2, [r4]
 797              	.L206:
 798 000e D368     		ldr	r3, [r2, #12]
 799 0010 9B04     		lsls	r3, r3, #18
 800 0012 08D5     		bpl	.L210
 801 0014 D368     		ldr	r3, [r2, #12]
 802 0016 0020     		movs	r0, #0
 803 0018 DBB2     		uxtb	r3, r3
 804 001a 63F40253 		orn	r3, r3, #8320
 805 001e D360     		str	r3, [r2, #12]
 806 0020 0123     		movs	r3, #1
 807 0022 6377     		strb	r3, [r4, #29]
 808 0024 05E0     		b	.L208
 809              	.L210:
 810 0026 691C     		adds	r1, r5, #1
 811 0028 F1D0     		beq	.L206
 812 002a 1DB9     		cbnz	r5, .L207
 813              	.L209:
 814 002c 0323     		movs	r3, #3
 815 002e 1846     		mov	r0, r3
 816 0030 6377     		strb	r3, [r4, #29]
 817              	.L208:
 818 0032 70BD     		pop	{r4, r5, r6, pc}
 819              	.L207:
 820 0034 FFF7FEFF 		bl	HAL_GetTick
 821 0038 801B     		subs	r0, r0, r6
 822 003a A842     		cmp	r0, r5
 823 003c E6D9     		bls	.L205
 824 003e F5E7     		b	.L209
 826              		.section	.text.HAL_RTCEx_PollForTamper2Event,"ax",%progbits
 827              		.align	1
 828              		.global	HAL_RTCEx_PollForTamper2Event
 829              		.syntax unified
 830              		.thumb
ARM GAS  /tmp/cc8R3SI0.s 			page 15


 831              		.thumb_func
 832              		.fpu fpv5-sp-d16
 834              	HAL_RTCEx_PollForTamper2Event:
 835              		@ args = 0, pretend = 0, frame = 0
 836              		@ frame_needed = 0, uses_anonymous_args = 0
 837 0000 70B5     		push	{r4, r5, r6, lr}
 838 0002 0446     		mov	r4, r0
 839 0004 0D46     		mov	r5, r1
 840 0006 FFF7FEFF 		bl	HAL_GetTick
 841 000a 0646     		mov	r6, r0
 842              	.L214:
 843 000c 2268     		ldr	r2, [r4]
 844              	.L215:
 845 000e D368     		ldr	r3, [r2, #12]
 846 0010 5B04     		lsls	r3, r3, #17
 847 0012 08D5     		bpl	.L219
 848 0014 D368     		ldr	r3, [r2, #12]
 849 0016 0020     		movs	r0, #0
 850 0018 DBB2     		uxtb	r3, r3
 851 001a 63F48143 		orn	r3, r3, #16512
 852 001e D360     		str	r3, [r2, #12]
 853 0020 0123     		movs	r3, #1
 854 0022 6377     		strb	r3, [r4, #29]
 855 0024 05E0     		b	.L217
 856              	.L219:
 857 0026 691C     		adds	r1, r5, #1
 858 0028 F1D0     		beq	.L215
 859 002a 1DB9     		cbnz	r5, .L216
 860              	.L218:
 861 002c 0323     		movs	r3, #3
 862 002e 1846     		mov	r0, r3
 863 0030 6377     		strb	r3, [r4, #29]
 864              	.L217:
 865 0032 70BD     		pop	{r4, r5, r6, pc}
 866              	.L216:
 867 0034 FFF7FEFF 		bl	HAL_GetTick
 868 0038 801B     		subs	r0, r0, r6
 869 003a A842     		cmp	r0, r5
 870 003c E6D9     		bls	.L214
 871 003e F5E7     		b	.L218
 873              		.section	.text.HAL_RTCEx_PollForTamper3Event,"ax",%progbits
 874              		.align	1
 875              		.global	HAL_RTCEx_PollForTamper3Event
 876              		.syntax unified
 877              		.thumb
 878              		.thumb_func
 879              		.fpu fpv5-sp-d16
 881              	HAL_RTCEx_PollForTamper3Event:
 882              		@ args = 0, pretend = 0, frame = 0
 883              		@ frame_needed = 0, uses_anonymous_args = 0
 884 0000 70B5     		push	{r4, r5, r6, lr}
 885 0002 0446     		mov	r4, r0
 886 0004 0D46     		mov	r5, r1
 887 0006 FFF7FEFF 		bl	HAL_GetTick
 888 000a 0646     		mov	r6, r0
 889              	.L223:
 890 000c 2268     		ldr	r2, [r4]
ARM GAS  /tmp/cc8R3SI0.s 			page 16


 891              	.L224:
 892 000e D368     		ldr	r3, [r2, #12]
 893 0010 1B04     		lsls	r3, r3, #16
 894 0012 0ED5     		bpl	.L228
 895 0014 D368     		ldr	r3, [r2, #12]
 896 0016 0020     		movs	r0, #0
 897 0018 DBB2     		uxtb	r3, r3
 898 001a 43F07F43 		orr	r3, r3, #-16777216
 899 001e 43F47F03 		orr	r3, r3, #16711680
 900 0022 43F4FE43 		orr	r3, r3, #32512
 901 0026 43F07F03 		orr	r3, r3, #127
 902 002a D360     		str	r3, [r2, #12]
 903 002c 0123     		movs	r3, #1
 904 002e 6377     		strb	r3, [r4, #29]
 905 0030 05E0     		b	.L226
 906              	.L228:
 907 0032 691C     		adds	r1, r5, #1
 908 0034 EBD0     		beq	.L224
 909 0036 1DB9     		cbnz	r5, .L225
 910              	.L227:
 911 0038 0323     		movs	r3, #3
 912 003a 1846     		mov	r0, r3
 913 003c 6377     		strb	r3, [r4, #29]
 914              	.L226:
 915 003e 70BD     		pop	{r4, r5, r6, pc}
 916              	.L225:
 917 0040 FFF7FEFF 		bl	HAL_GetTick
 918 0044 801B     		subs	r0, r0, r6
 919 0046 A842     		cmp	r0, r5
 920 0048 E0D9     		bls	.L223
 921 004a F5E7     		b	.L227
 923              		.section	.text.HAL_RTCEx_SetWakeUpTimer,"ax",%progbits
 924              		.align	1
 925              		.global	HAL_RTCEx_SetWakeUpTimer
 926              		.syntax unified
 927              		.thumb
 928              		.thumb_func
 929              		.fpu fpv5-sp-d16
 931              	HAL_RTCEx_SetWakeUpTimer:
 932              		@ args = 0, pretend = 0, frame = 0
 933              		@ frame_needed = 0, uses_anonymous_args = 0
 934 0000 2DE9F041 		push	{r4, r5, r6, r7, r8, lr}
 935 0004 037F     		ldrb	r3, [r0, #28]	@ zero_extendqisi2
 936 0006 0446     		mov	r4, r0
 937 0008 0D46     		mov	r5, r1
 938 000a 1646     		mov	r6, r2
 939 000c 012B     		cmp	r3, #1
 940 000e 4FF00200 		mov	r0, #2
 941 0012 43D0     		beq	.L232
 942 0014 0123     		movs	r3, #1
 943 0016 CA22     		movs	r2, #202
 944 0018 6077     		strb	r0, [r4, #29]
 945 001a 2377     		strb	r3, [r4, #28]
 946 001c 2368     		ldr	r3, [r4]
 947 001e 5A62     		str	r2, [r3, #36]
 948 0020 5322     		movs	r2, #83
 949 0022 5A62     		str	r2, [r3, #36]
ARM GAS  /tmp/cc8R3SI0.s 			page 17


 950 0024 9B68     		ldr	r3, [r3, #8]
 951 0026 5A05     		lsls	r2, r3, #21
 952 0028 24D4     		bmi	.L233
 953              	.L237:
 954 002a 2268     		ldr	r2, [r4]
 955 002c 9368     		ldr	r3, [r2, #8]
 956 002e 23F48063 		bic	r3, r3, #1024
 957 0032 9360     		str	r3, [r2, #8]
 958 0034 D368     		ldr	r3, [r2, #12]
 959 0036 DBB2     		uxtb	r3, r3
 960 0038 63F49063 		orn	r3, r3, #1152
 961 003c D360     		str	r3, [r2, #12]
 962 003e FFF7FEFF 		bl	HAL_GetTick
 963 0042 8046     		mov	r8, r0
 964              	.L234:
 965 0044 2368     		ldr	r3, [r4]
 966 0046 DF68     		ldr	r7, [r3, #12]
 967 0048 17F00407 		ands	r7, r7, #4
 968 004c 28D0     		beq	.L238
 969 004e 9A68     		ldr	r2, [r3, #8]
 970 0050 0020     		movs	r0, #0
 971 0052 22F00702 		bic	r2, r2, #7
 972 0056 9A60     		str	r2, [r3, #8]
 973 0058 9A68     		ldr	r2, [r3, #8]
 974 005a 1643     		orrs	r6, r6, r2
 975 005c 9E60     		str	r6, [r3, #8]
 976 005e 5D61     		str	r5, [r3, #20]
 977 0060 9A68     		ldr	r2, [r3, #8]
 978 0062 42F48062 		orr	r2, r2, #1024
 979 0066 9A60     		str	r2, [r3, #8]
 980 0068 FF22     		movs	r2, #255
 981 006a 5A62     		str	r2, [r3, #36]
 982 006c 0123     		movs	r3, #1
 983 006e 2077     		strb	r0, [r4, #28]
 984 0070 6377     		strb	r3, [r4, #29]
 985 0072 13E0     		b	.L232
 986              	.L233:
 987 0074 FFF7FEFF 		bl	HAL_GetTick
 988 0078 0746     		mov	r7, r0
 989              	.L235:
 990 007a 2368     		ldr	r3, [r4]
 991 007c DB68     		ldr	r3, [r3, #12]
 992 007e 5B07     		lsls	r3, r3, #29
 993 0080 D3D5     		bpl	.L237
 994 0082 FFF7FEFF 		bl	HAL_GetTick
 995 0086 C01B     		subs	r0, r0, r7
 996 0088 B0F57A7F 		cmp	r0, #1000
 997 008c F5D9     		bls	.L235
 998 008e 2368     		ldr	r3, [r4]
 999 0090 FF22     		movs	r2, #255
 1000 0092 0320     		movs	r0, #3
 1001 0094 5A62     		str	r2, [r3, #36]
 1002 0096 0023     		movs	r3, #0
 1003 0098 6077     		strb	r0, [r4, #29]
 1004 009a 2377     		strb	r3, [r4, #28]
 1005              	.L232:
 1006 009c BDE8F081 		pop	{r4, r5, r6, r7, r8, pc}
ARM GAS  /tmp/cc8R3SI0.s 			page 18


 1007              	.L238:
 1008 00a0 FFF7FEFF 		bl	HAL_GetTick
 1009 00a4 A0EB0800 		sub	r0, r0, r8
 1010 00a8 B0F57A7F 		cmp	r0, #1000
 1011 00ac CAD9     		bls	.L234
 1012 00ae 2368     		ldr	r3, [r4]
 1013 00b0 FF22     		movs	r2, #255
 1014 00b2 0320     		movs	r0, #3
 1015 00b4 5A62     		str	r2, [r3, #36]
 1016 00b6 6077     		strb	r0, [r4, #29]
 1017 00b8 2777     		strb	r7, [r4, #28]
 1018 00ba EFE7     		b	.L232
 1020              		.section	.text.HAL_RTCEx_SetWakeUpTimer_IT,"ax",%progbits
 1021              		.align	1
 1022              		.global	HAL_RTCEx_SetWakeUpTimer_IT
 1023              		.syntax unified
 1024              		.thumb
 1025              		.thumb_func
 1026              		.fpu fpv5-sp-d16
 1028              	HAL_RTCEx_SetWakeUpTimer_IT:
 1029              		@ args = 0, pretend = 0, frame = 8
 1030              		@ frame_needed = 0, uses_anonymous_args = 0
 1031 0000 314B     		ldr	r3, .L257
 1032 0002 73B5     		push	{r0, r1, r4, r5, r6, lr}
 1033 0004 1C68     		ldr	r4, [r3]
 1034 0006 4FF4FA43 		mov	r3, #32000
 1035 000a B4FBF3F4 		udiv	r4, r4, r3
 1036 000e 4FF47A73 		mov	r3, #1000
 1037 0012 5C43     		muls	r4, r3, r4
 1038 0014 037F     		ldrb	r3, [r0, #28]	@ zero_extendqisi2
 1039 0016 012B     		cmp	r3, #1
 1040 0018 0194     		str	r4, [sp, #4]
 1041 001a 4FF00203 		mov	r3, #2
 1042 001e 14D0     		beq	.L243
 1043 0020 0125     		movs	r5, #1
 1044 0022 4377     		strb	r3, [r0, #29]
 1045 0024 0368     		ldr	r3, [r0]
 1046 0026 0577     		strb	r5, [r0, #28]
 1047 0028 CA25     		movs	r5, #202
 1048 002a 5D62     		str	r5, [r3, #36]
 1049 002c 5325     		movs	r5, #83
 1050 002e 5D62     		str	r5, [r3, #36]
 1051 0030 9D68     		ldr	r5, [r3, #8]
 1052 0032 15F4806F 		tst	r5, #1024
 1053              	.L256:
 1054 0036 0FD0     		beq	.L244
 1055 0038 019D     		ldr	r5, [sp, #4]
 1056 003a 6E1E     		subs	r6, r5, #1
 1057 003c 0196     		str	r6, [sp, #4]
 1058 003e 3DB9     		cbnz	r5, .L245
 1059 0040 FF22     		movs	r2, #255
 1060 0042 5A62     		str	r2, [r3, #36]
 1061 0044 0323     		movs	r3, #3
 1062 0046 0577     		strb	r5, [r0, #28]
 1063 0048 4377     		strb	r3, [r0, #29]
 1064              	.L243:
 1065 004a 1846     		mov	r0, r3
ARM GAS  /tmp/cc8R3SI0.s 			page 19


 1066 004c 02B0     		add	sp, sp, #8
 1067              		@ sp needed
 1068 004e 70BD     		pop	{r4, r5, r6, pc}
 1069              	.L245:
 1070 0050 DD68     		ldr	r5, [r3, #12]
 1071 0052 15F0040F 		tst	r5, #4
 1072 0056 EEE7     		b	.L256
 1073              	.L244:
 1074 0058 9D68     		ldr	r5, [r3, #8]
 1075 005a 25F48065 		bic	r5, r5, #1024
 1076 005e 9D60     		str	r5, [r3, #8]
 1077 0060 DD68     		ldr	r5, [r3, #12]
 1078 0062 EDB2     		uxtb	r5, r5
 1079 0064 65F49065 		orn	r5, r5, #1152
 1080 0068 DD60     		str	r5, [r3, #12]
 1081 006a 0194     		str	r4, [sp, #4]
 1082              	.L248:
 1083 006c 019C     		ldr	r4, [sp, #4]
 1084 006e 651E     		subs	r5, r4, #1
 1085 0070 0195     		str	r5, [sp, #4]
 1086 0072 2CB9     		cbnz	r4, .L247
 1087 0074 FF22     		movs	r2, #255
 1088 0076 5A62     		str	r2, [r3, #36]
 1089 0078 0323     		movs	r3, #3
 1090 007a 0477     		strb	r4, [r0, #28]
 1091 007c 4377     		strb	r3, [r0, #29]
 1092 007e E4E7     		b	.L243
 1093              	.L247:
 1094 0080 DC68     		ldr	r4, [r3, #12]
 1095 0082 6407     		lsls	r4, r4, #29
 1096 0084 F2D5     		bpl	.L248
 1097 0086 9C68     		ldr	r4, [r3, #8]
 1098 0088 24F00704 		bic	r4, r4, #7
 1099 008c 9C60     		str	r4, [r3, #8]
 1100 008e 9C68     		ldr	r4, [r3, #8]
 1101 0090 2243     		orrs	r2, r2, r4
 1102 0092 9A60     		str	r2, [r3, #8]
 1103 0094 0D4A     		ldr	r2, .L257+4
 1104 0096 5961     		str	r1, [r3, #20]
 1105 0098 1168     		ldr	r1, [r2]
 1106 009a 41F48001 		orr	r1, r1, #4194304
 1107 009e 1160     		str	r1, [r2]
 1108 00a0 9168     		ldr	r1, [r2, #8]
 1109 00a2 41F48001 		orr	r1, r1, #4194304
 1110 00a6 9160     		str	r1, [r2, #8]
 1111 00a8 9A68     		ldr	r2, [r3, #8]
 1112 00aa 42F48042 		orr	r2, r2, #16384
 1113 00ae 9A60     		str	r2, [r3, #8]
 1114 00b0 9A68     		ldr	r2, [r3, #8]
 1115 00b2 42F48062 		orr	r2, r2, #1024
 1116 00b6 9A60     		str	r2, [r3, #8]
 1117 00b8 FF22     		movs	r2, #255
 1118 00ba 5A62     		str	r2, [r3, #36]
 1119 00bc 0123     		movs	r3, #1
 1120 00be 4377     		strb	r3, [r0, #29]
 1121 00c0 0023     		movs	r3, #0
 1122 00c2 0377     		strb	r3, [r0, #28]
ARM GAS  /tmp/cc8R3SI0.s 			page 20


 1123 00c4 C1E7     		b	.L243
 1124              	.L258:
 1125 00c6 00BF     		.align	2
 1126              	.L257:
 1127 00c8 00000000 		.word	SystemCoreClock
 1128 00cc 003C0140 		.word	1073822720
 1130              		.section	.text.HAL_RTCEx_DeactivateWakeUpTimer,"ax",%progbits
 1131              		.align	1
 1132              		.global	HAL_RTCEx_DeactivateWakeUpTimer
 1133              		.syntax unified
 1134              		.thumb
 1135              		.thumb_func
 1136              		.fpu fpv5-sp-d16
 1138              	HAL_RTCEx_DeactivateWakeUpTimer:
 1139              		@ args = 0, pretend = 0, frame = 0
 1140              		@ frame_needed = 0, uses_anonymous_args = 0
 1141 0000 70B5     		push	{r4, r5, r6, lr}
 1142 0002 037F     		ldrb	r3, [r0, #28]	@ zero_extendqisi2
 1143 0004 0446     		mov	r4, r0
 1144 0006 012B     		cmp	r3, #1
 1145 0008 4FF00203 		mov	r3, #2
 1146 000c 2AD0     		beq	.L260
 1147 000e 0122     		movs	r2, #1
 1148 0010 4377     		strb	r3, [r0, #29]
 1149 0012 0368     		ldr	r3, [r0]
 1150 0014 0277     		strb	r2, [r0, #28]
 1151 0016 CA22     		movs	r2, #202
 1152 0018 5A62     		str	r2, [r3, #36]
 1153 001a 5322     		movs	r2, #83
 1154 001c 5A62     		str	r2, [r3, #36]
 1155 001e 9A68     		ldr	r2, [r3, #8]
 1156 0020 22F48062 		bic	r2, r2, #1024
 1157 0024 9A60     		str	r2, [r3, #8]
 1158 0026 9A68     		ldr	r2, [r3, #8]
 1159 0028 22F48042 		bic	r2, r2, #16384
 1160 002c 9A60     		str	r2, [r3, #8]
 1161 002e FFF7FEFF 		bl	HAL_GetTick
 1162 0032 0646     		mov	r6, r0
 1163              	.L261:
 1164 0034 2268     		ldr	r2, [r4]
 1165 0036 D568     		ldr	r5, [r2, #12]
 1166 0038 15F00405 		ands	r5, r5, #4
 1167 003c 06D0     		beq	.L262
 1168 003e FF23     		movs	r3, #255
 1169 0040 5362     		str	r3, [r2, #36]
 1170 0042 0123     		movs	r3, #1
 1171 0044 6377     		strb	r3, [r4, #29]
 1172 0046 0023     		movs	r3, #0
 1173 0048 2377     		strb	r3, [r4, #28]
 1174 004a 0BE0     		b	.L260
 1175              	.L262:
 1176 004c FFF7FEFF 		bl	HAL_GetTick
 1177 0050 801B     		subs	r0, r0, r6
 1178 0052 B0F57A7F 		cmp	r0, #1000
 1179 0056 EDD9     		bls	.L261
 1180 0058 2368     		ldr	r3, [r4]
 1181 005a FF22     		movs	r2, #255
ARM GAS  /tmp/cc8R3SI0.s 			page 21


 1182 005c 5A62     		str	r2, [r3, #36]
 1183 005e 0323     		movs	r3, #3
 1184 0060 2577     		strb	r5, [r4, #28]
 1185 0062 6377     		strb	r3, [r4, #29]
 1186              	.L260:
 1187 0064 1846     		mov	r0, r3
 1188 0066 70BD     		pop	{r4, r5, r6, pc}
 1190              		.section	.text.HAL_RTCEx_GetWakeUpTimer,"ax",%progbits
 1191              		.align	1
 1192              		.global	HAL_RTCEx_GetWakeUpTimer
 1193              		.syntax unified
 1194              		.thumb
 1195              		.thumb_func
 1196              		.fpu fpv5-sp-d16
 1198              	HAL_RTCEx_GetWakeUpTimer:
 1199              		@ args = 0, pretend = 0, frame = 0
 1200              		@ frame_needed = 0, uses_anonymous_args = 0
 1201              		@ link register save eliminated.
 1202 0000 0368     		ldr	r3, [r0]
 1203 0002 5869     		ldr	r0, [r3, #20]
 1204 0004 80B2     		uxth	r0, r0
 1205 0006 7047     		bx	lr
 1207              		.section	.text.HAL_RTCEx_WakeUpTimerEventCallback,"ax",%progbits
 1208              		.align	1
 1209              		.weak	HAL_RTCEx_WakeUpTimerEventCallback
 1210              		.syntax unified
 1211              		.thumb
 1212              		.thumb_func
 1213              		.fpu fpv5-sp-d16
 1215              	HAL_RTCEx_WakeUpTimerEventCallback:
 1216              		@ args = 0, pretend = 0, frame = 0
 1217              		@ frame_needed = 0, uses_anonymous_args = 0
 1218              		@ link register save eliminated.
 1219 0000 7047     		bx	lr
 1221              		.section	.text.HAL_RTCEx_WakeUpTimerIRQHandler,"ax",%progbits
 1222              		.align	1
 1223              		.global	HAL_RTCEx_WakeUpTimerIRQHandler
 1224              		.syntax unified
 1225              		.thumb
 1226              		.thumb_func
 1227              		.fpu fpv5-sp-d16
 1229              	HAL_RTCEx_WakeUpTimerIRQHandler:
 1230              		@ args = 0, pretend = 0, frame = 0
 1231              		@ frame_needed = 0, uses_anonymous_args = 0
 1232 0000 094B     		ldr	r3, .L272
 1233 0002 4FF48002 		mov	r2, #4194304
 1234 0006 10B5     		push	{r4, lr}
 1235 0008 5A61     		str	r2, [r3, #20]
 1236 000a 0446     		mov	r4, r0
 1237 000c 0268     		ldr	r2, [r0]
 1238 000e D368     		ldr	r3, [r2, #12]
 1239 0010 5B05     		lsls	r3, r3, #21
 1240 0012 06D5     		bpl	.L268
 1241 0014 D368     		ldr	r3, [r2, #12]
 1242 0016 DBB2     		uxtb	r3, r3
 1243 0018 63F49063 		orn	r3, r3, #1152
 1244 001c D360     		str	r3, [r2, #12]
ARM GAS  /tmp/cc8R3SI0.s 			page 22


 1245 001e FFF7FEFF 		bl	HAL_RTCEx_WakeUpTimerEventCallback
 1246              	.L268:
 1247 0022 0123     		movs	r3, #1
 1248 0024 6377     		strb	r3, [r4, #29]
 1249 0026 10BD     		pop	{r4, pc}
 1250              	.L273:
 1251              		.align	2
 1252              	.L272:
 1253 0028 003C0140 		.word	1073822720
 1255              		.section	.text.HAL_RTCEx_PollForWakeUpTimerEvent,"ax",%progbits
 1256              		.align	1
 1257              		.global	HAL_RTCEx_PollForWakeUpTimerEvent
 1258              		.syntax unified
 1259              		.thumb
 1260              		.thumb_func
 1261              		.fpu fpv5-sp-d16
 1263              	HAL_RTCEx_PollForWakeUpTimerEvent:
 1264              		@ args = 0, pretend = 0, frame = 0
 1265              		@ frame_needed = 0, uses_anonymous_args = 0
 1266 0000 70B5     		push	{r4, r5, r6, lr}
 1267 0002 0446     		mov	r4, r0
 1268 0004 0D46     		mov	r5, r1
 1269 0006 FFF7FEFF 		bl	HAL_GetTick
 1270 000a 0646     		mov	r6, r0
 1271              	.L275:
 1272 000c 2268     		ldr	r2, [r4]
 1273              	.L276:
 1274 000e D368     		ldr	r3, [r2, #12]
 1275 0010 5B05     		lsls	r3, r3, #21
 1276 0012 08D5     		bpl	.L280
 1277 0014 D368     		ldr	r3, [r2, #12]
 1278 0016 0020     		movs	r0, #0
 1279 0018 DBB2     		uxtb	r3, r3
 1280 001a 63F49063 		orn	r3, r3, #1152
 1281 001e D360     		str	r3, [r2, #12]
 1282 0020 0123     		movs	r3, #1
 1283 0022 6377     		strb	r3, [r4, #29]
 1284 0024 05E0     		b	.L278
 1285              	.L280:
 1286 0026 691C     		adds	r1, r5, #1
 1287 0028 F1D0     		beq	.L276
 1288 002a 1DB9     		cbnz	r5, .L277
 1289              	.L279:
 1290 002c 0323     		movs	r3, #3
 1291 002e 1846     		mov	r0, r3
 1292 0030 6377     		strb	r3, [r4, #29]
 1293              	.L278:
 1294 0032 70BD     		pop	{r4, r5, r6, pc}
 1295              	.L277:
 1296 0034 FFF7FEFF 		bl	HAL_GetTick
 1297 0038 801B     		subs	r0, r0, r6
 1298 003a A842     		cmp	r0, r5
 1299 003c E6D9     		bls	.L275
 1300 003e F5E7     		b	.L279
 1302              		.section	.text.HAL_RTCEx_BKUPWrite,"ax",%progbits
 1303              		.align	1
 1304              		.global	HAL_RTCEx_BKUPWrite
ARM GAS  /tmp/cc8R3SI0.s 			page 23


 1305              		.syntax unified
 1306              		.thumb
 1307              		.thumb_func
 1308              		.fpu fpv5-sp-d16
 1310              	HAL_RTCEx_BKUPWrite:
 1311              		@ args = 0, pretend = 0, frame = 0
 1312              		@ frame_needed = 0, uses_anonymous_args = 0
 1313              		@ link register save eliminated.
 1314 0000 0368     		ldr	r3, [r0]
 1315 0002 5033     		adds	r3, r3, #80
 1316 0004 43F82120 		str	r2, [r3, r1, lsl #2]
 1317 0008 7047     		bx	lr
 1319              		.section	.text.HAL_RTCEx_BKUPRead,"ax",%progbits
 1320              		.align	1
 1321              		.global	HAL_RTCEx_BKUPRead
 1322              		.syntax unified
 1323              		.thumb
 1324              		.thumb_func
 1325              		.fpu fpv5-sp-d16
 1327              	HAL_RTCEx_BKUPRead:
 1328              		@ args = 0, pretend = 0, frame = 0
 1329              		@ frame_needed = 0, uses_anonymous_args = 0
 1330              		@ link register save eliminated.
 1331 0000 0368     		ldr	r3, [r0]
 1332 0002 5033     		adds	r3, r3, #80
 1333 0004 53F82100 		ldr	r0, [r3, r1, lsl #2]
 1334 0008 7047     		bx	lr
 1336              		.section	.text.HAL_RTCEx_SetSmoothCalib,"ax",%progbits
 1337              		.align	1
 1338              		.global	HAL_RTCEx_SetSmoothCalib
 1339              		.syntax unified
 1340              		.thumb
 1341              		.thumb_func
 1342              		.fpu fpv5-sp-d16
 1344              	HAL_RTCEx_SetSmoothCalib:
 1345              		@ args = 0, pretend = 0, frame = 0
 1346              		@ frame_needed = 0, uses_anonymous_args = 0
 1347 0000 2DE9F041 		push	{r4, r5, r6, r7, r8, lr}
 1348 0004 1D46     		mov	r5, r3
 1349 0006 037F     		ldrb	r3, [r0, #28]	@ zero_extendqisi2
 1350 0008 0446     		mov	r4, r0
 1351 000a 0E46     		mov	r6, r1
 1352 000c 012B     		cmp	r3, #1
 1353 000e 1746     		mov	r7, r2
 1354 0010 4FF00200 		mov	r0, #2
 1355 0014 14D0     		beq	.L286
 1356 0016 0123     		movs	r3, #1
 1357 0018 CA22     		movs	r2, #202
 1358 001a 6077     		strb	r0, [r4, #29]
 1359 001c 2377     		strb	r3, [r4, #28]
 1360 001e 2368     		ldr	r3, [r4]
 1361 0020 5A62     		str	r2, [r3, #36]
 1362 0022 5322     		movs	r2, #83
 1363 0024 5A62     		str	r2, [r3, #36]
 1364 0026 DB68     		ldr	r3, [r3, #12]
 1365 0028 DA03     		lsls	r2, r3, #15
 1366 002a 0BD4     		bmi	.L287
ARM GAS  /tmp/cc8R3SI0.s 			page 24


 1367              	.L290:
 1368 002c 3D43     		orrs	r5, r5, r7
 1369 002e 2368     		ldr	r3, [r4]
 1370 0030 FF22     		movs	r2, #255
 1371 0032 0020     		movs	r0, #0
 1372 0034 2E43     		orrs	r6, r6, r5
 1373 0036 DE63     		str	r6, [r3, #60]
 1374 0038 5A62     		str	r2, [r3, #36]
 1375 003a 0123     		movs	r3, #1
 1376 003c 2077     		strb	r0, [r4, #28]
 1377 003e 6377     		strb	r3, [r4, #29]
 1378              	.L286:
 1379 0040 BDE8F081 		pop	{r4, r5, r6, r7, r8, pc}
 1380              	.L287:
 1381 0044 FFF7FEFF 		bl	HAL_GetTick
 1382 0048 8046     		mov	r8, r0
 1383              	.L288:
 1384 004a 2368     		ldr	r3, [r4]
 1385 004c DB68     		ldr	r3, [r3, #12]
 1386 004e DB03     		lsls	r3, r3, #15
 1387 0050 ECD5     		bpl	.L290
 1388 0052 FFF7FEFF 		bl	HAL_GetTick
 1389 0056 A0EB0800 		sub	r0, r0, r8
 1390 005a B0F57A7F 		cmp	r0, #1000
 1391 005e F4D9     		bls	.L288
 1392 0060 2368     		ldr	r3, [r4]
 1393 0062 FF22     		movs	r2, #255
 1394 0064 0320     		movs	r0, #3
 1395 0066 5A62     		str	r2, [r3, #36]
 1396 0068 0023     		movs	r3, #0
 1397 006a 6077     		strb	r0, [r4, #29]
 1398 006c 2377     		strb	r3, [r4, #28]
 1399 006e E7E7     		b	.L286
 1401              		.section	.text.HAL_RTCEx_SetSynchroShift,"ax",%progbits
 1402              		.align	1
 1403              		.global	HAL_RTCEx_SetSynchroShift
 1404              		.syntax unified
 1405              		.thumb
 1406              		.thumb_func
 1407              		.fpu fpv5-sp-d16
 1409              	HAL_RTCEx_SetSynchroShift:
 1410              		@ args = 0, pretend = 0, frame = 0
 1411              		@ frame_needed = 0, uses_anonymous_args = 0
 1412 0000 F8B5     		push	{r3, r4, r5, r6, r7, lr}
 1413 0002 037F     		ldrb	r3, [r0, #28]	@ zero_extendqisi2
 1414 0004 0446     		mov	r4, r0
 1415 0006 0E46     		mov	r6, r1
 1416 0008 1546     		mov	r5, r2
 1417 000a 012B     		cmp	r3, #1
 1418 000c 4FF00200 		mov	r0, #2
 1419 0010 31D0     		beq	.L294
 1420 0012 0123     		movs	r3, #1
 1421 0014 CA22     		movs	r2, #202
 1422 0016 6077     		strb	r0, [r4, #29]
 1423 0018 2377     		strb	r3, [r4, #28]
 1424 001a 2368     		ldr	r3, [r4]
 1425 001c 5A62     		str	r2, [r3, #36]
ARM GAS  /tmp/cc8R3SI0.s 			page 25


 1426 001e 5322     		movs	r2, #83
 1427 0020 5A62     		str	r2, [r3, #36]
 1428 0022 FFF7FEFF 		bl	HAL_GetTick
 1429 0026 0746     		mov	r7, r0
 1430              	.L295:
 1431 0028 2368     		ldr	r3, [r4]
 1432 002a DA68     		ldr	r2, [r3, #12]
 1433 002c 12F00802 		ands	r2, r2, #8
 1434 0030 14D1     		bne	.L296
 1435 0032 9968     		ldr	r1, [r3, #8]
 1436 0034 C906     		lsls	r1, r1, #27
 1437 0036 1FD4     		bmi	.L297
 1438 0038 3543     		orrs	r5, r5, r6
 1439 003a DD62     		str	r5, [r3, #44]
 1440 003c 9D68     		ldr	r5, [r3, #8]
 1441 003e 15F02005 		ands	r5, r5, #32
 1442 0042 1FD1     		bne	.L298
 1443 0044 2046     		mov	r0, r4
 1444 0046 FFF7FEFF 		bl	HAL_RTC_WaitForSynchro
 1445 004a D8B1     		cbz	r0, .L298
 1446 004c 2368     		ldr	r3, [r4]
 1447 004e FF22     		movs	r2, #255
 1448 0050 5A62     		str	r2, [r3, #36]
 1449 0052 0423     		movs	r3, #4
 1450 0054 2577     		strb	r5, [r4, #28]
 1451 0056 6377     		strb	r3, [r4, #29]
 1452              	.L304:
 1453 0058 0120     		movs	r0, #1
 1454 005a 0CE0     		b	.L294
 1455              	.L296:
 1456 005c FFF7FEFF 		bl	HAL_GetTick
 1457 0060 C01B     		subs	r0, r0, r7
 1458 0062 B0F57A7F 		cmp	r0, #1000
 1459 0066 DFD9     		bls	.L295
 1460 0068 2368     		ldr	r3, [r4]
 1461 006a FF22     		movs	r2, #255
 1462 006c 0320     		movs	r0, #3
 1463 006e 5A62     		str	r2, [r3, #36]
 1464 0070 0023     		movs	r3, #0
 1465 0072 6077     		strb	r0, [r4, #29]
 1466 0074 2377     		strb	r3, [r4, #28]
 1467              	.L294:
 1468 0076 F8BD     		pop	{r3, r4, r5, r6, r7, pc}
 1469              	.L297:
 1470 0078 FF21     		movs	r1, #255
 1471 007a 5962     		str	r1, [r3, #36]
 1472 007c 0423     		movs	r3, #4
 1473 007e 2277     		strb	r2, [r4, #28]
 1474 0080 6377     		strb	r3, [r4, #29]
 1475 0082 E9E7     		b	.L304
 1476              	.L298:
 1477 0084 2368     		ldr	r3, [r4]
 1478 0086 FF22     		movs	r2, #255
 1479 0088 0020     		movs	r0, #0
 1480 008a 5A62     		str	r2, [r3, #36]
 1481 008c 0123     		movs	r3, #1
 1482 008e 2077     		strb	r0, [r4, #28]
ARM GAS  /tmp/cc8R3SI0.s 			page 26


 1483 0090 6377     		strb	r3, [r4, #29]
 1484 0092 F0E7     		b	.L294
 1486              		.section	.text.HAL_RTCEx_SetCalibrationOutPut,"ax",%progbits
 1487              		.align	1
 1488              		.global	HAL_RTCEx_SetCalibrationOutPut
 1489              		.syntax unified
 1490              		.thumb
 1491              		.thumb_func
 1492              		.fpu fpv5-sp-d16
 1494              	HAL_RTCEx_SetCalibrationOutPut:
 1495              		@ args = 0, pretend = 0, frame = 0
 1496              		@ frame_needed = 0, uses_anonymous_args = 0
 1497              		@ link register save eliminated.
 1498 0000 037F     		ldrb	r3, [r0, #28]	@ zero_extendqisi2
 1499 0002 012B     		cmp	r3, #1
 1500 0004 4FF00203 		mov	r3, #2
 1501 0008 16D0     		beq	.L307
 1502 000a 4377     		strb	r3, [r0, #29]
 1503 000c CA22     		movs	r2, #202
 1504 000e 0368     		ldr	r3, [r0]
 1505 0010 5A62     		str	r2, [r3, #36]
 1506 0012 5322     		movs	r2, #83
 1507 0014 5A62     		str	r2, [r3, #36]
 1508 0016 9A68     		ldr	r2, [r3, #8]
 1509 0018 22F40022 		bic	r2, r2, #524288
 1510 001c 9A60     		str	r2, [r3, #8]
 1511 001e 9A68     		ldr	r2, [r3, #8]
 1512 0020 1143     		orrs	r1, r1, r2
 1513 0022 9960     		str	r1, [r3, #8]
 1514 0024 9A68     		ldr	r2, [r3, #8]
 1515 0026 42F40002 		orr	r2, r2, #8388608
 1516 002a 9A60     		str	r2, [r3, #8]
 1517 002c FF22     		movs	r2, #255
 1518 002e 5A62     		str	r2, [r3, #36]
 1519 0030 0123     		movs	r3, #1
 1520 0032 4377     		strb	r3, [r0, #29]
 1521 0034 0023     		movs	r3, #0
 1522 0036 0377     		strb	r3, [r0, #28]
 1523              	.L307:
 1524 0038 1846     		mov	r0, r3
 1525 003a 7047     		bx	lr
 1527              		.section	.text.HAL_RTCEx_DeactivateCalibrationOutPut,"ax",%progbits
 1528              		.align	1
 1529              		.global	HAL_RTCEx_DeactivateCalibrationOutPut
 1530              		.syntax unified
 1531              		.thumb
 1532              		.thumb_func
 1533              		.fpu fpv5-sp-d16
 1535              	HAL_RTCEx_DeactivateCalibrationOutPut:
 1536              		@ args = 0, pretend = 0, frame = 0
 1537              		@ frame_needed = 0, uses_anonymous_args = 0
 1538              		@ link register save eliminated.
 1539 0000 037F     		ldrb	r3, [r0, #28]	@ zero_extendqisi2
 1540 0002 012B     		cmp	r3, #1
 1541 0004 4FF00203 		mov	r3, #2
 1542 0008 0FD0     		beq	.L310
 1543 000a 4377     		strb	r3, [r0, #29]
ARM GAS  /tmp/cc8R3SI0.s 			page 27


 1544 000c CA22     		movs	r2, #202
 1545 000e 0368     		ldr	r3, [r0]
 1546 0010 5A62     		str	r2, [r3, #36]
 1547 0012 5322     		movs	r2, #83
 1548 0014 5A62     		str	r2, [r3, #36]
 1549 0016 9A68     		ldr	r2, [r3, #8]
 1550 0018 22F40002 		bic	r2, r2, #8388608
 1551 001c 9A60     		str	r2, [r3, #8]
 1552 001e FF22     		movs	r2, #255
 1553 0020 5A62     		str	r2, [r3, #36]
 1554 0022 0123     		movs	r3, #1
 1555 0024 4377     		strb	r3, [r0, #29]
 1556 0026 0023     		movs	r3, #0
 1557 0028 0377     		strb	r3, [r0, #28]
 1558              	.L310:
 1559 002a 1846     		mov	r0, r3
 1560 002c 7047     		bx	lr
 1562              		.section	.text.HAL_RTCEx_SetRefClock,"ax",%progbits
 1563              		.align	1
 1564              		.global	HAL_RTCEx_SetRefClock
 1565              		.syntax unified
 1566              		.thumb
 1567              		.thumb_func
 1568              		.fpu fpv5-sp-d16
 1570              	HAL_RTCEx_SetRefClock:
 1571              		@ args = 0, pretend = 0, frame = 0
 1572              		@ frame_needed = 0, uses_anonymous_args = 0
 1573 0000 38B5     		push	{r3, r4, r5, lr}
 1574 0002 037F     		ldrb	r3, [r0, #28]	@ zero_extendqisi2
 1575 0004 0446     		mov	r4, r0
 1576 0006 012B     		cmp	r3, #1
 1577 0008 4FF00203 		mov	r3, #2
 1578 000c 1AD0     		beq	.L314
 1579 000e 4377     		strb	r3, [r0, #29]
 1580 0010 CA22     		movs	r2, #202
 1581 0012 0368     		ldr	r3, [r0]
 1582 0014 0125     		movs	r5, #1
 1583 0016 0577     		strb	r5, [r0, #28]
 1584 0018 5A62     		str	r2, [r3, #36]
 1585 001a 5322     		movs	r2, #83
 1586 001c 5A62     		str	r2, [r3, #36]
 1587 001e FFF7FEFF 		bl	RTC_EnterInitMode
 1588 0022 48B9     		cbnz	r0, .L313
 1589 0024 2268     		ldr	r2, [r4]
 1590 0026 2046     		mov	r0, r4
 1591 0028 9368     		ldr	r3, [r2, #8]
 1592 002a 43F01003 		orr	r3, r3, #16
 1593 002e 9360     		str	r3, [r2, #8]
 1594 0030 FFF7FEFF 		bl	RTC_ExitInitMode
 1595 0034 00B9     		cbnz	r0, .L313
 1596 0036 6577     		strb	r5, [r4, #29]
 1597              	.L313:
 1598 0038 2368     		ldr	r3, [r4]
 1599 003a FF22     		movs	r2, #255
 1600 003c 5A62     		str	r2, [r3, #36]
 1601 003e 0023     		movs	r3, #0
 1602 0040 2377     		strb	r3, [r4, #28]
ARM GAS  /tmp/cc8R3SI0.s 			page 28


 1603              	.L312:
 1604 0042 38BD     		pop	{r3, r4, r5, pc}
 1605              	.L314:
 1606 0044 1846     		mov	r0, r3
 1607 0046 FCE7     		b	.L312
 1609              		.section	.text.HAL_RTCEx_DeactivateRefClock,"ax",%progbits
 1610              		.align	1
 1611              		.global	HAL_RTCEx_DeactivateRefClock
 1612              		.syntax unified
 1613              		.thumb
 1614              		.thumb_func
 1615              		.fpu fpv5-sp-d16
 1617              	HAL_RTCEx_DeactivateRefClock:
 1618              		@ args = 0, pretend = 0, frame = 0
 1619              		@ frame_needed = 0, uses_anonymous_args = 0
 1620 0000 38B5     		push	{r3, r4, r5, lr}
 1621 0002 037F     		ldrb	r3, [r0, #28]	@ zero_extendqisi2
 1622 0004 0446     		mov	r4, r0
 1623 0006 012B     		cmp	r3, #1
 1624 0008 4FF00203 		mov	r3, #2
 1625 000c 1AD0     		beq	.L318
 1626 000e 4377     		strb	r3, [r0, #29]
 1627 0010 CA22     		movs	r2, #202
 1628 0012 0368     		ldr	r3, [r0]
 1629 0014 0125     		movs	r5, #1
 1630 0016 0577     		strb	r5, [r0, #28]
 1631 0018 5A62     		str	r2, [r3, #36]
 1632 001a 5322     		movs	r2, #83
 1633 001c 5A62     		str	r2, [r3, #36]
 1634 001e FFF7FEFF 		bl	RTC_EnterInitMode
 1635 0022 48B9     		cbnz	r0, .L317
 1636 0024 2268     		ldr	r2, [r4]
 1637 0026 2046     		mov	r0, r4
 1638 0028 9368     		ldr	r3, [r2, #8]
 1639 002a 23F01003 		bic	r3, r3, #16
 1640 002e 9360     		str	r3, [r2, #8]
 1641 0030 FFF7FEFF 		bl	RTC_ExitInitMode
 1642 0034 00B9     		cbnz	r0, .L317
 1643 0036 6577     		strb	r5, [r4, #29]
 1644              	.L317:
 1645 0038 2368     		ldr	r3, [r4]
 1646 003a FF22     		movs	r2, #255
 1647 003c 5A62     		str	r2, [r3, #36]
 1648 003e 0023     		movs	r3, #0
 1649 0040 2377     		strb	r3, [r4, #28]
 1650              	.L316:
 1651 0042 38BD     		pop	{r3, r4, r5, pc}
 1652              	.L318:
 1653 0044 1846     		mov	r0, r3
 1654 0046 FCE7     		b	.L316
 1656              		.section	.text.HAL_RTCEx_EnableBypassShadow,"ax",%progbits
 1657              		.align	1
 1658              		.global	HAL_RTCEx_EnableBypassShadow
 1659              		.syntax unified
 1660              		.thumb
 1661              		.thumb_func
 1662              		.fpu fpv5-sp-d16
ARM GAS  /tmp/cc8R3SI0.s 			page 29


 1664              	HAL_RTCEx_EnableBypassShadow:
 1665              		@ args = 0, pretend = 0, frame = 0
 1666              		@ frame_needed = 0, uses_anonymous_args = 0
 1667              		@ link register save eliminated.
 1668 0000 037F     		ldrb	r3, [r0, #28]	@ zero_extendqisi2
 1669 0002 012B     		cmp	r3, #1
 1670 0004 4FF00203 		mov	r3, #2
 1671 0008 0FD0     		beq	.L321
 1672 000a 4377     		strb	r3, [r0, #29]
 1673 000c CA22     		movs	r2, #202
 1674 000e 0368     		ldr	r3, [r0]
 1675 0010 5A62     		str	r2, [r3, #36]
 1676 0012 5322     		movs	r2, #83
 1677 0014 5A62     		str	r2, [r3, #36]
 1678 0016 9A68     		ldr	r2, [r3, #8]
 1679 0018 42F02002 		orr	r2, r2, #32
 1680 001c 9A60     		str	r2, [r3, #8]
 1681 001e FF22     		movs	r2, #255
 1682 0020 5A62     		str	r2, [r3, #36]
 1683 0022 0123     		movs	r3, #1
 1684 0024 4377     		strb	r3, [r0, #29]
 1685 0026 0023     		movs	r3, #0
 1686 0028 0377     		strb	r3, [r0, #28]
 1687              	.L321:
 1688 002a 1846     		mov	r0, r3
 1689 002c 7047     		bx	lr
 1691              		.section	.text.HAL_RTCEx_DisableBypassShadow,"ax",%progbits
 1692              		.align	1
 1693              		.global	HAL_RTCEx_DisableBypassShadow
 1694              		.syntax unified
 1695              		.thumb
 1696              		.thumb_func
 1697              		.fpu fpv5-sp-d16
 1699              	HAL_RTCEx_DisableBypassShadow:
 1700              		@ args = 0, pretend = 0, frame = 0
 1701              		@ frame_needed = 0, uses_anonymous_args = 0
 1702              		@ link register save eliminated.
 1703 0000 037F     		ldrb	r3, [r0, #28]	@ zero_extendqisi2
 1704 0002 012B     		cmp	r3, #1
 1705 0004 4FF00203 		mov	r3, #2
 1706 0008 0FD0     		beq	.L324
 1707 000a 4377     		strb	r3, [r0, #29]
 1708 000c CA22     		movs	r2, #202
 1709 000e 0368     		ldr	r3, [r0]
 1710 0010 5A62     		str	r2, [r3, #36]
 1711 0012 5322     		movs	r2, #83
 1712 0014 5A62     		str	r2, [r3, #36]
 1713 0016 9A68     		ldr	r2, [r3, #8]
 1714 0018 02F0DF02 		and	r2, r2, #223
 1715 001c 9A60     		str	r2, [r3, #8]
 1716 001e FF22     		movs	r2, #255
 1717 0020 5A62     		str	r2, [r3, #36]
 1718 0022 0123     		movs	r3, #1
 1719 0024 4377     		strb	r3, [r0, #29]
 1720 0026 0023     		movs	r3, #0
 1721 0028 0377     		strb	r3, [r0, #28]
 1722              	.L324:
ARM GAS  /tmp/cc8R3SI0.s 			page 30


 1723 002a 1846     		mov	r0, r3
 1724 002c 7047     		bx	lr
 1726              		.section	.text.HAL_RTCEx_AlarmBEventCallback,"ax",%progbits
 1727              		.align	1
 1728              		.weak	HAL_RTCEx_AlarmBEventCallback
 1729              		.syntax unified
 1730              		.thumb
 1731              		.thumb_func
 1732              		.fpu fpv5-sp-d16
 1734              	HAL_RTCEx_AlarmBEventCallback:
 1735              		@ args = 0, pretend = 0, frame = 0
 1736              		@ frame_needed = 0, uses_anonymous_args = 0
 1737              		@ link register save eliminated.
 1738 0000 7047     		bx	lr
 1740              		.section	.text.HAL_RTCEx_PollForAlarmBEvent,"ax",%progbits
 1741              		.align	1
 1742              		.global	HAL_RTCEx_PollForAlarmBEvent
 1743              		.syntax unified
 1744              		.thumb
 1745              		.thumb_func
 1746              		.fpu fpv5-sp-d16
 1748              	HAL_RTCEx_PollForAlarmBEvent:
 1749              		@ args = 0, pretend = 0, frame = 0
 1750              		@ frame_needed = 0, uses_anonymous_args = 0
 1751 0000 70B5     		push	{r4, r5, r6, lr}
 1752 0002 0446     		mov	r4, r0
 1753 0004 0D46     		mov	r5, r1
 1754 0006 FFF7FEFF 		bl	HAL_GetTick
 1755 000a 0646     		mov	r6, r0
 1756              	.L327:
 1757 000c 2268     		ldr	r2, [r4]
 1758              	.L328:
 1759 000e D368     		ldr	r3, [r2, #12]
 1760 0010 9B05     		lsls	r3, r3, #22
 1761 0012 08D5     		bpl	.L332
 1762 0014 D368     		ldr	r3, [r2, #12]
 1763 0016 0020     		movs	r0, #0
 1764 0018 DBB2     		uxtb	r3, r3
 1765 001a 63F42073 		orn	r3, r3, #640
 1766 001e D360     		str	r3, [r2, #12]
 1767 0020 0123     		movs	r3, #1
 1768 0022 6377     		strb	r3, [r4, #29]
 1769 0024 05E0     		b	.L330
 1770              	.L332:
 1771 0026 691C     		adds	r1, r5, #1
 1772 0028 F1D0     		beq	.L328
 1773 002a 1DB9     		cbnz	r5, .L329
 1774              	.L331:
 1775 002c 0323     		movs	r3, #3
 1776 002e 1846     		mov	r0, r3
 1777 0030 6377     		strb	r3, [r4, #29]
 1778              	.L330:
 1779 0032 70BD     		pop	{r4, r5, r6, pc}
 1780              	.L329:
 1781 0034 FFF7FEFF 		bl	HAL_GetTick
 1782 0038 801B     		subs	r0, r0, r6
 1783 003a A842     		cmp	r0, r5
ARM GAS  /tmp/cc8R3SI0.s 			page 31


 1784 003c E6D9     		bls	.L327
 1785 003e F5E7     		b	.L331
 1787              		.ident	"GCC: (15:10.3-2021.07-4) 10.3.1 20210621 (release)"
ARM GAS  /tmp/cc8R3SI0.s 			page 32

