ARM GAS  /tmp/ccH9chTB.s 			page 1


   1              		.cpu cortex-m7
   2              		.eabi_attribute 27, 1
   3              		.eabi_attribute 20, 1
   4              		.eabi_attribute 21, 1
   5              		.eabi_attribute 23, 3
   6              		.eabi_attribute 24, 1
   7              		.eabi_attribute 25, 1
   8              		.eabi_attribute 26, 1
   9              		.eabi_attribute 30, 4
  10              		.eabi_attribute 34, 1
  11              		.eabi_attribute 18, 4
  12              		.file	"usart.c"
  13              		.text
  14              		.section	.text.MX_USART2_UART_Init,"ax",%progbits
  15              		.align	1
  16              		.global	MX_USART2_UART_Init
  17              		.arch armv7e-m
  18              		.syntax unified
  19              		.thumb
  20              		.thumb_func
  21              		.fpu fpv5-sp-d16
  23              	MX_USART2_UART_Init:
  24              		@ args = 0, pretend = 0, frame = 0
  25              		@ frame_needed = 0, uses_anonymous_args = 0
  26 0000 08B5     		push	{r3, lr}
  27 0002 0E48     		ldr	r0, .L3
  28 0004 4FF4E133 		mov	r3, #115200
  29 0008 0D4A     		ldr	r2, .L3+4
  30 000a C0E90023 		strd	r2, r3, [r0]
  31 000e 0023     		movs	r3, #0
  32 0010 0C22     		movs	r2, #12
  33 0012 C0E90233 		strd	r3, r3, [r0, #8]
  34 0016 0361     		str	r3, [r0, #16]
  35 0018 C0E90523 		strd	r2, r3, [r0, #20]
  36 001c C0E90733 		strd	r3, r3, [r0, #28]
  37 0020 0823     		movs	r3, #8
  38 0022 4362     		str	r3, [r0, #36]
  39 0024 4FF40043 		mov	r3, #32768
  40 0028 4363     		str	r3, [r0, #52]
  41 002a FFF7FEFF 		bl	HAL_UART_Init
  42 002e 18B1     		cbz	r0, .L1
  43 0030 BDE80840 		pop	{r3, lr}
  44 0034 FFF7FEBF 		b	Error_Handler
  45              	.L1:
  46 0038 08BD     		pop	{r3, pc}
  47              	.L4:
  48 003a 00BF     		.align	2
  49              	.L3:
  50 003c 00000000 		.word	.LANCHOR0
  51 0040 00440040 		.word	1073759232
  53              		.section	.text.HAL_UART_MspInit,"ax",%progbits
  54              		.align	1
  55              		.global	HAL_UART_MspInit
  56              		.syntax unified
  57              		.thumb
  58              		.thumb_func
  59              		.fpu fpv5-sp-d16
ARM GAS  /tmp/ccH9chTB.s 			page 2


  61              	HAL_UART_MspInit:
  62              		@ args = 0, pretend = 0, frame = 160
  63              		@ frame_needed = 0, uses_anonymous_args = 0
  64 0000 70B5     		push	{r4, r5, r6, lr}
  65 0002 A8B0     		sub	sp, sp, #160
  66 0004 8024     		movs	r4, #128
  67 0006 0546     		mov	r5, r0
  68 0008 1422     		movs	r2, #20
  69 000a 0021     		movs	r1, #0
  70 000c 03A8     		add	r0, sp, #12
  71 000e FFF7FEFF 		bl	memset
  72 0012 2246     		mov	r2, r4
  73 0014 0021     		movs	r1, #0
  74 0016 08A8     		add	r0, sp, #32
  75 0018 FFF7FEFF 		bl	memset
  76 001c 2A68     		ldr	r2, [r5]
  77 001e 344B     		ldr	r3, .L19
  78 0020 9A42     		cmp	r2, r3
  79 0022 63D1     		bne	.L5
  80 0024 08A8     		add	r0, sp, #32
  81 0026 0894     		str	r4, [sp, #32]
  82 0028 FFF7FEFF 		bl	HAL_RCCEx_PeriphCLKConfig
  83 002c 08B1     		cbz	r0, .L7
  84 002e FFF7FEFF 		bl	Error_Handler
  85              	.L7:
  86 0032 304B     		ldr	r3, .L19+4
  87 0034 0C21     		movs	r1, #12
  88 0036 0026     		movs	r6, #0
  89 0038 2F48     		ldr	r0, .L19+8
  90 003a 1A6C     		ldr	r2, [r3, #64]
  91 003c 2F4C     		ldr	r4, .L19+12
  92 003e 42F40032 		orr	r2, r2, #131072
  93 0042 1A64     		str	r2, [r3, #64]
  94 0044 1A6C     		ldr	r2, [r3, #64]
  95 0046 02F40032 		and	r2, r2, #131072
  96 004a 0192     		str	r2, [sp, #4]
  97 004c 019A     		ldr	r2, [sp, #4]
  98 004e 1A6B     		ldr	r2, [r3, #48]
  99 0050 42F00102 		orr	r2, r2, #1
 100 0054 1A63     		str	r2, [r3, #48]
 101 0056 1B6B     		ldr	r3, [r3, #48]
 102 0058 03F00103 		and	r3, r3, #1
 103 005c 0293     		str	r3, [sp, #8]
 104 005e 029B     		ldr	r3, [sp, #8]
 105 0060 0223     		movs	r3, #2
 106 0062 CDE90313 		strd	r1, r3, [sp, #12]
 107 0066 0323     		movs	r3, #3
 108 0068 03A9     		add	r1, sp, #12
 109 006a CDE90563 		strd	r6, r3, [sp, #20]
 110 006e 0723     		movs	r3, #7
 111 0070 0793     		str	r3, [sp, #28]
 112 0072 FFF7FEFF 		bl	HAL_GPIO_Init
 113 0076 2248     		ldr	r0, .L19+16
 114 0078 4FF00063 		mov	r3, #134217728
 115 007c C4E90003 		strd	r0, r3, [r4]
 116 0080 4023     		movs	r3, #64
 117 0082 2046     		mov	r0, r4
ARM GAS  /tmp/ccH9chTB.s 			page 3


 118 0084 C4E90236 		strd	r3, r6, [r4, #8]
 119 0088 4FF48063 		mov	r3, #1024
 120 008c C4E90666 		strd	r6, r6, [r4, #24]
 121 0090 C4E90436 		strd	r3, r6, [r4, #16]
 122 0094 C4E90866 		strd	r6, r6, [r4, #32]
 123 0098 FFF7FEFF 		bl	HAL_DMA_Init
 124 009c 08B1     		cbz	r0, .L8
 125 009e FFF7FEFF 		bl	Error_Handler
 126              	.L8:
 127 00a2 184A     		ldr	r2, .L19+20
 128 00a4 4FF00063 		mov	r3, #134217728
 129 00a8 2C67     		str	r4, [r5, #112]
 130 00aa A563     		str	r5, [r4, #56]
 131 00ac 164C     		ldr	r4, .L19+24
 132 00ae C4E90023 		strd	r2, r3, [r4]
 133 00b2 0023     		movs	r3, #0
 134 00b4 4FF48062 		mov	r2, #1024
 135 00b8 2046     		mov	r0, r4
 136 00ba C4E90423 		strd	r2, r3, [r4, #16]
 137 00be 4FF48032 		mov	r2, #65536
 138 00c2 C4E90233 		strd	r3, r3, [r4, #8]
 139 00c6 C4E90633 		strd	r3, r3, [r4, #24]
 140 00ca C4E90823 		strd	r2, r3, [r4, #32]
 141 00ce FFF7FEFF 		bl	HAL_DMA_Init
 142 00d2 08B1     		cbz	r0, .L9
 143 00d4 FFF7FEFF 		bl	Error_Handler
 144              	.L9:
 145 00d8 0022     		movs	r2, #0
 146 00da 2620     		movs	r0, #38
 147 00dc 6C67     		str	r4, [r5, #116]
 148 00de 1146     		mov	r1, r2
 149 00e0 A563     		str	r5, [r4, #56]
 150 00e2 FFF7FEFF 		bl	HAL_NVIC_SetPriority
 151 00e6 2620     		movs	r0, #38
 152 00e8 FFF7FEFF 		bl	HAL_NVIC_EnableIRQ
 153              	.L5:
 154 00ec 28B0     		add	sp, sp, #160
 155              		@ sp needed
 156 00ee 70BD     		pop	{r4, r5, r6, pc}
 157              	.L20:
 158              		.align	2
 159              	.L19:
 160 00f0 00440040 		.word	1073759232
 161 00f4 00380240 		.word	1073887232
 162 00f8 00000240 		.word	1073872896
 163 00fc 00000000 		.word	.LANCHOR1
 164 0100 A0600240 		.word	1073897632
 165 0104 88600240 		.word	1073897608
 166 0108 00000000 		.word	.LANCHOR2
 168              		.section	.text.HAL_UART_MspDeInit,"ax",%progbits
 169              		.align	1
 170              		.global	HAL_UART_MspDeInit
 171              		.syntax unified
 172              		.thumb
 173              		.thumb_func
 174              		.fpu fpv5-sp-d16
 176              	HAL_UART_MspDeInit:
ARM GAS  /tmp/ccH9chTB.s 			page 4


 177              		@ args = 0, pretend = 0, frame = 0
 178              		@ frame_needed = 0, uses_anonymous_args = 0
 179 0000 0268     		ldr	r2, [r0]
 180 0002 0D4B     		ldr	r3, .L23
 181 0004 9A42     		cmp	r2, r3
 182 0006 10B5     		push	{r4, lr}
 183 0008 0446     		mov	r4, r0
 184 000a 13D1     		bne	.L21
 185 000c 0B4A     		ldr	r2, .L23+4
 186 000e 0C21     		movs	r1, #12
 187 0010 0B48     		ldr	r0, .L23+8
 188 0012 136C     		ldr	r3, [r2, #64]
 189 0014 23F40033 		bic	r3, r3, #131072
 190 0018 1364     		str	r3, [r2, #64]
 191 001a FFF7FEFF 		bl	HAL_GPIO_DeInit
 192 001e 206F     		ldr	r0, [r4, #112]
 193 0020 FFF7FEFF 		bl	HAL_DMA_DeInit
 194 0024 606F     		ldr	r0, [r4, #116]
 195 0026 FFF7FEFF 		bl	HAL_DMA_DeInit
 196 002a 2620     		movs	r0, #38
 197 002c BDE81040 		pop	{r4, lr}
 198 0030 FFF7FEBF 		b	HAL_NVIC_DisableIRQ
 199              	.L21:
 200 0034 10BD     		pop	{r4, pc}
 201              	.L24:
 202 0036 00BF     		.align	2
 203              	.L23:
 204 0038 00440040 		.word	1073759232
 205 003c 00380240 		.word	1073887232
 206 0040 00000240 		.word	1073872896
 208              		.global	hdma_usart2_rx
 209              		.global	hdma_usart2_tx
 210              		.global	huart2
 211              		.section	.bss.hdma_usart2_rx,"aw",%nobits
 212              		.align	2
 213              		.set	.LANCHOR2,. + 0
 216              	hdma_usart2_rx:
 217 0000 00000000 		.space	96
 217      00000000 
 217      00000000 
 217      00000000 
 217      00000000 
 218              		.section	.bss.hdma_usart2_tx,"aw",%nobits
 219              		.align	2
 220              		.set	.LANCHOR1,. + 0
 223              	hdma_usart2_tx:
 224 0000 00000000 		.space	96
 224      00000000 
 224      00000000 
 224      00000000 
 224      00000000 
 225              		.section	.bss.huart2,"aw",%nobits
 226              		.align	2
 227              		.set	.LANCHOR0,. + 0
 230              	huart2:
 231 0000 00000000 		.space	136
 231      00000000 
ARM GAS  /tmp/ccH9chTB.s 			page 5


 231      00000000 
 231      00000000 
 231      00000000 
 232              		.ident	"GCC: (15:10.3-2021.07-4) 10.3.1 20210621 (release)"
ARM GAS  /tmp/ccH9chTB.s 			page 6

