ARM GAS  /tmp/ccFMiBNO.s 			page 1


   1              		.cpu cortex-m7
   2              		.eabi_attribute 27, 1
   3              		.eabi_attribute 20, 1
   4              		.eabi_attribute 21, 1
   5              		.eabi_attribute 23, 3
   6              		.eabi_attribute 24, 1
   7              		.eabi_attribute 25, 1
   8              		.eabi_attribute 26, 1
   9              		.eabi_attribute 30, 4
  10              		.eabi_attribute 34, 1
  11              		.eabi_attribute 18, 4
  12              		.file	"usart.c"
  13              		.text
  14              		.section	.text.MX_USART2_UART_Init,"ax",%progbits
  15              		.align	1
  16              		.global	MX_USART2_UART_Init
  17              		.arch armv7e-m
  18              		.syntax unified
  19              		.thumb
  20              		.thumb_func
  21              		.fpu fpv5-sp-d16
  23              	MX_USART2_UART_Init:
  24              		@ args = 0, pretend = 0, frame = 0
  25              		@ frame_needed = 0, uses_anonymous_args = 0
  26 0000 08B5     		push	{r3, lr}
  27 0002 0E48     		ldr	r0, .L3
  28 0004 4FF4E133 		mov	r3, #115200
  29 0008 0D4A     		ldr	r2, .L3+4
  30 000a C0E90023 		strd	r2, r3, [r0]
  31 000e 0023     		movs	r3, #0
  32 0010 0C22     		movs	r2, #12
  33 0012 C0E90233 		strd	r3, r3, [r0, #8]
  34 0016 0361     		str	r3, [r0, #16]
  35 0018 C0E90523 		strd	r2, r3, [r0, #20]
  36 001c C0E90733 		strd	r3, r3, [r0, #28]
  37 0020 0823     		movs	r3, #8
  38 0022 4362     		str	r3, [r0, #36]
  39 0024 4FF40043 		mov	r3, #32768
  40 0028 4363     		str	r3, [r0, #52]
  41 002a FFF7FEFF 		bl	HAL_UART_Init
  42 002e 18B1     		cbz	r0, .L1
  43 0030 BDE80840 		pop	{r3, lr}
  44 0034 FFF7FEBF 		b	Error_Handler
  45              	.L1:
  46 0038 08BD     		pop	{r3, pc}
  47              	.L4:
  48 003a 00BF     		.align	2
  49              	.L3:
  50 003c 00000000 		.word	huart2
  51 0040 00440040 		.word	1073759232
  53              		.section	.text.HAL_UART_MspInit,"ax",%progbits
  54              		.align	1
  55              		.global	HAL_UART_MspInit
  56              		.syntax unified
  57              		.thumb
  58              		.thumb_func
  59              		.fpu fpv5-sp-d16
ARM GAS  /tmp/ccFMiBNO.s 			page 2


  61              	HAL_UART_MspInit:
  62              		@ args = 0, pretend = 0, frame = 32
  63              		@ frame_needed = 0, uses_anonymous_args = 0
  64 0000 30B5     		push	{r4, r5, lr}
  65 0002 89B0     		sub	sp, sp, #36
  66 0004 0546     		mov	r5, r0
  67 0006 1422     		movs	r2, #20
  68 0008 0021     		movs	r1, #0
  69 000a 03A8     		add	r0, sp, #12
  70 000c FFF7FEFF 		bl	memset
  71 0010 2A68     		ldr	r2, [r5]
  72 0012 324B     		ldr	r3, .L15
  73 0014 9A42     		cmp	r2, r3
  74 0016 5ED1     		bne	.L5
  75 0018 03F5FA33 		add	r3, r3, #128000
  76 001c 0C21     		movs	r1, #12
  77 001e 0320     		movs	r0, #3
  78 0020 2F4C     		ldr	r4, .L15+4
  79 0022 1A6C     		ldr	r2, [r3, #64]
  80 0024 42F40032 		orr	r2, r2, #131072
  81 0028 1A64     		str	r2, [r3, #64]
  82 002a 1A6C     		ldr	r2, [r3, #64]
  83 002c 02F40032 		and	r2, r2, #131072
  84 0030 0192     		str	r2, [sp, #4]
  85 0032 019A     		ldr	r2, [sp, #4]
  86 0034 1A6B     		ldr	r2, [r3, #48]
  87 0036 42F00102 		orr	r2, r2, #1
  88 003a 1A63     		str	r2, [r3, #48]
  89 003c 1B6B     		ldr	r3, [r3, #48]
  90 003e 03F00103 		and	r3, r3, #1
  91 0042 0293     		str	r3, [sp, #8]
  92 0044 029B     		ldr	r3, [sp, #8]
  93 0046 0223     		movs	r3, #2
  94 0048 CDE90313 		strd	r1, r3, [sp, #12]
  95 004c 0723     		movs	r3, #7
  96 004e 03A9     		add	r1, sp, #12
  97 0050 CDE90603 		strd	r0, r3, [sp, #24]
  98 0054 2348     		ldr	r0, .L15+8
  99 0056 FFF7FEFF 		bl	HAL_GPIO_Init
 100 005a 4FF00063 		mov	r3, #134217728
 101 005e DFF890C0 		ldr	ip, .L15+20
 102 0062 4FF0400E 		mov	lr, #64
 103 0066 4FF48062 		mov	r2, #1024
 104 006a 2046     		mov	r0, r4
 105 006c C4E900C3 		strd	ip, r3, [r4]
 106 0070 0023     		movs	r3, #0
 107 0072 C4E902E3 		strd	lr, r3, [r4, #8]
 108 0076 C4E90423 		strd	r2, r3, [r4, #16]
 109 007a C4E90633 		strd	r3, r3, [r4, #24]
 110 007e C4E90833 		strd	r3, r3, [r4, #32]
 111 0082 FFF7FEFF 		bl	HAL_DMA_Init
 112 0086 08B1     		cbz	r0, .L7
 113 0088 FFF7FEFF 		bl	Error_Handler
 114              	.L7:
 115 008c 164A     		ldr	r2, .L15+12
 116 008e 4FF00063 		mov	r3, #134217728
 117 0092 AC66     		str	r4, [r5, #104]
ARM GAS  /tmp/ccFMiBNO.s 			page 3


 118 0094 A563     		str	r5, [r4, #56]
 119 0096 154C     		ldr	r4, .L15+16
 120 0098 C4E90023 		strd	r2, r3, [r4]
 121 009c 0023     		movs	r3, #0
 122 009e 4FF48062 		mov	r2, #1024
 123 00a2 2046     		mov	r0, r4
 124 00a4 C4E90423 		strd	r2, r3, [r4, #16]
 125 00a8 4FF48032 		mov	r2, #65536
 126 00ac C4E90233 		strd	r3, r3, [r4, #8]
 127 00b0 C4E90633 		strd	r3, r3, [r4, #24]
 128 00b4 C4E90823 		strd	r2, r3, [r4, #32]
 129 00b8 FFF7FEFF 		bl	HAL_DMA_Init
 130 00bc 08B1     		cbz	r0, .L8
 131 00be FFF7FEFF 		bl	Error_Handler
 132              	.L8:
 133 00c2 0022     		movs	r2, #0
 134 00c4 2620     		movs	r0, #38
 135 00c6 EC66     		str	r4, [r5, #108]
 136 00c8 1146     		mov	r1, r2
 137 00ca A563     		str	r5, [r4, #56]
 138 00cc FFF7FEFF 		bl	HAL_NVIC_SetPriority
 139 00d0 2620     		movs	r0, #38
 140 00d2 FFF7FEFF 		bl	HAL_NVIC_EnableIRQ
 141              	.L5:
 142 00d6 09B0     		add	sp, sp, #36
 143              		@ sp needed
 144 00d8 30BD     		pop	{r4, r5, pc}
 145              	.L16:
 146 00da 00BF     		.align	2
 147              	.L15:
 148 00dc 00440040 		.word	1073759232
 149 00e0 00000000 		.word	hdma_usart2_tx
 150 00e4 00000240 		.word	1073872896
 151 00e8 88600240 		.word	1073897608
 152 00ec 00000000 		.word	hdma_usart2_rx
 153 00f0 A0600240 		.word	1073897632
 155              		.section	.text.HAL_UART_MspDeInit,"ax",%progbits
 156              		.align	1
 157              		.global	HAL_UART_MspDeInit
 158              		.syntax unified
 159              		.thumb
 160              		.thumb_func
 161              		.fpu fpv5-sp-d16
 163              	HAL_UART_MspDeInit:
 164              		@ args = 0, pretend = 0, frame = 0
 165              		@ frame_needed = 0, uses_anonymous_args = 0
 166 0000 0268     		ldr	r2, [r0]
 167 0002 0D4B     		ldr	r3, .L19
 168 0004 9A42     		cmp	r2, r3
 169 0006 10B5     		push	{r4, lr}
 170 0008 0446     		mov	r4, r0
 171 000a 13D1     		bne	.L17
 172 000c 0B4A     		ldr	r2, .L19+4
 173 000e 0C21     		movs	r1, #12
 174 0010 0B48     		ldr	r0, .L19+8
 175 0012 136C     		ldr	r3, [r2, #64]
 176 0014 23F40033 		bic	r3, r3, #131072
ARM GAS  /tmp/ccFMiBNO.s 			page 4


 177 0018 1364     		str	r3, [r2, #64]
 178 001a FFF7FEFF 		bl	HAL_GPIO_DeInit
 179 001e A06E     		ldr	r0, [r4, #104]
 180 0020 FFF7FEFF 		bl	HAL_DMA_DeInit
 181 0024 E06E     		ldr	r0, [r4, #108]
 182 0026 FFF7FEFF 		bl	HAL_DMA_DeInit
 183 002a 2620     		movs	r0, #38
 184 002c BDE81040 		pop	{r4, lr}
 185 0030 FFF7FEBF 		b	HAL_NVIC_DisableIRQ
 186              	.L17:
 187 0034 10BD     		pop	{r4, pc}
 188              	.L20:
 189 0036 00BF     		.align	2
 190              	.L19:
 191 0038 00440040 		.word	1073759232
 192 003c 00380240 		.word	1073887232
 193 0040 00000240 		.word	1073872896
 195              		.comm	hdma_usart2_rx,96,4
 196              		.comm	hdma_usart2_tx,96,4
 197              		.comm	huart2,128,4
 198              		.comm	odom,1,1
 199              		.ident	"GCC: (GNU Tools for Arm Embedded Processors 8-2018-q4-major) 8.2.1 20181213 (release) [gcc
ARM GAS  /tmp/ccFMiBNO.s 			page 5


DEFINED SYMBOLS
                            *ABS*:0000000000000000 usart.c
     /tmp/ccFMiBNO.s:15     .text.MX_USART2_UART_Init:0000000000000000 $t
     /tmp/ccFMiBNO.s:23     .text.MX_USART2_UART_Init:0000000000000000 MX_USART2_UART_Init
     /tmp/ccFMiBNO.s:50     .text.MX_USART2_UART_Init:000000000000003c $d
                            *COM*:0000000000000080 huart2
     /tmp/ccFMiBNO.s:54     .text.HAL_UART_MspInit:0000000000000000 $t
     /tmp/ccFMiBNO.s:61     .text.HAL_UART_MspInit:0000000000000000 HAL_UART_MspInit
     /tmp/ccFMiBNO.s:148    .text.HAL_UART_MspInit:00000000000000dc $d
                            *COM*:0000000000000060 hdma_usart2_tx
                            *COM*:0000000000000060 hdma_usart2_rx
     /tmp/ccFMiBNO.s:156    .text.HAL_UART_MspDeInit:0000000000000000 $t
     /tmp/ccFMiBNO.s:163    .text.HAL_UART_MspDeInit:0000000000000000 HAL_UART_MspDeInit
     /tmp/ccFMiBNO.s:191    .text.HAL_UART_MspDeInit:0000000000000038 $d
                            *COM*:0000000000000001 odom

UNDEFINED SYMBOLS
HAL_UART_Init
Error_Handler
memset
HAL_GPIO_Init
HAL_DMA_Init
HAL_NVIC_SetPriority
HAL_NVIC_EnableIRQ
HAL_GPIO_DeInit
HAL_DMA_DeInit
HAL_NVIC_DisableIRQ
