ARM GAS  /tmp/ccS9fvQY.s 			page 1


   1              		.cpu cortex-m7
   2              		.eabi_attribute 27, 1
   3              		.eabi_attribute 20, 1
   4              		.eabi_attribute 21, 1
   5              		.eabi_attribute 23, 3
   6              		.eabi_attribute 24, 1
   7              		.eabi_attribute 25, 1
   8              		.eabi_attribute 26, 1
   9              		.eabi_attribute 30, 4
  10              		.eabi_attribute 34, 1
  11              		.eabi_attribute 18, 4
  12              		.file	"usbd_conf.c"
  13              		.text
  14              		.section	.text.HAL_PCD_MspInit,"ax",%progbits
  15              		.align	1
  16              		.global	HAL_PCD_MspInit
  17              		.arch armv7e-m
  18              		.syntax unified
  19              		.thumb
  20              		.thumb_func
  21              		.fpu fpv5-sp-d16
  23              	HAL_PCD_MspInit:
  24              		@ args = 0, pretend = 0, frame = 32
  25              		@ frame_needed = 0, uses_anonymous_args = 0
  26 0000 10B5     		push	{r4, lr}
  27 0002 88B0     		sub	sp, sp, #32
  28 0004 0446     		mov	r4, r0
  29 0006 1422     		movs	r2, #20
  30 0008 0021     		movs	r1, #0
  31 000a 03A8     		add	r0, sp, #12
  32 000c FFF7FEFF 		bl	memset
  33 0010 2368     		ldr	r3, [r4]
  34 0012 B3F1A04F 		cmp	r3, #1342177280
  35 0016 30D1     		bne	.L1
  36 0018 194C     		ldr	r4, .L3
  37 001a 4FF4C052 		mov	r2, #6144
  38 001e 0321     		movs	r1, #3
  39 0020 1848     		ldr	r0, .L3+4
  40 0022 236B     		ldr	r3, [r4, #48]
  41 0024 43F00103 		orr	r3, r3, #1
  42 0028 2363     		str	r3, [r4, #48]
  43 002a 236B     		ldr	r3, [r4, #48]
  44 002c 03F00103 		and	r3, r3, #1
  45 0030 0093     		str	r3, [sp]
  46 0032 009B     		ldr	r3, [sp]
  47 0034 0223     		movs	r3, #2
  48 0036 CDE90323 		strd	r2, r3, [sp, #12]
  49 003a 0A23     		movs	r3, #10
  50 003c CDE90613 		strd	r1, r3, [sp, #24]
  51 0040 03A9     		add	r1, sp, #12
  52 0042 FFF7FEFF 		bl	HAL_GPIO_Init
  53 0046 636B     		ldr	r3, [r4, #52]
  54 0048 0022     		movs	r2, #0
  55 004a 4320     		movs	r0, #67
  56 004c 43F08003 		orr	r3, r3, #128
  57 0050 1146     		mov	r1, r2
  58 0052 6363     		str	r3, [r4, #52]
ARM GAS  /tmp/ccS9fvQY.s 			page 2


  59 0054 636B     		ldr	r3, [r4, #52]
  60 0056 03F08003 		and	r3, r3, #128
  61 005a 0193     		str	r3, [sp, #4]
  62 005c 019B     		ldr	r3, [sp, #4]
  63 005e 636C     		ldr	r3, [r4, #68]
  64 0060 43F48043 		orr	r3, r3, #16384
  65 0064 6364     		str	r3, [r4, #68]
  66 0066 636C     		ldr	r3, [r4, #68]
  67 0068 03F48043 		and	r3, r3, #16384
  68 006c 0293     		str	r3, [sp, #8]
  69 006e 029B     		ldr	r3, [sp, #8]
  70 0070 FFF7FEFF 		bl	HAL_NVIC_SetPriority
  71 0074 4320     		movs	r0, #67
  72 0076 FFF7FEFF 		bl	HAL_NVIC_EnableIRQ
  73              	.L1:
  74 007a 08B0     		add	sp, sp, #32
  75              		@ sp needed
  76 007c 10BD     		pop	{r4, pc}
  77              	.L4:
  78 007e 00BF     		.align	2
  79              	.L3:
  80 0080 00380240 		.word	1073887232
  81 0084 00000240 		.word	1073872896
  83              		.section	.text.HAL_PCD_MspDeInit,"ax",%progbits
  84              		.align	1
  85              		.global	HAL_PCD_MspDeInit
  86              		.syntax unified
  87              		.thumb
  88              		.thumb_func
  89              		.fpu fpv5-sp-d16
  91              	HAL_PCD_MspDeInit:
  92              		@ args = 0, pretend = 0, frame = 0
  93              		@ frame_needed = 0, uses_anonymous_args = 0
  94 0000 08B5     		push	{r3, lr}
  95 0002 0368     		ldr	r3, [r0]
  96 0004 B3F1A04F 		cmp	r3, #1342177280
  97 0008 0ED1     		bne	.L5
  98 000a 084A     		ldr	r2, .L7
  99 000c 4FF4C051 		mov	r1, #6144
 100 0010 0748     		ldr	r0, .L7+4
 101 0012 536B     		ldr	r3, [r2, #52]
 102 0014 23F08003 		bic	r3, r3, #128
 103 0018 5363     		str	r3, [r2, #52]
 104 001a FFF7FEFF 		bl	HAL_GPIO_DeInit
 105 001e 4320     		movs	r0, #67
 106 0020 BDE80840 		pop	{r3, lr}
 107 0024 FFF7FEBF 		b	HAL_NVIC_DisableIRQ
 108              	.L5:
 109 0028 08BD     		pop	{r3, pc}
 110              	.L8:
 111 002a 00BF     		.align	2
 112              	.L7:
 113 002c 00380240 		.word	1073887232
 114 0030 00000240 		.word	1073872896
 116              		.section	.text.HAL_PCD_SetupStageCallback,"ax",%progbits
 117              		.align	1
 118              		.global	HAL_PCD_SetupStageCallback
ARM GAS  /tmp/ccS9fvQY.s 			page 3


 119              		.syntax unified
 120              		.thumb
 121              		.thumb_func
 122              		.fpu fpv5-sp-d16
 124              	HAL_PCD_SetupStageCallback:
 125              		@ args = 0, pretend = 0, frame = 0
 126              		@ frame_needed = 0, uses_anonymous_args = 0
 127              		@ link register save eliminated.
 128 0000 00F2C441 		addw	r1, r0, #1220
 129 0004 D0F80405 		ldr	r0, [r0, #1284]
 130 0008 FFF7FEBF 		b	USBD_LL_SetupStage
 132              		.section	.text.HAL_PCD_DataOutStageCallback,"ax",%progbits
 133              		.align	1
 134              		.global	HAL_PCD_DataOutStageCallback
 135              		.syntax unified
 136              		.thumb
 137              		.thumb_func
 138              		.fpu fpv5-sp-d16
 140              	HAL_PCD_DataOutStageCallback:
 141              		@ args = 0, pretend = 0, frame = 0
 142              		@ frame_needed = 0, uses_anonymous_args = 0
 143              		@ link register save eliminated.
 144 0000 2423     		movs	r3, #36
 145 0002 03FB0103 		mla	r3, r3, r1, r0
 146 0006 D0F80405 		ldr	r0, [r0, #1284]
 147 000a D3F88C22 		ldr	r2, [r3, #652]
 148 000e FFF7FEBF 		b	USBD_LL_DataOutStage
 150              		.section	.text.HAL_PCD_DataInStageCallback,"ax",%progbits
 151              		.align	1
 152              		.global	HAL_PCD_DataInStageCallback
 153              		.syntax unified
 154              		.thumb
 155              		.thumb_func
 156              		.fpu fpv5-sp-d16
 158              	HAL_PCD_DataInStageCallback:
 159              		@ args = 0, pretend = 0, frame = 0
 160              		@ frame_needed = 0, uses_anonymous_args = 0
 161              		@ link register save eliminated.
 162 0000 2423     		movs	r3, #36
 163 0002 03FB0103 		mla	r3, r3, r1, r0
 164 0006 D0F80405 		ldr	r0, [r0, #1284]
 165 000a DA6C     		ldr	r2, [r3, #76]
 166 000c FFF7FEBF 		b	USBD_LL_DataInStage
 168              		.section	.text.HAL_PCD_SOFCallback,"ax",%progbits
 169              		.align	1
 170              		.global	HAL_PCD_SOFCallback
 171              		.syntax unified
 172              		.thumb
 173              		.thumb_func
 174              		.fpu fpv5-sp-d16
 176              	HAL_PCD_SOFCallback:
 177              		@ args = 0, pretend = 0, frame = 0
 178              		@ frame_needed = 0, uses_anonymous_args = 0
 179              		@ link register save eliminated.
 180 0000 D0F80405 		ldr	r0, [r0, #1284]
 181 0004 FFF7FEBF 		b	USBD_LL_SOF
 183              		.section	.text.HAL_PCD_ResetCallback,"ax",%progbits
ARM GAS  /tmp/ccS9fvQY.s 			page 4


 184              		.align	1
 185              		.global	HAL_PCD_ResetCallback
 186              		.syntax unified
 187              		.thumb
 188              		.thumb_func
 189              		.fpu fpv5-sp-d16
 191              	HAL_PCD_ResetCallback:
 192              		@ args = 0, pretend = 0, frame = 0
 193              		@ frame_needed = 0, uses_anonymous_args = 0
 194 0000 C168     		ldr	r1, [r0, #12]
 195 0002 10B5     		push	{r4, lr}
 196 0004 0446     		mov	r4, r0
 197 0006 21B1     		cbz	r1, .L14
 198 0008 0229     		cmp	r1, #2
 199 000a 01D0     		beq	.L16
 200 000c FFF7FEFF 		bl	Error_Handler
 201              	.L16:
 202 0010 0121     		movs	r1, #1
 203              	.L14:
 204 0012 D4F80405 		ldr	r0, [r4, #1284]
 205 0016 FFF7FEFF 		bl	USBD_LL_SetSpeed
 206 001a D4F80405 		ldr	r0, [r4, #1284]
 207 001e BDE81040 		pop	{r4, lr}
 208 0022 FFF7FEBF 		b	USBD_LL_Reset
 210              		.section	.text.HAL_PCD_SuspendCallback,"ax",%progbits
 211              		.align	1
 212              		.global	HAL_PCD_SuspendCallback
 213              		.syntax unified
 214              		.thumb
 215              		.thumb_func
 216              		.fpu fpv5-sp-d16
 218              	HAL_PCD_SuspendCallback:
 219              		@ args = 0, pretend = 0, frame = 0
 220              		@ frame_needed = 0, uses_anonymous_args = 0
 221 0000 10B5     		push	{r4, lr}
 222 0002 0446     		mov	r4, r0
 223 0004 D0F80405 		ldr	r0, [r0, #1284]
 224 0008 FFF7FEFF 		bl	USBD_LL_Suspend
 225 000c 2268     		ldr	r2, [r4]
 226 000e D2F8003E 		ldr	r3, [r2, #3584]
 227 0012 43F00103 		orr	r3, r3, #1
 228 0016 C2F8003E 		str	r3, [r2, #3584]
 229 001a 236A     		ldr	r3, [r4, #32]
 230 001c 23B1     		cbz	r3, .L17
 231 001e 034A     		ldr	r2, .L22
 232 0020 1369     		ldr	r3, [r2, #16]
 233 0022 43F00603 		orr	r3, r3, #6
 234 0026 1361     		str	r3, [r2, #16]
 235              	.L17:
 236 0028 10BD     		pop	{r4, pc}
 237              	.L23:
 238 002a 00BF     		.align	2
 239              	.L22:
 240 002c 00ED00E0 		.word	-536810240
 242              		.section	.text.HAL_PCD_ResumeCallback,"ax",%progbits
 243              		.align	1
 244              		.global	HAL_PCD_ResumeCallback
ARM GAS  /tmp/ccS9fvQY.s 			page 5


 245              		.syntax unified
 246              		.thumb
 247              		.thumb_func
 248              		.fpu fpv5-sp-d16
 250              	HAL_PCD_ResumeCallback:
 251              		@ args = 0, pretend = 0, frame = 0
 252              		@ frame_needed = 0, uses_anonymous_args = 0
 253              		@ link register save eliminated.
 254 0000 D0F80405 		ldr	r0, [r0, #1284]
 255 0004 FFF7FEBF 		b	USBD_LL_Resume
 257              		.section	.text.HAL_PCD_ISOOUTIncompleteCallback,"ax",%progbits
 258              		.align	1
 259              		.global	HAL_PCD_ISOOUTIncompleteCallback
 260              		.syntax unified
 261              		.thumb
 262              		.thumb_func
 263              		.fpu fpv5-sp-d16
 265              	HAL_PCD_ISOOUTIncompleteCallback:
 266              		@ args = 0, pretend = 0, frame = 0
 267              		@ frame_needed = 0, uses_anonymous_args = 0
 268              		@ link register save eliminated.
 269 0000 D0F80405 		ldr	r0, [r0, #1284]
 270 0004 FFF7FEBF 		b	USBD_LL_IsoOUTIncomplete
 272              		.section	.text.HAL_PCD_ISOINIncompleteCallback,"ax",%progbits
 273              		.align	1
 274              		.global	HAL_PCD_ISOINIncompleteCallback
 275              		.syntax unified
 276              		.thumb
 277              		.thumb_func
 278              		.fpu fpv5-sp-d16
 280              	HAL_PCD_ISOINIncompleteCallback:
 281              		@ args = 0, pretend = 0, frame = 0
 282              		@ frame_needed = 0, uses_anonymous_args = 0
 283              		@ link register save eliminated.
 284 0000 D0F80405 		ldr	r0, [r0, #1284]
 285 0004 FFF7FEBF 		b	USBD_LL_IsoINIncomplete
 287              		.section	.text.HAL_PCD_ConnectCallback,"ax",%progbits
 288              		.align	1
 289              		.global	HAL_PCD_ConnectCallback
 290              		.syntax unified
 291              		.thumb
 292              		.thumb_func
 293              		.fpu fpv5-sp-d16
 295              	HAL_PCD_ConnectCallback:
 296              		@ args = 0, pretend = 0, frame = 0
 297              		@ frame_needed = 0, uses_anonymous_args = 0
 298              		@ link register save eliminated.
 299 0000 D0F80405 		ldr	r0, [r0, #1284]
 300 0004 FFF7FEBF 		b	USBD_LL_DevConnected
 302              		.section	.text.HAL_PCD_DisconnectCallback,"ax",%progbits
 303              		.align	1
 304              		.global	HAL_PCD_DisconnectCallback
 305              		.syntax unified
 306              		.thumb
 307              		.thumb_func
 308              		.fpu fpv5-sp-d16
 310              	HAL_PCD_DisconnectCallback:
ARM GAS  /tmp/ccS9fvQY.s 			page 6


 311              		@ args = 0, pretend = 0, frame = 0
 312              		@ frame_needed = 0, uses_anonymous_args = 0
 313              		@ link register save eliminated.
 314 0000 D0F80405 		ldr	r0, [r0, #1284]
 315 0004 FFF7FEBF 		b	USBD_LL_DevDisconnected
 317              		.section	.text.USBD_LL_Init,"ax",%progbits
 318              		.align	1
 319              		.global	USBD_LL_Init
 320              		.syntax unified
 321              		.thumb
 322              		.thumb_func
 323              		.fpu fpv5-sp-d16
 325              	USBD_LL_Init:
 326              		@ args = 0, pretend = 0, frame = 0
 327              		@ frame_needed = 0, uses_anonymous_args = 0
 328 0000 08B5     		push	{r3, lr}
 329 0002 0378     		ldrb	r3, [r0]	@ zero_extendqisi2
 330 0004 0246     		mov	r2, r0
 331 0006 33BB     		cbnz	r3, .L30
 332 0008 1448     		ldr	r0, .L35
 333 000a 4FF0A041 		mov	r1, #1342177280
 334 000e C0F80425 		str	r2, [r0, #1284]
 335 0012 C2F8C802 		str	r0, [r2, #712]
 336 0016 0622     		movs	r2, #6
 337 0018 0361     		str	r3, [r0, #16]
 338 001a 0362     		str	r3, [r0, #32]
 339 001c C0E90012 		strd	r1, r2, [r0]
 340 0020 0222     		movs	r2, #2
 341 0022 C0E90623 		strd	r2, r3, [r0, #24]
 342 0026 0122     		movs	r2, #1
 343 0028 C0E90B33 		strd	r3, r3, [r0, #44]
 344 002c C0E90923 		strd	r2, r3, [r0, #36]
 345 0030 FFF7FEFF 		bl	HAL_PCD_Init
 346 0034 08B1     		cbz	r0, .L31
 347 0036 FFF7FEFF 		bl	Error_Handler
 348              	.L31:
 349 003a 8021     		movs	r1, #128
 350 003c 0748     		ldr	r0, .L35
 351 003e FFF7FEFF 		bl	HAL_PCDEx_SetRxFiFo
 352 0042 4022     		movs	r2, #64
 353 0044 0021     		movs	r1, #0
 354 0046 0548     		ldr	r0, .L35
 355 0048 FFF7FEFF 		bl	HAL_PCDEx_SetTxFiFo
 356 004c 8022     		movs	r2, #128
 357 004e 0121     		movs	r1, #1
 358 0050 0248     		ldr	r0, .L35
 359 0052 FFF7FEFF 		bl	HAL_PCDEx_SetTxFiFo
 360              	.L30:
 361 0056 0020     		movs	r0, #0
 362 0058 08BD     		pop	{r3, pc}
 363              	.L36:
 364 005a 00BF     		.align	2
 365              	.L35:
 366 005c 00000000 		.word	.LANCHOR0
 368              		.section	.text.USBD_LL_IsStallEP,"ax",%progbits
 369              		.align	1
 370              		.global	USBD_LL_IsStallEP
ARM GAS  /tmp/ccS9fvQY.s 			page 7


 371              		.syntax unified
 372              		.thumb
 373              		.thumb_func
 374              		.fpu fpv5-sp-d16
 376              	USBD_LL_IsStallEP:
 377              		@ args = 0, pretend = 0, frame = 0
 378              		@ frame_needed = 0, uses_anonymous_args = 0
 379              		@ link register save eliminated.
 380 0000 11F0800F 		tst	r1, #128
 381 0004 D0F8C832 		ldr	r3, [r0, #712]
 382 0008 4FF02402 		mov	r2, #36
 383 000c 17BF     		itett	ne
 384 000e 01F07F01 		andne	r1, r1, #127
 385 0012 02FB0131 		mlaeq	r1, r2, r1, r3
 386 0016 02FB0131 		mlane	r1, r2, r1, r3
 387 001a 91F83E00 		ldrbne	r0, [r1, #62]	@ zero_extendqisi2
 388 001e 08BF     		it	eq
 389 0020 91F87E02 		ldrbeq	r0, [r1, #638]	@ zero_extendqisi2
 390 0024 7047     		bx	lr
 392              		.section	.text.USBD_LL_GetRxDataSize,"ax",%progbits
 393              		.align	1
 394              		.global	USBD_LL_GetRxDataSize
 395              		.syntax unified
 396              		.thumb
 397              		.thumb_func
 398              		.fpu fpv5-sp-d16
 400              	USBD_LL_GetRxDataSize:
 401              		@ args = 0, pretend = 0, frame = 0
 402              		@ frame_needed = 0, uses_anonymous_args = 0
 403              		@ link register save eliminated.
 404 0000 D0F8C802 		ldr	r0, [r0, #712]
 405 0004 FFF7FEBF 		b	HAL_PCD_EP_GetRxCount
 407              		.section	.text.HAL_PCDEx_LPM_Callback,"ax",%progbits
 408              		.align	1
 409              		.global	HAL_PCDEx_LPM_Callback
 410              		.syntax unified
 411              		.thumb
 412              		.thumb_func
 413              		.fpu fpv5-sp-d16
 415              	HAL_PCDEx_LPM_Callback:
 416              		@ args = 0, pretend = 0, frame = 0
 417              		@ frame_needed = 0, uses_anonymous_args = 0
 418 0000 10B5     		push	{r4, lr}
 419 0002 0446     		mov	r4, r0
 420 0004 11B1     		cbz	r1, .L42
 421 0006 0129     		cmp	r1, #1
 422 0008 16D0     		beq	.L43
 423              	.L41:
 424 000a 10BD     		pop	{r4, pc}
 425              	.L42:
 426 000c 036A     		ldr	r3, [r0, #32]
 427 000e 33B1     		cbz	r3, .L45
 428 0010 FFF7FEFF 		bl	SystemClock_Config
 429 0014 124A     		ldr	r2, .L52
 430 0016 1369     		ldr	r3, [r2, #16]
 431 0018 23F00603 		bic	r3, r3, #6
 432 001c 1361     		str	r3, [r2, #16]
ARM GAS  /tmp/ccS9fvQY.s 			page 8


 433              	.L45:
 434 001e 2268     		ldr	r2, [r4]
 435 0020 D4F80405 		ldr	r0, [r4, #1284]
 436 0024 D2F8003E 		ldr	r3, [r2, #3584]
 437 0028 23F00103 		bic	r3, r3, #1
 438 002c BDE81040 		pop	{r4, lr}
 439 0030 C2F8003E 		str	r3, [r2, #3584]
 440 0034 FFF7FEBF 		b	USBD_LL_Resume
 441              	.L43:
 442 0038 0268     		ldr	r2, [r0]
 443 003a D0F80405 		ldr	r0, [r0, #1284]
 444 003e D2F8003E 		ldr	r3, [r2, #3584]
 445 0042 43F00103 		orr	r3, r3, #1
 446 0046 C2F8003E 		str	r3, [r2, #3584]
 447 004a FFF7FEFF 		bl	USBD_LL_Suspend
 448 004e 236A     		ldr	r3, [r4, #32]
 449 0050 002B     		cmp	r3, #0
 450 0052 DAD0     		beq	.L41
 451 0054 024A     		ldr	r2, .L52
 452 0056 1369     		ldr	r3, [r2, #16]
 453 0058 43F00603 		orr	r3, r3, #6
 454 005c 1361     		str	r3, [r2, #16]
 455 005e D4E7     		b	.L41
 456              	.L53:
 457              		.align	2
 458              	.L52:
 459 0060 00ED00E0 		.word	-536810240
 461              		.section	.text.USBD_LL_Delay,"ax",%progbits
 462              		.align	1
 463              		.global	USBD_LL_Delay
 464              		.syntax unified
 465              		.thumb
 466              		.thumb_func
 467              		.fpu fpv5-sp-d16
 469              	USBD_LL_Delay:
 470              		@ args = 0, pretend = 0, frame = 0
 471              		@ frame_needed = 0, uses_anonymous_args = 0
 472              		@ link register save eliminated.
 473 0000 FFF7FEBF 		b	HAL_Delay
 475              		.section	.text.USBD_Get_USB_Status,"ax",%progbits
 476              		.align	1
 477              		.global	USBD_Get_USB_Status
 478              		.syntax unified
 479              		.thumb
 480              		.thumb_func
 481              		.fpu fpv5-sp-d16
 483              	USBD_Get_USB_Status:
 484              		@ args = 0, pretend = 0, frame = 0
 485              		@ frame_needed = 0, uses_anonymous_args = 0
 486              		@ link register save eliminated.
 487 0000 0328     		cmp	r0, #3
 488 0002 9ABF     		itte	ls
 489 0004 014B     		ldrls	r3, .L58
 490 0006 185C     		ldrbls	r0, [r3, r0]	@ zero_extendqisi2
 491 0008 0320     		movhi	r0, #3
 492 000a 7047     		bx	lr
 493              	.L59:
ARM GAS  /tmp/ccS9fvQY.s 			page 9


 494              		.align	2
 495              	.L58:
 496 000c 00000000 		.word	.LANCHOR1
 498              		.section	.text.USBD_LL_DeInit,"ax",%progbits
 499              		.align	1
 500              		.global	USBD_LL_DeInit
 501              		.syntax unified
 502              		.thumb
 503              		.thumb_func
 504              		.fpu fpv5-sp-d16
 506              	USBD_LL_DeInit:
 507              		@ args = 0, pretend = 0, frame = 0
 508              		@ frame_needed = 0, uses_anonymous_args = 0
 509 0000 08B5     		push	{r3, lr}
 510 0002 D0F8C802 		ldr	r0, [r0, #712]
 511 0006 FFF7FEFF 		bl	HAL_PCD_DeInit
 512 000a BDE80840 		pop	{r3, lr}
 513 000e FFF7FEBF 		b	USBD_Get_USB_Status
 515              		.section	.text.USBD_LL_Start,"ax",%progbits
 516              		.align	1
 517              		.global	USBD_LL_Start
 518              		.syntax unified
 519              		.thumb
 520              		.thumb_func
 521              		.fpu fpv5-sp-d16
 523              	USBD_LL_Start:
 524              		@ args = 0, pretend = 0, frame = 0
 525              		@ frame_needed = 0, uses_anonymous_args = 0
 526 0000 08B5     		push	{r3, lr}
 527 0002 D0F8C802 		ldr	r0, [r0, #712]
 528 0006 FFF7FEFF 		bl	HAL_PCD_Start
 529 000a BDE80840 		pop	{r3, lr}
 530 000e FFF7FEBF 		b	USBD_Get_USB_Status
 532              		.section	.text.USBD_LL_Stop,"ax",%progbits
 533              		.align	1
 534              		.global	USBD_LL_Stop
 535              		.syntax unified
 536              		.thumb
 537              		.thumb_func
 538              		.fpu fpv5-sp-d16
 540              	USBD_LL_Stop:
 541              		@ args = 0, pretend = 0, frame = 0
 542              		@ frame_needed = 0, uses_anonymous_args = 0
 543 0000 08B5     		push	{r3, lr}
 544 0002 D0F8C802 		ldr	r0, [r0, #712]
 545 0006 FFF7FEFF 		bl	HAL_PCD_Stop
 546 000a BDE80840 		pop	{r3, lr}
 547 000e FFF7FEBF 		b	USBD_Get_USB_Status
 549              		.section	.text.USBD_LL_OpenEP,"ax",%progbits
 550              		.align	1
 551              		.global	USBD_LL_OpenEP
 552              		.syntax unified
 553              		.thumb
 554              		.thumb_func
 555              		.fpu fpv5-sp-d16
 557              	USBD_LL_OpenEP:
 558              		@ args = 0, pretend = 0, frame = 0
ARM GAS  /tmp/ccS9fvQY.s 			page 10


 559              		@ frame_needed = 0, uses_anonymous_args = 0
 560 0000 10B5     		push	{r4, lr}
 561 0002 1446     		mov	r4, r2
 562 0004 D0F8C802 		ldr	r0, [r0, #712]
 563 0008 1A46     		mov	r2, r3
 564 000a 2346     		mov	r3, r4
 565 000c FFF7FEFF 		bl	HAL_PCD_EP_Open
 566 0010 BDE81040 		pop	{r4, lr}
 567 0014 FFF7FEBF 		b	USBD_Get_USB_Status
 569              		.section	.text.USBD_LL_CloseEP,"ax",%progbits
 570              		.align	1
 571              		.global	USBD_LL_CloseEP
 572              		.syntax unified
 573              		.thumb
 574              		.thumb_func
 575              		.fpu fpv5-sp-d16
 577              	USBD_LL_CloseEP:
 578              		@ args = 0, pretend = 0, frame = 0
 579              		@ frame_needed = 0, uses_anonymous_args = 0
 580 0000 08B5     		push	{r3, lr}
 581 0002 D0F8C802 		ldr	r0, [r0, #712]
 582 0006 FFF7FEFF 		bl	HAL_PCD_EP_Close
 583 000a BDE80840 		pop	{r3, lr}
 584 000e FFF7FEBF 		b	USBD_Get_USB_Status
 586              		.section	.text.USBD_LL_FlushEP,"ax",%progbits
 587              		.align	1
 588              		.global	USBD_LL_FlushEP
 589              		.syntax unified
 590              		.thumb
 591              		.thumb_func
 592              		.fpu fpv5-sp-d16
 594              	USBD_LL_FlushEP:
 595              		@ args = 0, pretend = 0, frame = 0
 596              		@ frame_needed = 0, uses_anonymous_args = 0
 597 0000 08B5     		push	{r3, lr}
 598 0002 D0F8C802 		ldr	r0, [r0, #712]
 599 0006 FFF7FEFF 		bl	HAL_PCD_EP_Flush
 600 000a BDE80840 		pop	{r3, lr}
 601 000e FFF7FEBF 		b	USBD_Get_USB_Status
 603              		.section	.text.USBD_LL_StallEP,"ax",%progbits
 604              		.align	1
 605              		.global	USBD_LL_StallEP
 606              		.syntax unified
 607              		.thumb
 608              		.thumb_func
 609              		.fpu fpv5-sp-d16
 611              	USBD_LL_StallEP:
 612              		@ args = 0, pretend = 0, frame = 0
 613              		@ frame_needed = 0, uses_anonymous_args = 0
 614 0000 08B5     		push	{r3, lr}
 615 0002 D0F8C802 		ldr	r0, [r0, #712]
 616 0006 FFF7FEFF 		bl	HAL_PCD_EP_SetStall
 617 000a BDE80840 		pop	{r3, lr}
 618 000e FFF7FEBF 		b	USBD_Get_USB_Status
 620              		.section	.text.USBD_LL_ClearStallEP,"ax",%progbits
 621              		.align	1
 622              		.global	USBD_LL_ClearStallEP
ARM GAS  /tmp/ccS9fvQY.s 			page 11


 623              		.syntax unified
 624              		.thumb
 625              		.thumb_func
 626              		.fpu fpv5-sp-d16
 628              	USBD_LL_ClearStallEP:
 629              		@ args = 0, pretend = 0, frame = 0
 630              		@ frame_needed = 0, uses_anonymous_args = 0
 631 0000 08B5     		push	{r3, lr}
 632 0002 D0F8C802 		ldr	r0, [r0, #712]
 633 0006 FFF7FEFF 		bl	HAL_PCD_EP_ClrStall
 634 000a BDE80840 		pop	{r3, lr}
 635 000e FFF7FEBF 		b	USBD_Get_USB_Status
 637              		.section	.text.USBD_LL_SetUSBAddress,"ax",%progbits
 638              		.align	1
 639              		.global	USBD_LL_SetUSBAddress
 640              		.syntax unified
 641              		.thumb
 642              		.thumb_func
 643              		.fpu fpv5-sp-d16
 645              	USBD_LL_SetUSBAddress:
 646              		@ args = 0, pretend = 0, frame = 0
 647              		@ frame_needed = 0, uses_anonymous_args = 0
 648 0000 08B5     		push	{r3, lr}
 649 0002 D0F8C802 		ldr	r0, [r0, #712]
 650 0006 FFF7FEFF 		bl	HAL_PCD_SetAddress
 651 000a BDE80840 		pop	{r3, lr}
 652 000e FFF7FEBF 		b	USBD_Get_USB_Status
 654              		.section	.text.USBD_LL_Transmit,"ax",%progbits
 655              		.align	1
 656              		.global	USBD_LL_Transmit
 657              		.syntax unified
 658              		.thumb
 659              		.thumb_func
 660              		.fpu fpv5-sp-d16
 662              	USBD_LL_Transmit:
 663              		@ args = 0, pretend = 0, frame = 0
 664              		@ frame_needed = 0, uses_anonymous_args = 0
 665 0000 08B5     		push	{r3, lr}
 666 0002 D0F8C802 		ldr	r0, [r0, #712]
 667 0006 FFF7FEFF 		bl	HAL_PCD_EP_Transmit
 668 000a BDE80840 		pop	{r3, lr}
 669 000e FFF7FEBF 		b	USBD_Get_USB_Status
 671              		.section	.text.USBD_LL_PrepareReceive,"ax",%progbits
 672              		.align	1
 673              		.global	USBD_LL_PrepareReceive
 674              		.syntax unified
 675              		.thumb
 676              		.thumb_func
 677              		.fpu fpv5-sp-d16
 679              	USBD_LL_PrepareReceive:
 680              		@ args = 0, pretend = 0, frame = 0
 681              		@ frame_needed = 0, uses_anonymous_args = 0
 682 0000 08B5     		push	{r3, lr}
 683 0002 D0F8C802 		ldr	r0, [r0, #712]
 684 0006 FFF7FEFF 		bl	HAL_PCD_EP_Receive
 685 000a BDE80840 		pop	{r3, lr}
 686 000e FFF7FEBF 		b	USBD_Get_USB_Status
ARM GAS  /tmp/ccS9fvQY.s 			page 12


 688              		.global	hpcd_USB_OTG_FS
 689              		.section	.bss.hpcd_USB_OTG_FS,"aw",%nobits
 690              		.align	2
 691              		.set	.LANCHOR0,. + 0
 694              	hpcd_USB_OTG_FS:
 695 0000 00000000 		.space	1288
 695      00000000 
 695      00000000 
 695      00000000 
 695      00000000 
 696              		.section	.rodata.CSWTCH.24,"a"
 697              		.set	.LANCHOR1,. + 0
 700              	CSWTCH.24:
 701 0000 00       		.byte	0
 702 0001 03       		.byte	3
 703 0002 01       		.byte	1
 704 0003 03       		.byte	3
 705              		.ident	"GCC: (15:10.3-2021.07-4) 10.3.1 20210621 (release)"
ARM GAS  /tmp/ccS9fvQY.s 			page 13

