ARM GAS  /tmp/cckYVlMq.s 			page 1


   1              		.cpu cortex-m7
   2              		.eabi_attribute 27, 1
   3              		.eabi_attribute 20, 1
   4              		.eabi_attribute 21, 1
   5              		.eabi_attribute 23, 3
   6              		.eabi_attribute 24, 1
   7              		.eabi_attribute 25, 1
   8              		.eabi_attribute 26, 1
   9              		.eabi_attribute 30, 4
  10              		.eabi_attribute 34, 1
  11              		.eabi_attribute 18, 4
  12              		.file	"usbd_desc.c"
  13              		.text
  14              		.section	.text.USBD_FS_DeviceDescriptor,"ax",%progbits
  15              		.align	1
  16              		.global	USBD_FS_DeviceDescriptor
  17              		.arch armv7e-m
  18              		.syntax unified
  19              		.thumb
  20              		.thumb_func
  21              		.fpu fpv5-sp-d16
  23              	USBD_FS_DeviceDescriptor:
  24              		@ args = 0, pretend = 0, frame = 0
  25              		@ frame_needed = 0, uses_anonymous_args = 0
  26              		@ link register save eliminated.
  27 0000 1223     		movs	r3, #18
  28 0002 0148     		ldr	r0, .L2
  29 0004 0B80     		strh	r3, [r1]	@ movhi
  30 0006 7047     		bx	lr
  31              	.L3:
  32              		.align	2
  33              	.L2:
  34 0008 00000000 		.word	.LANCHOR0
  36              		.section	.text.USBD_FS_LangIDStrDescriptor,"ax",%progbits
  37              		.align	1
  38              		.global	USBD_FS_LangIDStrDescriptor
  39              		.syntax unified
  40              		.thumb
  41              		.thumb_func
  42              		.fpu fpv5-sp-d16
  44              	USBD_FS_LangIDStrDescriptor:
  45              		@ args = 0, pretend = 0, frame = 0
  46              		@ frame_needed = 0, uses_anonymous_args = 0
  47              		@ link register save eliminated.
  48 0000 0423     		movs	r3, #4
  49 0002 0148     		ldr	r0, .L5
  50 0004 0B80     		strh	r3, [r1]	@ movhi
  51 0006 7047     		bx	lr
  52              	.L6:
  53              		.align	2
  54              	.L5:
  55 0008 00000000 		.word	.LANCHOR1
  57              		.section	.text.USBD_FS_USR_BOSDescriptor,"ax",%progbits
  58              		.align	1
  59              		.global	USBD_FS_USR_BOSDescriptor
  60              		.syntax unified
  61              		.thumb
ARM GAS  /tmp/cckYVlMq.s 			page 2


  62              		.thumb_func
  63              		.fpu fpv5-sp-d16
  65              	USBD_FS_USR_BOSDescriptor:
  66              		@ args = 0, pretend = 0, frame = 0
  67              		@ frame_needed = 0, uses_anonymous_args = 0
  68              		@ link register save eliminated.
  69 0000 0C23     		movs	r3, #12
  70 0002 0148     		ldr	r0, .L8
  71 0004 0B80     		strh	r3, [r1]	@ movhi
  72 0006 7047     		bx	lr
  73              	.L9:
  74              		.align	2
  75              	.L8:
  76 0008 00000000 		.word	.LANCHOR2
  78              		.section	.text.IntToUnicode,"ax",%progbits
  79              		.align	1
  80              		.syntax unified
  81              		.thumb
  82              		.thumb_func
  83              		.fpu fpv5-sp-d16
  85              	IntToUnicode:
  86              		@ args = 0, pretend = 0, frame = 0
  87              		@ frame_needed = 0, uses_anonymous_args = 0
  88 0000 0023     		movs	r3, #0
  89 0002 70B5     		push	{r4, r5, r6, lr}
  90 0004 4D1C     		adds	r5, r1, #1
  91 0006 1E46     		mov	r6, r3
  92              	.L13:
  93 0008 040F     		lsrs	r4, r0, #28
  94 000a B0F1204F 		cmp	r0, #-1610612736
  95 000e 4FEA0010 		lsl	r0, r0, #4
  96 0012 34BF     		ite	cc
  97 0014 3034     		addcc	r4, r4, #48
  98 0016 3734     		addcs	r4, r4, #55
  99 0018 01F81340 		strb	r4, [r1, r3, lsl #1]
 100 001c 05F81360 		strb	r6, [r5, r3, lsl #1]
 101 0020 0133     		adds	r3, r3, #1
 102 0022 DCB2     		uxtb	r4, r3
 103 0024 A242     		cmp	r2, r4
 104 0026 EFD8     		bhi	.L13
 105 0028 70BD     		pop	{r4, r5, r6, pc}
 107              		.section	.text.USBD_FS_SerialStrDescriptor,"ax",%progbits
 108              		.align	1
 109              		.global	USBD_FS_SerialStrDescriptor
 110              		.syntax unified
 111              		.thumb
 112              		.thumb_func
 113              		.fpu fpv5-sp-d16
 115              	USBD_FS_SerialStrDescriptor:
 116              		@ args = 0, pretend = 0, frame = 0
 117              		@ frame_needed = 0, uses_anonymous_args = 0
 118 0000 1A23     		movs	r3, #26
 119 0002 10B5     		push	{r4, lr}
 120 0004 0B80     		strh	r3, [r1]	@ movhi
 121 0006 0A4B     		ldr	r3, .L21
 122 0008 D3F8100A 		ldr	r0, [r3, #2576]
 123 000c D3F8182A 		ldr	r2, [r3, #2584]
ARM GAS  /tmp/cckYVlMq.s 			page 3


 124 0010 8018     		adds	r0, r0, r2
 125 0012 0AD0     		beq	.L17
 126 0014 D3F8144A 		ldr	r4, [r3, #2580]
 127 0018 0822     		movs	r2, #8
 128 001a 0649     		ldr	r1, .L21+4
 129 001c FFF7FEFF 		bl	IntToUnicode
 130 0020 0422     		movs	r2, #4
 131 0022 1031     		adds	r1, r1, #16
 132 0024 2046     		mov	r0, r4
 133 0026 FFF7FEFF 		bl	IntToUnicode
 134              	.L17:
 135 002a 0348     		ldr	r0, .L21+8
 136 002c 10BD     		pop	{r4, pc}
 137              	.L22:
 138 002e 00BF     		.align	2
 139              	.L21:
 140 0030 0070F01F 		.word	535851008
 141 0034 02000000 		.word	.LANCHOR3+2
 142 0038 00000000 		.word	.LANCHOR3
 144              		.section	.rodata.USBD_FS_ManufacturerStrDescriptor.str1.1,"aMS",%progbits,1
 145              	.LC0:
 146 0000 74656E73 		.ascii	"tensor-robotics\000"
 146      6F722D72 
 146      6F626F74 
 146      69637300 
 147              		.section	.text.USBD_FS_ManufacturerStrDescriptor,"ax",%progbits
 148              		.align	1
 149              		.global	USBD_FS_ManufacturerStrDescriptor
 150              		.syntax unified
 151              		.thumb
 152              		.thumb_func
 153              		.fpu fpv5-sp-d16
 155              	USBD_FS_ManufacturerStrDescriptor:
 156              		@ args = 0, pretend = 0, frame = 0
 157              		@ frame_needed = 0, uses_anonymous_args = 0
 158 0000 10B5     		push	{r4, lr}
 159 0002 044C     		ldr	r4, .L24
 160 0004 0A46     		mov	r2, r1
 161 0006 0448     		ldr	r0, .L24+4
 162 0008 2146     		mov	r1, r4
 163 000a FFF7FEFF 		bl	USBD_GetString
 164 000e 2046     		mov	r0, r4
 165 0010 10BD     		pop	{r4, pc}
 166              	.L25:
 167 0012 00BF     		.align	2
 168              	.L24:
 169 0014 00000000 		.word	.LANCHOR4
 170 0018 00000000 		.word	.LC0
 172              		.section	.rodata.USBD_FS_ProductStrDescriptor.str1.1,"aMS",%progbits,1
 173              	.LC1:
 174 0000 4F465F49 		.ascii	"OF_IMU\000"
 174      4D5500
 175              		.section	.text.USBD_FS_ProductStrDescriptor,"ax",%progbits
 176              		.align	1
 177              		.global	USBD_FS_ProductStrDescriptor
 178              		.syntax unified
 179              		.thumb
ARM GAS  /tmp/cckYVlMq.s 			page 4


 180              		.thumb_func
 181              		.fpu fpv5-sp-d16
 183              	USBD_FS_ProductStrDescriptor:
 184              		@ args = 0, pretend = 0, frame = 0
 185              		@ frame_needed = 0, uses_anonymous_args = 0
 186 0000 10B5     		push	{r4, lr}
 187 0002 044C     		ldr	r4, .L27
 188 0004 0A46     		mov	r2, r1
 189 0006 0448     		ldr	r0, .L27+4
 190 0008 2146     		mov	r1, r4
 191 000a FFF7FEFF 		bl	USBD_GetString
 192 000e 2046     		mov	r0, r4
 193 0010 10BD     		pop	{r4, pc}
 194              	.L28:
 195 0012 00BF     		.align	2
 196              	.L27:
 197 0014 00000000 		.word	.LANCHOR4
 198 0018 00000000 		.word	.LC1
 200              		.section	.rodata.USBD_FS_ConfigStrDescriptor.str1.1,"aMS",%progbits,1
 201              	.LC2:
 202 0000 43444320 		.ascii	"CDC Config\000"
 202      436F6E66 
 202      696700
 203              		.section	.text.USBD_FS_ConfigStrDescriptor,"ax",%progbits
 204              		.align	1
 205              		.global	USBD_FS_ConfigStrDescriptor
 206              		.syntax unified
 207              		.thumb
 208              		.thumb_func
 209              		.fpu fpv5-sp-d16
 211              	USBD_FS_ConfigStrDescriptor:
 212              		@ args = 0, pretend = 0, frame = 0
 213              		@ frame_needed = 0, uses_anonymous_args = 0
 214 0000 10B5     		push	{r4, lr}
 215 0002 044C     		ldr	r4, .L30
 216 0004 0A46     		mov	r2, r1
 217 0006 0448     		ldr	r0, .L30+4
 218 0008 2146     		mov	r1, r4
 219 000a FFF7FEFF 		bl	USBD_GetString
 220 000e 2046     		mov	r0, r4
 221 0010 10BD     		pop	{r4, pc}
 222              	.L31:
 223 0012 00BF     		.align	2
 224              	.L30:
 225 0014 00000000 		.word	.LANCHOR4
 226 0018 00000000 		.word	.LC2
 228              		.section	.rodata.USBD_FS_InterfaceStrDescriptor.str1.1,"aMS",%progbits,1
 229              	.LC3:
 230 0000 43444320 		.ascii	"CDC Interface\000"
 230      496E7465 
 230      72666163 
 230      6500
 231              		.section	.text.USBD_FS_InterfaceStrDescriptor,"ax",%progbits
 232              		.align	1
 233              		.global	USBD_FS_InterfaceStrDescriptor
 234              		.syntax unified
 235              		.thumb
ARM GAS  /tmp/cckYVlMq.s 			page 5


 236              		.thumb_func
 237              		.fpu fpv5-sp-d16
 239              	USBD_FS_InterfaceStrDescriptor:
 240              		@ args = 0, pretend = 0, frame = 0
 241              		@ frame_needed = 0, uses_anonymous_args = 0
 242 0000 10B5     		push	{r4, lr}
 243 0002 044C     		ldr	r4, .L33
 244 0004 0A46     		mov	r2, r1
 245 0006 0448     		ldr	r0, .L33+4
 246 0008 2146     		mov	r1, r4
 247 000a FFF7FEFF 		bl	USBD_GetString
 248 000e 2046     		mov	r0, r4
 249 0010 10BD     		pop	{r4, pc}
 250              	.L34:
 251 0012 00BF     		.align	2
 252              	.L33:
 253 0014 00000000 		.word	.LANCHOR4
 254 0018 00000000 		.word	.LC3
 256              		.global	USBD_StringSerial
 257              		.global	USBD_StrDesc
 258              		.global	USBD_LangIDDesc
 259              		.global	USBD_FS_BOSDesc
 260              		.global	USBD_FS_DeviceDesc
 261              		.global	FS_Desc
 262              		.section	.bss.USBD_StrDesc,"aw",%nobits
 263              		.align	2
 264              		.set	.LANCHOR4,. + 0
 267              	USBD_StrDesc:
 268 0000 00000000 		.space	512
 268      00000000 
 268      00000000 
 268      00000000 
 268      00000000 
 269              		.section	.data.FS_Desc,"aw"
 270              		.align	2
 273              	FS_Desc:
 274 0000 00000000 		.word	USBD_FS_DeviceDescriptor
 275 0004 00000000 		.word	USBD_FS_LangIDStrDescriptor
 276 0008 00000000 		.word	USBD_FS_ManufacturerStrDescriptor
 277 000c 00000000 		.word	USBD_FS_ProductStrDescriptor
 278 0010 00000000 		.word	USBD_FS_SerialStrDescriptor
 279 0014 00000000 		.word	USBD_FS_ConfigStrDescriptor
 280 0018 00000000 		.word	USBD_FS_InterfaceStrDescriptor
 281 001c 00000000 		.word	USBD_FS_USR_BOSDescriptor
 282              		.section	.data.USBD_FS_BOSDesc,"aw"
 283              		.align	2
 284              		.set	.LANCHOR2,. + 0
 287              	USBD_FS_BOSDesc:
 288 0000 050F0C00 		.ascii	"\005\017\014\000\001\007\020\002\002\000\000\000"
 288      01071002 
 288      02000000 
 289              		.section	.data.USBD_FS_DeviceDesc,"aw"
 290              		.align	2
 291              		.set	.LANCHOR0,. + 0
 294              	USBD_FS_DeviceDesc:
 295 0000 12010102 		.ascii	"\022\001\001\002\002\002\000@\011\022\002\000\000\002"
 295      02020040 
ARM GAS  /tmp/cckYVlMq.s 			page 6


 295      09120200 
 295      0002
 296 000e 01020301 		.ascii	"\001\002\003\001"
 297              		.section	.data.USBD_LangIDDesc,"aw"
 298              		.align	2
 299              		.set	.LANCHOR1,. + 0
 302              	USBD_LangIDDesc:
 303 0000 04030904 		.ascii	"\004\003\011\004"
 304              		.section	.data.USBD_StringSerial,"aw"
 305              		.align	2
 306              		.set	.LANCHOR3,. + 0
 309              	USBD_StringSerial:
 310 0000 1A0300   		.ascii	"\032\003\000"
 311 0003 00000000 		.space	23
 311      00000000 
 311      00000000 
 311      00000000 
 311      00000000 
 312              		.ident	"GCC: (15:10.3-2021.07-4) 10.3.1 20210621 (release)"
ARM GAS  /tmp/cckYVlMq.s 			page 7


DEFINED SYMBOLS
                            *ABS*:0000000000000000 usbd_desc.c
     /tmp/cckYVlMq.s:15     .text.USBD_FS_DeviceDescriptor:0000000000000000 $t
     /tmp/cckYVlMq.s:23     .text.USBD_FS_DeviceDescriptor:0000000000000000 USBD_FS_DeviceDescriptor
     /tmp/cckYVlMq.s:34     .text.USBD_FS_DeviceDescriptor:0000000000000008 $d
     /tmp/cckYVlMq.s:37     .text.USBD_FS_LangIDStrDescriptor:0000000000000000 $t
     /tmp/cckYVlMq.s:44     .text.USBD_FS_LangIDStrDescriptor:0000000000000000 USBD_FS_LangIDStrDescriptor
     /tmp/cckYVlMq.s:55     .text.USBD_FS_LangIDStrDescriptor:0000000000000008 $d
     /tmp/cckYVlMq.s:58     .text.USBD_FS_USR_BOSDescriptor:0000000000000000 $t
     /tmp/cckYVlMq.s:65     .text.USBD_FS_USR_BOSDescriptor:0000000000000000 USBD_FS_USR_BOSDescriptor
     /tmp/cckYVlMq.s:76     .text.USBD_FS_USR_BOSDescriptor:0000000000000008 $d
     /tmp/cckYVlMq.s:79     .text.IntToUnicode:0000000000000000 $t
     /tmp/cckYVlMq.s:85     .text.IntToUnicode:0000000000000000 IntToUnicode
     /tmp/cckYVlMq.s:108    .text.USBD_FS_SerialStrDescriptor:0000000000000000 $t
     /tmp/cckYVlMq.s:115    .text.USBD_FS_SerialStrDescriptor:0000000000000000 USBD_FS_SerialStrDescriptor
     /tmp/cckYVlMq.s:140    .text.USBD_FS_SerialStrDescriptor:0000000000000030 $d
     /tmp/cckYVlMq.s:148    .text.USBD_FS_ManufacturerStrDescriptor:0000000000000000 $t
     /tmp/cckYVlMq.s:155    .text.USBD_FS_ManufacturerStrDescriptor:0000000000000000 USBD_FS_ManufacturerStrDescriptor
     /tmp/cckYVlMq.s:169    .text.USBD_FS_ManufacturerStrDescriptor:0000000000000014 $d
     /tmp/cckYVlMq.s:176    .text.USBD_FS_ProductStrDescriptor:0000000000000000 $t
     /tmp/cckYVlMq.s:183    .text.USBD_FS_ProductStrDescriptor:0000000000000000 USBD_FS_ProductStrDescriptor
     /tmp/cckYVlMq.s:197    .text.USBD_FS_ProductStrDescriptor:0000000000000014 $d
     /tmp/cckYVlMq.s:204    .text.USBD_FS_ConfigStrDescriptor:0000000000000000 $t
     /tmp/cckYVlMq.s:211    .text.USBD_FS_ConfigStrDescriptor:0000000000000000 USBD_FS_ConfigStrDescriptor
     /tmp/cckYVlMq.s:225    .text.USBD_FS_ConfigStrDescriptor:0000000000000014 $d
     /tmp/cckYVlMq.s:232    .text.USBD_FS_InterfaceStrDescriptor:0000000000000000 $t
     /tmp/cckYVlMq.s:239    .text.USBD_FS_InterfaceStrDescriptor:0000000000000000 USBD_FS_InterfaceStrDescriptor
     /tmp/cckYVlMq.s:253    .text.USBD_FS_InterfaceStrDescriptor:0000000000000014 $d
     /tmp/cckYVlMq.s:309    .data.USBD_StringSerial:0000000000000000 USBD_StringSerial
     /tmp/cckYVlMq.s:267    .bss.USBD_StrDesc:0000000000000000 USBD_StrDesc
     /tmp/cckYVlMq.s:302    .data.USBD_LangIDDesc:0000000000000000 USBD_LangIDDesc
     /tmp/cckYVlMq.s:287    .data.USBD_FS_BOSDesc:0000000000000000 USBD_FS_BOSDesc
     /tmp/cckYVlMq.s:294    .data.USBD_FS_DeviceDesc:0000000000000000 USBD_FS_DeviceDesc
     /tmp/cckYVlMq.s:273    .data.FS_Desc:0000000000000000 FS_Desc
     /tmp/cckYVlMq.s:263    .bss.USBD_StrDesc:0000000000000000 $d
     /tmp/cckYVlMq.s:270    .data.FS_Desc:0000000000000000 $d
     /tmp/cckYVlMq.s:283    .data.USBD_FS_BOSDesc:0000000000000000 $d
     /tmp/cckYVlMq.s:290    .data.USBD_FS_DeviceDesc:0000000000000000 $d
     /tmp/cckYVlMq.s:298    .data.USBD_LangIDDesc:0000000000000000 $d
     /tmp/cckYVlMq.s:305    .data.USBD_StringSerial:0000000000000000 $d

UNDEFINED SYMBOLS
USBD_GetString
