ARM GAS  /tmp/cceRXxHP.s 			page 1


   1              		.cpu cortex-m7
   2              		.eabi_attribute 27, 1
   3              		.eabi_attribute 20, 1
   4              		.eabi_attribute 21, 1
   5              		.eabi_attribute 23, 3
   6              		.eabi_attribute 24, 1
   7              		.eabi_attribute 25, 1
   8              		.eabi_attribute 26, 1
   9              		.eabi_attribute 30, 4
  10              		.eabi_attribute 34, 1
  11              		.eabi_attribute 18, 4
  12              		.file	"usbd_cdc_if.c"
  13              		.text
  14              		.section	.text.CDC_DeInit_FS,"ax",%progbits
  15              		.align	1
  16              		.arch armv7e-m
  17              		.syntax unified
  18              		.thumb
  19              		.thumb_func
  20              		.fpu fpv5-sp-d16
  22              	CDC_DeInit_FS:
  23              		@ args = 0, pretend = 0, frame = 0
  24              		@ frame_needed = 0, uses_anonymous_args = 0
  25              		@ link register save eliminated.
  26 0000 0020     		movs	r0, #0
  27 0002 7047     		bx	lr
  29              		.section	.text.CDC_Control_FS,"ax",%progbits
  30              		.align	1
  31              		.syntax unified
  32              		.thumb
  33              		.thumb_func
  34              		.fpu fpv5-sp-d16
  36              	CDC_Control_FS:
  37              		@ args = 0, pretend = 0, frame = 0
  38              		@ frame_needed = 0, uses_anonymous_args = 0
  39              		@ link register save eliminated.
  40 0000 0020     		movs	r0, #0
  41 0002 7047     		bx	lr
  43              		.section	.text.CDC_TransmitCplt_FS,"ax",%progbits
  44              		.align	1
  45              		.syntax unified
  46              		.thumb
  47              		.thumb_func
  48              		.fpu fpv5-sp-d16
  50              	CDC_TransmitCplt_FS:
  51              		@ args = 0, pretend = 0, frame = 0
  52              		@ frame_needed = 0, uses_anonymous_args = 0
  53              		@ link register save eliminated.
  54 0000 0020     		movs	r0, #0
  55 0002 7047     		bx	lr
  57              		.section	.text.CDC_Receive_FS,"ax",%progbits
  58              		.align	1
  59              		.syntax unified
  60              		.thumb
  61              		.thumb_func
  62              		.fpu fpv5-sp-d16
  64              	CDC_Receive_FS:
ARM GAS  /tmp/cceRXxHP.s 			page 2


  65              		@ args = 0, pretend = 0, frame = 0
  66              		@ frame_needed = 0, uses_anonymous_args = 0
  67 0000 38B5     		push	{r3, r4, r5, lr}
  68 0002 074D     		ldr	r5, .L5
  69 0004 0C46     		mov	r4, r1
  70 0006 0146     		mov	r1, r0
  71 0008 2846     		mov	r0, r5
  72 000a FFF7FEFF 		bl	USBD_CDC_SetRxBuffer
  73 000e 2846     		mov	r0, r5
  74 0010 FFF7FEFF 		bl	USBD_CDC_ReceivePacket
  75 0014 2268     		ldr	r2, [r4]
  76 0016 034B     		ldr	r3, .L5+4
  77 0018 0020     		movs	r0, #0
  78 001a 1A60     		str	r2, [r3]
  79 001c 38BD     		pop	{r3, r4, r5, pc}
  80              	.L6:
  81 001e 00BF     		.align	2
  82              	.L5:
  83 0020 00000000 		.word	hUsbDeviceFS
  84 0024 00000000 		.word	.LANCHOR0
  86              		.section	.text.CDC_Init_FS,"ax",%progbits
  87              		.align	1
  88              		.syntax unified
  89              		.thumb
  90              		.thumb_func
  91              		.fpu fpv5-sp-d16
  93              	CDC_Init_FS:
  94              		@ args = 0, pretend = 0, frame = 0
  95              		@ frame_needed = 0, uses_anonymous_args = 0
  96 0000 10B5     		push	{r4, lr}
  97 0002 064C     		ldr	r4, .L8
  98 0004 0022     		movs	r2, #0
  99 0006 0649     		ldr	r1, .L8+4
 100 0008 2046     		mov	r0, r4
 101 000a FFF7FEFF 		bl	USBD_CDC_SetTxBuffer
 102 000e 0549     		ldr	r1, .L8+8
 103 0010 2046     		mov	r0, r4
 104 0012 FFF7FEFF 		bl	USBD_CDC_SetRxBuffer
 105 0016 0020     		movs	r0, #0
 106 0018 10BD     		pop	{r4, pc}
 107              	.L9:
 108 001a 00BF     		.align	2
 109              	.L8:
 110 001c 00000000 		.word	hUsbDeviceFS
 111 0020 00000000 		.word	.LANCHOR1
 112 0024 00000000 		.word	.LANCHOR2
 114              		.section	.text.CDC_Transmit_FS,"ax",%progbits
 115              		.align	1
 116              		.global	CDC_Transmit_FS
 117              		.syntax unified
 118              		.thumb
 119              		.thumb_func
 120              		.fpu fpv5-sp-d16
 122              	CDC_Transmit_FS:
 123              		@ args = 0, pretend = 0, frame = 0
 124              		@ frame_needed = 0, uses_anonymous_args = 0
 125 0000 0C4B     		ldr	r3, .L18
ARM GAS  /tmp/cceRXxHP.s 			page 3


 126 0002 0A46     		mov	r2, r1
 127 0004 D3F8BC12 		ldr	r1, [r3, #700]
 128 0008 4FF48053 		mov	r3, #4096
 129 000c 10B5     		push	{r4, lr}
 130              	.L12:
 131 000e D1F81442 		ldr	r4, [r1, #532]
 132 0012 0CB1     		cbz	r4, .L11
 133 0014 013B     		subs	r3, r3, #1
 134 0016 FAD1     		bne	.L12
 135              	.L11:
 136 0018 D1F81432 		ldr	r3, [r1, #532]
 137 001c 43B9     		cbnz	r3, .L13
 138 001e 0146     		mov	r1, r0
 139 0020 0448     		ldr	r0, .L18
 140 0022 FFF7FEFF 		bl	USBD_CDC_SetTxBuffer
 141 0026 0348     		ldr	r0, .L18
 142 0028 BDE81040 		pop	{r4, lr}
 143 002c FFF7FEBF 		b	USBD_CDC_TransmitPacket
 144              	.L13:
 145 0030 0120     		movs	r0, #1
 146 0032 10BD     		pop	{r4, pc}
 147              	.L19:
 148              		.align	2
 149              	.L18:
 150 0034 00000000 		.word	hUsbDeviceFS
 152              		.section	.text.cdc_rx_tick,"ax",%progbits
 153              		.align	1
 154              		.global	cdc_rx_tick
 155              		.syntax unified
 156              		.thumb
 157              		.thumb_func
 158              		.fpu fpv5-sp-d16
 160              	cdc_rx_tick:
 161              		@ args = 0, pretend = 0, frame = 0
 162              		@ frame_needed = 0, uses_anonymous_args = 0
 163 0000 10B5     		push	{r4, lr}
 164 0002 044C     		ldr	r4, .L25
 165 0004 2168     		ldr	r1, [r4]
 166 0006 21B1     		cbz	r1, .L20
 167 0008 0348     		ldr	r0, .L25+4
 168 000a FFF7FEFF 		bl	cmd_proc
 169 000e 0023     		movs	r3, #0
 170 0010 2360     		str	r3, [r4]
 171              	.L20:
 172 0012 10BD     		pop	{r4, pc}
 173              	.L26:
 174              		.align	2
 175              	.L25:
 176 0014 00000000 		.word	.LANCHOR0
 177 0018 00000000 		.word	.LANCHOR2
 179              		.global	USBD_Interface_fops_FS
 180              		.global	UserTxBufferFS
 181              		.global	UserRxBufferFS
 182              		.section	.bss.UserRxBufferFS,"aw",%nobits
 183              		.set	.LANCHOR2,. + 0
 186              	UserRxBufferFS:
 187 0000 00000000 		.space	2048
ARM GAS  /tmp/cceRXxHP.s 			page 4


 187      00000000 
 187      00000000 
 187      00000000 
 187      00000000 
 188              		.section	.bss.UserTxBufferFS,"aw",%nobits
 189              		.set	.LANCHOR1,. + 0
 192              	UserTxBufferFS:
 193 0000 00000000 		.space	2048
 193      00000000 
 193      00000000 
 193      00000000 
 193      00000000 
 194              		.section	.bss._rx_recv_flag,"aw",%nobits
 195              		.align	2
 196              		.set	.LANCHOR0,. + 0
 199              	_rx_recv_flag:
 200 0000 00000000 		.space	4
 201              		.section	.data.USBD_Interface_fops_FS,"aw"
 202              		.align	2
 205              	USBD_Interface_fops_FS:
 206 0000 00000000 		.word	CDC_Init_FS
 207 0004 00000000 		.word	CDC_DeInit_FS
 208 0008 00000000 		.word	CDC_Control_FS
 209 000c 00000000 		.word	CDC_Receive_FS
 210 0010 00000000 		.word	CDC_TransmitCplt_FS
 211              		.ident	"GCC: (15:10.3-2021.07-4) 10.3.1 20210621 (release)"
ARM GAS  /tmp/cceRXxHP.s 			page 5

